
shell-2.out:     file format elf64-littleaarch64


Disassembly of section .text:

0000000000000000 <app_entry>:
       0:	58000400 	ldr	x0, 80 <main_stack_end>
       4:	9100001f 	mov	sp, x0
       8:	58000441 	ldr	x1, 90 <relocate_start>
       c:	58000462 	ldr	x2, 98 <relocate_end>
      10:	eb02003f 	cmp	x1, x2
      14:	54000182 	b.cs	44 <.app_entry_zero>  // b.hs, b.nlast
      18:	aa2103e0 	mvn	x0, x1
      1c:	8b020000 	add	x0, x0, x2
      20:	91001000 	add	x0, x0, #0x4
      24:	927ef400 	and	x0, x0, #0xfffffffffffffffc
      28:	58000303 	ldr	x3, 88 <text_end>
      2c:	d2800002 	mov	x2, #0x0                   	// #0

0000000000000030 <.app_entry_relocate_loop>:
      30:	b8636844 	ldr	w4, [x2, x3]
      34:	b8216844 	str	w4, [x2, x1]
      38:	91001042 	add	x2, x2, #0x4
      3c:	eb00005f 	cmp	x2, x0
      40:	54ffff81 	b.ne	30 <.app_entry_relocate_loop>  // b.any

0000000000000044 <.app_entry_zero>:
      44:	580002e1 	ldr	x1, a0 <zero_start>
      48:	58000302 	ldr	x2, a8 <zero_end>
      4c:	eb02003f 	cmp	x1, x2
      50:	540000c2 	b.cs	68 <.app_entry_main>  // b.hs, b.nlast
      54:	91001042 	add	x2, x2, #0x4

0000000000000058 <.app_entry_zero_loop>:
      58:	b900003f 	str	wzr, [x1]
      5c:	91001021 	add	x1, x1, #0x4
      60:	eb02003f 	cmp	x1, x2
      64:	54ffffa1 	b.ne	58 <.app_entry_zero_loop>  // b.any

0000000000000068 <.app_entry_main>:
      68:	10007cc0 	adr	x0, 1000 <vector_table>
      6c:	d518c000 	msr	vbar_el1, x0
      70:	940006ce 	bl	1ba8 <xvisor_virt_v8_init>
      74:	94000685 	bl	1a88 <main>

0000000000000078 <.app_entry_end_loop>:
      78:	14000000 	b	78 <.app_entry_end_loop>
      7c:	d503201f 	nop

0000000000000080 <main_stack_end>:
      80:	4007fff8 	.word	0x4007fff8
      84:	00000000 	.word	0x00000000

0000000000000088 <text_end>:
      88:	00015300 	.word	0x00015300
      8c:	00000000 	.word	0x00000000

0000000000000090 <relocate_start>:
      90:	40000000 	.word	0x40000000
      94:	00000000 	.word	0x00000000

0000000000000098 <relocate_end>:
      98:	400064c0 	.word	0x400064c0
      9c:	00000000 	.word	0x00000000

00000000000000a0 <zero_start>:
      a0:	400064c0 	.word	0x400064c0
      a4:	00000000 	.word	0x00000000

00000000000000a8 <zero_end>:
      a8:	400082d8 	.word	0x400082d8
	...

0000000000001000 <vector_table>:
    1000:	14000274 	b	19d0 <esr_none>
	...
    1080:	14000254 	b	19d0 <esr_none>
	...
    1100:	14000234 	b	19d0 <esr_none>
	...
    1180:	14000214 	b	19d0 <esr_none>
	...
    1200:	14000164 	b	1790 <esr_sync>
	...
    1280:	14000168 	b	1820 <esr_irq>
	...
    1300:	1400016c 	b	18b0 <esr_fiq>
	...
    1380:	14000170 	b	1940 <esr_serror>
	...
    1400:	14000174 	b	19d0 <esr_none>
	...
    1480:	14000154 	b	19d0 <esr_none>
	...
    1500:	14000134 	b	19d0 <esr_none>
	...
    1580:	14000114 	b	19d0 <esr_none>
	...
    1600:	140000f4 	b	19d0 <esr_none>
	...
    1680:	140000d4 	b	19d0 <esr_none>
	...
    1700:	140000b4 	b	19d0 <esr_none>
	...
    1780:	14000094 	b	19d0 <esr_none>
	...

0000000000001790 <esr_sync>:
    1790:	d10403ff 	sub	sp, sp, #0x100
    1794:	a90007e0 	stp	x0, x1, [sp]
    1798:	a9010fe2 	stp	x2, x3, [sp, #16]
    179c:	a90217e4 	stp	x4, x5, [sp, #32]
    17a0:	a9031fe6 	stp	x6, x7, [sp, #48]
    17a4:	a90427e8 	stp	x8, x9, [sp, #64]
    17a8:	a9052fea 	stp	x10, x11, [sp, #80]
    17ac:	a90637ec 	stp	x12, x13, [sp, #96]
    17b0:	a9073fee 	stp	x14, x15, [sp, #112]
    17b4:	a90847f0 	stp	x16, x17, [sp, #128]
    17b8:	a9094ff2 	stp	x18, x19, [sp, #144]
    17bc:	a90a57f4 	stp	x20, x21, [sp, #160]
    17c0:	a90b5ff6 	stp	x22, x23, [sp, #176]
    17c4:	a90c67f8 	stp	x24, x25, [sp, #192]
    17c8:	a90d6ffa 	stp	x26, x27, [sp, #208]
    17cc:	a90e77fc 	stp	x28, x29, [sp, #224]
    17d0:	f9007bfe 	str	x30, [sp, #240]
    17d4:	940000db 	bl	1b40 <c_esr_sync>
    17d8:	f9407bfe 	ldr	x30, [sp, #240]
    17dc:	a94e77fc 	ldp	x28, x29, [sp, #224]
    17e0:	a94d6ffa 	ldp	x26, x27, [sp, #208]
    17e4:	a94c67f8 	ldp	x24, x25, [sp, #192]
    17e8:	a94b5ff6 	ldp	x22, x23, [sp, #176]
    17ec:	a94a57f4 	ldp	x20, x21, [sp, #160]
    17f0:	a9494ff2 	ldp	x18, x19, [sp, #144]
    17f4:	a94847f0 	ldp	x16, x17, [sp, #128]
    17f8:	a9473fee 	ldp	x14, x15, [sp, #112]
    17fc:	a94637ec 	ldp	x12, x13, [sp, #96]
    1800:	a9452fea 	ldp	x10, x11, [sp, #80]
    1804:	a94427e8 	ldp	x8, x9, [sp, #64]
    1808:	a9431fe6 	ldp	x6, x7, [sp, #48]
    180c:	a94217e4 	ldp	x4, x5, [sp, #32]
    1810:	a9410fe2 	ldp	x2, x3, [sp, #16]
    1814:	a94007e0 	ldp	x0, x1, [sp]
    1818:	910403ff 	add	sp, sp, #0x100
    181c:	d69f03e0 	eret

0000000000001820 <esr_irq>:
    1820:	d10403ff 	sub	sp, sp, #0x100
    1824:	a90007e0 	stp	x0, x1, [sp]
    1828:	a9010fe2 	stp	x2, x3, [sp, #16]
    182c:	a90217e4 	stp	x4, x5, [sp, #32]
    1830:	a9031fe6 	stp	x6, x7, [sp, #48]
    1834:	a90427e8 	stp	x8, x9, [sp, #64]
    1838:	a9052fea 	stp	x10, x11, [sp, #80]
    183c:	a90637ec 	stp	x12, x13, [sp, #96]
    1840:	a9073fee 	stp	x14, x15, [sp, #112]
    1844:	a90847f0 	stp	x16, x17, [sp, #128]
    1848:	a9094ff2 	stp	x18, x19, [sp, #144]
    184c:	a90a57f4 	stp	x20, x21, [sp, #160]
    1850:	a90b5ff6 	stp	x22, x23, [sp, #176]
    1854:	a90c67f8 	stp	x24, x25, [sp, #192]
    1858:	a90d6ffa 	stp	x26, x27, [sp, #208]
    185c:	a90e77fc 	stp	x28, x29, [sp, #224]
    1860:	f9007bfe 	str	x30, [sp, #240]
    1864:	940000bb 	bl	1b50 <c_esr_irq>
    1868:	f9407bfe 	ldr	x30, [sp, #240]
    186c:	a94e77fc 	ldp	x28, x29, [sp, #224]
    1870:	a94d6ffa 	ldp	x26, x27, [sp, #208]
    1874:	a94c67f8 	ldp	x24, x25, [sp, #192]
    1878:	a94b5ff6 	ldp	x22, x23, [sp, #176]
    187c:	a94a57f4 	ldp	x20, x21, [sp, #160]
    1880:	a9494ff2 	ldp	x18, x19, [sp, #144]
    1884:	a94847f0 	ldp	x16, x17, [sp, #128]
    1888:	a9473fee 	ldp	x14, x15, [sp, #112]
    188c:	a94637ec 	ldp	x12, x13, [sp, #96]
    1890:	a9452fea 	ldp	x10, x11, [sp, #80]
    1894:	a94427e8 	ldp	x8, x9, [sp, #64]
    1898:	a9431fe6 	ldp	x6, x7, [sp, #48]
    189c:	a94217e4 	ldp	x4, x5, [sp, #32]
    18a0:	a9410fe2 	ldp	x2, x3, [sp, #16]
    18a4:	a94007e0 	ldp	x0, x1, [sp]
    18a8:	910403ff 	add	sp, sp, #0x100
    18ac:	d69f03e0 	eret

00000000000018b0 <esr_fiq>:
    18b0:	d10403ff 	sub	sp, sp, #0x100
    18b4:	a90007e0 	stp	x0, x1, [sp]
    18b8:	a9010fe2 	stp	x2, x3, [sp, #16]
    18bc:	a90217e4 	stp	x4, x5, [sp, #32]
    18c0:	a9031fe6 	stp	x6, x7, [sp, #48]
    18c4:	a90427e8 	stp	x8, x9, [sp, #64]
    18c8:	a9052fea 	stp	x10, x11, [sp, #80]
    18cc:	a90637ec 	stp	x12, x13, [sp, #96]
    18d0:	a9073fee 	stp	x14, x15, [sp, #112]
    18d4:	a90847f0 	stp	x16, x17, [sp, #128]
    18d8:	a9094ff2 	stp	x18, x19, [sp, #144]
    18dc:	a90a57f4 	stp	x20, x21, [sp, #160]
    18e0:	a90b5ff6 	stp	x22, x23, [sp, #176]
    18e4:	a90c67f8 	stp	x24, x25, [sp, #192]
    18e8:	a90d6ffa 	stp	x26, x27, [sp, #208]
    18ec:	a90e77fc 	stp	x28, x29, [sp, #224]
    18f0:	f9007bfe 	str	x30, [sp, #240]
    18f4:	940000a5 	bl	1b88 <c_esr_fiq>
    18f8:	f9407bfe 	ldr	x30, [sp, #240]
    18fc:	a94e77fc 	ldp	x28, x29, [sp, #224]
    1900:	a94d6ffa 	ldp	x26, x27, [sp, #208]
    1904:	a94c67f8 	ldp	x24, x25, [sp, #192]
    1908:	a94b5ff6 	ldp	x22, x23, [sp, #176]
    190c:	a94a57f4 	ldp	x20, x21, [sp, #160]
    1910:	a9494ff2 	ldp	x18, x19, [sp, #144]
    1914:	a94847f0 	ldp	x16, x17, [sp, #128]
    1918:	a9473fee 	ldp	x14, x15, [sp, #112]
    191c:	a94637ec 	ldp	x12, x13, [sp, #96]
    1920:	a9452fea 	ldp	x10, x11, [sp, #80]
    1924:	a94427e8 	ldp	x8, x9, [sp, #64]
    1928:	a9431fe6 	ldp	x6, x7, [sp, #48]
    192c:	a94217e4 	ldp	x4, x5, [sp, #32]
    1930:	a9410fe2 	ldp	x2, x3, [sp, #16]
    1934:	a94007e0 	ldp	x0, x1, [sp]
    1938:	910403ff 	add	sp, sp, #0x100
    193c:	d69f03e0 	eret

0000000000001940 <esr_serror>:
    1940:	d10403ff 	sub	sp, sp, #0x100
    1944:	a90007e0 	stp	x0, x1, [sp]
    1948:	a9010fe2 	stp	x2, x3, [sp, #16]
    194c:	a90217e4 	stp	x4, x5, [sp, #32]
    1950:	a9031fe6 	stp	x6, x7, [sp, #48]
    1954:	a90427e8 	stp	x8, x9, [sp, #64]
    1958:	a9052fea 	stp	x10, x11, [sp, #80]
    195c:	a90637ec 	stp	x12, x13, [sp, #96]
    1960:	a9073fee 	stp	x14, x15, [sp, #112]
    1964:	a90847f0 	stp	x16, x17, [sp, #128]
    1968:	a9094ff2 	stp	x18, x19, [sp, #144]
    196c:	a90a57f4 	stp	x20, x21, [sp, #160]
    1970:	a90b5ff6 	stp	x22, x23, [sp, #176]
    1974:	a90c67f8 	stp	x24, x25, [sp, #192]
    1978:	a90d6ffa 	stp	x26, x27, [sp, #208]
    197c:	a90e77fc 	stp	x28, x29, [sp, #224]
    1980:	f9007bfe 	str	x30, [sp, #240]
    1984:	94000085 	bl	1b98 <c_esr_serror>
    1988:	f9407bfe 	ldr	x30, [sp, #240]
    198c:	a94e77fc 	ldp	x28, x29, [sp, #224]
    1990:	a94d6ffa 	ldp	x26, x27, [sp, #208]
    1994:	a94c67f8 	ldp	x24, x25, [sp, #192]
    1998:	a94b5ff6 	ldp	x22, x23, [sp, #176]
    199c:	a94a57f4 	ldp	x20, x21, [sp, #160]
    19a0:	a9494ff2 	ldp	x18, x19, [sp, #144]
    19a4:	a94847f0 	ldp	x16, x17, [sp, #128]
    19a8:	a9473fee 	ldp	x14, x15, [sp, #112]
    19ac:	a94637ec 	ldp	x12, x13, [sp, #96]
    19b0:	a9452fea 	ldp	x10, x11, [sp, #80]
    19b4:	a94427e8 	ldp	x8, x9, [sp, #64]
    19b8:	a9431fe6 	ldp	x6, x7, [sp, #48]
    19bc:	a94217e4 	ldp	x4, x5, [sp, #32]
    19c0:	a9410fe2 	ldp	x2, x3, [sp, #16]
    19c4:	a94007e0 	ldp	x0, x1, [sp]
    19c8:	910403ff 	add	sp, sp, #0x100
    19cc:	d69f03e0 	eret

00000000000019d0 <esr_none>:
    19d0:	d10403ff 	sub	sp, sp, #0x100
    19d4:	a90007e0 	stp	x0, x1, [sp]
    19d8:	a9010fe2 	stp	x2, x3, [sp, #16]
    19dc:	a90217e4 	stp	x4, x5, [sp, #32]
    19e0:	a9031fe6 	stp	x6, x7, [sp, #48]
    19e4:	a90427e8 	stp	x8, x9, [sp, #64]
    19e8:	a9052fea 	stp	x10, x11, [sp, #80]
    19ec:	a90637ec 	stp	x12, x13, [sp, #96]
    19f0:	a9073fee 	stp	x14, x15, [sp, #112]
    19f4:	a90847f0 	stp	x16, x17, [sp, #128]
    19f8:	a9094ff2 	stp	x18, x19, [sp, #144]
    19fc:	a90a57f4 	stp	x20, x21, [sp, #160]
    1a00:	a90b5ff6 	stp	x22, x23, [sp, #176]
    1a04:	a90c67f8 	stp	x24, x25, [sp, #192]
    1a08:	a90d6ffa 	stp	x26, x27, [sp, #208]
    1a0c:	a90e77fc 	stp	x28, x29, [sp, #224]
    1a10:	f9007bfe 	str	x30, [sp, #240]
    1a14:	94000047 	bl	1b30 <c_esr_none>
    1a18:	f9407bfe 	ldr	x30, [sp, #240]
    1a1c:	a94e77fc 	ldp	x28, x29, [sp, #224]
    1a20:	a94d6ffa 	ldp	x26, x27, [sp, #208]
    1a24:	a94c67f8 	ldp	x24, x25, [sp, #192]
    1a28:	a94b5ff6 	ldp	x22, x23, [sp, #176]
    1a2c:	a94a57f4 	ldp	x20, x21, [sp, #160]
    1a30:	a9494ff2 	ldp	x18, x19, [sp, #144]
    1a34:	a94847f0 	ldp	x16, x17, [sp, #128]
    1a38:	a9473fee 	ldp	x14, x15, [sp, #112]
    1a3c:	a94637ec 	ldp	x12, x13, [sp, #96]
    1a40:	a9452fea 	ldp	x10, x11, [sp, #80]
    1a44:	a94427e8 	ldp	x8, x9, [sp, #64]
    1a48:	a9431fe6 	ldp	x6, x7, [sp, #48]
    1a4c:	a94217e4 	ldp	x4, x5, [sp, #32]
    1a50:	a9410fe2 	ldp	x2, x3, [sp, #16]
    1a54:	a94007e0 	ldp	x0, x1, [sp]
    1a58:	910403ff 	add	sp, sp, #0x100
    1a5c:	d69f03e0 	eret

0000000000001a60 <cmd_hello_world_cb>:
    1a60:	a9bf7bfd 	stp	x29, x30, [sp, #-16]!
    1a64:	aa0203e0 	mov	x0, x2
    1a68:	f01fffe1 	adrp	x1, 40000000 <__ram_begin>
    1a6c:	91026021 	add	x1, x1, #0x98
    1a70:	910003fd 	mov	x29, sp
    1a74:	94002c15 	bl	cac8 <std_fprintf>
    1a78:	52800000 	mov	w0, #0x0                   	// #0
    1a7c:	a8c17bfd 	ldp	x29, x30, [sp], #16
    1a80:	d65f03c0 	ret
    1a84:	00000000 	.inst	0x00000000 ; undefined

0000000000001a88 <main>:
    1a88:	a9be7bfd 	stp	x29, x30, [sp, #-32]!
    1a8c:	910003fd 	mov	x29, sp
    1a90:	f9000bf3 	str	x19, [sp, #16]
    1a94:	94000e3d 	bl	5388 <sys_start>
    1a98:	94000f00 	bl	5698 <sys_get_info>
    1a9c:	b0200033 	adrp	x19, 40006000 <null+0x928>
    1aa0:	94002b66 	bl	c838 <std_printf>
    1aa4:	91130273 	add	x19, x19, #0x4c0
    1aa8:	90000002 	adrp	x2, 1000 <vector_table>
    1aac:	f01fffe1 	adrp	x1, 40000000 <__ram_begin>
    1ab0:	91298042 	add	x2, x2, #0xa60
    1ab4:	9102a021 	add	x1, x1, #0xa8
    1ab8:	d2800003 	mov	x3, #0x0                   	// #0
    1abc:	aa1303e0 	mov	x0, x19
    1ac0:	94002620 	bl	b340 <fs_command_init>
    1ac4:	aa1303e0 	mov	x0, x19
    1ac8:	94002650 	bl	b408 <fs_command_register>
    1acc:	94000ee3 	bl	5658 <sys_get_stdin>
    1ad0:	aa0003f3 	mov	x19, x0
    1ad4:	94000ee5 	bl	5668 <sys_get_stdout>
    1ad8:	aa0003e2 	mov	x2, x0
    1adc:	aa1303e1 	mov	x1, x19
    1ae0:	d2800006 	mov	x6, #0x0                   	// #0
    1ae4:	d2800005 	mov	x5, #0x0                   	// #0
    1ae8:	d2800004 	mov	x4, #0x0                   	// #0
    1aec:	d2800003 	mov	x3, #0x0                   	// #0
    1af0:	b0200033 	adrp	x19, 40006000 <null+0x928>
    1af4:	91138273 	add	x19, x19, #0x4e0
    1af8:	aa1303e0 	mov	x0, x19
    1afc:	940017fb 	bl	7ae8 <shell_init>
    1b00:	aa1303e0 	mov	x0, x19
    1b04:	94001813 	bl	7b50 <shell_main>
    1b08:	52800000 	mov	w0, #0x0                   	// #0
    1b0c:	f9400bf3 	ldr	x19, [sp, #16]
    1b10:	a8c27bfd 	ldp	x29, x30, [sp], #32
    1b14:	d65f03c0 	ret

0000000000001b18 <board_pin_string_to_device_index>:
    1b18:	12800240 	mov	w0, #0xffffffed            	// #-19
    1b1c:	d65f03c0 	ret

0000000000001b20 <isr_none>:
    1b20:	f01fffe0 	adrp	x0, 40000000 <__ram_begin>
    1b24:	9113e000 	add	x0, x0, #0x4f8
    1b28:	14000e4c 	b	5458 <sys_panic>
    1b2c:	00000000 	.inst	0x00000000 ; undefined

0000000000001b30 <c_esr_none>:
    1b30:	f01fffe0 	adrp	x0, 40000000 <__ram_begin>
    1b34:	91032000 	add	x0, x0, #0xc8
    1b38:	14000e48 	b	5458 <sys_panic>
    1b3c:	00000000 	.inst	0x00000000 ; undefined

0000000000001b40 <c_esr_sync>:
    1b40:	f01fffe0 	adrp	x0, 40000000 <__ram_begin>
    1b44:	9103a000 	add	x0, x0, #0xe8
    1b48:	14000e44 	b	5458 <sys_panic>
    1b4c:	00000000 	.inst	0x00000000 ; undefined

0000000000001b50 <c_esr_irq>:
    1b50:	a9be7bfd 	stp	x29, x30, [sp, #-32]!
    1b54:	f01fffe0 	adrp	x0, 40000000 <__ram_begin>
    1b58:	9103e000 	add	x0, x0, #0xf8
    1b5c:	910003fd 	mov	x29, sp
    1b60:	a90153f3 	stp	x19, x20, [sp, #16]
    1b64:	d2a10033 	mov	x19, #0x8010000             	// #134283264
    1b68:	b9400e74 	ldr	w20, [x19, #12]
    1b6c:	92402681 	and	x1, x20, #0x3ff
    1b70:	f8617800 	ldr	x0, [x0, x1, lsl #3]
    1b74:	d63f0000 	blr	x0
    1b78:	b9001274 	str	w20, [x19, #16]
    1b7c:	a94153f3 	ldp	x19, x20, [sp, #16]
    1b80:	a8c27bfd 	ldp	x29, x30, [sp], #32
    1b84:	d65f03c0 	ret

0000000000001b88 <c_esr_fiq>:
    1b88:	f01fffe0 	adrp	x0, 40000000 <__ram_begin>
    1b8c:	9102e000 	add	x0, x0, #0xb8
    1b90:	14000e32 	b	5458 <sys_panic>
    1b94:	00000000 	.inst	0x00000000 ; undefined

0000000000001b98 <c_esr_serror>:
    1b98:	f01fffe0 	adrp	x0, 40000000 <__ram_begin>
    1b9c:	91036000 	add	x0, x0, #0xd8
    1ba0:	14000e2e 	b	5458 <sys_panic>
    1ba4:	00000000 	.inst	0x00000000 ; undefined

0000000000001ba8 <xvisor_virt_v8_init>:
    1ba8:	d2a10001 	mov	x1, #0x8000000             	// #134217728
    1bac:	aa0103e2 	mov	x2, x1
    1bb0:	52800100 	mov	w0, #0x8                   	// #8
    1bb4:	3200c3e3 	mov	w3, #0x1010101             	// #16843009
    1bb8:	b90c083f 	str	wzr, [x1, #3080]
    1bbc:	b90c0c3f 	str	wzr, [x1, #3084]
    1bc0:	b90c103f 	str	wzr, [x1, #3088]
    1bc4:	b90c143f 	str	wzr, [x1, #3092]
    1bc8:	93407c01 	sxtw	x1, w0
    1bcc:	11000400 	add	w0, w0, #0x1
    1bd0:	91080021 	add	x1, x1, #0x200
    1bd4:	7100601f 	cmp	w0, #0x18
    1bd8:	b8217843 	str	w3, [x2, x1, lsl #2]
    1bdc:	54ffff61 	b.ne	1bc8 <xvisor_virt_v8_init+0x20>  // b.any
    1be0:	d2a10020 	mov	x0, #0x8010000             	// #134283264
    1be4:	52800021 	mov	w1, #0x1                   	// #1
    1be8:	b9000041 	str	w1, [x2]
    1bec:	52801e02 	mov	w2, #0xf0                  	// #240
    1bf0:	b9000402 	str	w2, [x0, #4]
    1bf4:	b9000001 	str	w1, [x0]
    1bf8:	d65f03c0 	ret
    1bfc:	00000000 	.inst	0x00000000 ; undefined

0000000000001c00 <__locale_ctype_ptr>:
    1c00:	f01fffe0 	adrp	x0, 40000000 <__ram_begin>
    1c04:	f9400000 	ldr	x0, [x0]
    1c08:	d65f03c0 	ret
    1c0c:	00000000 	.inst	0x00000000 ; undefined

0000000000001c10 <memcpy>:
    1c10:	aa010003 	orr	x3, x0, x1
    1c14:	f240047f 	tst	x3, #0x3
    1c18:	54000281 	b.ne	1c68 <memcpy+0x58>  // b.any
    1c1c:	d342fc44 	lsr	x4, x2, #2
    1c20:	b4000344 	cbz	x4, 1c88 <memcpy+0x78>
    1c24:	d37ef484 	lsl	x4, x4, #2
    1c28:	d2800003 	mov	x3, #0x0                   	// #0
    1c2c:	d503201f 	nop
    1c30:	b8636825 	ldr	w5, [x1, x3]
    1c34:	b8236805 	str	w5, [x0, x3]
    1c38:	91001063 	add	x3, x3, #0x4
    1c3c:	eb03009f 	cmp	x4, x3
    1c40:	54ffff81 	b.ne	1c30 <memcpy+0x20>  // b.any
    1c44:	8b040021 	add	x1, x1, x4
    1c48:	8b040004 	add	x4, x0, x4
    1c4c:	36080062 	tbz	w2, #1, 1c58 <memcpy+0x48>
    1c50:	78402423 	ldrh	w3, [x1], #2
    1c54:	78002483 	strh	w3, [x4], #2
    1c58:	36000062 	tbz	w2, #0, 1c64 <memcpy+0x54>
    1c5c:	39400021 	ldrb	w1, [x1]
    1c60:	39000081 	strb	w1, [x4]
    1c64:	d65f03c0 	ret
    1c68:	d2800003 	mov	x3, #0x0                   	// #0
    1c6c:	b4ffffc2 	cbz	x2, 1c64 <memcpy+0x54>
    1c70:	38636824 	ldrb	w4, [x1, x3]
    1c74:	38236804 	strb	w4, [x0, x3]
    1c78:	91000463 	add	x3, x3, #0x1
    1c7c:	eb02007f 	cmp	x3, x2
    1c80:	54ffff81 	b.ne	1c70 <memcpy+0x60>  // b.any
    1c84:	d65f03c0 	ret
    1c88:	aa0003e4 	mov	x4, x0
    1c8c:	360ffe62 	tbz	w2, #1, 1c58 <memcpy+0x48>
    1c90:	17fffff0 	b	1c50 <memcpy+0x40>
    1c94:	00000000 	.inst	0x00000000 ; undefined

0000000000001c98 <memmove>:
    1c98:	eb00003f 	cmp	x1, x0
    1c9c:	54000182 	b.cs	1ccc <memmove+0x34>  // b.hs, b.nlast
    1ca0:	8b020023 	add	x3, x1, x2
    1ca4:	eb03001f 	cmp	x0, x3
    1ca8:	54000122 	b.cs	1ccc <memmove+0x34>  // b.hs, b.nlast
    1cac:	b40000e2 	cbz	x2, 1cc8 <memmove+0x30>
    1cb0:	d1000421 	sub	x1, x1, #0x1
    1cb4:	d1000404 	sub	x4, x0, #0x1
    1cb8:	38626823 	ldrb	w3, [x1, x2]
    1cbc:	38226883 	strb	w3, [x4, x2]
    1cc0:	f1000442 	subs	x2, x2, #0x1
    1cc4:	54ffffa1 	b.ne	1cb8 <memmove+0x20>  // b.any
    1cc8:	d65f03c0 	ret
    1ccc:	17ffffd1 	b	1c10 <memcpy>

0000000000001cd0 <memset>:
    1cd0:	35000201 	cbnz	w1, 1d10 <memset+0x40>
    1cd4:	f240041f 	tst	x0, #0x3
    1cd8:	540001c1 	b.ne	1d10 <memset+0x40>  // b.any
    1cdc:	d342fc43 	lsr	x3, x2, #2
    1ce0:	b4000283 	cbz	x3, 1d30 <memset+0x60>
    1ce4:	8b030803 	add	x3, x0, x3, lsl #2
    1ce8:	aa0003e1 	mov	x1, x0
    1cec:	d503201f 	nop
    1cf0:	b800443f 	str	wzr, [x1], #4
    1cf4:	eb03003f 	cmp	x1, x3
    1cf8:	54ffffc1 	b.ne	1cf0 <memset+0x20>  // b.any
    1cfc:	36080042 	tbz	w2, #1, 1d04 <memset+0x34>
    1d00:	7800247f 	strh	wzr, [x3], #2
    1d04:	36000042 	tbz	w2, #0, 1d0c <memset+0x3c>
    1d08:	3900007f 	strb	wzr, [x3]
    1d0c:	d65f03c0 	ret
    1d10:	b4ffffe2 	cbz	x2, 1d0c <memset+0x3c>
    1d14:	12001c21 	and	w1, w1, #0xff
    1d18:	8b020002 	add	x2, x0, x2
    1d1c:	aa0003e3 	mov	x3, x0
    1d20:	38001461 	strb	w1, [x3], #1
    1d24:	eb02007f 	cmp	x3, x2
    1d28:	54ffffc1 	b.ne	1d20 <memset+0x50>  // b.any
    1d2c:	d65f03c0 	ret
    1d30:	aa0003e3 	mov	x3, x0
    1d34:	360ffe82 	tbz	w2, #1, 1d04 <memset+0x34>
    1d38:	17fffff2 	b	1d00 <memset+0x30>
    1d3c:	00000000 	.inst	0x00000000 ; undefined

0000000000001d40 <memcmp>:
    1d40:	d2800003 	mov	x3, #0x0                   	// #0
    1d44:	14000007 	b	1d60 <memcmp+0x20>
    1d48:	38636805 	ldrb	w5, [x0, x3]
    1d4c:	38636824 	ldrb	w4, [x1, x3]
    1d50:	91000463 	add	x3, x3, #0x1
    1d54:	6b0400bf 	cmp	w5, w4
    1d58:	540000c3 	b.cc	1d70 <memcmp+0x30>  // b.lo, b.ul, b.last
    1d5c:	540000e8 	b.hi	1d78 <memcmp+0x38>  // b.pmore
    1d60:	eb03005f 	cmp	x2, x3
    1d64:	54ffff21 	b.ne	1d48 <memcmp+0x8>  // b.any
    1d68:	52800000 	mov	w0, #0x0                   	// #0
    1d6c:	d65f03c0 	ret
    1d70:	12800000 	mov	w0, #0xffffffff            	// #-1
    1d74:	d65f03c0 	ret
    1d78:	52800020 	mov	w0, #0x1                   	// #1
    1d7c:	d65f03c0 	ret

0000000000001d80 <strlen>:
    1d80:	39400001 	ldrb	w1, [x0]
    1d84:	34000101 	cbz	w1, 1da4 <strlen+0x24>
    1d88:	52800001 	mov	w1, #0x0                   	// #0
    1d8c:	d503201f 	nop
    1d90:	38401c02 	ldrb	w2, [x0, #1]!
    1d94:	11000421 	add	w1, w1, #0x1
    1d98:	35ffffc2 	cbnz	w2, 1d90 <strlen+0x10>
    1d9c:	93407c20 	sxtw	x0, w1
    1da0:	d65f03c0 	ret
    1da4:	d2800000 	mov	x0, #0x0                   	// #0
    1da8:	d65f03c0 	ret
    1dac:	00000000 	.inst	0x00000000 ; undefined

0000000000001db0 <strcmp>:
    1db0:	d2800002 	mov	x2, #0x0                   	// #0
    1db4:	14000004 	b	1dc4 <strcmp+0x14>
    1db8:	34000164 	cbz	w4, 1de4 <strcmp+0x34>
    1dbc:	54000183 	b.cc	1dec <strcmp+0x3c>  // b.lo, b.ul, b.last
    1dc0:	54000128 	b.hi	1de4 <strcmp+0x34>  // b.pmore
    1dc4:	38626803 	ldrb	w3, [x0, x2]
    1dc8:	38626824 	ldrb	w4, [x1, x2]
    1dcc:	91000442 	add	x2, x2, #0x1
    1dd0:	6b04007f 	cmp	w3, w4
    1dd4:	35ffff23 	cbnz	w3, 1db8 <strcmp+0x8>
    1dd8:	7100009f 	cmp	w4, #0x0
    1ddc:	5a830060 	cinv	w0, w3, ne  // ne = any
    1de0:	d65f03c0 	ret
    1de4:	52800020 	mov	w0, #0x1                   	// #1
    1de8:	d65f03c0 	ret
    1dec:	12800000 	mov	w0, #0xffffffff            	// #-1
    1df0:	d65f03c0 	ret
    1df4:	00000000 	.inst	0x00000000 ; undefined

0000000000001df8 <strncmp>:
    1df8:	14000009 	b	1e1c <strncmp+0x24>
    1dfc:	39400024 	ldrb	w4, [x1]
    1e00:	91000421 	add	x1, x1, #0x1
    1e04:	6b04007f 	cmp	w3, w4
    1e08:	340001e4 	cbz	w4, 1e44 <strncmp+0x4c>
    1e0c:	b4000182 	cbz	x2, 1e3c <strncmp+0x44>
    1e10:	d1000442 	sub	x2, x2, #0x1
    1e14:	540001e3 	b.cc	1e50 <strncmp+0x58>  // b.lo, b.ul, b.last
    1e18:	54000208 	b.hi	1e58 <strncmp+0x60>  // b.pmore
    1e1c:	39400003 	ldrb	w3, [x0]
    1e20:	91000400 	add	x0, x0, #0x1
    1e24:	35fffec3 	cbnz	w3, 1dfc <strncmp+0x4>
    1e28:	b40000a2 	cbz	x2, 1e3c <strncmp+0x44>
    1e2c:	39400020 	ldrb	w0, [x1]
    1e30:	7100001f 	cmp	w0, #0x0
    1e34:	5a830060 	cinv	w0, w3, ne  // ne = any
    1e38:	d65f03c0 	ret
    1e3c:	52800000 	mov	w0, #0x0                   	// #0
    1e40:	d65f03c0 	ret
    1e44:	f100005f 	cmp	x2, #0x0
    1e48:	1a9f07e0 	cset	w0, ne  // ne = any
    1e4c:	d65f03c0 	ret
    1e50:	12800000 	mov	w0, #0xffffffff            	// #-1
    1e54:	d65f03c0 	ret
    1e58:	52800020 	mov	w0, #0x1                   	// #1
    1e5c:	d65f03c0 	ret

0000000000001e60 <strcpy>:
    1e60:	39400022 	ldrb	w2, [x1]
    1e64:	aa0003e3 	mov	x3, x0
    1e68:	340000a2 	cbz	w2, 1e7c <strcpy+0x1c>
    1e6c:	d503201f 	nop
    1e70:	38001462 	strb	w2, [x3], #1
    1e74:	38401c22 	ldrb	w2, [x1, #1]!
    1e78:	35ffffc2 	cbnz	w2, 1e70 <strcpy+0x10>
    1e7c:	3900007f 	strb	wzr, [x3]
    1e80:	d65f03c0 	ret
    1e84:	00000000 	.inst	0x00000000 ; undefined

0000000000001e88 <strncpy>:
    1e88:	39400023 	ldrb	w3, [x1]
    1e8c:	aa0003e4 	mov	x4, x0
    1e90:	340000e3 	cbz	w3, 1eac <strncpy+0x24>
    1e94:	d503201f 	nop
    1e98:	b40000e2 	cbz	x2, 1eb4 <strncpy+0x2c>
    1e9c:	38001483 	strb	w3, [x4], #1
    1ea0:	d1000442 	sub	x2, x2, #0x1
    1ea4:	38401c23 	ldrb	w3, [x1, #1]!
    1ea8:	35ffff83 	cbnz	w3, 1e98 <strncpy+0x10>
    1eac:	b4000042 	cbz	x2, 1eb4 <strncpy+0x2c>
    1eb0:	3900009f 	strb	wzr, [x4]
    1eb4:	d65f03c0 	ret

0000000000001eb8 <strstr>:
    1eb8:	39400026 	ldrb	w6, [x1]
    1ebc:	aa0003e5 	mov	x5, x0
    1ec0:	340004a6 	cbz	w6, 1f54 <strstr+0x9c>
    1ec4:	aa0103e8 	mov	x8, x1
    1ec8:	52800000 	mov	w0, #0x0                   	// #0
    1ecc:	d503201f 	nop
    1ed0:	38401c22 	ldrb	w2, [x1, #1]!
    1ed4:	11000400 	add	w0, w0, #0x1
    1ed8:	35ffffc2 	cbnz	w2, 1ed0 <strstr+0x18>
    1edc:	93407c07 	sxtw	x7, w0
    1ee0:	394000a0 	ldrb	w0, [x5]
    1ee4:	340000e0 	cbz	w0, 1f00 <strstr+0x48>
    1ee8:	6b0000df 	cmp	w6, w0
    1eec:	d503201f 	nop
    1ef0:	540000c0 	b.eq	1f08 <strstr+0x50>  // b.none
    1ef4:	38401ca1 	ldrb	w1, [x5, #1]!
    1ef8:	6b0100df 	cmp	w6, w1
    1efc:	35ffffa1 	cbnz	w1, 1ef0 <strstr+0x38>
    1f00:	d2800000 	mov	x0, #0x0                   	// #0
    1f04:	d65f03c0 	ret
    1f08:	a9bf7bfd 	stp	x29, x30, [sp, #-16]!
    1f0c:	910003fd 	mov	x29, sp
    1f10:	aa0703e2 	mov	x2, x7
    1f14:	aa0803e1 	mov	x1, x8
    1f18:	aa0503e0 	mov	x0, x5
    1f1c:	97ffffb7 	bl	1df8 <strncmp>
    1f20:	340001c0 	cbz	w0, 1f58 <strstr+0xa0>
    1f24:	910004a5 	add	x5, x5, #0x1
    1f28:	394000a0 	ldrb	w0, [x5]
    1f2c:	340000e0 	cbz	w0, 1f48 <strstr+0x90>
    1f30:	6b0000df 	cmp	w6, w0
    1f34:	d503201f 	nop
    1f38:	54fffec0 	b.eq	1f10 <strstr+0x58>  // b.none
    1f3c:	38401ca1 	ldrb	w1, [x5, #1]!
    1f40:	6b0100df 	cmp	w6, w1
    1f44:	35ffffa1 	cbnz	w1, 1f38 <strstr+0x80>
    1f48:	d2800000 	mov	x0, #0x0                   	// #0
    1f4c:	a8c17bfd 	ldp	x29, x30, [sp], #16
    1f50:	d65f03c0 	ret
    1f54:	d65f03c0 	ret
    1f58:	aa0503e0 	mov	x0, x5
    1f5c:	a8c17bfd 	ldp	x29, x30, [sp], #16
    1f60:	d65f03c0 	ret
    1f64:	00000000 	.inst	0x00000000 ; undefined

0000000000001f68 <circular_heap_init>:
    1f68:	a9bd7bfd 	stp	x29, x30, [sp, #-48]!
    1f6c:	910003fd 	mov	x29, sp
    1f70:	a90153f3 	stp	x19, x20, [sp, #16]
    1f74:	aa0003f3 	mov	x19, x0
    1f78:	f90013f5 	str	x21, [sp, #32]
    1f7c:	aa0103f4 	mov	x20, x1
    1f80:	aa0203f5 	mov	x21, x2
    1f84:	b4000340 	cbz	x0, 1fec <circular_heap_init+0x84>
    1f88:	b4000234 	cbz	x20, 1fcc <circular_heap_init+0x64>
    1f8c:	b5000115 	cbnz	x21, 1fac <circular_heap_init+0x44>
    1f90:	f01fffe0 	adrp	x0, 40000000 <__ram_begin>
    1f94:	9126c000 	add	x0, x0, #0x9b0
    1f98:	94002a28 	bl	c838 <std_printf>
    1f9c:	f01fffe1 	adrp	x1, 40000000 <__ram_begin>
    1fa0:	528002c0 	mov	w0, #0x16                  	// #22
    1fa4:	f9400421 	ldr	x1, [x1, #8]
    1fa8:	d63f0020 	blr	x1
    1fac:	8b150295 	add	x21, x20, x21
    1fb0:	a9005674 	stp	x20, x21, [x19]
    1fb4:	a9015274 	stp	x20, x20, [x19, #16]
    1fb8:	52800000 	mov	w0, #0x0                   	// #0
    1fbc:	a94153f3 	ldp	x19, x20, [sp, #16]
    1fc0:	f94013f5 	ldr	x21, [sp, #32]
    1fc4:	a8c37bfd 	ldp	x29, x30, [sp], #48
    1fc8:	d65f03c0 	ret
    1fcc:	f01fffe0 	adrp	x0, 40000000 <__ram_begin>
    1fd0:	91254000 	add	x0, x0, #0x950
    1fd4:	94002a19 	bl	c838 <std_printf>
    1fd8:	f01fffe1 	adrp	x1, 40000000 <__ram_begin>
    1fdc:	528002c0 	mov	w0, #0x16                  	// #22
    1fe0:	f9400421 	ldr	x1, [x1, #8]
    1fe4:	d63f0020 	blr	x1
    1fe8:	17ffffe9 	b	1f8c <circular_heap_init+0x24>
    1fec:	f01fffe0 	adrp	x0, 40000000 <__ram_begin>
    1ff0:	9123c000 	add	x0, x0, #0x8f0
    1ff4:	94002a11 	bl	c838 <std_printf>
    1ff8:	f01fffe1 	adrp	x1, 40000000 <__ram_begin>
    1ffc:	528002c0 	mov	w0, #0x16                  	// #22
    2000:	f9400421 	ldr	x1, [x1, #8]
    2004:	d63f0020 	blr	x1
    2008:	b5fffc34 	cbnz	x20, 1f8c <circular_heap_init+0x24>
    200c:	17fffff0 	b	1fcc <circular_heap_init+0x64>

0000000000002010 <circular_heap_alloc>:
    2010:	a9be7bfd 	stp	x29, x30, [sp, #-32]!
    2014:	910003fd 	mov	x29, sp
    2018:	a90153f3 	stp	x19, x20, [sp, #16]
    201c:	aa0003f4 	mov	x20, x0
    2020:	aa0103f3 	mov	x19, x1
    2024:	b4000460 	cbz	x0, 20b0 <circular_heap_alloc+0xa0>
    2028:	b4000353 	cbz	x19, 2090 <circular_heap_alloc+0x80>
    202c:	a9410a80 	ldp	x0, x2, [x20, #16]
    2030:	91002261 	add	x1, x19, #0x8
    2034:	927df021 	and	x1, x1, #0xfffffffffffffff8
    2038:	b27d0021 	orr	x1, x1, #0x8
    203c:	eb02001f 	cmp	x0, x2
    2040:	540001a3 	b.cc	2074 <circular_heap_alloc+0x64>  // b.lo, b.ul, b.last
    2044:	f9400683 	ldr	x3, [x20, #8]
    2048:	cb000063 	sub	x3, x3, x0
    204c:	eb01007f 	cmp	x3, x1
    2050:	54000109 	b.ls	2070 <circular_heap_alloc+0x60>  // b.plast
    2054:	8b010002 	add	x2, x0, x1
    2058:	f9000a82 	str	x2, [x20, #16]
    205c:	b4000120 	cbz	x0, 2080 <circular_heap_alloc+0x70>
    2060:	f8008401 	str	x1, [x0], #8
    2064:	a94153f3 	ldp	x19, x20, [sp, #16]
    2068:	a8c27bfd 	ldp	x29, x30, [sp], #32
    206c:	d65f03c0 	ret
    2070:	f9400280 	ldr	x0, [x20]
    2074:	cb000042 	sub	x2, x2, x0
    2078:	eb01005f 	cmp	x2, x1
    207c:	54fffec8 	b.hi	2054 <circular_heap_alloc+0x44>  // b.pmore
    2080:	d2800000 	mov	x0, #0x0                   	// #0
    2084:	a94153f3 	ldp	x19, x20, [sp, #16]
    2088:	a8c27bfd 	ldp	x29, x30, [sp], #32
    208c:	d65f03c0 	ret
    2090:	d01fffe0 	adrp	x0, 40000000 <__ram_begin>
    2094:	9119c000 	add	x0, x0, #0x670
    2098:	940029e8 	bl	c838 <std_printf>
    209c:	d01fffe1 	adrp	x1, 40000000 <__ram_begin>
    20a0:	528002c0 	mov	w0, #0x16                  	// #22
    20a4:	f9400421 	ldr	x1, [x1, #8]
    20a8:	d63f0020 	blr	x1
    20ac:	17ffffe0 	b	202c <circular_heap_alloc+0x1c>
    20b0:	d01fffe0 	adrp	x0, 40000000 <__ram_begin>
    20b4:	91184000 	add	x0, x0, #0x610
    20b8:	940029e0 	bl	c838 <std_printf>
    20bc:	d01fffe1 	adrp	x1, 40000000 <__ram_begin>
    20c0:	528002c0 	mov	w0, #0x16                  	// #22
    20c4:	f9400421 	ldr	x1, [x1, #8]
    20c8:	d63f0020 	blr	x1
    20cc:	17ffffd7 	b	2028 <circular_heap_alloc+0x18>

00000000000020d0 <circular_heap_free>:
    20d0:	a9bd7bfd 	stp	x29, x30, [sp, #-48]!
    20d4:	910003fd 	mov	x29, sp
    20d8:	a90153f3 	stp	x19, x20, [sp, #16]
    20dc:	aa0003f3 	mov	x19, x0
    20e0:	f90013f5 	str	x21, [sp, #32]
    20e4:	aa0103f5 	mov	x21, x1
    20e8:	b4000540 	cbz	x0, 2190 <circular_heap_free+0xc0>
    20ec:	b4000635 	cbz	x21, 21b0 <circular_heap_free+0xe0>
    20f0:	f9400260 	ldr	x0, [x19]
    20f4:	eb15001f 	cmp	x0, x21
    20f8:	54000782 	b.cs	21e8 <circular_heap_free+0x118>  // b.hs, b.nlast
    20fc:	f9400660 	ldr	x0, [x19, #8]
    2100:	eb15001f 	cmp	x0, x21
    2104:	54000369 	b.ls	2170 <circular_heap_free+0xa0>  // b.plast
    2108:	f9400e61 	ldr	x1, [x19, #24]
    210c:	d10022b4 	sub	x20, x21, #0x8
    2110:	f9400260 	ldr	x0, [x19]
    2114:	eb14003f 	cmp	x1, x20
    2118:	54000160 	b.eq	2144 <circular_heap_free+0x74>  // b.none
    211c:	eb00029f 	cmp	x20, x0
    2120:	54000180 	b.eq	2150 <circular_heap_free+0x80>  // b.none
    2124:	d01fffe0 	adrp	x0, 40000000 <__ram_begin>
    2128:	91218000 	add	x0, x0, #0x860
    212c:	940029c3 	bl	c838 <std_printf>
    2130:	d01fffe1 	adrp	x1, 40000000 <__ram_begin>
    2134:	528002c0 	mov	w0, #0x16                  	// #22
    2138:	f9400421 	ldr	x1, [x1, #8]
    213c:	d63f0020 	blr	x1
    2140:	f9400260 	ldr	x0, [x19]
    2144:	eb00029f 	cmp	x20, x0
    2148:	54000040 	b.eq	2150 <circular_heap_free+0x80>  // b.none
    214c:	f9400e74 	ldr	x20, [x19, #24]
    2150:	f85f82a1 	ldur	x1, [x21, #-8]
    2154:	52800000 	mov	w0, #0x0                   	// #0
    2158:	f94013f5 	ldr	x21, [sp, #32]
    215c:	8b010294 	add	x20, x20, x1
    2160:	f9000e74 	str	x20, [x19, #24]
    2164:	a94153f3 	ldp	x19, x20, [sp, #16]
    2168:	a8c37bfd 	ldp	x29, x30, [sp], #48
    216c:	d65f03c0 	ret
    2170:	d01fffe0 	adrp	x0, 40000000 <__ram_begin>
    2174:	911fe000 	add	x0, x0, #0x7f8
    2178:	940029b0 	bl	c838 <std_printf>
    217c:	d01fffe1 	adrp	x1, 40000000 <__ram_begin>
    2180:	528002c0 	mov	w0, #0x16                  	// #22
    2184:	f9400421 	ldr	x1, [x1, #8]
    2188:	d63f0020 	blr	x1
    218c:	17ffffdf 	b	2108 <circular_heap_free+0x38>
    2190:	d01ffff4 	adrp	x20, 40000000 <__ram_begin>
    2194:	d01fffe0 	adrp	x0, 40000000 <__ram_begin>
    2198:	911b2000 	add	x0, x0, #0x6c8
    219c:	940029a7 	bl	c838 <std_printf>
    21a0:	f9400681 	ldr	x1, [x20, #8]
    21a4:	528002c0 	mov	w0, #0x16                  	// #22
    21a8:	d63f0020 	blr	x1
    21ac:	b5fffa35 	cbnz	x21, 20f0 <circular_heap_free+0x20>
    21b0:	d01ffff4 	adrp	x20, 40000000 <__ram_begin>
    21b4:	d01fffe0 	adrp	x0, 40000000 <__ram_begin>
    21b8:	911cc000 	add	x0, x0, #0x730
    21bc:	9400299f 	bl	c838 <std_printf>
    21c0:	f9400681 	ldr	x1, [x20, #8]
    21c4:	528002c0 	mov	w0, #0x16                  	// #22
    21c8:	d63f0020 	blr	x1
    21cc:	d01fffe0 	adrp	x0, 40000000 <__ram_begin>
    21d0:	911e4000 	add	x0, x0, #0x790
    21d4:	94002999 	bl	c838 <std_printf>
    21d8:	f9400681 	ldr	x1, [x20, #8]
    21dc:	528002c0 	mov	w0, #0x16                  	// #22
    21e0:	d63f0020 	blr	x1
    21e4:	17ffffc6 	b	20fc <circular_heap_free+0x2c>
    21e8:	d01ffff4 	adrp	x20, 40000000 <__ram_begin>
    21ec:	17fffff8 	b	21cc <circular_heap_free+0xfc>

00000000000021f0 <circular_buffer_init>:
    21f0:	a9bd7bfd 	stp	x29, x30, [sp, #-48]!
    21f4:	910003fd 	mov	x29, sp
    21f8:	a90153f3 	stp	x19, x20, [sp, #16]
    21fc:	aa0003f3 	mov	x19, x0
    2200:	f90013f5 	str	x21, [sp, #32]
    2204:	aa0203f4 	mov	x20, x2
    2208:	aa0103f5 	mov	x21, x1
    220c:	b4000320 	cbz	x0, 2270 <circular_buffer_init+0x80>
    2210:	b4000215 	cbz	x21, 2250 <circular_buffer_init+0x60>
    2214:	b5000114 	cbnz	x20, 2234 <circular_buffer_init+0x44>
    2218:	d01fffe0 	adrp	x0, 40000000 <__ram_begin>
    221c:	912b6000 	add	x0, x0, #0xad8
    2220:	94002986 	bl	c838 <std_printf>
    2224:	d01fffe1 	adrp	x1, 40000000 <__ram_begin>
    2228:	528002c0 	mov	w0, #0x16                  	// #22
    222c:	f9400421 	ldr	x1, [x1, #8]
    2230:	d63f0020 	blr	x1
    2234:	a9005275 	stp	x21, x20, [x19]
    2238:	52800000 	mov	w0, #0x0                   	// #0
    223c:	a9017e7f 	stp	xzr, xzr, [x19, #16]
    2240:	a94153f3 	ldp	x19, x20, [sp, #16]
    2244:	f94013f5 	ldr	x21, [sp, #32]
    2248:	a8c37bfd 	ldp	x29, x30, [sp], #48
    224c:	d65f03c0 	ret
    2250:	d01fffe0 	adrp	x0, 40000000 <__ram_begin>
    2254:	9129c000 	add	x0, x0, #0xa70
    2258:	94002978 	bl	c838 <std_printf>
    225c:	d01fffe1 	adrp	x1, 40000000 <__ram_begin>
    2260:	528002c0 	mov	w0, #0x16                  	// #22
    2264:	f9400421 	ldr	x1, [x1, #8]
    2268:	d63f0020 	blr	x1
    226c:	17ffffea 	b	2214 <circular_buffer_init+0x24>
    2270:	d01fffe0 	adrp	x0, 40000000 <__ram_begin>
    2274:	91282000 	add	x0, x0, #0xa08
    2278:	94002970 	bl	c838 <std_printf>
    227c:	d01fffe1 	adrp	x1, 40000000 <__ram_begin>
    2280:	528002c0 	mov	w0, #0x16                  	// #22
    2284:	f9400421 	ldr	x1, [x1, #8]
    2288:	d63f0020 	blr	x1
    228c:	b5fffc55 	cbnz	x21, 2214 <circular_buffer_init+0x24>
    2290:	17fffff0 	b	2250 <circular_buffer_init+0x60>
    2294:	00000000 	.inst	0x00000000 ; undefined

0000000000002298 <circular_buffer_unused_size>:
    2298:	a9be7bfd 	stp	x29, x30, [sp, #-32]!
    229c:	910003fd 	mov	x29, sp
    22a0:	f9000bf3 	str	x19, [sp, #16]
    22a4:	aa0003f3 	mov	x19, x0
    22a8:	b4000140 	cbz	x0, 22d0 <circular_buffer_unused_size+0x38>
    22ac:	a9410261 	ldp	x1, x0, [x19, #16]
    22b0:	d1000400 	sub	x0, x0, #0x1
    22b4:	eb010000 	subs	x0, x0, x1
    22b8:	54000065 	b.pl	22c4 <circular_buffer_unused_size+0x2c>  // b.nfrst
    22bc:	f9400661 	ldr	x1, [x19, #8]
    22c0:	8b010000 	add	x0, x0, x1
    22c4:	f9400bf3 	ldr	x19, [sp, #16]
    22c8:	a8c27bfd 	ldp	x29, x30, [sp], #32
    22cc:	d65f03c0 	ret
    22d0:	d01fffe0 	adrp	x0, 40000000 <__ram_begin>
    22d4:	91302000 	add	x0, x0, #0xc08
    22d8:	94002958 	bl	c838 <std_printf>
    22dc:	d01fffe1 	adrp	x1, 40000000 <__ram_begin>
    22e0:	528002c0 	mov	w0, #0x16                  	// #22
    22e4:	f9400421 	ldr	x1, [x1, #8]
    22e8:	d63f0020 	blr	x1
    22ec:	17fffff0 	b	22ac <circular_buffer_unused_size+0x14>

00000000000022f0 <circular_buffer_write>:
    22f0:	a9bc7bfd 	stp	x29, x30, [sp, #-64]!
    22f4:	910003fd 	mov	x29, sp
    22f8:	a90153f3 	stp	x19, x20, [sp, #16]
    22fc:	aa0003f3 	mov	x19, x0
    2300:	a9025bf5 	stp	x21, x22, [sp, #32]
    2304:	aa0203f4 	mov	x20, x2
    2308:	aa0103f6 	mov	x22, x1
    230c:	b4000520 	cbz	x0, 23b0 <circular_buffer_write+0xc0>
    2310:	b4000616 	cbz	x22, 23d0 <circular_buffer_write+0xe0>
    2314:	aa1303e0 	mov	x0, x19
    2318:	97ffffe0 	bl	2298 <circular_buffer_unused_size>
    231c:	a9408e75 	ldp	x21, x3, [x19, #8]
    2320:	eb14001f 	cmp	x0, x20
    2324:	9a949014 	csel	x20, x0, x20, ls  // ls = plast
    2328:	cb0302b5 	sub	x21, x21, x3
    232c:	eb1402bf 	cmp	x21, x20
    2330:	540001c9 	b.ls	2368 <circular_buffer_write+0x78>  // b.plast
    2334:	f9400260 	ldr	x0, [x19]
    2338:	aa1403e2 	mov	x2, x20
    233c:	aa1603e1 	mov	x1, x22
    2340:	8b030000 	add	x0, x0, x3
    2344:	97fffe33 	bl	1c10 <memcpy>
    2348:	f9400a60 	ldr	x0, [x19, #16]
    234c:	a9425bf5 	ldp	x21, x22, [sp, #32]
    2350:	8b140000 	add	x0, x0, x20
    2354:	f9000a60 	str	x0, [x19, #16]
    2358:	aa1403e0 	mov	x0, x20
    235c:	a94153f3 	ldp	x19, x20, [sp, #16]
    2360:	a8c47bfd 	ldp	x29, x30, [sp], #64
    2364:	d65f03c0 	ret
    2368:	f9400260 	ldr	x0, [x19]
    236c:	aa1503e2 	mov	x2, x21
    2370:	f9001bb7 	str	x23, [x29, #48]
    2374:	aa1603e1 	mov	x1, x22
    2378:	8b030000 	add	x0, x0, x3
    237c:	97fffe25 	bl	1c10 <memcpy>
    2380:	f9400260 	ldr	x0, [x19]
    2384:	cb150297 	sub	x23, x20, x21
    2388:	aa1703e2 	mov	x2, x23
    238c:	8b1502c1 	add	x1, x22, x21
    2390:	97fffe20 	bl	1c10 <memcpy>
    2394:	f9000a77 	str	x23, [x19, #16]
    2398:	aa1403e0 	mov	x0, x20
    239c:	f9401bb7 	ldr	x23, [x29, #48]
    23a0:	a94153f3 	ldp	x19, x20, [sp, #16]
    23a4:	a9425bf5 	ldp	x21, x22, [sp, #32]
    23a8:	a8c47bfd 	ldp	x29, x30, [sp], #64
    23ac:	d65f03c0 	ret
    23b0:	d01fffe0 	adrp	x0, 40000000 <__ram_begin>
    23b4:	9133a000 	add	x0, x0, #0xce8
    23b8:	94002920 	bl	c838 <std_printf>
    23bc:	d01fffe1 	adrp	x1, 40000000 <__ram_begin>
    23c0:	528002c0 	mov	w0, #0x16                  	// #22
    23c4:	f9400421 	ldr	x1, [x1, #8]
    23c8:	d63f0020 	blr	x1
    23cc:	b5fffa56 	cbnz	x22, 2314 <circular_buffer_write+0x24>
    23d0:	d01fffe0 	adrp	x0, 40000000 <__ram_begin>
    23d4:	91354000 	add	x0, x0, #0xd50
    23d8:	94002918 	bl	c838 <std_printf>
    23dc:	d01fffe1 	adrp	x1, 40000000 <__ram_begin>
    23e0:	528002c0 	mov	w0, #0x16                  	// #22
    23e4:	f9400421 	ldr	x1, [x1, #8]
    23e8:	d63f0020 	blr	x1
    23ec:	17ffffca 	b	2314 <circular_buffer_write+0x24>

00000000000023f0 <circular_buffer_used_size>:
    23f0:	a9be7bfd 	stp	x29, x30, [sp, #-32]!
    23f4:	910003fd 	mov	x29, sp
    23f8:	a90153f3 	stp	x19, x20, [sp, #16]
    23fc:	aa0003f4 	mov	x20, x0
    2400:	b4000120 	cbz	x0, 2424 <circular_buffer_used_size+0x34>
    2404:	f9400693 	ldr	x19, [x20, #8]
    2408:	aa1403e0 	mov	x0, x20
    240c:	97ffffa3 	bl	2298 <circular_buffer_unused_size>
    2410:	d1000673 	sub	x19, x19, #0x1
    2414:	cb000260 	sub	x0, x19, x0
    2418:	a94153f3 	ldp	x19, x20, [sp, #16]
    241c:	a8c27bfd 	ldp	x29, x30, [sp], #32
    2420:	d65f03c0 	ret
    2424:	d01fffe0 	adrp	x0, 40000000 <__ram_begin>
    2428:	9131e000 	add	x0, x0, #0xc78
    242c:	94002903 	bl	c838 <std_printf>
    2430:	d01fffe1 	adrp	x1, 40000000 <__ram_begin>
    2434:	528002c0 	mov	w0, #0x16                  	// #22
    2438:	f9400421 	ldr	x1, [x1, #8]
    243c:	d63f0020 	blr	x1
    2440:	f9400693 	ldr	x19, [x20, #8]
    2444:	aa1403e0 	mov	x0, x20
    2448:	97ffff94 	bl	2298 <circular_buffer_unused_size>
    244c:	d1000673 	sub	x19, x19, #0x1
    2450:	cb000260 	sub	x0, x19, x0
    2454:	a94153f3 	ldp	x19, x20, [sp, #16]
    2458:	a8c27bfd 	ldp	x29, x30, [sp], #32
    245c:	d65f03c0 	ret

0000000000002460 <circular_buffer_read>:
    2460:	a9bc7bfd 	stp	x29, x30, [sp, #-64]!
    2464:	910003fd 	mov	x29, sp
    2468:	a90153f3 	stp	x19, x20, [sp, #16]
    246c:	aa0003f3 	mov	x19, x0
    2470:	a9025bf5 	stp	x21, x22, [sp, #32]
    2474:	aa0203f4 	mov	x20, x2
    2478:	aa0103f6 	mov	x22, x1
    247c:	b4000540 	cbz	x0, 2524 <circular_buffer_read+0xc4>
    2480:	b4000656 	cbz	x22, 2548 <circular_buffer_read+0xe8>
    2484:	aa1303e0 	mov	x0, x19
    2488:	97ffffda 	bl	23f0 <circular_buffer_used_size>
    248c:	f9400675 	ldr	x21, [x19, #8]
    2490:	eb14001f 	cmp	x0, x20
    2494:	f9400e61 	ldr	x1, [x19, #24]
    2498:	9a949014 	csel	x20, x0, x20, ls  // ls = plast
    249c:	cb0102b5 	sub	x21, x21, x1
    24a0:	eb1402bf 	cmp	x21, x20
    24a4:	540001c9 	b.ls	24dc <circular_buffer_read+0x7c>  // b.plast
    24a8:	f9400263 	ldr	x3, [x19]
    24ac:	aa1403e2 	mov	x2, x20
    24b0:	aa1603e0 	mov	x0, x22
    24b4:	8b010061 	add	x1, x3, x1
    24b8:	97fffdd6 	bl	1c10 <memcpy>
    24bc:	f9400e60 	ldr	x0, [x19, #24]
    24c0:	a9425bf5 	ldp	x21, x22, [sp, #32]
    24c4:	8b140000 	add	x0, x0, x20
    24c8:	f9000e60 	str	x0, [x19, #24]
    24cc:	aa1403e0 	mov	x0, x20
    24d0:	a94153f3 	ldp	x19, x20, [sp, #16]
    24d4:	a8c47bfd 	ldp	x29, x30, [sp], #64
    24d8:	d65f03c0 	ret
    24dc:	f9400263 	ldr	x3, [x19]
    24e0:	aa1503e2 	mov	x2, x21
    24e4:	f9001bb7 	str	x23, [x29, #48]
    24e8:	aa1603e0 	mov	x0, x22
    24ec:	8b010061 	add	x1, x3, x1
    24f0:	cb150297 	sub	x23, x20, x21
    24f4:	97fffdc7 	bl	1c10 <memcpy>
    24f8:	f9400261 	ldr	x1, [x19]
    24fc:	aa1703e2 	mov	x2, x23
    2500:	8b1502c0 	add	x0, x22, x21
    2504:	97fffdc3 	bl	1c10 <memcpy>
    2508:	f9000e77 	str	x23, [x19, #24]
    250c:	aa1403e0 	mov	x0, x20
    2510:	f9401bb7 	ldr	x23, [x29, #48]
    2514:	a94153f3 	ldp	x19, x20, [sp, #16]
    2518:	a9425bf5 	ldp	x21, x22, [sp, #32]
    251c:	a8c47bfd 	ldp	x29, x30, [sp], #64
    2520:	d65f03c0 	ret
    2524:	d01fffe0 	adrp	x0, 40000000 <__ram_begin>
    2528:	912ce000 	add	x0, x0, #0xb38
    252c:	940028c3 	bl	c838 <std_printf>
    2530:	d01fffe1 	adrp	x1, 40000000 <__ram_begin>
    2534:	528002c0 	mov	w0, #0x16                  	// #22
    2538:	f9400421 	ldr	x1, [x1, #8]
    253c:	d63f0020 	blr	x1
    2540:	b5fffa36 	cbnz	x22, 2484 <circular_buffer_read+0x24>
    2544:	d503201f 	nop
    2548:	d01fffe0 	adrp	x0, 40000000 <__ram_begin>
    254c:	912e8000 	add	x0, x0, #0xba0
    2550:	940028ba 	bl	c838 <std_printf>
    2554:	d01fffe1 	adrp	x1, 40000000 <__ram_begin>
    2558:	528002c0 	mov	w0, #0x16                  	// #22
    255c:	f9400421 	ldr	x1, [x1, #8]
    2560:	d63f0020 	blr	x1
    2564:	17ffffc8 	b	2484 <circular_buffer_read+0x24>

0000000000002568 <cmd_set_log_mask_cb>:
    2568:	a9bb7bfd 	stp	x29, x30, [sp, #-80]!
    256c:	71000c1f 	cmp	w0, #0x3
    2570:	910003fd 	mov	x29, sp
    2574:	f9001bf7 	str	x23, [sp, #48]
    2578:	aa0203f7 	mov	x23, x2
    257c:	540004a1 	b.ne	2610 <cmd_set_log_mask_cb+0xa8>  // b.any
    2580:	f9000fb4 	str	x20, [x29, #24]
    2584:	aa0103f4 	mov	x20, x1
    2588:	910123a1 	add	x1, x29, #0x48
    258c:	f9400a80 	ldr	x0, [x20, #16]
    2590:	94002a44 	bl	cea0 <std_strtol>
    2594:	b40005c0 	cbz	x0, 264c <cmd_set_log_mask_cb+0xe4>
    2598:	a9025bb5 	stp	x21, x22, [x29, #32]
    259c:	90200035 	adrp	x21, 40006000 <null+0x928>
    25a0:	912722a0 	add	x0, x21, #0x9c8
    25a4:	f9400694 	ldr	x20, [x20, #8]
    25a8:	52800016 	mov	w22, #0x0                   	// #0
    25ac:	f9000bb3 	str	x19, [x29, #16]
    25b0:	91006013 	add	x19, x0, #0x18
    25b4:	9100c000 	add	x0, x0, #0x30
    25b8:	9400254c 	bl	bae8 <mutex_lock>
    25bc:	d503201f 	nop
    25c0:	f9400260 	ldr	x0, [x19]
    25c4:	aa1403e1 	mov	x1, x20
    25c8:	97fffdfa 	bl	1db0 <strcmp>
    25cc:	350000a0 	cbnz	w0, 25e0 <cmd_set_log_mask_cb+0x78>
    25d0:	f94027a0 	ldr	x0, [x29, #72]
    25d4:	52800036 	mov	w22, #0x1                   	// #1
    25d8:	12001000 	and	w0, w0, #0x1f
    25dc:	39002260 	strb	w0, [x19, #8]
    25e0:	f9400a73 	ldr	x19, [x19, #16]
    25e4:	b5fffef3 	cbnz	x19, 25c0 <cmd_set_log_mask_cb+0x58>
    25e8:	912722a0 	add	x0, x21, #0x9c8
    25ec:	9100c000 	add	x0, x0, #0x30
    25f0:	94002568 	bl	bb90 <mutex_unlock>
    25f4:	52800000 	mov	w0, #0x0                   	// #0
    25f8:	34000196 	cbz	w22, 2628 <cmd_set_log_mask_cb+0xc0>
    25fc:	a94153b3 	ldp	x19, x20, [x29, #16]
    2600:	a9425bb5 	ldp	x21, x22, [x29, #32]
    2604:	f9401bf7 	ldr	x23, [sp, #48]
    2608:	a8c57bfd 	ldp	x29, x30, [sp], #80
    260c:	d65f03c0 	ret
    2610:	d01fffe1 	adrp	x1, 40000000 <__ram_begin>
    2614:	aa0203e0 	mov	x0, x2
    2618:	91386021 	add	x1, x1, #0xe18
    261c:	9400292b 	bl	cac8 <std_fprintf>
    2620:	128002a0 	mov	w0, #0xffffffea            	// #-22
    2624:	17fffff8 	b	2604 <cmd_set_log_mask_cb+0x9c>
    2628:	aa1403e2 	mov	x2, x20
    262c:	d01fffe1 	adrp	x1, 40000000 <__ram_begin>
    2630:	aa1703e0 	mov	x0, x23
    2634:	91396021 	add	x1, x1, #0xe58
    2638:	94002924 	bl	cac8 <std_fprintf>
    263c:	128002a0 	mov	w0, #0xffffffea            	// #-22
    2640:	a94153b3 	ldp	x19, x20, [x29, #16]
    2644:	a9425bb5 	ldp	x21, x22, [x29, #32]
    2648:	17ffffef 	b	2604 <cmd_set_log_mask_cb+0x9c>
    264c:	f9400a82 	ldr	x2, [x20, #16]
    2650:	d01fffe1 	adrp	x1, 40000000 <__ram_begin>
    2654:	aa1703e0 	mov	x0, x23
    2658:	91390021 	add	x1, x1, #0xe40
    265c:	9400291b 	bl	cac8 <std_fprintf>
    2660:	f9400fb4 	ldr	x20, [x29, #24]
    2664:	128002a0 	mov	w0, #0xffffffea            	// #-22
    2668:	17ffffe7 	b	2604 <cmd_set_log_mask_cb+0x9c>
    266c:	00000000 	.inst	0x00000000 ; undefined

0000000000002670 <cmd_list_cb>:
    2670:	a9bd7bfd 	stp	x29, x30, [sp, #-48]!
    2674:	7100041f 	cmp	w0, #0x1
    2678:	910003fd 	mov	x29, sp
    267c:	f90013f5 	str	x21, [sp, #32]
    2680:	aa0203f5 	mov	x21, x2
    2684:	540003e1 	b.ne	2700 <cmd_list_cb+0x90>  // b.any
    2688:	a90153b3 	stp	x19, x20, [x29, #16]
    268c:	d01ffff4 	adrp	x20, 40000000 <__ram_begin>
    2690:	f90017b6 	str	x22, [x29, #40]
    2694:	90200036 	adrp	x22, 40006000 <null+0x928>
    2698:	912722d3 	add	x19, x22, #0x9c8
    269c:	9137a294 	add	x20, x20, #0xde8
    26a0:	9100c260 	add	x0, x19, #0x30
    26a4:	94002511 	bl	bae8 <mutex_lock>
    26a8:	d01fffe1 	adrp	x1, 40000000 <__ram_begin>
    26ac:	aa1503e0 	mov	x0, x21
    26b0:	91006273 	add	x19, x19, #0x18
    26b4:	91372021 	add	x1, x1, #0xdc8
    26b8:	94002904 	bl	cac8 <std_fprintf>
    26bc:	d503201f 	nop
    26c0:	39402263 	ldrb	w3, [x19, #8]
    26c4:	aa1403e1 	mov	x1, x20
    26c8:	f9400262 	ldr	x2, [x19]
    26cc:	aa1503e0 	mov	x0, x21
    26d0:	940028fe 	bl	cac8 <std_fprintf>
    26d4:	f9400a73 	ldr	x19, [x19, #16]
    26d8:	b5ffff53 	cbnz	x19, 26c0 <cmd_list_cb+0x50>
    26dc:	912722c0 	add	x0, x22, #0x9c8
    26e0:	9100c000 	add	x0, x0, #0x30
    26e4:	9400252b 	bl	bb90 <mutex_unlock>
    26e8:	a94153b3 	ldp	x19, x20, [x29, #16]
    26ec:	52800000 	mov	w0, #0x0                   	// #0
    26f0:	f94017b6 	ldr	x22, [x29, #40]
    26f4:	f94013f5 	ldr	x21, [sp, #32]
    26f8:	a8c37bfd 	ldp	x29, x30, [sp], #48
    26fc:	d65f03c0 	ret
    2700:	d01fffe1 	adrp	x1, 40000000 <__ram_begin>
    2704:	aa0203e0 	mov	x0, x2
    2708:	9136e021 	add	x1, x1, #0xdb8
    270c:	940028ef 	bl	cac8 <std_fprintf>
    2710:	128002a0 	mov	w0, #0xffffffea            	// #-22
    2714:	17fffff8 	b	26f4 <cmd_list_cb+0x84>

0000000000002718 <log_module_init>:
    2718:	90200021 	adrp	x1, 40006000 <null+0x928>
    271c:	39e72020 	ldrsb	w0, [x1, #2504]
    2720:	7100041f 	cmp	w0, #0x1
    2724:	54000660 	b.eq	27f0 <log_module_init+0xd8>  // b.none
    2728:	a9be7bfd 	stp	x29, x30, [sp, #-32]!
    272c:	52800022 	mov	w2, #0x1                   	// #1
    2730:	910003fd 	mov	x29, sp
    2734:	a90153f3 	stp	x19, x20, [sp, #16]
    2738:	91272033 	add	x19, x1, #0x9c8
    273c:	39272022 	strb	w2, [x1, #2504]
    2740:	9100c260 	add	x0, x19, #0x30
    2744:	940024e1 	bl	bac8 <mutex_init>
    2748:	91010274 	add	x20, x19, #0x40
    274c:	94000bc7 	bl	5668 <sys_get_stdout>
    2750:	a900fe60 	stp	x0, xzr, [x19, #8]
    2754:	528001e4 	mov	w4, #0xf                   	// #15
    2758:	90000002 	adrp	x2, 2000 <circular_heap_init+0x98>
    275c:	d01fffe1 	adrp	x1, 40000000 <__ram_begin>
    2760:	91276042 	add	x2, x2, #0x9d8
    2764:	913b4021 	add	x1, x1, #0xed0
    2768:	d2800003 	mov	x3, #0x0                   	// #0
    276c:	d01fffe0 	adrp	x0, 40000000 <__ram_begin>
    2770:	913b2000 	add	x0, x0, #0xec8
    2774:	f9000e60 	str	x0, [x19, #24]
    2778:	aa1403e0 	mov	x0, x20
    277c:	39008264 	strb	w4, [x19, #32]
    2780:	f900167f 	str	xzr, [x19, #40]
    2784:	940022ef 	bl	b340 <fs_command_init>
    2788:	aa1403e0 	mov	x0, x20
    278c:	9400231f 	bl	b408 <fs_command_register>
    2790:	90000002 	adrp	x2, 2000 <circular_heap_init+0x98>
    2794:	d01fffe1 	adrp	x1, 40000000 <__ram_begin>
    2798:	9119c042 	add	x2, x2, #0x670
    279c:	913ba021 	add	x1, x1, #0xee8
    27a0:	91018274 	add	x20, x19, #0x60
    27a4:	d2800003 	mov	x3, #0x0                   	// #0
    27a8:	aa1403e0 	mov	x0, x20
    27ac:	940022e5 	bl	b340 <fs_command_init>
    27b0:	aa1403e0 	mov	x0, x20
    27b4:	94002315 	bl	b408 <fs_command_register>
    27b8:	90000002 	adrp	x2, 2000 <circular_heap_init+0x98>
    27bc:	d01fffe1 	adrp	x1, 40000000 <__ram_begin>
    27c0:	9115a042 	add	x2, x2, #0x568
    27c4:	913be021 	add	x1, x1, #0xef8
    27c8:	91020273 	add	x19, x19, #0x80
    27cc:	d2800003 	mov	x3, #0x0                   	// #0
    27d0:	aa1303e0 	mov	x0, x19
    27d4:	940022db 	bl	b340 <fs_command_init>
    27d8:	aa1303e0 	mov	x0, x19
    27dc:	9400230b 	bl	b408 <fs_command_register>
    27e0:	52800000 	mov	w0, #0x0                   	// #0
    27e4:	a94153f3 	ldp	x19, x20, [sp, #16]
    27e8:	a8c27bfd 	ldp	x29, x30, [sp], #32
    27ec:	d65f03c0 	ret
    27f0:	52800000 	mov	w0, #0x0                   	// #0
    27f4:	d65f03c0 	ret

00000000000027f8 <log_set_default_handler_output_channel>:
    27f8:	90200021 	adrp	x1, 40006000 <null+0x928>
    27fc:	f904e820 	str	x0, [x1, #2512]
    2800:	52800000 	mov	w0, #0x0                   	// #0
    2804:	d65f03c0 	ret

0000000000002808 <log_object_print>:
    2808:	a9b37bfd 	stp	x29, x30, [sp, #-208]!
    280c:	910003fd 	mov	x29, sp
    2810:	f9000bf3 	str	x19, [sp, #16]
    2814:	aa0003f3 	mov	x19, x0
    2818:	a9025bf5 	stp	x21, x22, [sp, #32]
    281c:	2a0103f6 	mov	w22, w1
    2820:	f9001bf7 	str	x23, [sp, #48]
    2824:	aa0203f7 	mov	x23, x2
    2828:	a90a93a3 	stp	x3, x4, [x29, #168]
    282c:	a90b9ba5 	stp	x5, x6, [x29, #184]
    2830:	f90067a7 	str	x7, [x29, #200]
    2834:	b4000a82 	cbz	x2, 2984 <log_object_print+0x17c>
    2838:	b4000b93 	cbz	x19, 29a8 <log_object_print+0x1a0>
    283c:	39402260 	ldrb	w0, [x19, #8]
    2840:	1ad62800 	asr	w0, w0, w22
    2844:	36000920 	tbz	w0, #0, 2968 <log_object_print+0x160>
    2848:	f9400260 	ldr	x0, [x19]
    284c:	f9000fb4 	str	x20, [x29, #24]
    2850:	a903e7b8 	stp	x24, x25, [x29, #56]
    2854:	a904efba 	stp	x26, x27, [x29, #72]
    2858:	f9002fbc 	str	x28, [x29, #88]
    285c:	f90037a0 	str	x0, [x29, #104]
    2860:	90200020 	adrp	x0, 40006000 <null+0x928>
    2864:	91272013 	add	x19, x0, #0x9c8
    2868:	9100c260 	add	x0, x19, #0x30
    286c:	d01ffff9 	adrp	x25, 40000000 <__ram_begin>
    2870:	d01ffff8 	adrp	x24, 40000000 <__ram_begin>
    2874:	91002273 	add	x19, x19, #0x8
    2878:	9139e339 	add	x25, x25, #0xe78
    287c:	913dc318 	add	x24, x24, #0xf70
    2880:	52800015 	mov	w21, #0x0                   	// #0
    2884:	94002499 	bl	bae8 <mutex_lock>
    2888:	9101e3a0 	add	x0, x29, #0x78
    288c:	94000f07 	bl	64a8 <time_get>
    2890:	f9400274 	ldr	x20, [x19]
    2894:	52800021 	mov	w1, #0x1                   	// #1
    2898:	aa1403e0 	mov	x0, x20
    289c:	b4000474 	cbz	x20, 2928 <log_object_print+0x120>
    28a0:	9400244e 	bl	b9d8 <chan_control>
    28a4:	f876db3c 	ldr	x28, [x25, w22, sxtw #3]
    28a8:	d2869b60 	mov	x0, #0x34db                	// #13531
    28ac:	b9807fa3 	ldrsw	x3, [x29, #124]
    28b0:	f2baf6c0 	movk	x0, #0xd7b6, lsl #16
    28b4:	b9407bba 	ldr	w26, [x29, #120]
    28b8:	f2dbd040 	movk	x0, #0xde82, lsl #32
    28bc:	110006b5 	add	w21, w21, #0x1
    28c0:	f2e86360 	movk	x0, #0x431b, lsl #48
    28c4:	9bc07c63 	umulh	x3, x3, x0
    28c8:	d352fc7b 	lsr	x27, x3, #18
    28cc:	94000c27 	bl	5968 <thrd_get_name>
    28d0:	aa0003e5 	mov	x5, x0
    28d4:	f94037a6 	ldr	x6, [x29, #104]
    28d8:	aa1c03e4 	mov	x4, x28
    28dc:	aa1b03e3 	mov	x3, x27
    28e0:	2a1a03e2 	mov	w2, w26
    28e4:	aa1803e1 	mov	x1, x24
    28e8:	aa1403e0 	mov	x0, x20
    28ec:	94002877 	bl	cac8 <std_fprintf>
    28f0:	b9009fbf 	str	wzr, [x29, #156]
    28f4:	910283a3 	add	x3, x29, #0xa0
    28f8:	910343a0 	add	x0, x29, #0xd0
    28fc:	910203a2 	add	x2, x29, #0x80
    2900:	a90803a0 	stp	x0, x0, [x29, #128]
    2904:	128004e0 	mov	w0, #0xffffffd8            	// #-40
    2908:	aa1703e1 	mov	x1, x23
    290c:	f9004ba3 	str	x3, [x29, #144]
    2910:	b9009ba0 	str	w0, [x29, #152]
    2914:	aa1403e0 	mov	x0, x20
    2918:	9400289a 	bl	cb80 <std_vfprintf>
    291c:	52800041 	mov	w1, #0x2                   	// #2
    2920:	aa1403e0 	mov	x0, x20
    2924:	9400242d 	bl	b9d8 <chan_control>
    2928:	f9400673 	ldr	x19, [x19, #8]
    292c:	b5fffb33 	cbnz	x19, 2890 <log_object_print+0x88>
    2930:	90200020 	adrp	x0, 40006000 <null+0x928>
    2934:	91272000 	add	x0, x0, #0x9c8
    2938:	9100c000 	add	x0, x0, #0x30
    293c:	94002495 	bl	bb90 <mutex_unlock>
    2940:	2a1503e0 	mov	w0, w21
    2944:	f9400fb4 	ldr	x20, [x29, #24]
    2948:	a943e7b8 	ldp	x24, x25, [x29, #56]
    294c:	a944efba 	ldp	x26, x27, [x29, #72]
    2950:	f9402fbc 	ldr	x28, [x29, #88]
    2954:	f9400bf3 	ldr	x19, [sp, #16]
    2958:	a9425bf5 	ldp	x21, x22, [sp, #32]
    295c:	f9401bf7 	ldr	x23, [sp, #48]
    2960:	a8cd7bfd 	ldp	x29, x30, [sp], #208
    2964:	d65f03c0 	ret
    2968:	52800015 	mov	w21, #0x0                   	// #0
    296c:	f9400bf3 	ldr	x19, [sp, #16]
    2970:	2a1503e0 	mov	w0, w21
    2974:	f9401bf7 	ldr	x23, [sp, #48]
    2978:	a9425bf5 	ldp	x21, x22, [sp, #32]
    297c:	a8cd7bfd 	ldp	x29, x30, [sp], #208
    2980:	d65f03c0 	ret
    2984:	d01fffe0 	adrp	x0, 40000000 <__ram_begin>
    2988:	913c6000 	add	x0, x0, #0xf18
    298c:	940027ab 	bl	c838 <std_printf>
    2990:	d01fffe1 	adrp	x1, 40000000 <__ram_begin>
    2994:	528002c0 	mov	w0, #0x16                  	// #22
    2998:	f9400421 	ldr	x1, [x1, #8]
    299c:	d63f0020 	blr	x1
    29a0:	b5fff4f3 	cbnz	x19, 283c <log_object_print+0x34>
    29a4:	d503201f 	nop
    29a8:	94000c2e 	bl	5a60 <thrd_get_log_mask>
    29ac:	1ad62800 	asr	w0, w0, w22
    29b0:	3607fdc0 	tbz	w0, #0, 2968 <log_object_print+0x160>
    29b4:	f9000fb4 	str	x20, [x29, #24]
    29b8:	a903e7b8 	stp	x24, x25, [x29, #56]
    29bc:	a904efba 	stp	x26, x27, [x29, #72]
    29c0:	d01ffffb 	adrp	x27, 40000000 <__ram_begin>
    29c4:	f9002fbc 	str	x28, [x29, #88]
    29c8:	913c4360 	add	x0, x27, #0xf10
    29cc:	f90037a0 	str	x0, [x29, #104]
    29d0:	17ffffa4 	b	2860 <log_object_print+0x58>
    29d4:	00000000 	.inst	0x00000000 ; undefined

00000000000029d8 <cmd_print_cb>:
    29d8:	a9bf7bfd 	stp	x29, x30, [sp, #-16]!
    29dc:	7100081f 	cmp	w0, #0x2
    29e0:	910003fd 	mov	x29, sp
    29e4:	54000181 	b.ne	2a14 <cmd_print_cb+0x3c>  // b.any
    29e8:	f9400423 	ldr	x3, [x1, #8]
    29ec:	90200020 	adrp	x0, 40006000 <null+0x928>
    29f0:	91272000 	add	x0, x0, #0x9c8
    29f4:	d01fffe2 	adrp	x2, 40000000 <__ram_begin>
    29f8:	91006000 	add	x0, x0, #0x18
    29fc:	91384042 	add	x2, x2, #0xe10
    2a00:	52800061 	mov	w1, #0x3                   	// #3
    2a04:	97ffff81 	bl	2808 <log_object_print>
    2a08:	52800000 	mov	w0, #0x0                   	// #0
    2a0c:	a8c17bfd 	ldp	x29, x30, [sp], #16
    2a10:	d65f03c0 	ret
    2a14:	d01fffe1 	adrp	x1, 40000000 <__ram_begin>
    2a18:	aa0203e0 	mov	x0, x2
    2a1c:	9137e021 	add	x1, x1, #0xdf8
    2a20:	9400282a 	bl	cac8 <std_fprintf>
    2a24:	128002a0 	mov	w0, #0xffffffea            	// #-22
    2a28:	17fffff9 	b	2a0c <cmd_print_cb+0x34>
    2a2c:	00000000 	.inst	0x00000000 ; undefined

0000000000002a30 <cmd_read_cb>:
    2a30:	a9bd7bfd 	stp	x29, x30, [sp, #-48]!
    2a34:	7100081f 	cmp	w0, #0x2
    2a38:	910003fd 	mov	x29, sp
    2a3c:	f9000bf3 	str	x19, [sp, #16]
    2a40:	f90013f5 	str	x21, [sp, #32]
    2a44:	aa0203f5 	mov	x21, x2
    2a48:	540003a1 	b.ne	2abc <cmd_read_cb+0x8c>  // b.any
    2a4c:	f9400420 	ldr	x0, [x1, #8]
    2a50:	f9000fb4 	str	x20, [x29, #24]
    2a54:	aa0103f4 	mov	x20, x1
    2a58:	97fffc30 	bl	1b18 <board_pin_string_to_device_index>
    2a5c:	2a0003f3 	mov	w19, w0
    2a60:	37f80180 	tbnz	w0, #31, 2a90 <cmd_read_cb+0x60>
    2a64:	d01fffe1 	adrp	x1, 40000000 <__ram_begin>
    2a68:	aa1503e0 	mov	x0, x21
    2a6c:	913ec021 	add	x1, x1, #0xfb0
    2a70:	94002816 	bl	cac8 <std_fprintf>
    2a74:	f9400fb4 	ldr	x20, [x29, #24]
    2a78:	52800013 	mov	w19, #0x0                   	// #0
    2a7c:	2a1303e0 	mov	w0, w19
    2a80:	f9400bf3 	ldr	x19, [sp, #16]
    2a84:	f94013f5 	ldr	x21, [sp, #32]
    2a88:	a8c37bfd 	ldp	x29, x30, [sp], #48
    2a8c:	d65f03c0 	ret
    2a90:	f9400682 	ldr	x2, [x20, #8]
    2a94:	aa1503e0 	mov	x0, x21
    2a98:	d01fffe1 	adrp	x1, 40000000 <__ram_begin>
    2a9c:	913e8021 	add	x1, x1, #0xfa0
    2aa0:	9400280a 	bl	cac8 <std_fprintf>
    2aa4:	f9400fb4 	ldr	x20, [x29, #24]
    2aa8:	2a1303e0 	mov	w0, w19
    2aac:	f9400bf3 	ldr	x19, [sp, #16]
    2ab0:	f94013f5 	ldr	x21, [sp, #32]
    2ab4:	a8c37bfd 	ldp	x29, x30, [sp], #48
    2ab8:	d65f03c0 	ret
    2abc:	d01fffe1 	adrp	x1, 40000000 <__ram_begin>
    2ac0:	aa0203e0 	mov	x0, x2
    2ac4:	913e2021 	add	x1, x1, #0xf88
    2ac8:	128002b3 	mov	w19, #0xffffffea            	// #-22
    2acc:	940027ff 	bl	cac8 <std_fprintf>
    2ad0:	17ffffeb 	b	2a7c <cmd_read_cb+0x4c>
    2ad4:	00000000 	.inst	0x00000000 ; undefined

0000000000002ad8 <cmd_write_cb>:
    2ad8:	a9bd7bfd 	stp	x29, x30, [sp, #-48]!
    2adc:	71000c1f 	cmp	w0, #0x3
    2ae0:	910003fd 	mov	x29, sp
    2ae4:	f9000bf3 	str	x19, [sp, #16]
    2ae8:	f90013f5 	str	x21, [sp, #32]
    2aec:	aa0203f5 	mov	x21, x2
    2af0:	54000561 	b.ne	2b9c <cmd_write_cb+0xc4>  // b.any
    2af4:	f9400420 	ldr	x0, [x1, #8]
    2af8:	f9000fb4 	str	x20, [x29, #24]
    2afc:	aa0103f4 	mov	x20, x1
    2b00:	97fffc06 	bl	1b18 <board_pin_string_to_device_index>
    2b04:	2a0003f3 	mov	w19, w0
    2b08:	37f80340 	tbnz	w0, #31, 2b70 <cmd_write_cb+0x98>
    2b0c:	f9400a80 	ldr	x0, [x20, #16]
    2b10:	f01fffe1 	adrp	x1, 40001000 <level_warning+0x140>
    2b14:	9101c021 	add	x1, x1, #0x70
    2b18:	97fffca6 	bl	1db0 <strcmp>
    2b1c:	35000100 	cbnz	w0, 2b3c <cmd_write_cb+0x64>
    2b20:	f9400fb4 	ldr	x20, [x29, #24]
    2b24:	52800013 	mov	w19, #0x0                   	// #0
    2b28:	2a1303e0 	mov	w0, w19
    2b2c:	f9400bf3 	ldr	x19, [sp, #16]
    2b30:	f94013f5 	ldr	x21, [sp, #32]
    2b34:	a8c37bfd 	ldp	x29, x30, [sp], #48
    2b38:	d65f03c0 	ret
    2b3c:	f9400a80 	ldr	x0, [x20, #16]
    2b40:	f01fffe1 	adrp	x1, 40001000 <level_warning+0x140>
    2b44:	9101e021 	add	x1, x1, #0x78
    2b48:	97fffc9a 	bl	1db0 <strcmp>
    2b4c:	34fffea0 	cbz	w0, 2b20 <cmd_write_cb+0x48>
    2b50:	f9400a82 	ldr	x2, [x20, #16]
    2b54:	f01fffe1 	adrp	x1, 40001000 <level_warning+0x140>
    2b58:	aa1503e0 	mov	x0, x21
    2b5c:	91020021 	add	x1, x1, #0x80
    2b60:	128002b3 	mov	w19, #0xffffffea            	// #-22
    2b64:	940027d9 	bl	cac8 <std_fprintf>
    2b68:	f9400fb4 	ldr	x20, [x29, #24]
    2b6c:	17ffffef 	b	2b28 <cmd_write_cb+0x50>
    2b70:	f9400682 	ldr	x2, [x20, #8]
    2b74:	aa1503e0 	mov	x0, x21
    2b78:	d01fffe1 	adrp	x1, 40000000 <__ram_begin>
    2b7c:	913e8021 	add	x1, x1, #0xfa0
    2b80:	940027d2 	bl	cac8 <std_fprintf>
    2b84:	f9400fb4 	ldr	x20, [x29, #24]
    2b88:	2a1303e0 	mov	w0, w19
    2b8c:	f9400bf3 	ldr	x19, [sp, #16]
    2b90:	f94013f5 	ldr	x21, [sp, #32]
    2b94:	a8c37bfd 	ldp	x29, x30, [sp], #48
    2b98:	d65f03c0 	ret
    2b9c:	f01fffe1 	adrp	x1, 40001000 <level_warning+0x140>
    2ba0:	aa0203e0 	mov	x0, x2
    2ba4:	91014021 	add	x1, x1, #0x50
    2ba8:	128002b3 	mov	w19, #0xffffffea            	// #-22
    2bac:	940027c7 	bl	cac8 <std_fprintf>
    2bb0:	17ffffde 	b	2b28 <cmd_write_cb+0x50>
    2bb4:	00000000 	.inst	0x00000000 ; undefined

0000000000002bb8 <cmd_set_mode_cb>:
    2bb8:	a9bd7bfd 	stp	x29, x30, [sp, #-48]!
    2bbc:	71000c1f 	cmp	w0, #0x3
    2bc0:	910003fd 	mov	x29, sp
    2bc4:	f9000bf3 	str	x19, [sp, #16]
    2bc8:	f90013f5 	str	x21, [sp, #32]
    2bcc:	aa0203f5 	mov	x21, x2
    2bd0:	540007e1 	b.ne	2ccc <cmd_set_mode_cb+0x114>  // b.any
    2bd4:	f9400420 	ldr	x0, [x1, #8]
    2bd8:	f9000fb4 	str	x20, [x29, #24]
    2bdc:	aa0103f4 	mov	x20, x1
    2be0:	97fffbce 	bl	1b18 <board_pin_string_to_device_index>
    2be4:	2a0003f3 	mov	w19, w0
    2be8:	37f805c0 	tbnz	w0, #31, 2ca0 <cmd_set_mode_cb+0xe8>
    2bec:	f9400a80 	ldr	x0, [x20, #16]
    2bf0:	d01fffe1 	adrp	x1, 40000000 <__ram_begin>
    2bf4:	913f6021 	add	x1, x1, #0xfd8
    2bf8:	97fffc6e 	bl	1db0 <strcmp>
    2bfc:	35000100 	cbnz	w0, 2c1c <cmd_set_mode_cb+0x64>
    2c00:	f9400fb4 	ldr	x20, [x29, #24]
    2c04:	52800013 	mov	w19, #0x0                   	// #0
    2c08:	2a1303e0 	mov	w0, w19
    2c0c:	f9400bf3 	ldr	x19, [sp, #16]
    2c10:	f94013f5 	ldr	x21, [sp, #32]
    2c14:	a8c37bfd 	ldp	x29, x30, [sp], #48
    2c18:	d65f03c0 	ret
    2c1c:	f9400a80 	ldr	x0, [x20, #16]
    2c20:	d01fffe1 	adrp	x1, 40000000 <__ram_begin>
    2c24:	913f8021 	add	x1, x1, #0xfe0
    2c28:	97fffc62 	bl	1db0 <strcmp>
    2c2c:	34fffea0 	cbz	w0, 2c00 <cmd_set_mode_cb+0x48>
    2c30:	f9400a80 	ldr	x0, [x20, #16]
    2c34:	d01fffe1 	adrp	x1, 40000000 <__ram_begin>
    2c38:	913fe021 	add	x1, x1, #0xff8
    2c3c:	97fffc5d 	bl	1db0 <strcmp>
    2c40:	34fffe00 	cbz	w0, 2c00 <cmd_set_mode_cb+0x48>
    2c44:	f9400a80 	ldr	x0, [x20, #16]
    2c48:	f01fffe1 	adrp	x1, 40001000 <level_warning+0x140>
    2c4c:	91006021 	add	x1, x1, #0x18
    2c50:	97fffc58 	bl	1db0 <strcmp>
    2c54:	34fffd60 	cbz	w0, 2c00 <cmd_set_mode_cb+0x48>
    2c58:	f9400a80 	ldr	x0, [x20, #16]
    2c5c:	f01fffe1 	adrp	x1, 40001000 <level_warning+0x140>
    2c60:	91008021 	add	x1, x1, #0x20
    2c64:	97fffc53 	bl	1db0 <strcmp>
    2c68:	34fffcc0 	cbz	w0, 2c00 <cmd_set_mode_cb+0x48>
    2c6c:	f9400a80 	ldr	x0, [x20, #16]
    2c70:	f01fffe1 	adrp	x1, 40001000 <level_warning+0x140>
    2c74:	9100c021 	add	x1, x1, #0x30
    2c78:	97fffc4e 	bl	1db0 <strcmp>
    2c7c:	34fffc20 	cbz	w0, 2c00 <cmd_set_mode_cb+0x48>
    2c80:	f9400a82 	ldr	x2, [x20, #16]
    2c84:	f01fffe1 	adrp	x1, 40001000 <level_warning+0x140>
    2c88:	aa1503e0 	mov	x0, x21
    2c8c:	91010021 	add	x1, x1, #0x40
    2c90:	128002b3 	mov	w19, #0xffffffea            	// #-22
    2c94:	9400278d 	bl	cac8 <std_fprintf>
    2c98:	f9400fb4 	ldr	x20, [x29, #24]
    2c9c:	17ffffdb 	b	2c08 <cmd_set_mode_cb+0x50>
    2ca0:	f9400682 	ldr	x2, [x20, #8]
    2ca4:	aa1503e0 	mov	x0, x21
    2ca8:	d01fffe1 	adrp	x1, 40000000 <__ram_begin>
    2cac:	913e8021 	add	x1, x1, #0xfa0
    2cb0:	94002786 	bl	cac8 <std_fprintf>
    2cb4:	f9400fb4 	ldr	x20, [x29, #24]
    2cb8:	2a1303e0 	mov	w0, w19
    2cbc:	f9400bf3 	ldr	x19, [sp, #16]
    2cc0:	f94013f5 	ldr	x21, [sp, #32]
    2cc4:	a8c37bfd 	ldp	x29, x30, [sp], #48
    2cc8:	d65f03c0 	ret
    2ccc:	d01fffe1 	adrp	x1, 40000000 <__ram_begin>
    2cd0:	aa0203e0 	mov	x0, x2
    2cd4:	913ee021 	add	x1, x1, #0xfb8
    2cd8:	128002b3 	mov	w19, #0xffffffea            	// #-22
    2cdc:	9400277b 	bl	cac8 <std_fprintf>
    2ce0:	17ffffca 	b	2c08 <cmd_set_mode_cb+0x50>
    2ce4:	00000000 	.inst	0x00000000 ; undefined

0000000000002ce8 <pin_module_init>:
    2ce8:	d0200024 	adrp	x4, 40008000 <module>
    2cec:	39c9c080 	ldrsb	w0, [x4, #624]
    2cf0:	7100041f 	cmp	w0, #0x1
    2cf4:	54000560 	b.eq	2da0 <pin_module_init+0xb8>  // b.none
    2cf8:	a9be7bfd 	stp	x29, x30, [sp, #-32]!
    2cfc:	52800025 	mov	w5, #0x1                   	// #1
    2d00:	90000002 	adrp	x2, 2000 <circular_heap_init+0x98>
    2d04:	f01fffe1 	adrp	x1, 40001000 <level_warning+0x140>
    2d08:	910003fd 	mov	x29, sp
    2d0c:	912ee042 	add	x2, x2, #0xbb8
    2d10:	91024021 	add	x1, x1, #0x90
    2d14:	f9000bf3 	str	x19, [sp, #16]
    2d18:	d2800003 	mov	x3, #0x0                   	// #0
    2d1c:	d0200033 	adrp	x19, 40008000 <module>
    2d20:	9109e273 	add	x19, x19, #0x278
    2d24:	3909c085 	strb	w5, [x4, #624]
    2d28:	aa1303e0 	mov	x0, x19
    2d2c:	94002185 	bl	b340 <fs_command_init>
    2d30:	aa1303e0 	mov	x0, x19
    2d34:	940021b5 	bl	b408 <fs_command_register>
    2d38:	90000002 	adrp	x2, 2000 <circular_heap_init+0x98>
    2d3c:	f01fffe1 	adrp	x1, 40001000 <level_warning+0x140>
    2d40:	9128c042 	add	x2, x2, #0xa30
    2d44:	9102a021 	add	x1, x1, #0xa8
    2d48:	d2800003 	mov	x3, #0x0                   	// #0
    2d4c:	d0200033 	adrp	x19, 40008000 <module>
    2d50:	910a6273 	add	x19, x19, #0x298
    2d54:	aa1303e0 	mov	x0, x19
    2d58:	9400217a 	bl	b340 <fs_command_init>
    2d5c:	aa1303e0 	mov	x0, x19
    2d60:	940021aa 	bl	b408 <fs_command_register>
    2d64:	90000002 	adrp	x2, 2000 <circular_heap_init+0x98>
    2d68:	f01fffe1 	adrp	x1, 40001000 <level_warning+0x140>
    2d6c:	912b6042 	add	x2, x2, #0xad8
    2d70:	91030021 	add	x1, x1, #0xc0
    2d74:	d2800003 	mov	x3, #0x0                   	// #0
    2d78:	d0200033 	adrp	x19, 40008000 <module>
    2d7c:	910ae273 	add	x19, x19, #0x2b8
    2d80:	aa1303e0 	mov	x0, x19
    2d84:	9400216f 	bl	b340 <fs_command_init>
    2d88:	aa1303e0 	mov	x0, x19
    2d8c:	9400219f 	bl	b408 <fs_command_register>
    2d90:	52800000 	mov	w0, #0x0                   	// #0
    2d94:	f9400bf3 	ldr	x19, [sp, #16]
    2d98:	a8c27bfd 	ldp	x29, x30, [sp], #32
    2d9c:	d65f03c0 	ret
    2da0:	52800000 	mov	w0, #0x0                   	// #0
    2da4:	d65f03c0 	ret

0000000000002da8 <pin_read>:
    2da8:	b4000060 	cbz	x0, 2db4 <pin_read+0xc>
    2dac:	128004a0 	mov	w0, #0xffffffda            	// #-38
    2db0:	d65f03c0 	ret
    2db4:	a9bf7bfd 	stp	x29, x30, [sp, #-16]!
    2db8:	f01fffe0 	adrp	x0, 40001000 <level_warning+0x140>
    2dbc:	91036000 	add	x0, x0, #0xd8
    2dc0:	910003fd 	mov	x29, sp
    2dc4:	9400269d 	bl	c838 <std_printf>
    2dc8:	d01fffe1 	adrp	x1, 40000000 <__ram_begin>
    2dcc:	528002c0 	mov	w0, #0x16                  	// #22
    2dd0:	f9400421 	ldr	x1, [x1, #8]
    2dd4:	d63f0020 	blr	x1
    2dd8:	128004a0 	mov	w0, #0xffffffda            	// #-38
    2ddc:	a8c17bfd 	ldp	x29, x30, [sp], #16
    2de0:	d65f03c0 	ret
    2de4:	00000000 	.inst	0x00000000 ; undefined

0000000000002de8 <pin_write>:
    2de8:	b4000060 	cbz	x0, 2df4 <pin_write+0xc>
    2dec:	52800000 	mov	w0, #0x0                   	// #0
    2df0:	d65f03c0 	ret
    2df4:	a9bf7bfd 	stp	x29, x30, [sp, #-16]!
    2df8:	f01fffe0 	adrp	x0, 40001000 <level_warning+0x140>
    2dfc:	91066000 	add	x0, x0, #0x198
    2e00:	910003fd 	mov	x29, sp
    2e04:	9400268d 	bl	c838 <std_printf>
    2e08:	d01fffe1 	adrp	x1, 40000000 <__ram_begin>
    2e0c:	528002c0 	mov	w0, #0x16                  	// #22
    2e10:	f9400421 	ldr	x1, [x1, #8]
    2e14:	d63f0020 	blr	x1
    2e18:	52800000 	mov	w0, #0x0                   	// #0
    2e1c:	a8c17bfd 	ldp	x29, x30, [sp], #16
    2e20:	d65f03c0 	ret
    2e24:	00000000 	.inst	0x00000000 ; undefined

0000000000002e28 <pin_set_mode>:
    2e28:	b4000060 	cbz	x0, 2e34 <pin_set_mode+0xc>
    2e2c:	128004a0 	mov	w0, #0xffffffda            	// #-38
    2e30:	d65f03c0 	ret
    2e34:	a9bf7bfd 	stp	x29, x30, [sp, #-16]!
    2e38:	f01fffe0 	adrp	x0, 40001000 <level_warning+0x140>
    2e3c:	9104e000 	add	x0, x0, #0x138
    2e40:	910003fd 	mov	x29, sp
    2e44:	9400267d 	bl	c838 <std_printf>
    2e48:	d01fffe1 	adrp	x1, 40000000 <__ram_begin>
    2e4c:	528002c0 	mov	w0, #0x16                  	// #22
    2e50:	f9400421 	ldr	x1, [x1, #8]
    2e54:	d63f0020 	blr	x1
    2e58:	128004a0 	mov	w0, #0xffffffda            	// #-38
    2e5c:	a8c17bfd 	ldp	x29, x30, [sp], #16
    2e60:	d65f03c0 	ret
    2e64:	00000000 	.inst	0x00000000 ; undefined

0000000000002e68 <i2c_module_init>:
    2e68:	90200024 	adrp	x4, 40006000 <null+0x928>
    2e6c:	39e9a080 	ldrsb	w0, [x4, #2664]
    2e70:	7100041f 	cmp	w0, #0x1
    2e74:	54000500 	b.eq	2f14 <i2c_module_init+0xac>  // b.none
    2e78:	a9be7bfd 	stp	x29, x30, [sp, #-32]!
    2e7c:	52800025 	mov	w5, #0x1                   	// #1
    2e80:	b0000002 	adrp	x2, 3000 <i2c_read+0x40>
    2e84:	f01fffe1 	adrp	x1, 40001000 <level_warning+0x140>
    2e88:	910003fd 	mov	x29, sp
    2e8c:	a90153f3 	stp	x19, x20, [sp, #16]
    2e90:	91024042 	add	x2, x2, #0x90
    2e94:	9129a093 	add	x19, x4, #0xa68
    2e98:	910fc021 	add	x1, x1, #0x3f0
    2e9c:	91002274 	add	x20, x19, #0x8
    2ea0:	d2800003 	mov	x3, #0x0                   	// #0
    2ea4:	3929a085 	strb	w5, [x4, #2664]
    2ea8:	aa1403e0 	mov	x0, x20
    2eac:	94002125 	bl	b340 <fs_command_init>
    2eb0:	aa1403e0 	mov	x0, x20
    2eb4:	94002155 	bl	b408 <fs_command_register>
    2eb8:	b0000002 	adrp	x2, 3000 <i2c_read+0x40>
    2ebc:	f01fffe1 	adrp	x1, 40001000 <level_warning+0x140>
    2ec0:	9108c042 	add	x2, x2, #0x230
    2ec4:	91102021 	add	x1, x1, #0x408
    2ec8:	9100a274 	add	x20, x19, #0x28
    2ecc:	d2800003 	mov	x3, #0x0                   	// #0
    2ed0:	aa1403e0 	mov	x0, x20
    2ed4:	9400211b 	bl	b340 <fs_command_init>
    2ed8:	aa1403e0 	mov	x0, x20
    2edc:	9400214b 	bl	b408 <fs_command_register>
    2ee0:	b0000002 	adrp	x2, 3000 <i2c_read+0x40>
    2ee4:	f01fffe1 	adrp	x1, 40001000 <level_warning+0x140>
    2ee8:	910ee042 	add	x2, x2, #0x3b8
    2eec:	91108021 	add	x1, x1, #0x420
    2ef0:	d2800003 	mov	x3, #0x0                   	// #0
    2ef4:	91012273 	add	x19, x19, #0x48
    2ef8:	aa1303e0 	mov	x0, x19
    2efc:	94002111 	bl	b340 <fs_command_init>
    2f00:	aa1303e0 	mov	x0, x19
    2f04:	94002141 	bl	b408 <fs_command_register>
    2f08:	a94153f3 	ldp	x19, x20, [sp, #16]
    2f0c:	a8c27bfd 	ldp	x29, x30, [sp], #32
    2f10:	14000190 	b	3550 <i2c_soft_module_init>
    2f14:	52800000 	mov	w0, #0x0                   	// #0
    2f18:	d65f03c0 	ret
    2f1c:	00000000 	.inst	0x00000000 ; undefined

0000000000002f20 <i2c_init>:
    2f20:	a9bd7bfd 	stp	x29, x30, [sp, #-48]!
    2f24:	910003fd 	mov	x29, sp
    2f28:	a90153f3 	stp	x19, x20, [sp, #16]
    2f2c:	aa0003f4 	mov	x20, x0
    2f30:	f90013f5 	str	x21, [sp, #32]
    2f34:	aa0103f3 	mov	x19, x1
    2f38:	2a0203f5 	mov	w21, w2
    2f3c:	b4000140 	cbz	x0, 2f64 <i2c_init+0x44>
    2f40:	b4000233 	cbz	x19, 2f84 <i2c_init+0x64>
    2f44:	93407ea3 	sxtw	x3, w21
    2f48:	aa1403e0 	mov	x0, x20
    2f4c:	a9400a61 	ldp	x1, x2, [x19]
    2f50:	a9411664 	ldp	x4, x5, [x19, #16]
    2f54:	a94153f3 	ldp	x19, x20, [sp, #16]
    2f58:	f94013f5 	ldr	x21, [sp, #32]
    2f5c:	a8c37bfd 	ldp	x29, x30, [sp], #48
    2f60:	1400017e 	b	3558 <i2c_soft_init>
    2f64:	f01fffe0 	adrp	x0, 40001000 <level_warning+0x140>
    2f68:	910ca000 	add	x0, x0, #0x328
    2f6c:	94002633 	bl	c838 <std_printf>
    2f70:	d01fffe1 	adrp	x1, 40000000 <__ram_begin>
    2f74:	528002c0 	mov	w0, #0x16                  	// #22
    2f78:	f9400421 	ldr	x1, [x1, #8]
    2f7c:	d63f0020 	blr	x1
    2f80:	b5fffe33 	cbnz	x19, 2f44 <i2c_init+0x24>
    2f84:	f01fffe0 	adrp	x0, 40001000 <level_warning+0x140>
    2f88:	910e4000 	add	x0, x0, #0x390
    2f8c:	9400262b 	bl	c838 <std_printf>
    2f90:	d01fffe1 	adrp	x1, 40000000 <__ram_begin>
    2f94:	528002c0 	mov	w0, #0x16                  	// #22
    2f98:	f9400421 	ldr	x1, [x1, #8]
    2f9c:	d63f0020 	blr	x1
    2fa0:	93407ea3 	sxtw	x3, w21
    2fa4:	aa1403e0 	mov	x0, x20
    2fa8:	a9400a61 	ldp	x1, x2, [x19]
    2fac:	a9411664 	ldp	x4, x5, [x19, #16]
    2fb0:	a94153f3 	ldp	x19, x20, [sp, #16]
    2fb4:	f94013f5 	ldr	x21, [sp, #32]
    2fb8:	a8c37bfd 	ldp	x29, x30, [sp], #48
    2fbc:	14000167 	b	3558 <i2c_soft_init>

0000000000002fc0 <i2c_read>:
    2fc0:	a9bd7bfd 	stp	x29, x30, [sp, #-48]!
    2fc4:	910003fd 	mov	x29, sp
    2fc8:	a90153f3 	stp	x19, x20, [sp, #16]
    2fcc:	aa0003f3 	mov	x19, x0
    2fd0:	a9025bf5 	stp	x21, x22, [sp, #32]
    2fd4:	2a0103f4 	mov	w20, w1
    2fd8:	aa0203f5 	mov	x21, x2
    2fdc:	aa0303f6 	mov	x22, x3
    2fe0:	b4000480 	cbz	x0, 3070 <i2c_read+0xb0>
    2fe4:	7101fe9f 	cmp	w20, #0x7f
    2fe8:	5400024c 	b.gt	3030 <i2c_read+0x70>
    2fec:	b4000335 	cbz	x21, 3050 <i2c_read+0x90>
    2ff0:	b5000116 	cbnz	x22, 3010 <i2c_read+0x50>
    2ff4:	f01fffe0 	adrp	x0, 40001000 <level_warning+0x140>
    2ff8:	91158000 	add	x0, x0, #0x560
    2ffc:	9400260f 	bl	c838 <std_printf>
    3000:	b01fffe1 	adrp	x1, 40000000 <__ram_begin>
    3004:	528002c0 	mov	w0, #0x16                  	// #22
    3008:	f9400421 	ldr	x1, [x1, #8]
    300c:	d63f0020 	blr	x1
    3010:	aa1603e3 	mov	x3, x22
    3014:	aa1503e2 	mov	x2, x21
    3018:	2a1403e1 	mov	w1, w20
    301c:	aa1303e0 	mov	x0, x19
    3020:	a94153f3 	ldp	x19, x20, [sp, #16]
    3024:	a9425bf5 	ldp	x21, x22, [sp, #32]
    3028:	a8c37bfd 	ldp	x29, x30, [sp], #48
    302c:	14000159 	b	3590 <i2c_soft_read>
    3030:	d01fffe0 	adrp	x0, 40001000 <level_warning+0x140>
    3034:	91128000 	add	x0, x0, #0x4a0
    3038:	94002600 	bl	c838 <std_printf>
    303c:	b01fffe1 	adrp	x1, 40000000 <__ram_begin>
    3040:	528002c0 	mov	w0, #0x16                  	// #22
    3044:	f9400421 	ldr	x1, [x1, #8]
    3048:	d63f0020 	blr	x1
    304c:	b5fffd35 	cbnz	x21, 2ff0 <i2c_read+0x30>
    3050:	d01fffe0 	adrp	x0, 40001000 <level_warning+0x140>
    3054:	91140000 	add	x0, x0, #0x500
    3058:	940025f8 	bl	c838 <std_printf>
    305c:	b01fffe1 	adrp	x1, 40000000 <__ram_begin>
    3060:	528002c0 	mov	w0, #0x16                  	// #22
    3064:	f9400421 	ldr	x1, [x1, #8]
    3068:	d63f0020 	blr	x1
    306c:	17ffffe1 	b	2ff0 <i2c_read+0x30>
    3070:	d01fffe0 	adrp	x0, 40001000 <level_warning+0x140>
    3074:	9110e000 	add	x0, x0, #0x438
    3078:	940025f0 	bl	c838 <std_printf>
    307c:	b01fffe1 	adrp	x1, 40000000 <__ram_begin>
    3080:	528002c0 	mov	w0, #0x16                  	// #22
    3084:	f9400421 	ldr	x1, [x1, #8]
    3088:	d63f0020 	blr	x1
    308c:	17ffffd6 	b	2fe4 <i2c_read+0x24>

0000000000003090 <cmd_read_cb>:
    3090:	a9ba7bfd 	stp	x29, x30, [sp, #-96]!
    3094:	7100081f 	cmp	w0, #0x2
    3098:	910003fd 	mov	x29, sp
    309c:	540004c1 	b.ne	3134 <cmd_read_cb+0xa4>  // b.any
    30a0:	f9400420 	ldr	x0, [x1, #8]
    30a4:	9100a3a1 	add	x1, x29, #0x28
    30a8:	9400277e 	bl	cea0 <std_strtol>
    30ac:	b40004e0 	cbz	x0, 3148 <cmd_read_cb+0xb8>
    30b0:	b0200021 	adrp	x1, 40008000 <module>
    30b4:	5290d402 	mov	w2, #0x86a0                	// #34464
    30b8:	91090021 	add	x1, x1, #0x240
    30bc:	12800003 	mov	w3, #0xffffffff            	// #-1
    30c0:	72a00022 	movk	w2, #0x1, lsl #16
    30c4:	f9000bb3 	str	x19, [x29, #16]
    30c8:	9100c3a0 	add	x0, x29, #0x30
    30cc:	f94017b3 	ldr	x19, [x29, #40]
    30d0:	97ffff94 	bl	2f20 <i2c_init>
    30d4:	9100c3a0 	add	x0, x29, #0x30
    30d8:	9400012a 	bl	3580 <i2c_soft_start>
    30dc:	d2800023 	mov	x3, #0x1                   	// #1
    30e0:	91009fa2 	add	x2, x29, #0x27
    30e4:	2a1303e1 	mov	w1, w19
    30e8:	9100c3a0 	add	x0, x29, #0x30
    30ec:	97ffffb5 	bl	2fc0 <i2c_read>
    30f0:	f100041f 	cmp	x0, #0x1
    30f4:	54000160 	b.eq	3120 <cmd_read_cb+0x90>  // b.none
    30f8:	d01fffe0 	adrp	x0, 40001000 <level_warning+0x140>
    30fc:	2a1303e1 	mov	w1, w19
    3100:	9108c000 	add	x0, x0, #0x230
    3104:	940025cd 	bl	c838 <std_printf>
    3108:	9100c3a0 	add	x0, x29, #0x30
    310c:	9400011f 	bl	3588 <i2c_soft_stop>
    3110:	f9400bb3 	ldr	x19, [x29, #16]
    3114:	52800000 	mov	w0, #0x0                   	// #0
    3118:	a8c67bfd 	ldp	x29, x30, [sp], #96
    311c:	d65f03c0 	ret
    3120:	39409fa1 	ldrb	w1, [x29, #39]
    3124:	f01fffe0 	adrp	x0, 40002000 <level_warning+0x1140>
    3128:	912e0000 	add	x0, x0, #0xb80
    312c:	940025c3 	bl	c838 <std_printf>
    3130:	17fffff6 	b	3108 <cmd_read_cb+0x78>
    3134:	d01fffe0 	adrp	x0, 40001000 <level_warning+0x140>
    3138:	9107e000 	add	x0, x0, #0x1f8
    313c:	940025bf 	bl	c838 <std_printf>
    3140:	128002a0 	mov	w0, #0xffffffea            	// #-22
    3144:	17fffff5 	b	3118 <cmd_read_cb+0x88>
    3148:	d01fffe0 	adrp	x0, 40001000 <level_warning+0x140>
    314c:	91086000 	add	x0, x0, #0x218
    3150:	940025ba 	bl	c838 <std_printf>
    3154:	128002a0 	mov	w0, #0xffffffea            	// #-22
    3158:	17fffff0 	b	3118 <cmd_read_cb+0x88>
    315c:	00000000 	.inst	0x00000000 ; undefined

0000000000003160 <i2c_write>:
    3160:	a9bd7bfd 	stp	x29, x30, [sp, #-48]!
    3164:	910003fd 	mov	x29, sp
    3168:	a90153f3 	stp	x19, x20, [sp, #16]
    316c:	aa0003f3 	mov	x19, x0
    3170:	a9025bf5 	stp	x21, x22, [sp, #32]
    3174:	2a0103f4 	mov	w20, w1
    3178:	aa0203f5 	mov	x21, x2
    317c:	aa0303f6 	mov	x22, x3
    3180:	b4000480 	cbz	x0, 3210 <i2c_write+0xb0>
    3184:	7101fe9f 	cmp	w20, #0x7f
    3188:	5400024c 	b.gt	31d0 <i2c_write+0x70>
    318c:	b4000335 	cbz	x21, 31f0 <i2c_write+0x90>
    3190:	b5000116 	cbnz	x22, 31b0 <i2c_write+0x50>
    3194:	d01fffe0 	adrp	x0, 40001000 <level_warning+0x140>
    3198:	911ea000 	add	x0, x0, #0x7a8
    319c:	940025a7 	bl	c838 <std_printf>
    31a0:	b01fffe1 	adrp	x1, 40000000 <__ram_begin>
    31a4:	528002c0 	mov	w0, #0x16                  	// #22
    31a8:	f9400421 	ldr	x1, [x1, #8]
    31ac:	d63f0020 	blr	x1
    31b0:	aa1603e3 	mov	x3, x22
    31b4:	aa1503e2 	mov	x2, x21
    31b8:	2a1403e1 	mov	w1, w20
    31bc:	aa1303e0 	mov	x0, x19
    31c0:	a94153f3 	ldp	x19, x20, [sp, #16]
    31c4:	a9425bf5 	ldp	x21, x22, [sp, #32]
    31c8:	a8c37bfd 	ldp	x29, x30, [sp], #48
    31cc:	14000117 	b	3628 <i2c_soft_write>
    31d0:	d01fffe0 	adrp	x0, 40001000 <level_warning+0x140>
    31d4:	911ba000 	add	x0, x0, #0x6e8
    31d8:	94002598 	bl	c838 <std_printf>
    31dc:	b01fffe1 	adrp	x1, 40000000 <__ram_begin>
    31e0:	528002c0 	mov	w0, #0x16                  	// #22
    31e4:	f9400421 	ldr	x1, [x1, #8]
    31e8:	d63f0020 	blr	x1
    31ec:	b5fffd35 	cbnz	x21, 3190 <i2c_write+0x30>
    31f0:	d01fffe0 	adrp	x0, 40001000 <level_warning+0x140>
    31f4:	911d2000 	add	x0, x0, #0x748
    31f8:	94002590 	bl	c838 <std_printf>
    31fc:	b01fffe1 	adrp	x1, 40000000 <__ram_begin>
    3200:	528002c0 	mov	w0, #0x16                  	// #22
    3204:	f9400421 	ldr	x1, [x1, #8]
    3208:	d63f0020 	blr	x1
    320c:	17ffffe1 	b	3190 <i2c_write+0x30>
    3210:	d01fffe0 	adrp	x0, 40001000 <level_warning+0x140>
    3214:	911a0000 	add	x0, x0, #0x680
    3218:	94002588 	bl	c838 <std_printf>
    321c:	b01fffe1 	adrp	x1, 40000000 <__ram_begin>
    3220:	528002c0 	mov	w0, #0x16                  	// #22
    3224:	f9400421 	ldr	x1, [x1, #8]
    3228:	d63f0020 	blr	x1
    322c:	17ffffd6 	b	3184 <i2c_write+0x24>

0000000000003230 <cmd_write_cb>:
    3230:	a9ba7bfd 	stp	x29, x30, [sp, #-96]!
    3234:	71000c1f 	cmp	w0, #0x3
    3238:	910003fd 	mov	x29, sp
    323c:	54000581 	b.ne	32ec <cmd_write_cb+0xbc>  // b.any
    3240:	f9000bb3 	str	x19, [x29, #16]
    3244:	aa0103f3 	mov	x19, x1
    3248:	9100a3a1 	add	x1, x29, #0x28
    324c:	f9400660 	ldr	x0, [x19, #8]
    3250:	94002714 	bl	cea0 <std_strtol>
    3254:	b4000620 	cbz	x0, 3318 <cmd_write_cb+0xe8>
    3258:	f9400a60 	ldr	x0, [x19, #16]
    325c:	9100a3a1 	add	x1, x29, #0x28
    3260:	f94017b3 	ldr	x19, [x29, #40]
    3264:	9400270f 	bl	cea0 <std_strtol>
    3268:	b4000640 	cbz	x0, 3330 <cmd_write_cb+0x100>
    326c:	f94017a0 	ldr	x0, [x29, #40]
    3270:	f103fc1f 	cmp	x0, #0xff
    3274:	54000468 	b.hi	3300 <cmd_write_cb+0xd0>  // b.pmore
    3278:	b0200021 	adrp	x1, 40008000 <module>
    327c:	5290d402 	mov	w2, #0x86a0                	// #34464
    3280:	91090021 	add	x1, x1, #0x240
    3284:	12800003 	mov	w3, #0xffffffff            	// #-1
    3288:	72a00022 	movk	w2, #0x1, lsl #16
    328c:	39009fa0 	strb	w0, [x29, #39]
    3290:	9100c3a0 	add	x0, x29, #0x30
    3294:	97ffff23 	bl	2f20 <i2c_init>
    3298:	9100c3a0 	add	x0, x29, #0x30
    329c:	940000b9 	bl	3580 <i2c_soft_start>
    32a0:	d2800023 	mov	x3, #0x1                   	// #1
    32a4:	91009fa2 	add	x2, x29, #0x27
    32a8:	2a1303e1 	mov	w1, w19
    32ac:	9100c3a0 	add	x0, x29, #0x30
    32b0:	97ffffac 	bl	3160 <i2c_write>
    32b4:	f100041f 	cmp	x0, #0x1
    32b8:	540000e1 	b.ne	32d4 <cmd_write_cb+0xa4>  // b.any
    32bc:	9100c3a0 	add	x0, x29, #0x30
    32c0:	940000b2 	bl	3588 <i2c_soft_stop>
    32c4:	f9400bb3 	ldr	x19, [x29, #16]
    32c8:	52800000 	mov	w0, #0x0                   	// #0
    32cc:	a8c67bfd 	ldp	x29, x30, [sp], #96
    32d0:	d65f03c0 	ret
    32d4:	39409fa1 	ldrb	w1, [x29, #39]
    32d8:	d01fffe0 	adrp	x0, 40001000 <level_warning+0x140>
    32dc:	2a1303e2 	mov	w2, w19
    32e0:	910bc000 	add	x0, x0, #0x2f0
    32e4:	94002555 	bl	c838 <std_printf>
    32e8:	17fffff5 	b	32bc <cmd_write_cb+0x8c>
    32ec:	d01fffe0 	adrp	x0, 40001000 <level_warning+0x140>
    32f0:	910a2000 	add	x0, x0, #0x288
    32f4:	94002551 	bl	c838 <std_printf>
    32f8:	128002a0 	mov	w0, #0xffffffea            	// #-22
    32fc:	17fffff4 	b	32cc <cmd_write_cb+0x9c>
    3300:	d01fffe0 	adrp	x0, 40001000 <level_warning+0x140>
    3304:	910b4000 	add	x0, x0, #0x2d0
    3308:	9400254c 	bl	c838 <std_printf>
    330c:	f9400bb3 	ldr	x19, [x29, #16]
    3310:	128002a0 	mov	w0, #0xffffffea            	// #-22
    3314:	17ffffee 	b	32cc <cmd_write_cb+0x9c>
    3318:	d01fffe0 	adrp	x0, 40001000 <level_warning+0x140>
    331c:	91086000 	add	x0, x0, #0x218
    3320:	94002546 	bl	c838 <std_printf>
    3324:	f9400bb3 	ldr	x19, [x29, #16]
    3328:	128002a0 	mov	w0, #0xffffffea            	// #-22
    332c:	17ffffe8 	b	32cc <cmd_write_cb+0x9c>
    3330:	d01fffe0 	adrp	x0, 40001000 <level_warning+0x140>
    3334:	910ae000 	add	x0, x0, #0x2b8
    3338:	94002540 	bl	c838 <std_printf>
    333c:	f9400bb3 	ldr	x19, [x29, #16]
    3340:	128002a0 	mov	w0, #0xffffffea            	// #-22
    3344:	17ffffe2 	b	32cc <cmd_write_cb+0x9c>

0000000000003348 <i2c_scan>:
    3348:	a9be7bfd 	stp	x29, x30, [sp, #-32]!
    334c:	910003fd 	mov	x29, sp
    3350:	a90153f3 	stp	x19, x20, [sp, #16]
    3354:	aa0003f3 	mov	x19, x0
    3358:	2a0103f4 	mov	w20, w1
    335c:	b40001e0 	cbz	x0, 3398 <i2c_scan+0x50>
    3360:	7101fe9f 	cmp	w20, #0x7f
    3364:	5400010d 	b.le	3384 <i2c_scan+0x3c>
    3368:	d01fffe0 	adrp	x0, 40001000 <level_warning+0x140>
    336c:	91188000 	add	x0, x0, #0x620
    3370:	94002532 	bl	c838 <std_printf>
    3374:	b01fffe1 	adrp	x1, 40000000 <__ram_begin>
    3378:	528002c0 	mov	w0, #0x16                  	// #22
    337c:	f9400421 	ldr	x1, [x1, #8]
    3380:	d63f0020 	blr	x1
    3384:	2a1403e1 	mov	w1, w20
    3388:	aa1303e0 	mov	x0, x19
    338c:	a94153f3 	ldp	x19, x20, [sp, #16]
    3390:	a8c27bfd 	ldp	x29, x30, [sp], #32
    3394:	140000c9 	b	36b8 <i2c_soft_scan>
    3398:	d01fffe0 	adrp	x0, 40001000 <level_warning+0x140>
    339c:	9116e000 	add	x0, x0, #0x5b8
    33a0:	94002526 	bl	c838 <std_printf>
    33a4:	b01fffe1 	adrp	x1, 40000000 <__ram_begin>
    33a8:	528002c0 	mov	w0, #0x16                  	// #22
    33ac:	f9400421 	ldr	x1, [x1, #8]
    33b0:	d63f0020 	blr	x1
    33b4:	17ffffeb 	b	3360 <i2c_scan+0x18>

00000000000033b8 <cmd_scan_cb>:
    33b8:	a9ba7bfd 	stp	x29, x30, [sp, #-96]!
    33bc:	b0200021 	adrp	x1, 40008000 <module>
    33c0:	91090021 	add	x1, x1, #0x240
    33c4:	12800003 	mov	w3, #0xffffffff            	// #-1
    33c8:	910003fd 	mov	x29, sp
    33cc:	f90013f5 	str	x21, [sp, #32]
    33d0:	aa0203f5 	mov	x21, x2
    33d4:	5290d402 	mov	w2, #0x86a0                	// #34464
    33d8:	a90153f3 	stp	x19, x20, [sp, #16]
    33dc:	72a00022 	movk	w2, #0x1, lsl #16
    33e0:	9100c3a0 	add	x0, x29, #0x30
    33e4:	97fffecf 	bl	2f20 <i2c_init>
    33e8:	52800013 	mov	w19, #0x0                   	// #0
    33ec:	d01ffff4 	adrp	x20, 40001000 <level_warning+0x140>
    33f0:	9100c3a0 	add	x0, x29, #0x30
    33f4:	91098294 	add	x20, x20, #0x260
    33f8:	94000062 	bl	3580 <i2c_soft_start>
    33fc:	14000004 	b	340c <cmd_scan_cb+0x54>
    3400:	11000673 	add	w19, w19, #0x1
    3404:	7102027f 	cmp	w19, #0x80
    3408:	540001a0 	b.eq	343c <cmd_scan_cb+0x84>  // b.none
    340c:	2a1303e1 	mov	w1, w19
    3410:	9100c3a0 	add	x0, x29, #0x30
    3414:	97ffffcd 	bl	3348 <i2c_scan>
    3418:	7100041f 	cmp	w0, #0x1
    341c:	54ffff21 	b.ne	3400 <cmd_scan_cb+0x48>  // b.any
    3420:	2a1303e2 	mov	w2, w19
    3424:	aa1403e1 	mov	x1, x20
    3428:	aa1503e0 	mov	x0, x21
    342c:	11000673 	add	w19, w19, #0x1
    3430:	940025a6 	bl	cac8 <std_fprintf>
    3434:	7102027f 	cmp	w19, #0x80
    3438:	54fffea1 	b.ne	340c <cmd_scan_cb+0x54>  // b.any
    343c:	9100c3a0 	add	x0, x29, #0x30
    3440:	94000052 	bl	3588 <i2c_soft_stop>
    3444:	52800000 	mov	w0, #0x0                   	// #0
    3448:	f94013f5 	ldr	x21, [sp, #32]
    344c:	a94153f3 	ldp	x19, x20, [sp, #16]
    3450:	a8c67bfd 	ldp	x29, x30, [sp], #96
    3454:	d65f03c0 	ret

0000000000003458 <stop_cond>:
    3458:	a9be7bfd 	stp	x29, x30, [sp, #-32]!
    345c:	910003fd 	mov	x29, sp
    3460:	a90153f3 	stp	x19, x20, [sp, #16]
    3464:	aa0003f4 	mov	x20, x0
    3468:	b9401800 	ldr	w0, [x0, #24]
    346c:	d2800013 	mov	x19, #0x0                   	// #0
    3470:	94000c2a 	bl	6518 <time_busy_wait_us>
    3474:	f9401680 	ldr	x0, [x20, #40]
    3478:	94000b4c 	bl	61a8 <thrd_sleep_us>
    347c:	a9420281 	ldp	x1, x0, [x20, #32]
    3480:	8b000273 	add	x19, x19, x0
    3484:	eb01027f 	cmp	x19, x1
    3488:	54ffff8b 	b.lt	3478 <stop_cond+0x20>  // b.tstop
    348c:	12800000 	mov	w0, #0xffffffff            	// #-1
    3490:	a94153f3 	ldp	x19, x20, [sp, #16]
    3494:	a8c27bfd 	ldp	x29, x30, [sp], #32
    3498:	d65f03c0 	ret
    349c:	00000000 	.inst	0x00000000 ; undefined

00000000000034a0 <write_bit.isra.8>:
    34a0:	a9be7bfd 	stp	x29, x30, [sp, #-32]!
    34a4:	910003fd 	mov	x29, sp
    34a8:	a90153f3 	stp	x19, x20, [sp, #16]
    34ac:	aa0003f4 	mov	x20, x0
    34b0:	b9401800 	ldr	w0, [x0, #24]
    34b4:	d2800013 	mov	x19, #0x0                   	// #0
    34b8:	94000c18 	bl	6518 <time_busy_wait_us>
    34bc:	b9401a80 	ldr	w0, [x20, #24]
    34c0:	94000c16 	bl	6518 <time_busy_wait_us>
    34c4:	f9401680 	ldr	x0, [x20, #40]
    34c8:	94000b38 	bl	61a8 <thrd_sleep_us>
    34cc:	a9420281 	ldp	x1, x0, [x20, #32]
    34d0:	8b000273 	add	x19, x19, x0
    34d4:	eb01027f 	cmp	x19, x1
    34d8:	54ffff8b 	b.lt	34c8 <write_bit.isra.8+0x28>  // b.tstop
    34dc:	12800000 	mov	w0, #0xffffffff            	// #-1
    34e0:	a94153f3 	ldp	x19, x20, [sp, #16]
    34e4:	a8c27bfd 	ldp	x29, x30, [sp], #32
    34e8:	d65f03c0 	ret
    34ec:	00000000 	.inst	0x00000000 ; undefined

00000000000034f0 <write_byte.isra.10>:
    34f0:	a9be7bfd 	stp	x29, x30, [sp, #-32]!
    34f4:	910003fd 	mov	x29, sp
    34f8:	a90153f3 	stp	x19, x20, [sp, #16]
    34fc:	aa0003f3 	mov	x19, x0
    3500:	52800114 	mov	w20, #0x8                   	// #8
    3504:	aa1303e0 	mov	x0, x19
    3508:	97ffffe6 	bl	34a0 <write_bit.isra.8>
    350c:	35000180 	cbnz	w0, 353c <write_byte.isra.10+0x4c>
    3510:	71000694 	subs	w20, w20, #0x1
    3514:	54ffff81 	b.ne	3504 <write_byte.isra.10+0x14>  // b.any
    3518:	b9401a60 	ldr	w0, [x19, #24]
    351c:	d2800014 	mov	x20, #0x0                   	// #0
    3520:	94000bfe 	bl	6518 <time_busy_wait_us>
    3524:	f9401660 	ldr	x0, [x19, #40]
    3528:	94000b20 	bl	61a8 <thrd_sleep_us>
    352c:	a9420261 	ldp	x1, x0, [x19, #32]
    3530:	8b000294 	add	x20, x20, x0
    3534:	eb01029f 	cmp	x20, x1
    3538:	54ffff8b 	b.lt	3528 <write_byte.isra.10+0x38>  // b.tstop
    353c:	12800000 	mov	w0, #0xffffffff            	// #-1
    3540:	a94153f3 	ldp	x19, x20, [sp, #16]
    3544:	a8c27bfd 	ldp	x29, x30, [sp], #32
    3548:	d65f03c0 	ret
    354c:	00000000 	.inst	0x00000000 ; undefined

0000000000003550 <i2c_soft_module_init>:
    3550:	52800000 	mov	w0, #0x0                   	// #0
    3554:	d65f03c0 	ret

0000000000003558 <i2c_soft_init>:
    3558:	d2942407 	mov	x7, #0xa120                	// #41248
    355c:	aa0003e6 	mov	x6, x0
    3560:	f2a000e7 	movk	x7, #0x7, lsl #16
    3564:	52800000 	mov	w0, #0x0                   	// #0
    3568:	9ac30ce7 	sdiv	x7, x7, x3
    356c:	a90008c1 	stp	x1, x2, [x6]
    3570:	a90214c4 	stp	x4, x5, [x6, #32]
    3574:	a9011cc3 	stp	x3, x7, [x6, #16]
    3578:	d65f03c0 	ret
    357c:	00000000 	.inst	0x00000000 ; undefined

0000000000003580 <i2c_soft_start>:
    3580:	52800000 	mov	w0, #0x0                   	// #0
    3584:	d65f03c0 	ret

0000000000003588 <i2c_soft_stop>:
    3588:	52800000 	mov	w0, #0x0                   	// #0
    358c:	d65f03c0 	ret

0000000000003590 <i2c_soft_read>:
    3590:	a9bd7bfd 	stp	x29, x30, [sp, #-48]!
    3594:	910003fd 	mov	x29, sp
    3598:	a90153f3 	stp	x19, x20, [sp, #16]
    359c:	aa0003f4 	mov	x20, x0
    35a0:	b9401800 	ldr	w0, [x0, #24]
    35a4:	aa0303f3 	mov	x19, x3
    35a8:	f90013f5 	str	x21, [sp, #32]
    35ac:	aa0203f5 	mov	x21, x2
    35b0:	94000bda 	bl	6518 <time_busy_wait_us>
    35b4:	aa1403e0 	mov	x0, x20
    35b8:	97ffffce 	bl	34f0 <write_byte.isra.10>
    35bc:	35000180 	cbnz	w0, 35ec <i2c_soft_read+0x5c>
    35c0:	b4000253 	cbz	x19, 3608 <i2c_soft_read+0x78>
    35c4:	390002bf 	strb	wzr, [x21]
    35c8:	d2800013 	mov	x19, #0x0                   	// #0
    35cc:	b9401a80 	ldr	w0, [x20, #24]
    35d0:	94000bd2 	bl	6518 <time_busy_wait_us>
    35d4:	f9401680 	ldr	x0, [x20, #40]
    35d8:	94000af4 	bl	61a8 <thrd_sleep_us>
    35dc:	a9420281 	ldp	x1, x0, [x20, #32]
    35e0:	8b000273 	add	x19, x19, x0
    35e4:	eb01027f 	cmp	x19, x1
    35e8:	54ffff8b 	b.lt	35d8 <i2c_soft_read+0x48>  // b.tstop
    35ec:	aa1403e0 	mov	x0, x20
    35f0:	97ffff9a 	bl	3458 <stop_cond>
    35f4:	92800000 	mov	x0, #0xffffffffffffffff    	// #-1
    35f8:	f94013f5 	ldr	x21, [sp, #32]
    35fc:	a94153f3 	ldp	x19, x20, [sp, #16]
    3600:	a8c37bfd 	ldp	x29, x30, [sp], #48
    3604:	d65f03c0 	ret
    3608:	aa1403e0 	mov	x0, x20
    360c:	97ffff93 	bl	3458 <stop_cond>
    3610:	7100001f 	cmp	w0, #0x0
    3614:	f94013f5 	ldr	x21, [sp, #32]
    3618:	da9f03e0 	csetm	x0, ne  // ne = any
    361c:	a94153f3 	ldp	x19, x20, [sp, #16]
    3620:	a8c37bfd 	ldp	x29, x30, [sp], #48
    3624:	d65f03c0 	ret

0000000000003628 <i2c_soft_write>:
    3628:	a9bd7bfd 	stp	x29, x30, [sp, #-48]!
    362c:	910003fd 	mov	x29, sp
    3630:	a901d7f4 	stp	x20, x21, [sp, #24]
    3634:	aa0003f5 	mov	x21, x0
    3638:	b9401800 	ldr	w0, [x0, #24]
    363c:	aa0303f4 	mov	x20, x3
    3640:	94000bb6 	bl	6518 <time_busy_wait_us>
    3644:	aa1503e0 	mov	x0, x21
    3648:	97ffffaa 	bl	34f0 <write_byte.isra.10>
    364c:	35000180 	cbnz	w0, 367c <i2c_soft_write+0x54>
    3650:	f9000bb3 	str	x19, [x29, #16]
    3654:	d2800013 	mov	x19, #0x0                   	// #0
    3658:	b5000094 	cbnz	x20, 3668 <i2c_soft_write+0x40>
    365c:	1400000e 	b	3694 <i2c_soft_write+0x6c>
    3660:	eb13029f 	cmp	x20, x19
    3664:	54000180 	b.eq	3694 <i2c_soft_write+0x6c>  // b.none
    3668:	91000673 	add	x19, x19, #0x1
    366c:	aa1503e0 	mov	x0, x21
    3670:	97ffffa0 	bl	34f0 <write_byte.isra.10>
    3674:	34ffff60 	cbz	w0, 3660 <i2c_soft_write+0x38>
    3678:	f9400bb3 	ldr	x19, [x29, #16]
    367c:	aa1503e0 	mov	x0, x21
    3680:	97ffff76 	bl	3458 <stop_cond>
    3684:	92800000 	mov	x0, #0xffffffffffffffff    	// #-1
    3688:	a941d7f4 	ldp	x20, x21, [sp, #24]
    368c:	a8c37bfd 	ldp	x29, x30, [sp], #48
    3690:	d65f03c0 	ret
    3694:	aa1503e0 	mov	x0, x21
    3698:	97ffff70 	bl	3458 <stop_cond>
    369c:	7100001f 	cmp	w0, #0x0
    36a0:	f9400bb3 	ldr	x19, [x29, #16]
    36a4:	da9f0280 	csinv	x0, x20, xzr, eq  // eq = none
    36a8:	a941d7f4 	ldp	x20, x21, [sp, #24]
    36ac:	a8c37bfd 	ldp	x29, x30, [sp], #48
    36b0:	d65f03c0 	ret
    36b4:	00000000 	.inst	0x00000000 ; undefined

00000000000036b8 <i2c_soft_scan>:
    36b8:	a9be7bfd 	stp	x29, x30, [sp, #-32]!
    36bc:	910003fd 	mov	x29, sp
    36c0:	a90153f3 	stp	x19, x20, [sp, #16]
    36c4:	aa0003f3 	mov	x19, x0
    36c8:	b9401800 	ldr	w0, [x0, #24]
    36cc:	94000b93 	bl	6518 <time_busy_wait_us>
    36d0:	aa1303e0 	mov	x0, x19
    36d4:	97ffff87 	bl	34f0 <write_byte.isra.10>
    36d8:	7100001f 	cmp	w0, #0x0
    36dc:	aa1303e0 	mov	x0, x19
    36e0:	1a9f17f4 	cset	w20, eq  // eq = none
    36e4:	97ffff5d 	bl	3458 <stop_cond>
    36e8:	7100001f 	cmp	w0, #0x0
    36ec:	5a9f0280 	csinv	w0, w20, wzr, eq  // eq = none
    36f0:	a94153f3 	ldp	x19, x20, [sp, #16]
    36f4:	a8c27bfd 	ldp	x29, x30, [sp], #32
    36f8:	d65f03c0 	ret
    36fc:	00000000 	.inst	0x00000000 ; undefined

0000000000003700 <owi_reset>:
    3700:	a9bd7bfd 	stp	x29, x30, [sp, #-48]!
    3704:	910003fd 	mov	x29, sp
    3708:	a90153f3 	stp	x19, x20, [sp, #16]
    370c:	aa0003f3 	mov	x19, x0
    3710:	f90013f5 	str	x21, [sp, #32]
    3714:	b40007c0 	cbz	x0, 380c <owi_reset+0x10c>
    3718:	52800001 	mov	w1, #0x0                   	// #0
    371c:	aa1303e0 	mov	x0, x19
    3720:	97fffdb2 	bl	2de8 <pin_write>
    3724:	52800094 	mov	w20, #0x4                   	// #4
    3728:	52803c00 	mov	w0, #0x1e0                 	// #480
    372c:	94000b7b 	bl	6518 <time_busy_wait_us>
    3730:	940007d2 	bl	5678 <sys_lock>
    3734:	52800021 	mov	w1, #0x1                   	// #1
    3738:	aa1303e0 	mov	x0, x19
    373c:	97fffdab 	bl	2de8 <pin_write>
    3740:	52800061 	mov	w1, #0x3                   	// #3
    3744:	aa1303e0 	mov	x0, x19
    3748:	97fffdb8 	bl	2e28 <pin_set_mode>
    374c:	528008c0 	mov	w0, #0x46                  	// #70
    3750:	94000b72 	bl	6518 <time_busy_wait_us>
    3754:	aa1303e0 	mov	x0, x19
    3758:	97fffd94 	bl	2da8 <pin_read>
    375c:	2a0003f5 	mov	w21, w0
    3760:	940007c8 	bl	5680 <sys_unlock>
    3764:	52803340 	mov	w0, #0x19a                 	// #410
    3768:	94000b6c 	bl	6518 <time_busy_wait_us>
    376c:	52800001 	mov	w1, #0x0                   	// #0
    3770:	aa1303e0 	mov	x0, x19
    3774:	97fffdad 	bl	2e28 <pin_set_mode>
    3778:	52800001 	mov	w1, #0x0                   	// #0
    377c:	aa1303e0 	mov	x0, x19
    3780:	340003d5 	cbz	w21, 37f8 <owi_reset+0xf8>
    3784:	97fffd99 	bl	2de8 <pin_write>
    3788:	52803c00 	mov	w0, #0x1e0                 	// #480
    378c:	94000b63 	bl	6518 <time_busy_wait_us>
    3790:	940007ba 	bl	5678 <sys_lock>
    3794:	52800021 	mov	w1, #0x1                   	// #1
    3798:	aa1303e0 	mov	x0, x19
    379c:	97fffd93 	bl	2de8 <pin_write>
    37a0:	52800061 	mov	w1, #0x3                   	// #3
    37a4:	aa1303e0 	mov	x0, x19
    37a8:	97fffda0 	bl	2e28 <pin_set_mode>
    37ac:	528008c0 	mov	w0, #0x46                  	// #70
    37b0:	94000b5a 	bl	6518 <time_busy_wait_us>
    37b4:	aa1303e0 	mov	x0, x19
    37b8:	97fffd7c 	bl	2da8 <pin_read>
    37bc:	2a0003f5 	mov	w21, w0
    37c0:	940007b0 	bl	5680 <sys_unlock>
    37c4:	52803340 	mov	w0, #0x19a                 	// #410
    37c8:	94000b54 	bl	6518 <time_busy_wait_us>
    37cc:	52800001 	mov	w1, #0x0                   	// #0
    37d0:	aa1303e0 	mov	x0, x19
    37d4:	97fffd95 	bl	2e28 <pin_set_mode>
    37d8:	71000694 	subs	w20, w20, #0x1
    37dc:	54fffce1 	b.ne	3778 <owi_reset+0x78>  // b.any
    37e0:	710002bf 	cmp	w21, #0x0
    37e4:	f94013f5 	ldr	x21, [sp, #32]
    37e8:	1a9f17e0 	cset	w0, eq  // eq = none
    37ec:	a94153f3 	ldp	x19, x20, [sp, #16]
    37f0:	a8c37bfd 	ldp	x29, x30, [sp], #48
    37f4:	d65f03c0 	ret
    37f8:	52800020 	mov	w0, #0x1                   	// #1
    37fc:	f94013f5 	ldr	x21, [sp, #32]
    3800:	a94153f3 	ldp	x19, x20, [sp, #16]
    3804:	a8c37bfd 	ldp	x29, x30, [sp], #48
    3808:	d65f03c0 	ret
    380c:	d01fffe0 	adrp	x0, 40001000 <level_warning+0x140>
    3810:	91248000 	add	x0, x0, #0x920
    3814:	94002409 	bl	c838 <std_printf>
    3818:	b01fffe1 	adrp	x1, 40000000 <__ram_begin>
    381c:	528002c0 	mov	w0, #0x16                  	// #22
    3820:	f9400421 	ldr	x1, [x1, #8]
    3824:	d63f0020 	blr	x1
    3828:	17ffffbc 	b	3718 <owi_reset+0x18>
    382c:	00000000 	.inst	0x00000000 ; undefined

0000000000003830 <owi_read>:
    3830:	a9bc7bfd 	stp	x29, x30, [sp, #-64]!
    3834:	910003fd 	mov	x29, sp
    3838:	a90153f3 	stp	x19, x20, [sp, #16]
    383c:	aa0003f4 	mov	x20, x0
    3840:	a9025bf5 	stp	x21, x22, [sp, #32]
    3844:	aa0103f3 	mov	x19, x1
    3848:	f9001bf7 	str	x23, [sp, #48]
    384c:	aa0203f7 	mov	x23, x2
    3850:	b4000840 	cbz	x0, 3958 <owi_read+0x128>
    3854:	b4000933 	cbz	x19, 3978 <owi_read+0x148>
    3858:	2a1703f6 	mov	w22, w23
    385c:	52800015 	mov	w21, #0x0                   	// #0
    3860:	b4000637 	cbz	x23, 3924 <owi_read+0xf4>
    3864:	d503201f 	nop
    3868:	94000784 	bl	5678 <sys_lock>
    386c:	52800001 	mov	w1, #0x0                   	// #0
    3870:	aa1403e0 	mov	x0, x20
    3874:	97fffd5d 	bl	2de8 <pin_write>
    3878:	528000a0 	mov	w0, #0x5                   	// #5
    387c:	94000b27 	bl	6518 <time_busy_wait_us>
    3880:	52800061 	mov	w1, #0x3                   	// #3
    3884:	aa1403e0 	mov	x0, x20
    3888:	97fffd68 	bl	2e28 <pin_set_mode>
    388c:	52800120 	mov	w0, #0x9                   	// #9
    3890:	94000b22 	bl	6518 <time_busy_wait_us>
    3894:	39400261 	ldrb	w1, [x19]
    3898:	aa1403e0 	mov	x0, x20
    389c:	53017c21 	lsr	w1, w1, #1
    38a0:	39000261 	strb	w1, [x19]
    38a4:	97fffd41 	bl	2da8 <pin_read>
    38a8:	39400261 	ldrb	w1, [x19]
    38ac:	2a001c20 	orr	w0, w1, w0, lsl #7
    38b0:	39000260 	strb	w0, [x19]
    38b4:	94000773 	bl	5680 <sys_unlock>
    38b8:	528006e0 	mov	w0, #0x37                  	// #55
    38bc:	94000b17 	bl	6518 <time_busy_wait_us>
    38c0:	52800001 	mov	w1, #0x0                   	// #0
    38c4:	aa1403e0 	mov	x0, x20
    38c8:	97fffd58 	bl	2e28 <pin_set_mode>
    38cc:	52800021 	mov	w1, #0x1                   	// #1
    38d0:	aa1403e0 	mov	x0, x20
    38d4:	97fffd45 	bl	2de8 <pin_write>
    38d8:	12000aa0 	and	w0, w21, #0x7
    38dc:	110006b5 	add	w21, w21, #0x1
    38e0:	71001c1f 	cmp	w0, #0x7
    38e4:	9a931673 	cinc	x19, x19, eq  // eq = none
    38e8:	6b1602bf 	cmp	w21, w22
    38ec:	54fffbe1 	b.ne	3868 <owi_read+0x38>  // b.any
    38f0:	f2400ae2 	ands	x2, x23, #0x7
    38f4:	540000c0 	b.eq	390c <owi_read+0xdc>  // b.none
    38f8:	39400260 	ldrb	w0, [x19]
    38fc:	52800101 	mov	w1, #0x8                   	// #8
    3900:	4b020021 	sub	w1, w1, w2
    3904:	1ac12800 	asr	w0, w0, w1
    3908:	39000260 	strb	w0, [x19]
    390c:	aa1703e0 	mov	x0, x23
    3910:	f9401bf7 	ldr	x23, [sp, #48]
    3914:	a94153f3 	ldp	x19, x20, [sp, #16]
    3918:	a9425bf5 	ldp	x21, x22, [sp, #32]
    391c:	a8c47bfd 	ldp	x29, x30, [sp], #64
    3920:	d65f03c0 	ret
    3924:	d01fffe0 	adrp	x0, 40001000 <level_warning+0x140>
    3928:	91232000 	add	x0, x0, #0x8c8
    392c:	940023c3 	bl	c838 <std_printf>
    3930:	b01fffe1 	adrp	x1, 40000000 <__ram_begin>
    3934:	528002c0 	mov	w0, #0x16                  	// #22
    3938:	f9400421 	ldr	x1, [x1, #8]
    393c:	d63f0020 	blr	x1
    3940:	aa1703e0 	mov	x0, x23
    3944:	f9401bf7 	ldr	x23, [sp, #48]
    3948:	a94153f3 	ldp	x19, x20, [sp, #16]
    394c:	a9425bf5 	ldp	x21, x22, [sp, #32]
    3950:	a8c47bfd 	ldp	x29, x30, [sp], #64
    3954:	d65f03c0 	ret
    3958:	d01fffe0 	adrp	x0, 40001000 <level_warning+0x140>
    395c:	91200000 	add	x0, x0, #0x800
    3960:	940023b6 	bl	c838 <std_printf>
    3964:	b01fffe1 	adrp	x1, 40000000 <__ram_begin>
    3968:	528002c0 	mov	w0, #0x16                  	// #22
    396c:	f9400421 	ldr	x1, [x1, #8]
    3970:	d63f0020 	blr	x1
    3974:	b5fff733 	cbnz	x19, 3858 <owi_read+0x28>
    3978:	d01fffe0 	adrp	x0, 40001000 <level_warning+0x140>
    397c:	9121a000 	add	x0, x0, #0x868
    3980:	940023ae 	bl	c838 <std_printf>
    3984:	b01fffe1 	adrp	x1, 40000000 <__ram_begin>
    3988:	528002c0 	mov	w0, #0x16                  	// #22
    398c:	f9400421 	ldr	x1, [x1, #8]
    3990:	d63f0020 	blr	x1
    3994:	17ffffb1 	b	3858 <owi_read+0x28>

0000000000003998 <owi_write>:
    3998:	a9bc7bfd 	stp	x29, x30, [sp, #-64]!
    399c:	910003fd 	mov	x29, sp
    39a0:	a9025bf5 	stp	x21, x22, [sp, #32]
    39a4:	aa0003f5 	mov	x21, x0
    39a8:	f9001ff8 	str	x24, [sp, #56]
    39ac:	aa0103f6 	mov	x22, x1
    39b0:	aa0203f8 	mov	x24, x2
    39b4:	b40008a0 	cbz	x0, 3ac8 <owi_write+0x130>
    39b8:	b4000796 	cbz	x22, 3aa8 <owi_write+0x110>
    39bc:	b40005f8 	cbz	x24, 3a78 <owi_write+0xe0>
    39c0:	a90153b3 	stp	x19, x20, [x29, #16]
    39c4:	52800014 	mov	w20, #0x0                   	// #0
    39c8:	f9001bb7 	str	x23, [x29, #48]
    39cc:	52800013 	mov	w19, #0x0                   	// #0
    39d0:	2a1803f7 	mov	w23, w24
    39d4:	1400000d 	b	3a08 <owi_write+0x70>
    39d8:	528000a0 	mov	w0, #0x5                   	// #5
    39dc:	94000acf 	bl	6518 <time_busy_wait_us>
    39e0:	52800021 	mov	w1, #0x1                   	// #1
    39e4:	aa1503e0 	mov	x0, x21
    39e8:	97fffd00 	bl	2de8 <pin_write>
    39ec:	11000673 	add	w19, w19, #0x1
    39f0:	52800800 	mov	w0, #0x40                  	// #64
    39f4:	94000ac9 	bl	6518 <time_busy_wait_us>
    39f8:	53017e94 	lsr	w20, w20, #1
    39fc:	94000721 	bl	5680 <sys_unlock>
    3a00:	6b17027f 	cmp	w19, w23
    3a04:	540002c0 	b.eq	3a5c <owi_write+0xc4>  // b.none
    3a08:	f2400a7f 	tst	x19, #0x7
    3a0c:	54000061 	b.ne	3a18 <owi_write+0x80>  // b.any
    3a10:	394002d4 	ldrb	w20, [x22]
    3a14:	910006d6 	add	x22, x22, #0x1
    3a18:	94000718 	bl	5678 <sys_lock>
    3a1c:	52800001 	mov	w1, #0x0                   	// #0
    3a20:	aa1503e0 	mov	x0, x21
    3a24:	97fffcf1 	bl	2de8 <pin_write>
    3a28:	3707fd94 	tbnz	w20, #0, 39d8 <owi_write+0x40>
    3a2c:	52800760 	mov	w0, #0x3b                  	// #59
    3a30:	94000aba 	bl	6518 <time_busy_wait_us>
    3a34:	52800021 	mov	w1, #0x1                   	// #1
    3a38:	aa1503e0 	mov	x0, x21
    3a3c:	97fffceb 	bl	2de8 <pin_write>
    3a40:	11000673 	add	w19, w19, #0x1
    3a44:	52800140 	mov	w0, #0xa                   	// #10
    3a48:	94000ab4 	bl	6518 <time_busy_wait_us>
    3a4c:	53017e94 	lsr	w20, w20, #1
    3a50:	9400070c 	bl	5680 <sys_unlock>
    3a54:	6b17027f 	cmp	w19, w23
    3a58:	54fffd81 	b.ne	3a08 <owi_write+0x70>  // b.any
    3a5c:	aa1803e0 	mov	x0, x24
    3a60:	f9401bb7 	ldr	x23, [x29, #48]
    3a64:	a94153b3 	ldp	x19, x20, [x29, #16]
    3a68:	a9425bf5 	ldp	x21, x22, [sp, #32]
    3a6c:	f9401ff8 	ldr	x24, [sp, #56]
    3a70:	a8c47bfd 	ldp	x29, x30, [sp], #64
    3a74:	d65f03c0 	ret
    3a78:	d01fffe0 	adrp	x0, 40001000 <level_warning+0x140>
    3a7c:	912aa000 	add	x0, x0, #0xaa8
    3a80:	9400236e 	bl	c838 <std_printf>
    3a84:	b01fffe1 	adrp	x1, 40000000 <__ram_begin>
    3a88:	528002c0 	mov	w0, #0x16                  	// #22
    3a8c:	f9400421 	ldr	x1, [x1, #8]
    3a90:	d63f0020 	blr	x1
    3a94:	aa1803e0 	mov	x0, x24
    3a98:	f9401ff8 	ldr	x24, [sp, #56]
    3a9c:	a9425bf5 	ldp	x21, x22, [sp, #32]
    3aa0:	a8c47bfd 	ldp	x29, x30, [sp], #64
    3aa4:	d65f03c0 	ret
    3aa8:	d01fffe0 	adrp	x0, 40001000 <level_warning+0x140>
    3aac:	91292000 	add	x0, x0, #0xa48
    3ab0:	94002362 	bl	c838 <std_printf>
    3ab4:	b01fffe1 	adrp	x1, 40000000 <__ram_begin>
    3ab8:	528002c0 	mov	w0, #0x16                  	// #22
    3abc:	f9400421 	ldr	x1, [x1, #8]
    3ac0:	d63f0020 	blr	x1
    3ac4:	17ffffbe 	b	39bc <owi_write+0x24>
    3ac8:	d01fffe0 	adrp	x0, 40001000 <level_warning+0x140>
    3acc:	91278000 	add	x0, x0, #0x9e0
    3ad0:	9400235a 	bl	c838 <std_printf>
    3ad4:	b01fffe1 	adrp	x1, 40000000 <__ram_begin>
    3ad8:	528002c0 	mov	w0, #0x16                  	// #22
    3adc:	f9400421 	ldr	x1, [x1, #8]
    3ae0:	d63f0020 	blr	x1
    3ae4:	b5fff6d6 	cbnz	x22, 39bc <owi_write+0x24>
    3ae8:	17fffff0 	b	3aa8 <owi_write+0x110>
    3aec:	00000000 	.inst	0x00000000 ; undefined

0000000000003af0 <owi_search>:
    3af0:	a9b97bfd 	stp	x29, x30, [sp, #-112]!
    3af4:	910003fd 	mov	x29, sp
    3af8:	a90153f3 	stp	x19, x20, [sp, #16]
    3afc:	a9025bf5 	stp	x21, x22, [sp, #32]
    3b00:	aa0003f5 	mov	x21, x0
    3b04:	a90363f7 	stp	x23, x24, [sp, #48]
    3b08:	a9046bf9 	stp	x25, x26, [sp, #64]
    3b0c:	a90573fb 	stp	x27, x28, [sp, #80]
    3b10:	b4000b80 	cbz	x0, 3c80 <owi_search+0x190>
    3b14:	f94006b3 	ldr	x19, [x21, #8]
    3b18:	d2800000 	mov	x0, #0x0                   	// #0
    3b1c:	1280001a 	mov	w26, #0xffffffff            	// #-1
    3b20:	128001fb 	mov	w27, #0xfffffff0            	// #-16
    3b24:	f9000ebf 	str	xzr, [x21, #24]
    3b28:	f9400aa1 	ldr	x1, [x21, #16]
    3b2c:	eb00003f 	cmp	x1, x0
    3b30:	540003c9 	b.ls	3ba8 <owi_search+0xb8>  // b.plast
    3b34:	9100227c 	add	x28, x19, #0x8
    3b38:	52800018 	mov	w24, #0x0                   	// #0
    3b3c:	12800019 	mov	w25, #0xffffffff            	// #-1
    3b40:	aa1503e0 	mov	x0, x21
    3b44:	97fffeef 	bl	3700 <owi_reset>
    3b48:	3901bfbb 	strb	w27, [x29, #111]
    3b4c:	d2800102 	mov	x2, #0x8                   	// #8
    3b50:	9101bfa1 	add	x1, x29, #0x6f
    3b54:	aa1503e0 	mov	x0, x21
    3b58:	97ffff90 	bl	3998 <owi_write>
    3b5c:	11000717 	add	w23, w24, #0x1
    3b60:	d2800014 	mov	x20, #0x0                   	// #0
    3b64:	39400263 	ldrb	w3, [x19]
    3b68:	d2800042 	mov	x2, #0x2                   	// #2
    3b6c:	9101bfa1 	add	x1, x29, #0x6f
    3b70:	aa1503e0 	mov	x0, x21
    3b74:	53017c63 	lsr	w3, w3, #1
    3b78:	39000263 	strb	w3, [x19]
    3b7c:	3901bfbf 	strb	wzr, [x29, #111]
    3b80:	97ffff2c 	bl	3830 <owi_read>
    3b84:	3941bfa0 	ldrb	w0, [x29, #111]
    3b88:	7100041f 	cmp	w0, #0x1
    3b8c:	54000600 	b.eq	3c4c <owi_search+0x15c>  // b.none
    3b90:	340001a0 	cbz	w0, 3bc4 <owi_search+0xd4>
    3b94:	7100081f 	cmp	w0, #0x2
    3b98:	54000560 	b.eq	3c44 <owi_search+0x154>  // b.none
    3b9c:	71000c1f 	cmp	w0, #0x3
    3ba0:	54000201 	b.ne	3be0 <owi_search+0xf0>  // b.any
    3ba4:	b9401aa0 	ldr	w0, [x21, #24]
    3ba8:	a94153f3 	ldp	x19, x20, [sp, #16]
    3bac:	a9425bf5 	ldp	x21, x22, [sp, #32]
    3bb0:	a94363f7 	ldp	x23, x24, [sp, #48]
    3bb4:	a9446bf9 	ldp	x25, x26, [sp, #64]
    3bb8:	a94573fb 	ldp	x27, x28, [sp, #80]
    3bbc:	a8c77bfd 	ldp	x29, x30, [sp], #112
    3bc0:	d65f03c0 	ret
    3bc4:	0b140300 	add	w0, w24, w20
    3bc8:	6b00035f 	cmp	w26, w0
    3bcc:	5400044c 	b.gt	3c54 <owi_search+0x164>
    3bd0:	5400052a 	b.ge	3c74 <owi_search+0x184>  // b.tcont
    3bd4:	13001c19 	sxtb	w25, w0
    3bd8:	3901bfbf 	strb	wzr, [x29, #111]
    3bdc:	d503201f 	nop
    3be0:	d2800022 	mov	x2, #0x1                   	// #1
    3be4:	9101bfa1 	add	x1, x29, #0x6f
    3be8:	aa1503e0 	mov	x0, x21
    3bec:	97ffff6b 	bl	3998 <owi_write>
    3bf0:	3941bfa1 	ldrb	w1, [x29, #111]
    3bf4:	0b1402f6 	add	w22, w23, w20
    3bf8:	39400262 	ldrb	w2, [x19]
    3bfc:	52800020 	mov	w0, #0x1                   	// #1
    3c00:	91000694 	add	x20, x20, #0x1
    3c04:	2a011c41 	orr	w1, w2, w1, lsl #7
    3c08:	39000261 	strb	w1, [x19]
    3c0c:	94000a43 	bl	6518 <time_busy_wait_us>
    3c10:	f100229f 	cmp	x20, #0x8
    3c14:	54fffa81 	b.ne	3b64 <owi_search+0x74>  // b.any
    3c18:	91000673 	add	x19, x19, #0x1
    3c1c:	2a1603f8 	mov	w24, w22
    3c20:	eb1c027f 	cmp	x19, x28
    3c24:	54fff9c1 	b.ne	3b5c <owi_search+0x6c>  // b.any
    3c28:	f9400ea0 	ldr	x0, [x21, #24]
    3c2c:	2a1903fa 	mov	w26, w25
    3c30:	3100073f 	cmn	w25, #0x1
    3c34:	91000400 	add	x0, x0, #0x1
    3c38:	f9000ea0 	str	x0, [x21, #24]
    3c3c:	54fff761 	b.ne	3b28 <owi_search+0x38>  // b.any
    3c40:	17ffffda 	b	3ba8 <owi_search+0xb8>
    3c44:	3901bfbf 	strb	wzr, [x29, #111]
    3c48:	17ffffe6 	b	3be0 <owi_search+0xf0>
    3c4c:	3901bfa0 	strb	w0, [x29, #111]
    3c50:	17ffffe4 	b	3be0 <owi_search+0xf0>
    3c54:	385f8261 	ldurb	w1, [x19, #-8]
    3c58:	13001c00 	sxtb	w0, w0
    3c5c:	1ad42836 	asr	w22, w1, w20
    3c60:	120002d6 	and	w22, w22, #0x1
    3c64:	710002df 	cmp	w22, #0x0
    3c68:	3901bfb6 	strb	w22, [x29, #111]
    3c6c:	1a990019 	csel	w25, w0, w25, eq  // eq = none
    3c70:	17ffffdc 	b	3be0 <owi_search+0xf0>
    3c74:	52800020 	mov	w0, #0x1                   	// #1
    3c78:	3901bfa0 	strb	w0, [x29, #111]
    3c7c:	17ffffd9 	b	3be0 <owi_search+0xf0>
    3c80:	d01fffe0 	adrp	x0, 40001000 <level_warning+0x140>
    3c84:	91260000 	add	x0, x0, #0x980
    3c88:	940022ec 	bl	c838 <std_printf>
    3c8c:	b01fffe1 	adrp	x1, 40000000 <__ram_begin>
    3c90:	528002c0 	mov	w0, #0x16                  	// #22
    3c94:	f9400421 	ldr	x1, [x1, #8]
    3c98:	d63f0020 	blr	x1
    3c9c:	17ffff9e 	b	3b14 <owi_search+0x24>

0000000000003ca0 <uart_port_write_cb>:
    3ca0:	a9bd7bfd 	stp	x29, x30, [sp, #-48]!
    3ca4:	910003fd 	mov	x29, sp
    3ca8:	a90153f3 	stp	x19, x20, [sp, #16]
    3cac:	aa0003f3 	mov	x19, x0
    3cb0:	a9025bf5 	stp	x21, x22, [sp, #32]
    3cb4:	9102a015 	add	x21, x0, #0xa8
    3cb8:	aa0203f4 	mov	x20, x2
    3cbc:	aa0103f6 	mov	x22, x1
    3cc0:	aa1503e0 	mov	x0, x21
    3cc4:	94001f89 	bl	bae8 <mutex_lock>
    3cc8:	a90bd276 	stp	x22, x20, [x19, #184]
    3ccc:	9400071d 	bl	5940 <thrd_self>
    3cd0:	f9006660 	str	x0, [x19, #200]
    3cd4:	94000669 	bl	5678 <sys_lock>
    3cd8:	a94b8662 	ldp	x2, x1, [x19, #184]
    3cdc:	d2a12003 	mov	x3, #0x9000000             	// #150994944
    3ce0:	91000440 	add	x0, x2, #0x1
    3ce4:	f9005e60 	str	x0, [x19, #184]
    3ce8:	d1000421 	sub	x1, x1, #0x1
    3cec:	d2800000 	mov	x0, #0x0                   	// #0
    3cf0:	39400042 	ldrb	w2, [x2]
    3cf4:	b9000062 	str	w2, [x3]
    3cf8:	f9006261 	str	x1, [x19, #192]
    3cfc:	940008fb 	bl	60e8 <thrd_suspend_isr>
    3d00:	94000660 	bl	5680 <sys_unlock>
    3d04:	aa1503e0 	mov	x0, x21
    3d08:	94001fa2 	bl	bb90 <mutex_unlock>
    3d0c:	aa1403e0 	mov	x0, x20
    3d10:	a94153f3 	ldp	x19, x20, [sp, #16]
    3d14:	a9425bf5 	ldp	x21, x22, [sp, #32]
    3d18:	a8c37bfd 	ldp	x29, x30, [sp], #48
    3d1c:	d65f03c0 	ret

0000000000003d20 <isr_pl011>:
    3d20:	a9bc7bfd 	stp	x29, x30, [sp, #-64]!
    3d24:	b0200020 	adrp	x0, 40008000 <module>
    3d28:	910003fd 	mov	x29, sp
    3d2c:	f9000ff4 	str	x20, [sp, #24]
    3d30:	f940fc14 	ldr	x20, [x0, #504]
    3d34:	b40003f4 	cbz	x20, 3db0 <isr_pl011+0x90>
    3d38:	d2a12000 	mov	x0, #0x9000000             	// #150994944
    3d3c:	f9000bb3 	str	x19, [x29, #16]
    3d40:	b9404013 	ldr	w19, [x0, #64]
    3d44:	36280173 	tbz	w19, #5, 3d70 <isr_pl011+0x50>
    3d48:	f9406281 	ldr	x1, [x20, #192]
    3d4c:	52800402 	mov	w2, #0x20                  	// #32
    3d50:	b9004402 	str	w2, [x0, #68]
    3d54:	b5000481 	cbnz	x1, 3de4 <isr_pl011+0xc4>
    3d58:	f9406680 	ldr	x0, [x20, #200]
    3d5c:	b40000a0 	cbz	x0, 3d70 <isr_pl011+0x50>
    3d60:	52800001 	mov	w1, #0x0                   	// #0
    3d64:	940008b9 	bl	6048 <thrd_resume_isr>
    3d68:	f900669f 	str	xzr, [x20, #200]
    3d6c:	d503201f 	nop
    3d70:	36200273 	tbz	w19, #4, 3dbc <isr_pl011+0x9c>
    3d74:	f90013b5 	str	x21, [x29, #32]
    3d78:	d2a12013 	mov	x19, #0x9000000             	// #150994944
    3d7c:	528001f5 	mov	w21, #0xf                   	// #15
    3d80:	b9401a60 	ldr	w0, [x19, #24]
    3d84:	372000e0 	tbnz	w0, #4, 3da0 <isr_pl011+0x80>
    3d88:	b9400260 	ldr	w0, [x19]
    3d8c:	72180c1f 	tst	w0, #0xf00
    3d90:	540001e0 	b.eq	3dcc <isr_pl011+0xac>  // b.none
    3d94:	b9000675 	str	w21, [x19, #4]
    3d98:	b9401a60 	ldr	w0, [x19, #24]
    3d9c:	3627ff60 	tbz	w0, #4, 3d88 <isr_pl011+0x68>
    3da0:	52800200 	mov	w0, #0x10                  	// #16
    3da4:	f94013b5 	ldr	x21, [x29, #32]
    3da8:	b9004660 	str	w0, [x19, #68]
    3dac:	f9400bb3 	ldr	x19, [x29, #16]
    3db0:	f9400ff4 	ldr	x20, [sp, #24]
    3db4:	a8c47bfd 	ldp	x29, x30, [sp], #64
    3db8:	d65f03c0 	ret
    3dbc:	f9400bb3 	ldr	x19, [x29, #16]
    3dc0:	f9400ff4 	ldr	x20, [sp, #24]
    3dc4:	a8c47bfd 	ldp	x29, x30, [sp], #64
    3dc8:	d65f03c0 	ret
    3dcc:	3900ffa0 	strb	w0, [x29, #63]
    3dd0:	d2800022 	mov	x2, #0x1                   	// #1
    3dd4:	9100ffa1 	add	x1, x29, #0x3f
    3dd8:	aa1403e0 	mov	x0, x20
    3ddc:	94001ff7 	bl	bdb8 <queue_write_isr>
    3de0:	17ffffe8 	b	3d80 <isr_pl011+0x60>
    3de4:	f9405e82 	ldr	x2, [x20, #184]
    3de8:	d1000421 	sub	x1, x1, #0x1
    3dec:	91000443 	add	x3, x2, #0x1
    3df0:	f9005e83 	str	x3, [x20, #184]
    3df4:	39400042 	ldrb	w2, [x2]
    3df8:	b9000002 	str	w2, [x0]
    3dfc:	f9006281 	str	x1, [x20, #192]
    3e00:	3727fbb3 	tbnz	w19, #4, 3d74 <isr_pl011+0x54>
    3e04:	17ffffee 	b	3dbc <isr_pl011+0x9c>

0000000000003e08 <uart_module_init>:
    3e08:	f0200000 	adrp	x0, 40006000 <null+0x928>
    3e0c:	39eb4001 	ldrsb	w1, [x0, #2768]
    3e10:	7100043f 	cmp	w1, #0x1
    3e14:	54000060 	b.eq	3e20 <uart_module_init+0x18>  // b.none
    3e18:	52800021 	mov	w1, #0x1                   	// #1
    3e1c:	392b4001 	strb	w1, [x0, #2768]
    3e20:	52800000 	mov	w0, #0x0                   	// #0
    3e24:	d65f03c0 	ret

0000000000003e28 <uart_init>:
    3e28:	a9bc7bfd 	stp	x29, x30, [sp, #-64]!
    3e2c:	910003fd 	mov	x29, sp
    3e30:	a90153f3 	stp	x19, x20, [sp, #16]
    3e34:	aa0003f3 	mov	x19, x0
    3e38:	a9025bf5 	stp	x21, x22, [sp, #32]
    3e3c:	aa0103f4 	mov	x20, x1
    3e40:	f9001bf7 	str	x23, [sp, #48]
    3e44:	aa0303f5 	mov	x21, x3
    3e48:	aa0403f6 	mov	x22, x4
    3e4c:	aa0203f7 	mov	x23, x2
    3e50:	b4000320 	cbz	x0, 3eb4 <uart_init+0x8c>
    3e54:	b4000434 	cbz	x20, 3ed8 <uart_init+0xb0>
    3e58:	f9005274 	str	x20, [x19, #160]
    3e5c:	9102a260 	add	x0, x19, #0xa8
    3e60:	f9006a77 	str	x23, [x19, #208]
    3e64:	b900da7f 	str	wzr, [x19, #216]
    3e68:	94001f18 	bl	bac8 <mutex_init>
    3e6c:	aa1603e2 	mov	x2, x22
    3e70:	aa1503e1 	mov	x1, x21
    3e74:	aa1303e0 	mov	x0, x19
    3e78:	9400206e 	bl	c030 <queue_init>
    3e7c:	aa1303e0 	mov	x0, x19
    3e80:	90000001 	adrp	x1, 3000 <i2c_read+0x40>
    3e84:	91328021 	add	x1, x1, #0xca0
    3e88:	94001e3e 	bl	b780 <chan_set_write_cb>
    3e8c:	aa1303e0 	mov	x0, x19
    3e90:	90000001 	adrp	x1, 3000 <i2c_read+0x40>
    3e94:	913ea021 	add	x1, x1, #0xfa8
    3e98:	94001e3e 	bl	b790 <chan_set_write_isr_cb>
    3e9c:	52800000 	mov	w0, #0x0                   	// #0
    3ea0:	f9401bf7 	ldr	x23, [sp, #48]
    3ea4:	a94153f3 	ldp	x19, x20, [sp, #16]
    3ea8:	a9425bf5 	ldp	x21, x22, [sp, #32]
    3eac:	a8c47bfd 	ldp	x29, x30, [sp], #64
    3eb0:	d65f03c0 	ret
    3eb4:	d01fffe0 	adrp	x0, 40001000 <level_warning+0x140>
    3eb8:	912c0000 	add	x0, x0, #0xb00
    3ebc:	9400225f 	bl	c838 <std_printf>
    3ec0:	b01fffe1 	adrp	x1, 40000000 <__ram_begin>
    3ec4:	528002c0 	mov	w0, #0x16                  	// #22
    3ec8:	f9400421 	ldr	x1, [x1, #8]
    3ecc:	d63f0020 	blr	x1
    3ed0:	b5fffc54 	cbnz	x20, 3e58 <uart_init+0x30>
    3ed4:	d503201f 	nop
    3ed8:	d01fffe0 	adrp	x0, 40001000 <level_warning+0x140>
    3edc:	912da000 	add	x0, x0, #0xb68
    3ee0:	94002256 	bl	c838 <std_printf>
    3ee4:	b01fffe1 	adrp	x1, 40000000 <__ram_begin>
    3ee8:	528002c0 	mov	w0, #0x16                  	// #22
    3eec:	f9400421 	ldr	x1, [x1, #8]
    3ef0:	d63f0020 	blr	x1
    3ef4:	17ffffd9 	b	3e58 <uart_init+0x30>

0000000000003ef8 <uart_start>:
    3ef8:	a9be7bfd 	stp	x29, x30, [sp, #-32]!
    3efc:	910003fd 	mov	x29, sp
    3f00:	f9000bf3 	str	x19, [sp, #16]
    3f04:	aa0003f3 	mov	x19, x0
    3f08:	b4000280 	cbz	x0, 3f58 <uart_start+0x60>
    3f0c:	f9405260 	ldr	x0, [x19, #160]
    3f10:	d2a12002 	mov	x2, #0x9000000             	// #150994944
    3f14:	52800e05 	mov	w5, #0x70                  	// #112
    3f18:	52806024 	mov	w4, #0x301                 	// #769
    3f1c:	d2a10001 	mov	x1, #0x8000000             	// #134217728
    3f20:	52800603 	mov	w3, #0x30                  	// #48
    3f24:	f9000013 	str	x19, [x0]
    3f28:	52800000 	mov	w0, #0x0                   	// #0
    3f2c:	f9400bf3 	ldr	x19, [sp, #16]
    3f30:	b9002c45 	str	w5, [x2, #44]
    3f34:	b9003044 	str	w4, [x2, #48]
    3f38:	b9003843 	str	w3, [x2, #56]
    3f3c:	b9442022 	ldr	w2, [x1, #1056]
    3f40:	b9042022 	str	w2, [x1, #1056]
    3f44:	b9410422 	ldr	w2, [x1, #260]
    3f48:	321f0042 	orr	w2, w2, #0x2
    3f4c:	b9010422 	str	w2, [x1, #260]
    3f50:	a8c27bfd 	ldp	x29, x30, [sp], #32
    3f54:	d65f03c0 	ret
    3f58:	d01fffe0 	adrp	x0, 40001000 <level_warning+0x140>
    3f5c:	912f2000 	add	x0, x0, #0xbc8
    3f60:	94002236 	bl	c838 <std_printf>
    3f64:	b01fffe1 	adrp	x1, 40000000 <__ram_begin>
    3f68:	528002c0 	mov	w0, #0x16                  	// #22
    3f6c:	f9400421 	ldr	x1, [x1, #8]
    3f70:	d63f0020 	blr	x1
    3f74:	17ffffe6 	b	3f0c <uart_start+0x14>

0000000000003f78 <uart_device_write>:
    3f78:	aa0203e0 	mov	x0, x2
    3f7c:	b4000122 	cbz	x2, 3fa0 <uart_device_write+0x28>
    3f80:	8b020025 	add	x5, x1, x2
    3f84:	d2a12004 	mov	x4, #0x9000000             	// #150994944
    3f88:	b9401883 	ldr	w3, [x4, #24]
    3f8c:	372fffe3 	tbnz	w3, #5, 3f88 <uart_device_write+0x10>
    3f90:	38401423 	ldrb	w3, [x1], #1
    3f94:	b9000083 	str	w3, [x4]
    3f98:	eb0100bf 	cmp	x5, x1
    3f9c:	54ffff61 	b.ne	3f88 <uart_device_write+0x10>  // b.any
    3fa0:	d65f03c0 	ret
    3fa4:	00000000 	.inst	0x00000000 ; undefined

0000000000003fa8 <uart_port_write_cb_isr>:
    3fa8:	17fffff4 	b	3f78 <uart_device_write>
    3fac:	00000000 	.inst	0x00000000 ; undefined

0000000000003fb0 <ds18b20_module_init>:
    3fb0:	f0200004 	adrp	x4, 40006000 <null+0x928>
    3fb4:	39eb6080 	ldrsb	w0, [x4, #2776]
    3fb8:	7100041f 	cmp	w0, #0x1
    3fbc:	540002a0 	b.eq	4010 <ds18b20_module_init+0x60>  // b.none
    3fc0:	a9be7bfd 	stp	x29, x30, [sp, #-32]!
    3fc4:	52800025 	mov	w5, #0x1                   	// #1
    3fc8:	b0000002 	adrp	x2, 4000 <ds18b20_module_init+0x50>
    3fcc:	d01fffe1 	adrp	x1, 40001000 <level_warning+0x140>
    3fd0:	910003fd 	mov	x29, sp
    3fd4:	f9000bf3 	str	x19, [sp, #16]
    3fd8:	910b4042 	add	x2, x2, #0x2d0
    3fdc:	912b6093 	add	x19, x4, #0xad8
    3fe0:	91338021 	add	x1, x1, #0xce0
    3fe4:	d2800003 	mov	x3, #0x0                   	// #0
    3fe8:	91004273 	add	x19, x19, #0x10
    3fec:	392b6085 	strb	w5, [x4, #2776]
    3ff0:	aa1303e0 	mov	x0, x19
    3ff4:	94001cd3 	bl	b340 <fs_command_init>
    3ff8:	aa1303e0 	mov	x0, x19
    3ffc:	94001d03 	bl	b408 <fs_command_register>
    4000:	52800000 	mov	w0, #0x0                   	// #0
    4004:	f9400bf3 	ldr	x19, [sp, #16]
    4008:	a8c27bfd 	ldp	x29, x30, [sp], #32
    400c:	d65f03c0 	ret
    4010:	52800000 	mov	w0, #0x0                   	// #0
    4014:	d65f03c0 	ret

0000000000004018 <ds18b20_convert>:
    4018:	a9bd7bfd 	stp	x29, x30, [sp, #-48]!
    401c:	910003fd 	mov	x29, sp
    4020:	a90153f3 	stp	x19, x20, [sp, #16]
    4024:	aa0003f4 	mov	x20, x0
    4028:	b40002c0 	cbz	x0, 4080 <ds18b20_convert+0x68>
    402c:	f9400280 	ldr	x0, [x20]
    4030:	9100c3b3 	add	x19, x29, #0x30
    4034:	97fffdb3 	bl	3700 <owi_reset>
    4038:	f9400280 	ldr	x0, [x20]
    403c:	12800661 	mov	w1, #0xffffffcc            	// #-52
    4040:	381ffe61 	strb	w1, [x19, #-1]!
    4044:	d2800102 	mov	x2, #0x8                   	// #8
    4048:	aa1303e1 	mov	x1, x19
    404c:	97fffe53 	bl	3998 <owi_write>
    4050:	f9400280 	ldr	x0, [x20]
    4054:	52800883 	mov	w3, #0x44                  	// #68
    4058:	aa1303e1 	mov	x1, x19
    405c:	d2800102 	mov	x2, #0x8                   	// #8
    4060:	3900bfa3 	strb	w3, [x29, #47]
    4064:	97fffe4d 	bl	3998 <owi_write>
    4068:	52805dc0 	mov	w0, #0x2ee                 	// #750
    406c:	9400089b 	bl	62d8 <thrd_sleep_ms>
    4070:	52800000 	mov	w0, #0x0                   	// #0
    4074:	a94153f3 	ldp	x19, x20, [sp, #16]
    4078:	a8c37bfd 	ldp	x29, x30, [sp], #48
    407c:	d65f03c0 	ret
    4080:	b01fffe0 	adrp	x0, 40001000 <level_warning+0x140>
    4084:	9131e000 	add	x0, x0, #0xc78
    4088:	940021ec 	bl	c838 <std_printf>
    408c:	901fffe1 	adrp	x1, 40000000 <__ram_begin>
    4090:	528002c0 	mov	w0, #0x16                  	// #22
    4094:	f9400421 	ldr	x1, [x1, #8]
    4098:	d63f0020 	blr	x1
    409c:	17ffffe4 	b	402c <ds18b20_convert+0x14>

00000000000040a0 <ds18b20_read_fixed_point>:
    40a0:	a9bb7bfd 	stp	x29, x30, [sp, #-80]!
    40a4:	910003fd 	mov	x29, sp
    40a8:	a90153f3 	stp	x19, x20, [sp, #16]
    40ac:	aa0003f3 	mov	x19, x0
    40b0:	a9025bf5 	stp	x21, x22, [sp, #32]
    40b4:	aa0103f5 	mov	x21, x1
    40b8:	aa0203f6 	mov	x22, x2
    40bc:	b4000720 	cbz	x0, 41a0 <ds18b20_read_fixed_point+0x100>
    40c0:	b40004f5 	cbz	x21, 415c <ds18b20_read_fixed_point+0xbc>
    40c4:	b40005f6 	cbz	x22, 4180 <ds18b20_read_fixed_point+0xe0>
    40c8:	f9400260 	ldr	x0, [x19]
    40cc:	910143b4 	add	x20, x29, #0x50
    40d0:	97fffd8c 	bl	3700 <owi_reset>
    40d4:	f9400260 	ldr	x0, [x19]
    40d8:	52800aa1 	mov	w1, #0x55                  	// #85
    40dc:	381efe81 	strb	w1, [x20, #-17]!
    40e0:	d2800102 	mov	x2, #0x8                   	// #8
    40e4:	aa1403e1 	mov	x1, x20
    40e8:	97fffe2c 	bl	3998 <owi_write>
    40ec:	f9400260 	ldr	x0, [x19]
    40f0:	d2800802 	mov	x2, #0x40                  	// #64
    40f4:	aa1503e1 	mov	x1, x21
    40f8:	97fffe28 	bl	3998 <owi_write>
    40fc:	f9400260 	ldr	x0, [x19]
    4100:	12800823 	mov	w3, #0xffffffbe            	// #-66
    4104:	d2800102 	mov	x2, #0x8                   	// #8
    4108:	3900ffa3 	strb	w3, [x29, #63]
    410c:	aa1403e1 	mov	x1, x20
    4110:	97fffe22 	bl	3998 <owi_write>
    4114:	f9400260 	ldr	x0, [x19]
    4118:	d2800902 	mov	x2, #0x48                  	// #72
    411c:	910103a1 	add	x1, x29, #0x40
    4120:	97fffdc4 	bl	3830 <owi_read>
    4124:	d2800123 	mov	x3, #0x9                   	// #9
    4128:	910103a2 	add	x2, x29, #0x40
    412c:	12800e61 	mov	w1, #0xffffff8c            	// #-116
    4130:	52800000 	mov	w0, #0x0                   	// #0
    4134:	940003c9 	bl	5058 <crc_8>
    4138:	72001c1f 	tst	w0, #0xff
    413c:	54000441 	b.ne	41c4 <ds18b20_read_fixed_point+0x124>  // b.any
    4140:	79c083a1 	ldrsh	w1, [x29, #64]
    4144:	52800000 	mov	w0, #0x0                   	// #0
    4148:	b90002c1 	str	w1, [x22]
    414c:	a94153f3 	ldp	x19, x20, [sp, #16]
    4150:	a9425bf5 	ldp	x21, x22, [sp, #32]
    4154:	a8c57bfd 	ldp	x29, x30, [sp], #80
    4158:	d65f03c0 	ret
    415c:	b01fffe0 	adrp	x0, 40001000 <level_warning+0x140>
    4160:	91358000 	add	x0, x0, #0xd60
    4164:	940021b5 	bl	c838 <std_printf>
    4168:	901fffe1 	adrp	x1, 40000000 <__ram_begin>
    416c:	528002c0 	mov	w0, #0x16                  	// #22
    4170:	f9400421 	ldr	x1, [x1, #8]
    4174:	d63f0020 	blr	x1
    4178:	b5fffa96 	cbnz	x22, 40c8 <ds18b20_read_fixed_point+0x28>
    417c:	d503201f 	nop
    4180:	b01fffe0 	adrp	x0, 40001000 <level_warning+0x140>
    4184:	91372000 	add	x0, x0, #0xdc8
    4188:	940021ac 	bl	c838 <std_printf>
    418c:	901fffe1 	adrp	x1, 40000000 <__ram_begin>
    4190:	528002c0 	mov	w0, #0x16                  	// #22
    4194:	f9400421 	ldr	x1, [x1, #8]
    4198:	d63f0020 	blr	x1
    419c:	17ffffcb 	b	40c8 <ds18b20_read_fixed_point+0x28>
    41a0:	b01fffe0 	adrp	x0, 40001000 <level_warning+0x140>
    41a4:	9133e000 	add	x0, x0, #0xcf8
    41a8:	940021a4 	bl	c838 <std_printf>
    41ac:	901fffe1 	adrp	x1, 40000000 <__ram_begin>
    41b0:	528002c0 	mov	w0, #0x16                  	// #22
    41b4:	f9400421 	ldr	x1, [x1, #8]
    41b8:	d63f0020 	blr	x1
    41bc:	b5fff855 	cbnz	x21, 40c4 <ds18b20_read_fixed_point+0x24>
    41c0:	17ffffe7 	b	415c <ds18b20_read_fixed_point+0xbc>
    41c4:	128008c0 	mov	w0, #0xffffffb9            	// #-71
    41c8:	17ffffe1 	b	414c <ds18b20_read_fixed_point+0xac>
    41cc:	00000000 	.inst	0x00000000 ; undefined

00000000000041d0 <ds18b20_read_string>:
    41d0:	a9bc7bfd 	stp	x29, x30, [sp, #-64]!
    41d4:	910003fd 	mov	x29, sp
    41d8:	a90153f3 	stp	x19, x20, [sp, #16]
    41dc:	aa0003f4 	mov	x20, x0
    41e0:	f90013f5 	str	x21, [sp, #32]
    41e4:	aa0203f3 	mov	x19, x2
    41e8:	aa0103f5 	mov	x21, x1
    41ec:	b4000600 	cbz	x0, 42ac <ds18b20_read_string+0xdc>
    41f0:	b40002b5 	cbz	x21, 4244 <ds18b20_read_string+0x74>
    41f4:	b40003b3 	cbz	x19, 4268 <ds18b20_read_string+0x98>
    41f8:	9100f3a2 	add	x2, x29, #0x3c
    41fc:	aa1503e1 	mov	x1, x21
    4200:	aa1403e0 	mov	x0, x20
    4204:	97ffffa7 	bl	40a0 <ds18b20_read_fixed_point>
    4208:	35000480 	cbnz	w0, 4298 <ds18b20_read_string+0xc8>
    420c:	b9403fa2 	ldr	w2, [x29, #60]
    4210:	52804e23 	mov	w3, #0x271                 	// #625
    4214:	aa1303e0 	mov	x0, x19
    4218:	b01fffe1 	adrp	x1, 40001000 <level_warning+0x140>
    421c:	12000c44 	and	w4, w2, #0xf
    4220:	913de021 	add	x1, x1, #0xf78
    4224:	13047c42 	asr	w2, w2, #4
    4228:	1b037c83 	mul	w3, w4, w3
    422c:	940021d3 	bl	c978 <std_sprintf>
    4230:	f94013f5 	ldr	x21, [sp, #32]
    4234:	aa1303e0 	mov	x0, x19
    4238:	a94153f3 	ldp	x19, x20, [sp, #16]
    423c:	a8c47bfd 	ldp	x29, x30, [sp], #64
    4240:	d65f03c0 	ret
    4244:	b01fffe0 	adrp	x0, 40001000 <level_warning+0x140>
    4248:	913a8000 	add	x0, x0, #0xea0
    424c:	9400217b 	bl	c838 <std_printf>
    4250:	901fffe1 	adrp	x1, 40000000 <__ram_begin>
    4254:	528002c0 	mov	w0, #0x16                  	// #22
    4258:	f9400421 	ldr	x1, [x1, #8]
    425c:	d63f0020 	blr	x1
    4260:	b5fffcd3 	cbnz	x19, 41f8 <ds18b20_read_string+0x28>
    4264:	d503201f 	nop
    4268:	b01fffe0 	adrp	x0, 40001000 <level_warning+0x140>
    426c:	913c2000 	add	x0, x0, #0xf08
    4270:	94002172 	bl	c838 <std_printf>
    4274:	901fffe1 	adrp	x1, 40000000 <__ram_begin>
    4278:	528002c0 	mov	w0, #0x16                  	// #22
    427c:	f9400421 	ldr	x1, [x1, #8]
    4280:	d63f0020 	blr	x1
    4284:	9100f3a2 	add	x2, x29, #0x3c
    4288:	aa1503e1 	mov	x1, x21
    428c:	aa1403e0 	mov	x0, x20
    4290:	97ffff84 	bl	40a0 <ds18b20_read_fixed_point>
    4294:	34fffbc0 	cbz	w0, 420c <ds18b20_read_string+0x3c>
    4298:	a94153f3 	ldp	x19, x20, [sp, #16]
    429c:	d2800000 	mov	x0, #0x0                   	// #0
    42a0:	f94013f5 	ldr	x21, [sp, #32]
    42a4:	a8c47bfd 	ldp	x29, x30, [sp], #64
    42a8:	d65f03c0 	ret
    42ac:	b01fffe0 	adrp	x0, 40001000 <level_warning+0x140>
    42b0:	9138e000 	add	x0, x0, #0xe38
    42b4:	94002161 	bl	c838 <std_printf>
    42b8:	901fffe1 	adrp	x1, 40000000 <__ram_begin>
    42bc:	528002c0 	mov	w0, #0x16                  	// #22
    42c0:	f9400421 	ldr	x1, [x1, #8]
    42c4:	d63f0020 	blr	x1
    42c8:	b5fff975 	cbnz	x21, 41f4 <ds18b20_read_string+0x24>
    42cc:	17ffffde 	b	4244 <ds18b20_read_string+0x74>

00000000000042d0 <cmd_list_cb>:
    42d0:	d10203ff 	sub	sp, sp, #0x80
    42d4:	b01fffe1 	adrp	x1, 40001000 <level_warning+0x140>
    42d8:	aa0203e0 	mov	x0, x2
    42dc:	9130c021 	add	x1, x1, #0xc30
    42e0:	a9027bfd 	stp	x29, x30, [sp, #32]
    42e4:	910083fd 	add	x29, sp, #0x20
    42e8:	f90023f5 	str	x21, [sp, #64]
    42ec:	f9002ff8 	str	x24, [sp, #88]
    42f0:	aa0203f8 	mov	x24, x2
    42f4:	940021f5 	bl	cac8 <std_fprintf>
    42f8:	d0200000 	adrp	x0, 40006000 <null+0x928>
    42fc:	f9457015 	ldr	x21, [x0, #2784]
    4300:	b4000775 	cbz	x21, 43ec <cmd_list_cb+0x11c>
    4304:	a902dfb6 	stp	x22, x23, [x29, #40]
    4308:	b01ffff7 	adrp	x23, 40001000 <level_warning+0x140>
    430c:	910143b6 	add	x22, x29, #0x50
    4310:	913142f7 	add	x23, x23, #0xc50
    4314:	a90153b3 	stp	x19, x20, [x29, #16]
    4318:	f90023b9 	str	x25, [x29, #64]
    431c:	d503201f 	nop
    4320:	f94002a0 	ldr	x0, [x21]
    4324:	97fffdf3 	bl	3af0 <owi_search>
    4328:	aa1503e0 	mov	x0, x21
    432c:	97ffff3b 	bl	4018 <ds18b20_convert>
    4330:	f94002a2 	ldr	x2, [x21]
    4334:	f9400c40 	ldr	x0, [x2, #24]
    4338:	f9400453 	ldr	x19, [x2, #8]
    433c:	b40004e0 	cbz	x0, 43d8 <cmd_list_cb+0x108>
    4340:	d2800034 	mov	x20, #0x1                   	// #1
    4344:	528005b9 	mov	w25, #0x2d                  	// #45
    4348:	14000007 	b	4364 <cmd_list_cb+0x94>
    434c:	f9400c41 	ldr	x1, [x2, #24]
    4350:	91000680 	add	x0, x20, #0x1
    4354:	91002273 	add	x19, x19, #0x8
    4358:	eb14003f 	cmp	x1, x20
    435c:	aa0003f4 	mov	x20, x0
    4360:	540003c9 	b.ls	43d8 <cmd_list_cb+0x108>  // b.plast
    4364:	39400260 	ldrb	w0, [x19]
    4368:	7100a01f 	cmp	w0, #0x28
    436c:	54ffff01 	b.ne	434c <cmd_list_cb+0x7c>  // b.any
    4370:	aa1303e1 	mov	x1, x19
    4374:	aa1603e2 	mov	x2, x22
    4378:	aa1503e0 	mov	x0, x21
    437c:	97ffff95 	bl	41d0 <ds18b20_read_string>
    4380:	b4000420 	cbz	x0, 4404 <cmd_list_cb+0x134>
    4384:	39400262 	ldrb	w2, [x19]
    4388:	aa1703e1 	mov	x1, x23
    438c:	39401667 	ldrb	w7, [x19, #5]
    4390:	aa1803e0 	mov	x0, x24
    4394:	39401266 	ldrb	w6, [x19, #4]
    4398:	91002273 	add	x19, x19, #0x8
    439c:	385fb265 	ldurb	w5, [x19, #-5]
    43a0:	385fa264 	ldurb	w4, [x19, #-6]
    43a4:	385f9263 	ldurb	w3, [x19, #-7]
    43a8:	f9000bf6 	str	x22, [sp, #16]
    43ac:	385ff268 	ldurb	w8, [x19, #-1]
    43b0:	b9000be8 	str	w8, [sp, #8]
    43b4:	385fe268 	ldurb	w8, [x19, #-2]
    43b8:	b90003e8 	str	w8, [sp]
    43bc:	940021c3 	bl	cac8 <std_fprintf>
    43c0:	f94002a2 	ldr	x2, [x21]
    43c4:	91000680 	add	x0, x20, #0x1
    43c8:	f9400c41 	ldr	x1, [x2, #24]
    43cc:	eb14003f 	cmp	x1, x20
    43d0:	aa0003f4 	mov	x20, x0
    43d4:	54fffc88 	b.hi	4364 <cmd_list_cb+0x94>  // b.pmore
    43d8:	f94006b5 	ldr	x21, [x21, #8]
    43dc:	b5fffa35 	cbnz	x21, 4320 <cmd_list_cb+0x50>
    43e0:	a94153b3 	ldp	x19, x20, [x29, #16]
    43e4:	a942dfb6 	ldp	x22, x23, [x29, #40]
    43e8:	f94023b9 	ldr	x25, [x29, #64]
    43ec:	a9427bfd 	ldp	x29, x30, [sp, #32]
    43f0:	52800000 	mov	w0, #0x0                   	// #0
    43f4:	f94023f5 	ldr	x21, [sp, #64]
    43f8:	f9402ff8 	ldr	x24, [sp, #88]
    43fc:	910203ff 	add	sp, sp, #0x80
    4400:	d65f03c0 	ret
    4404:	7900a3b9 	strh	w25, [x29, #80]
    4408:	17ffffdf 	b	4384 <cmd_list_cb+0xb4>
    440c:	00000000 	.inst	0x00000000 ; undefined

0000000000004410 <calculate_chunk_crc.isra.0>:
    4410:	a9bb7bfd 	stp	x29, x30, [sp, #-80]!
    4414:	910003fd 	mov	x29, sp
    4418:	f9000ff4 	str	x20, [sp, #24]
    441c:	f90017f6 	str	x22, [sp, #40]
    4420:	aa0003f6 	mov	x22, x0
    4424:	f9001ff8 	str	x24, [sp, #56]
    4428:	aa0203f8 	mov	x24, x2
    442c:	f9400020 	ldr	x0, [x1]
    4430:	f100201f 	cmp	x0, #0x8
    4434:	540005c9 	b.ls	44ec <calculate_chunk_crc.isra.0+0xdc>  // b.plast
    4438:	f9000bb3 	str	x19, [x29, #16]
    443c:	52800014 	mov	w20, #0x0                   	// #0
    4440:	f90013b5 	str	x21, [x29, #32]
    4444:	d2800113 	mov	x19, #0x8                   	// #8
    4448:	f9001bb7 	str	x23, [x29, #48]
    444c:	aa0103f5 	mov	x21, x1
    4450:	aa0303f7 	mov	x23, x3
    4454:	14000007 	b	4470 <calculate_chunk_crc.isra.0+0x60>
    4458:	940002dc 	bl	4fc8 <crc_32>
    445c:	2a0003f4 	mov	w20, w0
    4460:	940007a2 	bl	62e8 <thrd_yield>
    4464:	f94002a0 	ldr	x0, [x21]
    4468:	eb00027f 	cmp	x19, x0
    446c:	540002c2 	b.cs	44c4 <calculate_chunk_crc.isra.0+0xb4>  // b.hs, b.nlast
    4470:	f94002c0 	ldr	x0, [x22]
    4474:	d2800103 	mov	x3, #0x8                   	// #8
    4478:	8b1302e2 	add	x2, x23, x19
    447c:	910123a1 	add	x1, x29, #0x48
    4480:	8b030273 	add	x19, x19, x3
    4484:	9400025d 	bl	4df8 <flash_read>
    4488:	aa0003e3 	mov	x3, x0
    448c:	aa0003e2 	mov	x2, x0
    4490:	910123a1 	add	x1, x29, #0x48
    4494:	2a1403e0 	mov	w0, w20
    4498:	f100207f 	cmp	x3, #0x8
    449c:	54fffde0 	b.eq	4458 <calculate_chunk_crc.isra.0+0x48>  // b.none
    44a0:	f9400bb3 	ldr	x19, [x29, #16]
    44a4:	12800000 	mov	w0, #0xffffffff            	// #-1
    44a8:	f94013b5 	ldr	x21, [x29, #32]
    44ac:	f9401bb7 	ldr	x23, [x29, #48]
    44b0:	f9400ff4 	ldr	x20, [sp, #24]
    44b4:	f94017f6 	ldr	x22, [sp, #40]
    44b8:	f9401ff8 	ldr	x24, [sp, #56]
    44bc:	a8c57bfd 	ldp	x29, x30, [sp], #80
    44c0:	d65f03c0 	ret
    44c4:	f9400bb3 	ldr	x19, [x29, #16]
    44c8:	f94013b5 	ldr	x21, [x29, #32]
    44cc:	f9401bb7 	ldr	x23, [x29, #48]
    44d0:	b9000314 	str	w20, [x24]
    44d4:	52800000 	mov	w0, #0x0                   	// #0
    44d8:	f9400ff4 	ldr	x20, [sp, #24]
    44dc:	f94017f6 	ldr	x22, [sp, #40]
    44e0:	f9401ff8 	ldr	x24, [sp, #56]
    44e4:	a8c57bfd 	ldp	x29, x30, [sp], #80
    44e8:	d65f03c0 	ret
    44ec:	52800014 	mov	w20, #0x0                   	// #0
    44f0:	17fffff8 	b	44d0 <calculate_chunk_crc.isra.0+0xc0>
    44f4:	00000000 	.inst	0x00000000 ; undefined

00000000000044f8 <write_header>:
    44f8:	a9bc7bfd 	stp	x29, x30, [sp, #-64]!
    44fc:	aa0103e3 	mov	x3, x1
    4500:	910003fd 	mov	x29, sp
    4504:	a90153f3 	stp	x19, x20, [sp, #16]
    4508:	aa0103f3 	mov	x19, x1
    450c:	f90013f5 	str	x21, [sp, #32]
    4510:	aa0003f4 	mov	x20, x0
    4514:	12003c55 	and	w21, w2, #0xffff
    4518:	91006001 	add	x1, x0, #0x18
    451c:	9100e3a2 	add	x2, x29, #0x38
    4520:	97ffffbc 	bl	4410 <calculate_chunk_crc.isra.0>
    4524:	350001e0 	cbnz	w0, 4560 <write_header+0x68>
    4528:	f9400280 	ldr	x0, [x20]
    452c:	128b4781 	mov	w1, #0xffffa5c3            	// #-23101
    4530:	79007bb5 	strh	w21, [x29, #60]
    4534:	d2800103 	mov	x3, #0x8                   	// #8
    4538:	79007fa1 	strh	w1, [x29, #62]
    453c:	9100e3a2 	add	x2, x29, #0x38
    4540:	aa1303e1 	mov	x1, x19
    4544:	94000257 	bl	4ea0 <flash_write>
    4548:	f100201f 	cmp	x0, #0x8
    454c:	5a9f03e0 	csetm	w0, ne  // ne = any
    4550:	a94153f3 	ldp	x19, x20, [sp, #16]
    4554:	f94013f5 	ldr	x21, [sp, #32]
    4558:	a8c47bfd 	ldp	x29, x30, [sp], #64
    455c:	d65f03c0 	ret
    4560:	12800000 	mov	w0, #0xffffffff            	// #-1
    4564:	17fffffb 	b	4550 <write_header+0x58>

0000000000004568 <eeprom_soft_module_init>:
    4568:	140001fc 	b	4d58 <flash_module_init>
    456c:	00000000 	.inst	0x00000000 ; undefined

0000000000004570 <eeprom_soft_init>:
    4570:	a9bc7bfd 	stp	x29, x30, [sp, #-64]!
    4574:	910003fd 	mov	x29, sp
    4578:	a90153f3 	stp	x19, x20, [sp, #16]
    457c:	aa0003f3 	mov	x19, x0
    4580:	a9025bf5 	stp	x21, x22, [sp, #32]
    4584:	aa0403f4 	mov	x20, x4
    4588:	f9001bf7 	str	x23, [sp, #48]
    458c:	aa0203f6 	mov	x22, x2
    4590:	2a0303f5 	mov	w21, w3
    4594:	aa0103f7 	mov	x23, x1
    4598:	b4000580 	cbz	x0, 4648 <eeprom_soft_init+0xd8>
    459c:	b4000377 	cbz	x23, 4608 <eeprom_soft_init+0x98>
    45a0:	b4000456 	cbz	x22, 4628 <eeprom_soft_init+0xb8>
    45a4:	710006bf 	cmp	w21, #0x1
    45a8:	5400020d 	b.le	45e8 <eeprom_soft_init+0x78>
    45ac:	a9005a77 	stp	x23, x22, [x19]
    45b0:	b2407fe0 	mov	x0, #0xffffffff            	// #4294967295
    45b4:	b9001275 	str	w21, [x19, #16]
    45b8:	f9000e74 	str	x20, [x19, #24]
    45bc:	d1002294 	sub	x20, x20, #0x8
    45c0:	f9001274 	str	x20, [x19, #32]
    45c4:	a902827f 	stp	xzr, x0, [x19, #40]
    45c8:	91010260 	add	x0, x19, #0x40
    45cc:	94001d3f 	bl	bac8 <mutex_init>
    45d0:	f9401bf7 	ldr	x23, [sp, #48]
    45d4:	52800000 	mov	w0, #0x0                   	// #0
    45d8:	a94153f3 	ldp	x19, x20, [sp, #16]
    45dc:	a9425bf5 	ldp	x21, x22, [sp, #32]
    45e0:	a8c47bfd 	ldp	x29, x30, [sp], #64
    45e4:	d65f03c0 	ret
    45e8:	d01fffe0 	adrp	x0, 40002000 <level_warning+0x1140>
    45ec:	91034000 	add	x0, x0, #0xd0
    45f0:	94002092 	bl	c838 <std_printf>
    45f4:	901fffe1 	adrp	x1, 40000000 <__ram_begin>
    45f8:	528002c0 	mov	w0, #0x16                  	// #22
    45fc:	f9400421 	ldr	x1, [x1, #8]
    4600:	d63f0020 	blr	x1
    4604:	17ffffea 	b	45ac <eeprom_soft_init+0x3c>
    4608:	b01fffe0 	adrp	x0, 40001000 <level_warning+0x140>
    460c:	913fc000 	add	x0, x0, #0xff0
    4610:	9400208a 	bl	c838 <std_printf>
    4614:	901fffe1 	adrp	x1, 40000000 <__ram_begin>
    4618:	528002c0 	mov	w0, #0x16                  	// #22
    461c:	f9400421 	ldr	x1, [x1, #8]
    4620:	d63f0020 	blr	x1
    4624:	b5fffc16 	cbnz	x22, 45a4 <eeprom_soft_init+0x34>
    4628:	d01fffe0 	adrp	x0, 40002000 <level_warning+0x1140>
    462c:	91018000 	add	x0, x0, #0x60
    4630:	94002082 	bl	c838 <std_printf>
    4634:	901fffe1 	adrp	x1, 40000000 <__ram_begin>
    4638:	528002c0 	mov	w0, #0x16                  	// #22
    463c:	f9400421 	ldr	x1, [x1, #8]
    4640:	d63f0020 	blr	x1
    4644:	17ffffd8 	b	45a4 <eeprom_soft_init+0x34>
    4648:	b01fffe0 	adrp	x0, 40001000 <level_warning+0x140>
    464c:	913e0000 	add	x0, x0, #0xf80
    4650:	9400207a 	bl	c838 <std_printf>
    4654:	901fffe1 	adrp	x1, 40000000 <__ram_begin>
    4658:	528002c0 	mov	w0, #0x16                  	// #22
    465c:	f9400421 	ldr	x1, [x1, #8]
    4660:	d63f0020 	blr	x1
    4664:	b5fff9f7 	cbnz	x23, 45a0 <eeprom_soft_init+0x30>
    4668:	17ffffe8 	b	4608 <eeprom_soft_init+0x98>
    466c:	00000000 	.inst	0x00000000 ; undefined

0000000000004670 <eeprom_soft_read>:
    4670:	a9bc7bfd 	stp	x29, x30, [sp, #-64]!
    4674:	910003fd 	mov	x29, sp
    4678:	a90153f3 	stp	x19, x20, [sp, #16]
    467c:	aa0003f3 	mov	x19, x0
    4680:	a9025bf5 	stp	x21, x22, [sp, #32]
    4684:	aa0203f4 	mov	x20, x2
    4688:	aa0103f5 	mov	x21, x1
    468c:	aa0303f6 	mov	x22, x3
    4690:	b40003c0 	cbz	x0, 4708 <eeprom_soft_read+0x98>
    4694:	b40004b5 	cbz	x21, 4728 <eeprom_soft_read+0xb8>
    4698:	f9401660 	ldr	x0, [x19, #40]
    469c:	b40005a0 	cbz	x0, 4750 <eeprom_soft_read+0xe0>
    46a0:	f9401260 	ldr	x0, [x19, #32]
    46a4:	eb14001f 	cmp	x0, x20
    46a8:	54000509 	b.ls	4748 <eeprom_soft_read+0xd8>  // b.plast
    46ac:	8b160281 	add	x1, x20, x22
    46b0:	eb01001f 	cmp	x0, x1
    46b4:	540004a3 	b.cc	4748 <eeprom_soft_read+0xd8>  // b.lo, b.ul, b.last
    46b8:	f9001bb7 	str	x23, [x29, #48]
    46bc:	91010277 	add	x23, x19, #0x40
    46c0:	aa1703e0 	mov	x0, x23
    46c4:	94001d09 	bl	bae8 <mutex_lock>
    46c8:	f9400260 	ldr	x0, [x19]
    46cc:	91002294 	add	x20, x20, #0x8
    46d0:	f9401a62 	ldr	x2, [x19, #48]
    46d4:	aa1603e3 	mov	x3, x22
    46d8:	aa1503e1 	mov	x1, x21
    46dc:	8b020282 	add	x2, x20, x2
    46e0:	940001c6 	bl	4df8 <flash_read>
    46e4:	aa0003f3 	mov	x19, x0
    46e8:	aa1703e0 	mov	x0, x23
    46ec:	94001d29 	bl	bb90 <mutex_unlock>
    46f0:	f9401bb7 	ldr	x23, [x29, #48]
    46f4:	aa1303e0 	mov	x0, x19
    46f8:	a94153f3 	ldp	x19, x20, [sp, #16]
    46fc:	a9425bf5 	ldp	x21, x22, [sp, #32]
    4700:	a8c47bfd 	ldp	x29, x30, [sp], #64
    4704:	d65f03c0 	ret
    4708:	d01fffe0 	adrp	x0, 40002000 <level_warning+0x1140>
    470c:	91050000 	add	x0, x0, #0x140
    4710:	9400204a 	bl	c838 <std_printf>
    4714:	901fffe1 	adrp	x1, 40000000 <__ram_begin>
    4718:	528002c0 	mov	w0, #0x16                  	// #22
    471c:	f9400421 	ldr	x1, [x1, #8]
    4720:	d63f0020 	blr	x1
    4724:	b5fffbb5 	cbnz	x21, 4698 <eeprom_soft_read+0x28>
    4728:	d01fffe0 	adrp	x0, 40002000 <level_warning+0x1140>
    472c:	9106c000 	add	x0, x0, #0x1b0
    4730:	94002042 	bl	c838 <std_printf>
    4734:	901fffe1 	adrp	x1, 40000000 <__ram_begin>
    4738:	528002c0 	mov	w0, #0x16                  	// #22
    473c:	f9400421 	ldr	x1, [x1, #8]
    4740:	d63f0020 	blr	x1
    4744:	17ffffd5 	b	4698 <eeprom_soft_read+0x28>
    4748:	928002b3 	mov	x19, #0xffffffffffffffea    	// #-22
    474c:	17ffffea 	b	46f4 <eeprom_soft_read+0x84>
    4750:	92807d73 	mov	x19, #0xfffffffffffffc14    	// #-1004
    4754:	17ffffe8 	b	46f4 <eeprom_soft_read+0x84>

0000000000004758 <eeprom_soft_vwrite>:
    4758:	a9b67bfd 	stp	x29, x30, [sp, #-160]!
    475c:	910003fd 	mov	x29, sp
    4760:	a90153f3 	stp	x19, x20, [sp, #16]
    4764:	aa0003f4 	mov	x20, x0
    4768:	a9025bf5 	stp	x21, x22, [sp, #32]
    476c:	aa0103f3 	mov	x19, x1
    4770:	f9001ff8 	str	x24, [sp, #56]
    4774:	aa0303f5 	mov	x21, x3
    4778:	aa0203f8 	mov	x24, x2
    477c:	b4001320 	cbz	x0, 49e0 <eeprom_soft_vwrite+0x288>
    4780:	b4001213 	cbz	x19, 49c0 <eeprom_soft_vwrite+0x268>
    4784:	b40010f8 	cbz	x24, 49a0 <eeprom_soft_vwrite+0x248>
    4788:	91010280 	add	x0, x20, #0x40
    478c:	f9003ba0 	str	x0, [x29, #112]
    4790:	94001cd6 	bl	bae8 <mutex_lock>
    4794:	f9401680 	ldr	x0, [x20, #40]
    4798:	b40028e0 	cbz	x0, 4cb4 <eeprom_soft_vwrite+0x55c>
    479c:	f9401283 	ldr	x3, [x20, #32]
    47a0:	b4002475 	cbz	x21, 4c2c <eeprom_soft_vwrite+0x4d4>
    47a4:	a9401660 	ldp	x0, x5, [x19]
    47a8:	eb03001f 	cmp	x0, x3
    47ac:	54000e82 	b.cs	497c <eeprom_soft_vwrite+0x224>  // b.hs, b.nlast
    47b0:	8b0000a0 	add	x0, x5, x0
    47b4:	eb00007f 	cmp	x3, x0
    47b8:	54000e23 	b.cc	497c <eeprom_soft_vwrite+0x224>  // b.lo, b.ul, b.last
    47bc:	91004260 	add	x0, x19, #0x10
    47c0:	d2800002 	mov	x2, #0x0                   	// #0
    47c4:	14000008 	b	47e4 <eeprom_soft_vwrite+0x8c>
    47c8:	a9400404 	ldp	x4, x1, [x0]
    47cc:	91004000 	add	x0, x0, #0x10
    47d0:	8b010081 	add	x1, x4, x1
    47d4:	eb03009f 	cmp	x4, x3
    47d8:	54000d22 	b.cs	497c <eeprom_soft_vwrite+0x224>  // b.hs, b.nlast
    47dc:	eb03003f 	cmp	x1, x3
    47e0:	54000ce8 	b.hi	497c <eeprom_soft_vwrite+0x224>  // b.pmore
    47e4:	91000442 	add	x2, x2, #0x1
    47e8:	eb0202bf 	cmp	x21, x2
    47ec:	54fffee1 	b.ne	47c8 <eeprom_soft_vwrite+0x70>  // b.any
    47f0:	b40025e3 	cbz	x3, 4cac <eeprom_soft_vwrite+0x554>
    47f4:	f9001bb7 	str	x23, [x29, #48]
    47f8:	910263b7 	add	x23, x29, #0x98
    47fc:	a9046bb9 	stp	x25, x26, [x29, #64]
    4800:	8b151319 	add	x25, x24, x21, lsl #4
    4804:	a90573bb 	stp	x27, x28, [x29, #80]
    4808:	d280001a 	mov	x26, #0x0                   	// #0
    480c:	52800036 	mov	w22, #0x1                   	// #1
    4810:	f9400280 	ldr	x0, [x20]
    4814:	d2800103 	mov	x3, #0x8                   	// #8
    4818:	f9401a82 	ldr	x2, [x20, #48]
    481c:	aa1703e1 	mov	x1, x23
    4820:	8b030042 	add	x2, x2, x3
    4824:	8b1a0042 	add	x2, x2, x26
    4828:	94000174 	bl	4df8 <flash_read>
    482c:	f100201f 	cmp	x0, #0x8
    4830:	54000ea1 	b.ne	4a04 <eeprom_soft_vwrite+0x2ac>  // b.any
    4834:	9100235b 	add	x27, x26, #0x8
    4838:	b40004f5 	cbz	x21, 48d4 <eeprom_soft_vwrite+0x17c>
    483c:	91002263 	add	x3, x19, #0x8
    4840:	aa1803e4 	mov	x4, x24
    4844:	d503201f 	nop
    4848:	f85f8065 	ldur	x5, [x3, #-8]
    484c:	eb05037f 	cmp	x27, x5
    4850:	540003a9 	b.ls	48c4 <eeprom_soft_vwrite+0x16c>  // b.plast
    4854:	f9400061 	ldr	x1, [x3]
    4858:	8b0100a1 	add	x1, x5, x1
    485c:	eb1a003f 	cmp	x1, x26
    4860:	54000329 	b.ls	48c4 <eeprom_soft_vwrite+0x16c>  // b.plast
    4864:	4b1a00a2 	sub	w2, w5, w26
    4868:	aa1703e0 	mov	x0, x23
    486c:	d280001c 	mov	x28, #0x0                   	// #0
    4870:	eb1a00bf 	cmp	x5, x26
    4874:	54000069 	b.ls	4880 <eeprom_soft_vwrite+0x128>  // b.plast
    4878:	93407c5c 	sxtw	x28, w2
    487c:	8b1c02e0 	add	x0, x23, x28
    4880:	f9400085 	ldr	x5, [x4]
    4884:	cb1a0022 	sub	x2, x1, x26
    4888:	f100205f 	cmp	x2, #0x8
    488c:	d2800101 	mov	x1, #0x8                   	// #8
    4890:	9a819042 	csel	x2, x2, x1, ls  // ls = plast
    4894:	a90793a3 	stp	x3, x4, [x29, #120]
    4898:	cb1c005c 	sub	x28, x2, x28
    489c:	aa0503e1 	mov	x1, x5
    48a0:	aa1c03e2 	mov	x2, x28
    48a4:	f90047a5 	str	x5, [x29, #136]
    48a8:	97fff526 	bl	1d40 <memcmp>
    48ac:	7100001f 	cmp	w0, #0x0
    48b0:	a94793a3 	ldp	x3, x4, [x29, #120]
    48b4:	1a9f02d6 	csel	w22, w22, wzr, eq  // eq = none
    48b8:	f94047a5 	ldr	x5, [x29, #136]
    48bc:	8b1c00a2 	add	x2, x5, x28
    48c0:	f9000082 	str	x2, [x4]
    48c4:	91004084 	add	x4, x4, #0x10
    48c8:	91004063 	add	x3, x3, #0x10
    48cc:	eb04033f 	cmp	x25, x4
    48d0:	54fffbc1 	b.ne	4848 <eeprom_soft_vwrite+0xf0>  // b.any
    48d4:	94000685 	bl	62e8 <thrd_yield>
    48d8:	aa1b03fa 	mov	x26, x27
    48dc:	f9401283 	ldr	x3, [x20, #32]
    48e0:	eb03037f 	cmp	x27, x3
    48e4:	54fff963 	b.cc	4810 <eeprom_soft_vwrite+0xb8>  // b.lo, b.ul, b.last
    48e8:	93407ed6 	sxtw	x22, w22
    48ec:	b4001d95 	cbz	x21, 4c9c <eeprom_soft_vwrite+0x544>
    48f0:	f9400665 	ldr	x5, [x19, #8]
    48f4:	f9401bb7 	ldr	x23, [x29, #48]
    48f8:	a9446bb9 	ldp	x25, x26, [x29, #64]
    48fc:	a94573bb 	ldp	x27, x28, [x29, #80]
    4900:	d2800000 	mov	x0, #0x0                   	// #0
    4904:	d2800002 	mov	x2, #0x0                   	// #0
    4908:	14000002 	b	4910 <eeprom_soft_vwrite+0x1b8>
    490c:	f9400425 	ldr	x5, [x1, #8]
    4910:	f8606b01 	ldr	x1, [x24, x0]
    4914:	91000442 	add	x2, x2, #0x1
    4918:	eb0202bf 	cmp	x21, x2
    491c:	cb050021 	sub	x1, x1, x5
    4920:	f8206b01 	str	x1, [x24, x0]
    4924:	91004000 	add	x0, x0, #0x10
    4928:	8b000261 	add	x1, x19, x0
    492c:	54ffff08 	b.hi	490c <eeprom_soft_vwrite+0x1b4>  // b.pmore
    4930:	f10006df 	cmp	x22, #0x1
    4934:	54000801 	b.ne	4a34 <eeprom_soft_vwrite+0x2dc>  // b.any
    4938:	d2800016 	mov	x22, #0x0                   	// #0
    493c:	b4000235 	cbz	x21, 4980 <eeprom_soft_vwrite+0x228>
    4940:	8b151275 	add	x21, x19, x21, lsl #4
    4944:	d503201f 	nop
    4948:	f9400660 	ldr	x0, [x19, #8]
    494c:	91004273 	add	x19, x19, #0x10
    4950:	eb1302bf 	cmp	x21, x19
    4954:	8b0002d6 	add	x22, x22, x0
    4958:	54ffff81 	b.ne	4948 <eeprom_soft_vwrite+0x1f0>  // b.any
    495c:	f9403ba0 	ldr	x0, [x29, #112]
    4960:	94001c8c 	bl	bb90 <mutex_unlock>
    4964:	f9401ff8 	ldr	x24, [sp, #56]
    4968:	aa1603e0 	mov	x0, x22
    496c:	a94153f3 	ldp	x19, x20, [sp, #16]
    4970:	a9425bf5 	ldp	x21, x22, [sp, #32]
    4974:	a8ca7bfd 	ldp	x29, x30, [sp], #160
    4978:	d65f03c0 	ret
    497c:	928002b6 	mov	x22, #0xffffffffffffffea    	// #-22
    4980:	f9403ba0 	ldr	x0, [x29, #112]
    4984:	94001c83 	bl	bb90 <mutex_unlock>
    4988:	f9401ff8 	ldr	x24, [sp, #56]
    498c:	aa1603e0 	mov	x0, x22
    4990:	a94153f3 	ldp	x19, x20, [sp, #16]
    4994:	a9425bf5 	ldp	x21, x22, [sp, #32]
    4998:	a8ca7bfd 	ldp	x29, x30, [sp], #160
    499c:	d65f03c0 	ret
    49a0:	d01fffe0 	adrp	x0, 40002000 <level_warning+0x1140>
    49a4:	910bc000 	add	x0, x0, #0x2f0
    49a8:	94001fa4 	bl	c838 <std_printf>
    49ac:	901fffe1 	adrp	x1, 40000000 <__ram_begin>
    49b0:	528002c0 	mov	w0, #0x16                  	// #22
    49b4:	f9400421 	ldr	x1, [x1, #8]
    49b8:	d63f0020 	blr	x1
    49bc:	17ffff73 	b	4788 <eeprom_soft_vwrite+0x30>
    49c0:	d01fffe0 	adrp	x0, 40002000 <level_warning+0x1140>
    49c4:	910a2000 	add	x0, x0, #0x288
    49c8:	94001f9c 	bl	c838 <std_printf>
    49cc:	901fffe1 	adrp	x1, 40000000 <__ram_begin>
    49d0:	528002c0 	mov	w0, #0x16                  	// #22
    49d4:	f9400421 	ldr	x1, [x1, #8]
    49d8:	d63f0020 	blr	x1
    49dc:	17ffff6a 	b	4784 <eeprom_soft_vwrite+0x2c>
    49e0:	d01fffe0 	adrp	x0, 40002000 <level_warning+0x1140>
    49e4:	91086000 	add	x0, x0, #0x218
    49e8:	94001f94 	bl	c838 <std_printf>
    49ec:	901fffe1 	adrp	x1, 40000000 <__ram_begin>
    49f0:	528002c0 	mov	w0, #0x16                  	// #22
    49f4:	f9400421 	ldr	x1, [x1, #8]
    49f8:	d63f0020 	blr	x1
    49fc:	b5ffec53 	cbnz	x19, 4784 <eeprom_soft_vwrite+0x2c>
    4a00:	17fffff0 	b	49c0 <eeprom_soft_vwrite+0x268>
    4a04:	f9403ba0 	ldr	x0, [x29, #112]
    4a08:	92800016 	mov	x22, #0xffffffffffffffff    	// #-1
    4a0c:	f9401bb7 	ldr	x23, [x29, #48]
    4a10:	a9446bb9 	ldp	x25, x26, [x29, #64]
    4a14:	a94573bb 	ldp	x27, x28, [x29, #80]
    4a18:	94001c5e 	bl	bb90 <mutex_unlock>
    4a1c:	aa1603e0 	mov	x0, x22
    4a20:	f9401ff8 	ldr	x24, [sp, #56]
    4a24:	a94153f3 	ldp	x19, x20, [sp, #16]
    4a28:	a9425bf5 	ldp	x21, x22, [sp, #32]
    4a2c:	a8ca7bfd 	ldp	x29, x30, [sp], #160
    4a30:	d65f03c0 	ret
    4a34:	a9429282 	ldp	x2, x4, [x20, #40]
    4a38:	f9400e81 	ldr	x1, [x20, #24]
    4a3c:	f9400040 	ldr	x0, [x2]
    4a40:	8b010084 	add	x4, x4, x1
    4a44:	a90613a2 	stp	x2, x4, [x29, #96]
    4a48:	f9400442 	ldr	x2, [x2, #8]
    4a4c:	f9001bb7 	str	x23, [x29, #48]
    4a50:	f90023b9 	str	x25, [x29, #64]
    4a54:	8b020000 	add	x0, x0, x2
    4a58:	f9002fbc 	str	x28, [x29, #88]
    4a5c:	eb00009f 	cmp	x4, x0
    4a60:	54000ec3 	b.cc	4c38 <eeprom_soft_vwrite+0x4e0>  // b.lo, b.ul, b.last
    4a64:	f9400682 	ldr	x2, [x20, #8]
    4a68:	b9801281 	ldrsw	x1, [x20, #16]
    4a6c:	f94033a0 	ldr	x0, [x29, #96]
    4a70:	8b011041 	add	x1, x2, x1, lsl #4
    4a74:	91004003 	add	x3, x0, #0x10
    4a78:	eb01007f 	cmp	x3, x1
    4a7c:	f9400280 	ldr	x0, [x20]
    4a80:	9a821061 	csel	x1, x3, x2, ne  // ne = any
    4a84:	aa0103e2 	mov	x2, x1
    4a88:	f90033a2 	str	x2, [x29, #96]
    4a8c:	f9400021 	ldr	x1, [x1]
    4a90:	f9400442 	ldr	x2, [x2, #8]
    4a94:	9400012d 	bl	4f48 <flash_erase>
    4a98:	35000c00 	cbnz	w0, 4c18 <eeprom_soft_vwrite+0x4c0>
    4a9c:	f94033a0 	ldr	x0, [x29, #96]
    4aa0:	f9401283 	ldr	x3, [x20, #32]
    4aa4:	f9400000 	ldr	x0, [x0]
    4aa8:	f90037a0 	str	x0, [x29, #104]
    4aac:	b4000843 	cbz	x3, 4bb4 <eeprom_soft_vwrite+0x45c>
    4ab0:	f94037a0 	ldr	x0, [x29, #104]
    4ab4:	d37ceeb9 	lsl	x25, x21, #4
    4ab8:	910263b7 	add	x23, x29, #0x98
    4abc:	a904efba 	stp	x26, x27, [x29, #72]
    4ac0:	91002000 	add	x0, x0, #0x8
    4ac4:	d280001c 	mov	x28, #0x0                   	// #0
    4ac8:	f9003fa0 	str	x0, [x29, #120]
    4acc:	d503201f 	nop
    4ad0:	f9400280 	ldr	x0, [x20]
    4ad4:	d2800103 	mov	x3, #0x8                   	// #8
    4ad8:	f9401a82 	ldr	x2, [x20, #48]
    4adc:	aa1703e1 	mov	x1, x23
    4ae0:	8b030042 	add	x2, x2, x3
    4ae4:	8b1c0042 	add	x2, x2, x28
    4ae8:	940000c4 	bl	4df8 <flash_read>
    4aec:	f100201f 	cmp	x0, #0x8
    4af0:	54000921 	b.ne	4c14 <eeprom_soft_vwrite+0x4bc>  // b.any
    4af4:	b4000455 	cbz	x21, 4b7c <eeprom_soft_vwrite+0x424>
    4af8:	9100239b 	add	x27, x28, #0x8
    4afc:	d280001a 	mov	x26, #0x0                   	// #0
    4b00:	f87a6a65 	ldr	x5, [x19, x26]
    4b04:	8b1a0260 	add	x0, x19, x26
    4b08:	eb1b00bf 	cmp	x5, x27
    4b0c:	54000322 	b.cs	4b70 <eeprom_soft_vwrite+0x418>  // b.hs, b.nlast
    4b10:	f9400401 	ldr	x1, [x0, #8]
    4b14:	8b0100a1 	add	x1, x5, x1
    4b18:	eb1c003f 	cmp	x1, x28
    4b1c:	540002a9 	b.ls	4b70 <eeprom_soft_vwrite+0x418>  // b.plast
    4b20:	4b1c00a2 	sub	w2, w5, w28
    4b24:	aa1703e0 	mov	x0, x23
    4b28:	d2800004 	mov	x4, #0x0                   	// #0
    4b2c:	eb1c00bf 	cmp	x5, x28
    4b30:	54000069 	b.ls	4b3c <eeprom_soft_vwrite+0x3e4>  // b.plast
    4b34:	93407c44 	sxtw	x4, w2
    4b38:	8b0402e0 	add	x0, x23, x4
    4b3c:	cb1c0022 	sub	x2, x1, x28
    4b40:	f87a6b05 	ldr	x5, [x24, x26]
    4b44:	f100205f 	cmp	x2, #0x8
    4b48:	d2800101 	mov	x1, #0x8                   	// #8
    4b4c:	9a819042 	csel	x2, x2, x1, ls  // ls = plast
    4b50:	aa0503e1 	mov	x1, x5
    4b54:	cb040044 	sub	x4, x2, x4
    4b58:	a90813a5 	stp	x5, x4, [x29, #128]
    4b5c:	aa0403e2 	mov	x2, x4
    4b60:	97fff42c 	bl	1c10 <memcpy>
    4b64:	a94813a5 	ldp	x5, x4, [x29, #128]
    4b68:	8b0400a2 	add	x2, x5, x4
    4b6c:	f83a6b02 	str	x2, [x24, x26]
    4b70:	9100435a 	add	x26, x26, #0x10
    4b74:	eb1a033f 	cmp	x25, x26
    4b78:	54fffc41 	b.ne	4b00 <eeprom_soft_vwrite+0x3a8>  // b.any
    4b7c:	f9400280 	ldr	x0, [x20]
    4b80:	d2800103 	mov	x3, #0x8                   	// #8
    4b84:	f9403fa1 	ldr	x1, [x29, #120]
    4b88:	aa1703e2 	mov	x2, x23
    4b8c:	8b1c0021 	add	x1, x1, x28
    4b90:	940000c4 	bl	4ea0 <flash_write>
    4b94:	f100201f 	cmp	x0, #0x8
    4b98:	540003e1 	b.ne	4c14 <eeprom_soft_vwrite+0x4bc>  // b.any
    4b9c:	940005d3 	bl	62e8 <thrd_yield>
    4ba0:	9100239c 	add	x28, x28, #0x8
    4ba4:	f9401280 	ldr	x0, [x20, #32]
    4ba8:	eb00039f 	cmp	x28, x0
    4bac:	54fff923 	b.cc	4ad0 <eeprom_soft_vwrite+0x378>  // b.lo, b.ul, b.last
    4bb0:	a944efba 	ldp	x26, x27, [x29, #72]
    4bb4:	aa1403e0 	mov	x0, x20
    4bb8:	79407297 	ldrh	w23, [x20, #56]
    4bbc:	f94037b8 	ldr	x24, [x29, #104]
    4bc0:	110006f7 	add	w23, w23, #0x1
    4bc4:	12003ef7 	and	w23, w23, #0xffff
    4bc8:	aa1803e1 	mov	x1, x24
    4bcc:	2a1703e2 	mov	w2, w23
    4bd0:	97fffe4a 	bl	44f8 <write_header>
    4bd4:	35000220 	cbnz	w0, 4c18 <eeprom_soft_vwrite+0x4c0>
    4bd8:	f94033a0 	ldr	x0, [x29, #96]
    4bdc:	a902e280 	stp	x0, x24, [x20, #40]
    4be0:	79007297 	strh	w23, [x20, #56]
    4be4:	b4000115 	cbz	x21, 4c04 <eeprom_soft_vwrite+0x4ac>
    4be8:	8b151275 	add	x21, x19, x21, lsl #4
    4bec:	d2800016 	mov	x22, #0x0                   	// #0
    4bf0:	f9400660 	ldr	x0, [x19, #8]
    4bf4:	91004273 	add	x19, x19, #0x10
    4bf8:	eb1302bf 	cmp	x21, x19
    4bfc:	8b0002d6 	add	x22, x22, x0
    4c00:	54ffff81 	b.ne	4bf0 <eeprom_soft_vwrite+0x498>  // b.any
    4c04:	f9401bb7 	ldr	x23, [x29, #48]
    4c08:	f94023b9 	ldr	x25, [x29, #64]
    4c0c:	f9402fbc 	ldr	x28, [x29, #88]
    4c10:	17ffff5c 	b	4980 <eeprom_soft_vwrite+0x228>
    4c14:	a944efba 	ldp	x26, x27, [x29, #72]
    4c18:	92800016 	mov	x22, #0xffffffffffffffff    	// #-1
    4c1c:	f9401bb7 	ldr	x23, [x29, #48]
    4c20:	f94023b9 	ldr	x25, [x29, #64]
    4c24:	f9402fbc 	ldr	x28, [x29, #88]
    4c28:	17ffff56 	b	4980 <eeprom_soft_vwrite+0x228>
    4c2c:	d2800016 	mov	x22, #0x0                   	// #0
    4c30:	b5ffde23 	cbnz	x3, 47f4 <eeprom_soft_vwrite+0x9c>
    4c34:	17ffff53 	b	4980 <eeprom_soft_vwrite+0x228>
    4c38:	b4fff3a1 	cbz	x1, 4aac <eeprom_soft_vwrite+0x354>
    4c3c:	aa0403fc 	mov	x28, x4
    4c40:	910263b7 	add	x23, x29, #0x98
    4c44:	d503201f 	nop
    4c48:	f9400280 	ldr	x0, [x20]
    4c4c:	aa1c03e2 	mov	x2, x28
    4c50:	d2800023 	mov	x3, #0x1                   	// #1
    4c54:	aa1703e1 	mov	x1, x23
    4c58:	94000068 	bl	4df8 <flash_read>
    4c5c:	aa0003f9 	mov	x25, x0
    4c60:	f100041f 	cmp	x0, #0x1
    4c64:	54fff001 	b.ne	4a64 <eeprom_soft_vwrite+0x30c>  // b.any
    4c68:	394263a0 	ldrb	w0, [x29, #152]
    4c6c:	7103fc1f 	cmp	w0, #0xff
    4c70:	54ffefa1 	b.ne	4a64 <eeprom_soft_vwrite+0x30c>  // b.any
    4c74:	9400059d 	bl	62e8 <thrd_yield>
    4c78:	f94037a0 	ldr	x0, [x29, #104]
    4c7c:	f9400e81 	ldr	x1, [x20, #24]
    4c80:	cb000320 	sub	x0, x25, x0
    4c84:	8b1c0000 	add	x0, x0, x28
    4c88:	9100079c 	add	x28, x28, #0x1
    4c8c:	eb00003f 	cmp	x1, x0
    4c90:	54fffdc8 	b.hi	4c48 <eeprom_soft_vwrite+0x4f0>  // b.pmore
    4c94:	f9401283 	ldr	x3, [x20, #32]
    4c98:	17ffff85 	b	4aac <eeprom_soft_vwrite+0x354>
    4c9c:	f9401bb7 	ldr	x23, [x29, #48]
    4ca0:	a9446bb9 	ldp	x25, x26, [x29, #64]
    4ca4:	a94573bb 	ldp	x27, x28, [x29, #80]
    4ca8:	17ffff22 	b	4930 <eeprom_soft_vwrite+0x1d8>
    4cac:	d2800036 	mov	x22, #0x1                   	// #1
    4cb0:	17ffff14 	b	4900 <eeprom_soft_vwrite+0x1a8>
    4cb4:	92807d76 	mov	x22, #0xfffffffffffffc14    	// #-1004
    4cb8:	17ffff32 	b	4980 <eeprom_soft_vwrite+0x228>
    4cbc:	00000000 	.inst	0x00000000 ; undefined

0000000000004cc0 <eeprom_soft_write>:
    4cc0:	a9bb7bfd 	stp	x29, x30, [sp, #-80]!
    4cc4:	910003fd 	mov	x29, sp
    4cc8:	a90153f3 	stp	x19, x20, [sp, #16]
    4ccc:	aa0003f4 	mov	x20, x0
    4cd0:	a9025bf5 	stp	x21, x22, [sp, #32]
    4cd4:	aa0203f3 	mov	x19, x2
    4cd8:	aa0103f6 	mov	x22, x1
    4cdc:	aa0303f5 	mov	x21, x3
    4ce0:	b40001a0 	cbz	x0, 4d14 <eeprom_soft_write+0x54>
    4ce4:	b40002b3 	cbz	x19, 4d38 <eeprom_soft_write+0x78>
    4ce8:	910143a2 	add	x2, x29, #0x50
    4cec:	9100c3a1 	add	x1, x29, #0x30
    4cf0:	a90357b6 	stp	x22, x21, [x29, #48]
    4cf4:	d2800023 	mov	x3, #0x1                   	// #1
    4cf8:	aa1403e0 	mov	x0, x20
    4cfc:	f81f0c53 	str	x19, [x2, #-16]!
    4d00:	97fffe96 	bl	4758 <eeprom_soft_vwrite>
    4d04:	a94153f3 	ldp	x19, x20, [sp, #16]
    4d08:	a9425bf5 	ldp	x21, x22, [sp, #32]
    4d0c:	a8c57bfd 	ldp	x29, x30, [sp], #80
    4d10:	d65f03c0 	ret
    4d14:	d01fffe0 	adrp	x0, 40002000 <level_warning+0x1140>
    4d18:	910d6000 	add	x0, x0, #0x358
    4d1c:	94001ec7 	bl	c838 <std_printf>
    4d20:	901fffe1 	adrp	x1, 40000000 <__ram_begin>
    4d24:	528002c0 	mov	w0, #0x16                  	// #22
    4d28:	f9400421 	ldr	x1, [x1, #8]
    4d2c:	d63f0020 	blr	x1
    4d30:	b5fffdd3 	cbnz	x19, 4ce8 <eeprom_soft_write+0x28>
    4d34:	d503201f 	nop
    4d38:	d01fffe0 	adrp	x0, 40002000 <level_warning+0x1140>
    4d3c:	910f2000 	add	x0, x0, #0x3c8
    4d40:	94001ebe 	bl	c838 <std_printf>
    4d44:	901fffe1 	adrp	x1, 40000000 <__ram_begin>
    4d48:	528002c0 	mov	w0, #0x16                  	// #22
    4d4c:	f9400421 	ldr	x1, [x1, #8]
    4d50:	d63f0020 	blr	x1
    4d54:	17ffffe5 	b	4ce8 <eeprom_soft_write+0x28>

0000000000004d58 <flash_module_init>:
    4d58:	d0200000 	adrp	x0, 40006000 <null+0x928>
    4d5c:	39ec2001 	ldrsb	w1, [x0, #2824]
    4d60:	7100043f 	cmp	w1, #0x1
    4d64:	54000060 	b.eq	4d70 <flash_module_init+0x18>  // b.none
    4d68:	52800021 	mov	w1, #0x1                   	// #1
    4d6c:	392c2001 	strb	w1, [x0, #2824]
    4d70:	52800000 	mov	w0, #0x0                   	// #0
    4d74:	d65f03c0 	ret

0000000000004d78 <flash_init>:
    4d78:	a9be7bfd 	stp	x29, x30, [sp, #-32]!
    4d7c:	910003fd 	mov	x29, sp
    4d80:	a90153f3 	stp	x19, x20, [sp, #16]
    4d84:	aa0003f3 	mov	x19, x0
    4d88:	aa0103f4 	mov	x20, x1
    4d8c:	b40000e0 	cbz	x0, 4da8 <flash_init+0x30>
    4d90:	b40001d4 	cbz	x20, 4dc8 <flash_init+0x50>
    4d94:	f9000274 	str	x20, [x19]
    4d98:	52800000 	mov	w0, #0x0                   	// #0
    4d9c:	a94153f3 	ldp	x19, x20, [sp, #16]
    4da0:	a8c27bfd 	ldp	x29, x30, [sp], #32
    4da4:	d65f03c0 	ret
    4da8:	d01fffe0 	adrp	x0, 40002000 <level_warning+0x1140>
    4dac:	9113c000 	add	x0, x0, #0x4f0
    4db0:	94001ea2 	bl	c838 <std_printf>
    4db4:	901fffe1 	adrp	x1, 40000000 <__ram_begin>
    4db8:	528002c0 	mov	w0, #0x16                  	// #22
    4dbc:	f9400421 	ldr	x1, [x1, #8]
    4dc0:	d63f0020 	blr	x1
    4dc4:	b5fffe94 	cbnz	x20, 4d94 <flash_init+0x1c>
    4dc8:	d01fffe0 	adrp	x0, 40002000 <level_warning+0x1140>
    4dcc:	91156000 	add	x0, x0, #0x558
    4dd0:	94001e9a 	bl	c838 <std_printf>
    4dd4:	901fffe1 	adrp	x1, 40000000 <__ram_begin>
    4dd8:	528002c0 	mov	w0, #0x16                  	// #22
    4ddc:	f9400421 	ldr	x1, [x1, #8]
    4de0:	d63f0020 	blr	x1
    4de4:	f9000274 	str	x20, [x19]
    4de8:	52800000 	mov	w0, #0x0                   	// #0
    4dec:	a94153f3 	ldp	x19, x20, [sp, #16]
    4df0:	a8c27bfd 	ldp	x29, x30, [sp], #32
    4df4:	d65f03c0 	ret

0000000000004df8 <flash_read>:
    4df8:	a9bd7bfd 	stp	x29, x30, [sp, #-48]!
    4dfc:	910003fd 	mov	x29, sp
    4e00:	a90153f3 	stp	x19, x20, [sp, #16]
    4e04:	aa0003f3 	mov	x19, x0
    4e08:	aa0303f4 	mov	x20, x3
    4e0c:	b4000340 	cbz	x0, 4e74 <flash_read+0x7c>
    4e10:	b4000221 	cbz	x1, 4e54 <flash_read+0x5c>
    4e14:	b5000114 	cbnz	x20, 4e34 <flash_read+0x3c>
    4e18:	d01fffe0 	adrp	x0, 40002000 <level_warning+0x1140>
    4e1c:	911a4000 	add	x0, x0, #0x690
    4e20:	94001e86 	bl	c838 <std_printf>
    4e24:	901fffe1 	adrp	x1, 40000000 <__ram_begin>
    4e28:	528002c0 	mov	w0, #0x16                  	// #22
    4e2c:	f9400421 	ldr	x1, [x1, #8]
    4e30:	d63f0020 	blr	x1
    4e34:	f9400260 	ldr	x0, [x19]
    4e38:	94001b2c 	bl	bae8 <mutex_lock>
    4e3c:	f9400260 	ldr	x0, [x19]
    4e40:	94001b54 	bl	bb90 <mutex_unlock>
    4e44:	928004a0 	mov	x0, #0xffffffffffffffda    	// #-38
    4e48:	a94153f3 	ldp	x19, x20, [sp, #16]
    4e4c:	a8c37bfd 	ldp	x29, x30, [sp], #48
    4e50:	d65f03c0 	ret
    4e54:	d01fffe0 	adrp	x0, 40002000 <level_warning+0x1140>
    4e58:	9118a000 	add	x0, x0, #0x628
    4e5c:	94001e77 	bl	c838 <std_printf>
    4e60:	901fffe1 	adrp	x1, 40000000 <__ram_begin>
    4e64:	528002c0 	mov	w0, #0x16                  	// #22
    4e68:	f9400421 	ldr	x1, [x1, #8]
    4e6c:	d63f0020 	blr	x1
    4e70:	17ffffe9 	b	4e14 <flash_read+0x1c>
    4e74:	f90017a1 	str	x1, [x29, #40]
    4e78:	d01fffe0 	adrp	x0, 40002000 <level_warning+0x1140>
    4e7c:	91170000 	add	x0, x0, #0x5c0
    4e80:	94001e6e 	bl	c838 <std_printf>
    4e84:	901fffe2 	adrp	x2, 40000000 <__ram_begin>
    4e88:	528002c0 	mov	w0, #0x16                  	// #22
    4e8c:	f9400442 	ldr	x2, [x2, #8]
    4e90:	d63f0040 	blr	x2
    4e94:	f94017a1 	ldr	x1, [x29, #40]
    4e98:	b5fffbe1 	cbnz	x1, 4e14 <flash_read+0x1c>
    4e9c:	17ffffee 	b	4e54 <flash_read+0x5c>

0000000000004ea0 <flash_write>:
    4ea0:	a9bd7bfd 	stp	x29, x30, [sp, #-48]!
    4ea4:	910003fd 	mov	x29, sp
    4ea8:	a90153f3 	stp	x19, x20, [sp, #16]
    4eac:	aa0003f3 	mov	x19, x0
    4eb0:	aa0303f4 	mov	x20, x3
    4eb4:	b4000340 	cbz	x0, 4f1c <flash_write+0x7c>
    4eb8:	b4000222 	cbz	x2, 4efc <flash_write+0x5c>
    4ebc:	b5000114 	cbnz	x20, 4edc <flash_write+0x3c>
    4ec0:	d01fffe0 	adrp	x0, 40002000 <level_warning+0x1140>
    4ec4:	911ee000 	add	x0, x0, #0x7b8
    4ec8:	94001e5c 	bl	c838 <std_printf>
    4ecc:	901fffe1 	adrp	x1, 40000000 <__ram_begin>
    4ed0:	528002c0 	mov	w0, #0x16                  	// #22
    4ed4:	f9400421 	ldr	x1, [x1, #8]
    4ed8:	d63f0020 	blr	x1
    4edc:	f9400260 	ldr	x0, [x19]
    4ee0:	94001b02 	bl	bae8 <mutex_lock>
    4ee4:	f9400260 	ldr	x0, [x19]
    4ee8:	94001b2a 	bl	bb90 <mutex_unlock>
    4eec:	928004a0 	mov	x0, #0xffffffffffffffda    	// #-38
    4ef0:	a94153f3 	ldp	x19, x20, [sp, #16]
    4ef4:	a8c37bfd 	ldp	x29, x30, [sp], #48
    4ef8:	d65f03c0 	ret
    4efc:	d01fffe0 	adrp	x0, 40002000 <level_warning+0x1140>
    4f00:	911d4000 	add	x0, x0, #0x750
    4f04:	94001e4d 	bl	c838 <std_printf>
    4f08:	901fffe1 	adrp	x1, 40000000 <__ram_begin>
    4f0c:	528002c0 	mov	w0, #0x16                  	// #22
    4f10:	f9400421 	ldr	x1, [x1, #8]
    4f14:	d63f0020 	blr	x1
    4f18:	17ffffe9 	b	4ebc <flash_write+0x1c>
    4f1c:	f90017a2 	str	x2, [x29, #40]
    4f20:	d01fffe0 	adrp	x0, 40002000 <level_warning+0x1140>
    4f24:	911ba000 	add	x0, x0, #0x6e8
    4f28:	94001e44 	bl	c838 <std_printf>
    4f2c:	901fffe1 	adrp	x1, 40000000 <__ram_begin>
    4f30:	528002c0 	mov	w0, #0x16                  	// #22
    4f34:	f9400421 	ldr	x1, [x1, #8]
    4f38:	d63f0020 	blr	x1
    4f3c:	f94017a2 	ldr	x2, [x29, #40]
    4f40:	b5fffbe2 	cbnz	x2, 4ebc <flash_write+0x1c>
    4f44:	17ffffee 	b	4efc <flash_write+0x5c>

0000000000004f48 <flash_erase>:
    4f48:	a9bd7bfd 	stp	x29, x30, [sp, #-48]!
    4f4c:	910003fd 	mov	x29, sp
    4f50:	f9000bf3 	str	x19, [sp, #16]
    4f54:	aa0003f3 	mov	x19, x0
    4f58:	b4000220 	cbz	x0, 4f9c <flash_erase+0x54>
    4f5c:	b5000102 	cbnz	x2, 4f7c <flash_erase+0x34>
    4f60:	d01fffe0 	adrp	x0, 40002000 <level_warning+0x1140>
    4f64:	91126000 	add	x0, x0, #0x498
    4f68:	94001e34 	bl	c838 <std_printf>
    4f6c:	901fffe1 	adrp	x1, 40000000 <__ram_begin>
    4f70:	528002c0 	mov	w0, #0x16                  	// #22
    4f74:	f9400421 	ldr	x1, [x1, #8]
    4f78:	d63f0020 	blr	x1
    4f7c:	f9400260 	ldr	x0, [x19]
    4f80:	94001ada 	bl	bae8 <mutex_lock>
    4f84:	f9400260 	ldr	x0, [x19]
    4f88:	94001b02 	bl	bb90 <mutex_unlock>
    4f8c:	f9400bf3 	ldr	x19, [sp, #16]
    4f90:	128004a0 	mov	w0, #0xffffffda            	// #-38
    4f94:	a8c37bfd 	ldp	x29, x30, [sp], #48
    4f98:	d65f03c0 	ret
    4f9c:	f90017a2 	str	x2, [x29, #40]
    4fa0:	d01fffe0 	adrp	x0, 40002000 <level_warning+0x1140>
    4fa4:	9110c000 	add	x0, x0, #0x430
    4fa8:	94001e24 	bl	c838 <std_printf>
    4fac:	901fffe1 	adrp	x1, 40000000 <__ram_begin>
    4fb0:	528002c0 	mov	w0, #0x16                  	// #22
    4fb4:	f9400421 	ldr	x1, [x1, #8]
    4fb8:	d63f0020 	blr	x1
    4fbc:	f94017a2 	ldr	x2, [x29, #40]
    4fc0:	17ffffe7 	b	4f5c <flash_erase+0x14>
    4fc4:	00000000 	.inst	0x00000000 ; undefined

0000000000004fc8 <crc_32>:
    4fc8:	a9bd7bfd 	stp	x29, x30, [sp, #-48]!
    4fcc:	910003fd 	mov	x29, sp
    4fd0:	f9000bf3 	str	x19, [sp, #16]
    4fd4:	2a0003f3 	mov	w19, w0
    4fd8:	b40002a1 	cbz	x1, 502c <crc_32+0x64>
    4fdc:	2a3303e0 	mvn	w0, w19
    4fe0:	b40001e2 	cbz	x2, 501c <crc_32+0x54>
    4fe4:	52906404 	mov	w4, #0x8320                	// #33568
    4fe8:	8b020025 	add	x5, x1, x2
    4fec:	72bdb704 	movk	w4, #0xedb8, lsl #16
    4ff0:	38401422 	ldrb	w2, [x1], #1
    4ff4:	d2800103 	mov	x3, #0x8                   	// #8
    4ff8:	4a020000 	eor	w0, w0, w2
    4ffc:	d503201f 	nop
    5000:	93400002 	sbfx	x2, x0, #0, #1
    5004:	f1000463 	subs	x3, x3, #0x1
    5008:	0a040042 	and	w2, w2, w4
    500c:	4a400440 	eor	w0, w2, w0, lsr #1
    5010:	54ffff81 	b.ne	5000 <crc_32+0x38>  // b.any
    5014:	eb05003f 	cmp	x1, x5
    5018:	54fffec1 	b.ne	4ff0 <crc_32+0x28>  // b.any
    501c:	f9400bf3 	ldr	x19, [sp, #16]
    5020:	2a2003e0 	mvn	w0, w0
    5024:	a8c37bfd 	ldp	x29, x30, [sp], #48
    5028:	d65f03c0 	ret
    502c:	a90207a2 	stp	x2, x1, [x29, #32]
    5030:	b01fffe0 	adrp	x0, 40002000 <level_warning+0x1140>
    5034:	91204000 	add	x0, x0, #0x810
    5038:	94001e00 	bl	c838 <std_printf>
    503c:	f01fffc3 	adrp	x3, 40000000 <__ram_begin>
    5040:	528002c0 	mov	w0, #0x16                  	// #22
    5044:	f9400463 	ldr	x3, [x3, #8]
    5048:	d63f0060 	blr	x3
    504c:	a94207a2 	ldp	x2, x1, [x29, #32]
    5050:	17ffffe3 	b	4fdc <crc_32+0x14>
    5054:	00000000 	.inst	0x00000000 ; undefined

0000000000005058 <crc_8>:
    5058:	8b030043 	add	x3, x2, x3
    505c:	12001c00 	and	w0, w0, #0xff
    5060:	12001c21 	and	w1, w1, #0xff
    5064:	eb02007f 	cmp	x3, x2
    5068:	54000200 	b.eq	50a8 <crc_8+0x50>  // b.none
    506c:	d503201f 	nop
    5070:	38401444 	ldrb	w4, [x2], #1
    5074:	52800105 	mov	w5, #0x8                   	// #8
    5078:	4a000080 	eor	w0, w4, w0
    507c:	d503201f 	nop
    5080:	12000006 	and	w6, w0, #0x1
    5084:	53017c00 	lsr	w0, w0, #1
    5088:	4a000024 	eor	w4, w1, w0
    508c:	710000df 	cmp	w6, #0x0
    5090:	12001c84 	and	w4, w4, #0xff
    5094:	1a840000 	csel	w0, w0, w4, eq  // eq = none
    5098:	710004a5 	subs	w5, w5, #0x1
    509c:	54ffff21 	b.ne	5080 <crc_8+0x28>  // b.any
    50a0:	eb02007f 	cmp	x3, x2
    50a4:	54fffe61 	b.ne	5070 <crc_8+0x18>  // b.any
    50a8:	d65f03c0 	ret
    50ac:	00000000 	.inst	0x00000000 ; undefined

00000000000050b0 <cmd_reboot_cb>:
    50b0:	14000000 	b	50b0 <cmd_reboot_cb>
    50b4:	00000000 	.inst	0x00000000 ; undefined

00000000000050b8 <panic_write>:
    50b8:	aa0203e0 	mov	x0, x2
    50bc:	b4000162 	cbz	x2, 50e8 <panic_write+0x30>
    50c0:	8b020026 	add	x6, x1, x2
    50c4:	d2a12004 	mov	x4, #0x9000000             	// #150994944
    50c8:	39400025 	ldrb	w5, [x1]
    50cc:	d503201f 	nop
    50d0:	b9401883 	ldr	w3, [x4, #24]
    50d4:	372fffe3 	tbnz	w3, #5, 50d0 <panic_write+0x18>
    50d8:	b9000085 	str	w5, [x4]
    50dc:	91000421 	add	x1, x1, #0x1
    50e0:	eb06003f 	cmp	x1, x6
    50e4:	54ffff21 	b.ne	50c8 <panic_write+0x10>  // b.any
    50e8:	d65f03c0 	ret
    50ec:	00000000 	.inst	0x00000000 ; undefined

00000000000050f0 <sys_stop>:
    50f0:	14000000 	b	50f0 <sys_stop>
    50f4:	00000000 	.inst	0x00000000 ; undefined

00000000000050f8 <cmd_config_cb>:
    50f8:	a9bf7bfd 	stp	x29, x30, [sp, #-16]!
    50fc:	aa0203e0 	mov	x0, x2
    5100:	b01fffe1 	adrp	x1, 40002000 <level_warning+0x1140>
    5104:	9122a021 	add	x1, x1, #0x8a8
    5108:	910003fd 	mov	x29, sp
    510c:	94001e6f 	bl	cac8 <std_fprintf>
    5110:	52800000 	mov	w0, #0x0                   	// #0
    5114:	a8c17bfd 	ldp	x29, x30, [sp], #16
    5118:	d65f03c0 	ret
    511c:	00000000 	.inst	0x00000000 ; undefined

0000000000005120 <cmd_info_cb>:
    5120:	a9bf7bfd 	stp	x29, x30, [sp, #-16]!
    5124:	aa0203e0 	mov	x0, x2
    5128:	b0200001 	adrp	x1, 40006000 <null+0x928>
    512c:	91106021 	add	x1, x1, #0x418
    5130:	910003fd 	mov	x29, sp
    5134:	94001e65 	bl	cac8 <std_fprintf>
    5138:	52800000 	mov	w0, #0x0                   	// #0
    513c:	a8c17bfd 	ldp	x29, x30, [sp], #16
    5140:	d65f03c0 	ret
    5144:	00000000 	.inst	0x00000000 ; undefined

0000000000005148 <cmd_backtrace_cb>:
    5148:	a9be7bfd 	stp	x29, x30, [sp, #-32]!
    514c:	aa0203e0 	mov	x0, x2
    5150:	b01fffe1 	adrp	x1, 40002000 <level_warning+0x1140>
    5154:	9121a021 	add	x1, x1, #0x868
    5158:	910003fd 	mov	x29, sp
    515c:	f9000bf3 	str	x19, [sp, #16]
    5160:	aa0203f3 	mov	x19, x2
    5164:	94001e59 	bl	cac8 <std_fprintf>
    5168:	aa1303e0 	mov	x0, x19
    516c:	90200001 	adrp	x1, 40005000 <state_fmt+0x2388>
    5170:	9118a021 	add	x1, x1, #0x628
    5174:	94001e55 	bl	cac8 <std_fprintf>
    5178:	52800000 	mov	w0, #0x0                   	// #0
    517c:	f9400bf3 	ldr	x19, [sp, #16]
    5180:	a8c27bfd 	ldp	x29, x30, [sp], #32
    5184:	d65f03c0 	ret

0000000000005188 <cmd_reset_cause_cb>:
    5188:	a9bf7bfd 	stp	x29, x30, [sp, #-16]!
    518c:	b0200001 	adrp	x1, 40006000 <null+0x928>
    5190:	b01fffe3 	adrp	x3, 40002000 <level_warning+0x1140>
    5194:	91266063 	add	x3, x3, #0x998
    5198:	910003fd 	mov	x29, sp
    519c:	b94b1c24 	ldr	w4, [x1, #2844]
    51a0:	aa0203e0 	mov	x0, x2
    51a4:	b01fffe1 	adrp	x1, 40002000 <level_warning+0x1140>
    51a8:	91222021 	add	x1, x1, #0x888
    51ac:	f8647862 	ldr	x2, [x3, x4, lsl #3]
    51b0:	94001e46 	bl	cac8 <std_fprintf>
    51b4:	52800000 	mov	w0, #0x0                   	// #0
    51b8:	a8c17bfd 	ldp	x29, x30, [sp], #16
    51bc:	d65f03c0 	ret

00000000000051c0 <sys_module_init.part.4>:
    51c0:	a9be7bfd 	stp	x29, x30, [sp, #-32]!
    51c4:	52800024 	mov	w4, #0x1                   	// #1
    51c8:	b0200000 	adrp	x0, 40006000 <null+0x928>
    51cc:	90000002 	adrp	x2, 5000 <crc_32+0x38>
    51d0:	910003fd 	mov	x29, sp
    51d4:	a90153f3 	stp	x19, x20, [sp, #16]
    51d8:	91048042 	add	x2, x2, #0x120
    51dc:	912c4013 	add	x19, x0, #0xb10
    51e0:	b01fffe1 	adrp	x1, 40002000 <level_warning+0x1140>
    51e4:	9127a021 	add	x1, x1, #0x9e8
    51e8:	91004274 	add	x20, x19, #0x10
    51ec:	d2800003 	mov	x3, #0x0                   	// #0
    51f0:	392c4004 	strb	w4, [x0, #2832]
    51f4:	aa1403e0 	mov	x0, x20
    51f8:	94001852 	bl	b340 <fs_command_init>
    51fc:	aa1403e0 	mov	x0, x20
    5200:	94001882 	bl	b408 <fs_command_register>
    5204:	90000002 	adrp	x2, 5000 <crc_32+0x38>
    5208:	b01fffe1 	adrp	x1, 40002000 <level_warning+0x1140>
    520c:	9103e042 	add	x2, x2, #0xf8
    5210:	91280021 	add	x1, x1, #0xa00
    5214:	9100c274 	add	x20, x19, #0x30
    5218:	d2800003 	mov	x3, #0x0                   	// #0
    521c:	aa1403e0 	mov	x0, x20
    5220:	94001848 	bl	b340 <fs_command_init>
    5224:	aa1403e0 	mov	x0, x20
    5228:	94001878 	bl	b408 <fs_command_register>
    522c:	90000002 	adrp	x2, 5000 <crc_32+0x38>
    5230:	b01fffe1 	adrp	x1, 40002000 <level_warning+0x1140>
    5234:	91180042 	add	x2, x2, #0x600
    5238:	91286021 	add	x1, x1, #0xa18
    523c:	91014274 	add	x20, x19, #0x50
    5240:	d2800003 	mov	x3, #0x0                   	// #0
    5244:	aa1403e0 	mov	x0, x20
    5248:	9400183e 	bl	b340 <fs_command_init>
    524c:	aa1403e0 	mov	x0, x20
    5250:	9400186e 	bl	b408 <fs_command_register>
    5254:	90000002 	adrp	x2, 5000 <crc_32+0x38>
    5258:	b01fffe1 	adrp	x1, 40002000 <level_warning+0x1140>
    525c:	91148042 	add	x2, x2, #0x520
    5260:	9128c021 	add	x1, x1, #0xa30
    5264:	9101c274 	add	x20, x19, #0x70
    5268:	d2800003 	mov	x3, #0x0                   	// #0
    526c:	aa1403e0 	mov	x0, x20
    5270:	94001834 	bl	b340 <fs_command_init>
    5274:	aa1403e0 	mov	x0, x20
    5278:	94001864 	bl	b408 <fs_command_register>
    527c:	90000002 	adrp	x2, 5000 <crc_32+0x38>
    5280:	b01fffe1 	adrp	x1, 40002000 <level_warning+0x1140>
    5284:	9102c042 	add	x2, x2, #0xb0
    5288:	91292021 	add	x1, x1, #0xa48
    528c:	91024274 	add	x20, x19, #0x90
    5290:	d2800003 	mov	x3, #0x0                   	// #0
    5294:	aa1403e0 	mov	x0, x20
    5298:	9400182a 	bl	b340 <fs_command_init>
    529c:	aa1403e0 	mov	x0, x20
    52a0:	9400185a 	bl	b408 <fs_command_register>
    52a4:	90000002 	adrp	x2, 5000 <crc_32+0x38>
    52a8:	b01fffe1 	adrp	x1, 40002000 <level_warning+0x1140>
    52ac:	91052042 	add	x2, x2, #0x148
    52b0:	91298021 	add	x1, x1, #0xa60
    52b4:	9102c274 	add	x20, x19, #0xb0
    52b8:	d2800003 	mov	x3, #0x0                   	// #0
    52bc:	aa1403e0 	mov	x0, x20
    52c0:	94001820 	bl	b340 <fs_command_init>
    52c4:	aa1403e0 	mov	x0, x20
    52c8:	94001850 	bl	b408 <fs_command_register>
    52cc:	90000002 	adrp	x2, 5000 <crc_32+0x38>
    52d0:	b01fffe1 	adrp	x1, 40002000 <level_warning+0x1140>
    52d4:	91062042 	add	x2, x2, #0x188
    52d8:	9129e021 	add	x1, x1, #0xa78
    52dc:	d2800003 	mov	x3, #0x0                   	// #0
    52e0:	91034273 	add	x19, x19, #0xd0
    52e4:	aa1303e0 	mov	x0, x19
    52e8:	94001816 	bl	b340 <fs_command_init>
    52ec:	aa1303e0 	mov	x0, x19
    52f0:	94001846 	bl	b408 <fs_command_register>
    52f4:	d2a10000 	mov	x0, #0x8000000             	// #134217728
    52f8:	529dc002 	mov	w2, #0xee00                	// #60928
    52fc:	72a00042 	movk	w2, #0x2, lsl #16
    5300:	b9441c01 	ldr	w1, [x0, #1052]
    5304:	b9041c01 	str	w1, [x0, #1052]
    5308:	b9410001 	ldr	w1, [x0, #256]
    530c:	32020021 	orr	w1, w1, #0x40000000
    5310:	b9010001 	str	w1, [x0, #256]
    5314:	d51be202 	msr	cntp_tval_el0, x2
    5318:	52800020 	mov	w0, #0x1                   	// #1
    531c:	d51be220 	msr	cntp_ctl_el0, x0
    5320:	d50342ff 	msr	daifclr, #0x2
    5324:	a94153f3 	ldp	x19, x20, [sp, #16]
    5328:	a8c27bfd 	ldp	x29, x30, [sp], #32
    532c:	d65f03c0 	ret

0000000000005330 <isr_phys_timer>:
    5330:	a9bf7bfd 	stp	x29, x30, [sp, #-16]!
    5334:	529dc000 	mov	w0, #0xee00                	// #60928
    5338:	72a00040 	movk	w0, #0x2, lsl #16
    533c:	910003fd 	mov	x29, sp
    5340:	d51be200 	msr	cntp_tval_el0, x0
    5344:	52800020 	mov	w0, #0x1                   	// #1
    5348:	d51be220 	msr	cntp_ctl_el0, x0
    534c:	b0200000 	adrp	x0, 40006000 <null+0x928>
    5350:	912c4000 	add	x0, x0, #0xb10
    5354:	529ffa02 	mov	w2, #0xffd0                	// #65488
    5358:	72afffe2 	movk	w2, #0x7fff, lsl #16
    535c:	b9400801 	ldr	w1, [x0, #8]
    5360:	11000421 	add	w1, w1, #0x1
    5364:	b9000801 	str	w1, [x0, #8]
    5368:	6b02003f 	cmp	w1, w2
    536c:	54000081 	b.ne	537c <isr_phys_timer+0x4c>  // b.any
    5370:	b9400401 	ldr	w1, [x0, #4]
    5374:	11000421 	add	w1, w1, #0x1
    5378:	2900fc01 	stp	w1, wzr, [x0, #4]
    537c:	94000477 	bl	6558 <timer_tick_isr>
    5380:	a8c17bfd 	ldp	x29, x30, [sp], #16
    5384:	14000217 	b	5be0 <thrd_tick_isr>

0000000000005388 <sys_start>:
    5388:	a9be7bfd 	stp	x29, x30, [sp, #-32]!
    538c:	910003fd 	mov	x29, sp
    5390:	a90153f3 	stp	x19, x20, [sp, #16]
    5394:	f01fffd3 	adrp	x19, 40000000 <__ram_begin>
    5398:	91002274 	add	x20, x19, #0x8
    539c:	940019a7 	bl	ba38 <chan_null>
    53a0:	f9000680 	str	x0, [x20, #8]
    53a4:	940019a5 	bl	ba38 <chan_null>
    53a8:	f9000a80 	str	x0, [x20, #16]
    53ac:	94001b77 	bl	c188 <rwlock_module_init>
    53b0:	94001848 	bl	b4d0 <fs_module_init>
    53b4:	94001d1f 	bl	c830 <std_module_init>
    53b8:	94001b76 	bl	c190 <sem_module_init>
    53bc:	940004a5 	bl	6650 <timer_module_init>
    53c0:	97fff4d6 	bl	2718 <log_module_init>
    53c4:	940018b1 	bl	b688 <chan_module_init>
    53c8:	94000282 	bl	5dd0 <thrd_module_init>
    53cc:	b0200000 	adrp	x0, 40006000 <null+0x928>
    53d0:	39ec4000 	ldrsb	w0, [x0, #2832]
    53d4:	7100041f 	cmp	w0, #0x1
    53d8:	54000040 	b.eq	53e0 <sys_start+0x58>  // b.none
    53dc:	97ffff79 	bl	51c0 <sys_module_init.part.4>
    53e0:	940018a0 	bl	b660 <bus_module_init>
    53e4:	97fffaf3 	bl	3fb0 <ds18b20_module_init>
    53e8:	97fffe5c 	bl	4d58 <flash_module_init>
    53ec:	97fff69f 	bl	2e68 <i2c_module_init>
    53f0:	97fff858 	bl	3550 <i2c_soft_module_init>
    53f4:	97fff63d 	bl	2ce8 <pin_module_init>
    53f8:	97fffa84 	bl	3e08 <uart_module_init>
    53fc:	9400053b 	bl	68e8 <console_module_init>
    5400:	9400053c 	bl	68f0 <console_init>
    5404:	94000545 	bl	6918 <console_start>
    5408:	94000548 	bl	6928 <console_get_input_channel>
    540c:	b4000200 	cbz	x0, 544c <sys_start+0xc4>
    5410:	91002261 	add	x1, x19, #0x8
    5414:	f9000420 	str	x0, [x1, #8]
    5418:	94000548 	bl	6938 <console_get_output_channel>
    541c:	b4000140 	cbz	x0, 5444 <sys_start+0xbc>
    5420:	91002273 	add	x19, x19, #0x8
    5424:	f9000a60 	str	x0, [x19, #16]
    5428:	94000544 	bl	6938 <console_get_output_channel>
    542c:	97fff4f3 	bl	27f8 <log_set_default_handler_output_channel>
    5430:	94000672 	bl	6df8 <settings_module_init>
    5434:	52800000 	mov	w0, #0x0                   	// #0
    5438:	a94153f3 	ldp	x19, x20, [sp, #16]
    543c:	a8c27bfd 	ldp	x29, x30, [sp], #32
    5440:	d65f03c0 	ret
    5444:	9400197d 	bl	ba38 <chan_null>
    5448:	17fffff6 	b	5420 <sys_start+0x98>
    544c:	9400197b 	bl	ba38 <chan_null>
    5450:	17fffff0 	b	5410 <sys_start+0x88>
    5454:	00000000 	.inst	0x00000000 ; undefined

0000000000005458 <sys_panic>:
    5458:	a9b37bfd 	stp	x29, x30, [sp, #-208]!
    545c:	910003fd 	mov	x29, sp
    5460:	f9000bf3 	str	x19, [sp, #16]
    5464:	aa0003f3 	mov	x19, x0
    5468:	a9098ba1 	stp	x1, x2, [x29, #152]
    546c:	a90a93a3 	stp	x3, x4, [x29, #168]
    5470:	a90b9ba5 	stp	x5, x6, [x29, #184]
    5474:	f90067a7 	str	x7, [x29, #200]
    5478:	d50342df 	msr	daifset, #0x2
    547c:	d0000023 	adrp	x3, b000 <fs_list+0x110>
    5480:	90000002 	adrp	x2, 5000 <crc_32+0x38>
    5484:	9119e063 	add	x3, x3, #0x678
    5488:	9102e042 	add	x2, x2, #0xb8
    548c:	d0000021 	adrp	x1, b000 <fs_list+0x110>
    5490:	910123a0 	add	x0, x29, #0x48
    5494:	9119a021 	add	x1, x1, #0x668
    5498:	9400187e 	bl	b690 <chan_init>
    549c:	910343a0 	add	x0, x29, #0xd0
    54a0:	910243a1 	add	x1, x29, #0x90
    54a4:	a90283a0 	stp	x0, x0, [x29, #40]
    54a8:	128006e0 	mov	w0, #0xffffffc8            	// #-56
    54ac:	f9001fa1 	str	x1, [x29, #56]
    54b0:	9100a3a2 	add	x2, x29, #0x28
    54b4:	aa1303e1 	mov	x1, x19
    54b8:	b90043a0 	str	w0, [x29, #64]
    54bc:	b90047bf 	str	wzr, [x29, #68]
    54c0:	910123a0 	add	x0, x29, #0x48
    54c4:	94001daf 	bl	cb80 <std_vfprintf>
    54c8:	d2a12001 	mov	x1, #0x9000000             	// #150994944
    54cc:	d503201f 	nop
    54d0:	b9401820 	ldr	w0, [x1, #24]
    54d4:	372fffe0 	tbnz	w0, #5, 54d0 <sys_panic+0x78>
    54d8:	52800742 	mov	w2, #0x3a                  	// #58
    54dc:	d2a12000 	mov	x0, #0x9000000             	// #150994944
    54e0:	b9000022 	str	w2, [x1]
    54e4:	d503201f 	nop
    54e8:	b9401801 	ldr	w1, [x0, #24]
    54ec:	372fffe1 	tbnz	w1, #5, 54e8 <sys_panic+0x90>
    54f0:	52800401 	mov	w1, #0x20                  	// #32
    54f4:	b9000001 	str	w1, [x0]
    54f8:	b0200001 	adrp	x1, 40006000 <null+0x928>
    54fc:	910123a0 	add	x0, x29, #0x48
    5500:	91106021 	add	x1, x1, #0x418
    5504:	94001d71 	bl	cac8 <std_fprintf>
    5508:	b01fffe1 	adrp	x1, 40002000 <level_warning+0x1140>
    550c:	910123a0 	add	x0, x29, #0x48
    5510:	912a4021 	add	x1, x1, #0xa90
    5514:	94001d6d 	bl	cac8 <std_fprintf>
    5518:	14000000 	b	5518 <sys_panic+0xc0>
    551c:	00000000 	.inst	0x00000000 ; undefined

0000000000005520 <cmd_panic_cb>:
    5520:	a9bf7bfd 	stp	x29, x30, [sp, #-16]!
    5524:	b01fffe0 	adrp	x0, 40002000 <level_warning+0x1140>
    5528:	9121e000 	add	x0, x0, #0x878
    552c:	910003fd 	mov	x29, sp
    5530:	97ffffca 	bl	5458 <sys_panic>
    5534:	00000000 	.inst	0x00000000 ; undefined

0000000000005538 <sys_uptime>:
    5538:	a9bd7bfd 	stp	x29, x30, [sp, #-48]!
    553c:	910003fd 	mov	x29, sp
    5540:	f9000bf3 	str	x19, [sp, #16]
    5544:	aa0003f3 	mov	x19, x0
    5548:	b40004a0 	cbz	x0, 55dc <sys_uptime+0xa4>
    554c:	b9002bbf 	str	wzr, [x29, #40]
    5550:	d50342df 	msr	daifset, #0x2
    5554:	b0200000 	adrp	x0, 40006000 <null+0x928>
    5558:	912c4000 	add	x0, x0, #0xb10
    555c:	b9002fbf 	str	wzr, [x29, #44]
    5560:	29409805 	ldp	w5, w6, [x0, #4]
    5564:	d50342ff 	msr	daifclr, #0x2
    5568:	5290a3e4 	mov	w4, #0x851f                	// #34079
    556c:	52800c83 	mov	w3, #0x64                  	// #100
    5570:	72aa3d64 	movk	w4, #0x51eb, lsl #16
    5574:	52884809 	mov	w9, #0x4240                	// #16960
    5578:	72a001e9 	movk	w9, #0xf, lsl #16
    557c:	d29eb868 	mov	x8, #0xf5c3                	// #62915
    5580:	9ba47cc4 	umull	x4, w6, w4
    5584:	f2ab8508 	movk	x8, #0x5c28, lsl #16
    5588:	f2d851e8 	movk	x8, #0xc28f, lsl #32
    558c:	5295c28a 	mov	w10, #0xae14                	// #44564
    5590:	f2e51ea8 	movk	x8, #0x28f5, lsl #48
    5594:	72a028ea 	movk	w10, #0x147, lsl #16
    5598:	d365fc84 	lsr	x4, x4, #37
    559c:	52807d07 	mov	w7, #0x3e8                 	// #1000
    55a0:	9100a3a2 	add	x2, x29, #0x28
    55a4:	aa1303e1 	mov	x1, x19
    55a8:	aa1303e0 	mov	x0, x19
    55ac:	1b039883 	msub	w3, w4, w3, w6
    55b0:	1b0a10a4 	madd	w4, w5, w10, w4
    55b4:	9ba97c63 	umull	x3, w3, w9
    55b8:	d342fc63 	lsr	x3, x3, #2
    55bc:	9bc87c63 	umulh	x3, x3, x8
    55c0:	d342fc63 	lsr	x3, x3, #2
    55c4:	1b077c63 	mul	w3, w3, w7
    55c8:	29000e64 	stp	w4, w3, [x19]
    55cc:	94000387 	bl	63e8 <time_add>
    55d0:	f9400bf3 	ldr	x19, [sp, #16]
    55d4:	a8c37bfd 	ldp	x29, x30, [sp], #48
    55d8:	d65f03c0 	ret
    55dc:	b01fffe0 	adrp	x0, 40002000 <level_warning+0x1140>
    55e0:	912a8000 	add	x0, x0, #0xaa0
    55e4:	94001c95 	bl	c838 <std_printf>
    55e8:	f01fffc1 	adrp	x1, 40000000 <__ram_begin>
    55ec:	528002c0 	mov	w0, #0x16                  	// #22
    55f0:	f9400421 	ldr	x1, [x1, #8]
    55f4:	d63f0020 	blr	x1
    55f8:	17ffffd5 	b	554c <sys_uptime+0x14>
    55fc:	00000000 	.inst	0x00000000 ; undefined

0000000000005600 <cmd_uptime_cb>:
    5600:	a9bd7bfd 	stp	x29, x30, [sp, #-48]!
    5604:	910003fd 	mov	x29, sp
    5608:	f9000bf3 	str	x19, [sp, #16]
    560c:	9100a3a0 	add	x0, x29, #0x28
    5610:	aa0203f3 	mov	x19, x2
    5614:	97ffffc9 	bl	5538 <sys_uptime>
    5618:	d2869b64 	mov	x4, #0x34db                	// #13531
    561c:	b9802fa3 	ldrsw	x3, [x29, #44]
    5620:	f2baf6c4 	movk	x4, #0xd7b6, lsl #16
    5624:	b9402ba2 	ldr	w2, [x29, #40]
    5628:	f2dbd044 	movk	x4, #0xde82, lsl #32
    562c:	aa1303e0 	mov	x0, x19
    5630:	f2e86364 	movk	x4, #0x431b, lsl #48
    5634:	b01fffe1 	adrp	x1, 40002000 <level_warning+0x1140>
    5638:	91224021 	add	x1, x1, #0x890
    563c:	9bc47c63 	umulh	x3, x3, x4
    5640:	d352fc63 	lsr	x3, x3, #18
    5644:	94001d21 	bl	cac8 <std_fprintf>
    5648:	52800000 	mov	w0, #0x0                   	// #0
    564c:	f9400bf3 	ldr	x19, [sp, #16]
    5650:	a8c37bfd 	ldp	x29, x30, [sp], #48
    5654:	d65f03c0 	ret

0000000000005658 <sys_get_stdin>:
    5658:	f01fffc0 	adrp	x0, 40000000 <__ram_begin>
    565c:	f9400800 	ldr	x0, [x0, #16]
    5660:	d65f03c0 	ret
    5664:	00000000 	.inst	0x00000000 ; undefined

0000000000005668 <sys_get_stdout>:
    5668:	f01fffc0 	adrp	x0, 40000000 <__ram_begin>
    566c:	f9400c00 	ldr	x0, [x0, #24]
    5670:	d65f03c0 	ret
    5674:	00000000 	.inst	0x00000000 ; undefined

0000000000005678 <sys_lock>:
    5678:	d50342df 	msr	daifset, #0x2
    567c:	d65f03c0 	ret

0000000000005680 <sys_unlock>:
    5680:	d50342ff 	msr	daifclr, #0x2
    5684:	d65f03c0 	ret

0000000000005688 <sys_lock_isr>:
    5688:	d65f03c0 	ret
    568c:	00000000 	.inst	0x00000000 ; undefined

0000000000005690 <sys_unlock_isr>:
    5690:	d65f03c0 	ret
    5694:	00000000 	.inst	0x00000000 ; undefined

0000000000005698 <sys_get_info>:
    5698:	b0200000 	adrp	x0, 40006000 <null+0x928>
    569c:	91106000 	add	x0, x0, #0x418
    56a0:	d65f03c0 	ret
    56a4:	00000000 	.inst	0x00000000 ; undefined

00000000000056a8 <sys_interrupt_cpu_usage_get>:
    56a8:	52800000 	mov	w0, #0x0                   	// #0
    56ac:	d65f03c0 	ret

00000000000056b0 <sys_interrupt_cpu_usage_reset>:
    56b0:	d65f03c0 	ret
    56b4:	00000000 	.inst	0x00000000 ; undefined

00000000000056b8 <thrd_reschedule>:
    56b8:	a9be7bfd 	stp	x29, x30, [sp, #-32]!
    56bc:	528266e0 	mov	w0, #0x1337                	// #4919
    56c0:	910003fd 	mov	x29, sp
    56c4:	a90153f3 	stp	x19, x20, [sp, #16]
    56c8:	d0200013 	adrp	x19, 40007000 <idle_thrd_stack+0x400>
    56cc:	91124261 	add	x1, x19, #0x490
    56d0:	f9400434 	ldr	x20, [x1, #8]
    56d4:	79411281 	ldrh	w1, [x20, #136]
    56d8:	6b00003f 	cmp	w1, w0
    56dc:	54000080 	b.eq	56ec <thrd_reschedule+0x34>  // b.none
    56e0:	b01fffe0 	adrp	x0, 40002000 <level_warning+0x1140>
    56e4:	91388000 	add	x0, x0, #0xe20
    56e8:	97ffff5c 	bl	5458 <sys_panic>
    56ec:	91124261 	add	x1, x19, #0x490
    56f0:	f9400822 	ldr	x2, [x1, #16]
    56f4:	f9400440 	ldr	x0, [x2, #8]
    56f8:	b40001e2 	cbz	x2, 5734 <thrd_reschedule+0x7c>
    56fc:	f9400042 	ldr	x2, [x2]
    5700:	eb00029f 	cmp	x20, x0
    5704:	3900a41f 	strb	wzr, [x0, #41]
    5708:	f9000822 	str	x2, [x1, #16]
    570c:	540000e0 	b.eq	5728 <thrd_reschedule+0x70>  // b.none
    5710:	f9000420 	str	x0, [x1, #8]
    5714:	aa1403e1 	mov	x1, x20
    5718:	94001ecb 	bl	d244 <thrd_port_swap>
    571c:	b9406680 	ldr	w0, [x20, #100]
    5720:	11000400 	add	w0, w0, #0x1
    5724:	b9006680 	str	w0, [x20, #100]
    5728:	a94153f3 	ldp	x19, x20, [sp, #16]
    572c:	a8c27bfd 	ldp	x29, x30, [sp], #32
    5730:	d65f03c0 	ret
    5734:	d4207d00 	brk	#0x3e8

0000000000005738 <cmd_monitor_set_print_cb>:
    5738:	a9bd7bfd 	stp	x29, x30, [sp, #-48]!
    573c:	7100081f 	cmp	w0, #0x2
    5740:	910003fd 	mov	x29, sp
    5744:	f9000bf3 	str	x19, [sp, #16]
    5748:	aa0203f3 	mov	x19, x2
    574c:	540001c1 	b.ne	5784 <cmd_monitor_set_print_cb+0x4c>  // b.any
    5750:	f9400420 	ldr	x0, [x1, #8]
    5754:	9100a3a1 	add	x1, x29, #0x28
    5758:	94001dd2 	bl	cea0 <std_strtol>
    575c:	b4000140 	cbz	x0, 5784 <cmd_monitor_set_print_cb+0x4c>
    5760:	f94017a1 	ldr	x1, [x29, #40]
    5764:	f100043f 	cmp	x1, #0x1
    5768:	540000e8 	b.hi	5784 <cmd_monitor_set_print_cb+0x4c>  // b.pmore
    576c:	f01fffc2 	adrp	x2, 40000000 <__ram_begin>
    5770:	52800000 	mov	w0, #0x0                   	// #0
    5774:	b9003041 	str	w1, [x2, #48]
    5778:	f9400bf3 	ldr	x19, [sp, #16]
    577c:	a8c37bfd 	ldp	x29, x30, [sp], #48
    5780:	d65f03c0 	ret
    5784:	b01fffe1 	adrp	x1, 40002000 <level_warning+0x1140>
    5788:	aa1303e0 	mov	x0, x19
    578c:	912ee021 	add	x1, x1, #0xbb8
    5790:	94001cce 	bl	cac8 <std_fprintf>
    5794:	128002a0 	mov	w0, #0xffffffea            	// #-22
    5798:	17fffff8 	b	5778 <cmd_monitor_set_print_cb+0x40>
    579c:	00000000 	.inst	0x00000000 ; undefined

00000000000057a0 <cmd_monitor_set_period_ms_cb>:
    57a0:	a9be7bfd 	stp	x29, x30, [sp, #-32]!
    57a4:	7100081f 	cmp	w0, #0x2
    57a8:	910003fd 	mov	x29, sp
    57ac:	540001e1 	b.ne	57e8 <cmd_monitor_set_period_ms_cb+0x48>  // b.any
    57b0:	f9400420 	ldr	x0, [x1, #8]
    57b4:	910063a1 	add	x1, x29, #0x18
    57b8:	94001dba 	bl	cea0 <std_strtol>
    57bc:	b4000220 	cbz	x0, 5800 <cmd_monitor_set_period_ms_cb+0x60>
    57c0:	f9400fa2 	ldr	x2, [x29, #24]
    57c4:	f01fffc3 	adrp	x3, 40000000 <__ram_begin>
    57c8:	52800000 	mov	w0, #0x0                   	// #0
    57cc:	d37be841 	lsl	x1, x2, #5
    57d0:	cb020021 	sub	x1, x1, x2
    57d4:	8b010841 	add	x1, x2, x1, lsl #2
    57d8:	d37df021 	lsl	x1, x1, #3
    57dc:	f9001461 	str	x1, [x3, #40]
    57e0:	a8c27bfd 	ldp	x29, x30, [sp], #32
    57e4:	d65f03c0 	ret
    57e8:	b01fffe1 	adrp	x1, 40002000 <level_warning+0x1140>
    57ec:	aa0203e0 	mov	x0, x2
    57f0:	912e4021 	add	x1, x1, #0xb90
    57f4:	94001cb5 	bl	cac8 <std_fprintf>
    57f8:	128002a0 	mov	w0, #0xffffffea            	// #-22
    57fc:	17fffff9 	b	57e0 <cmd_monitor_set_period_ms_cb+0x40>
    5800:	128002a0 	mov	w0, #0xffffffea            	// #-22
    5804:	17fffff7 	b	57e0 <cmd_monitor_set_period_ms_cb+0x40>

0000000000005808 <cmd_list_cb>:
    5808:	d10103ff 	sub	sp, sp, #0x40
    580c:	b01fffe1 	adrp	x1, 40002000 <level_warning+0x1140>
    5810:	aa0203e0 	mov	x0, x2
    5814:	912c0021 	add	x1, x1, #0xb00
    5818:	a9017bfd 	stp	x29, x30, [sp, #16]
    581c:	910043fd 	add	x29, sp, #0x10
    5820:	f90013f3 	str	x19, [sp, #32]
    5824:	f9001ff6 	str	x22, [sp, #56]
    5828:	aa0203f6 	mov	x22, x2
    582c:	94001ca7 	bl	cac8 <std_fprintf>
    5830:	d0200000 	adrp	x0, 40007000 <idle_thrd_stack+0x400>
    5834:	f9425413 	ldr	x19, [x0, #1192]
    5838:	b4000493 	cbz	x19, 58c8 <cmd_list_cb+0xc0>
    583c:	a901d7b4 	stp	x20, x21, [x29, #24]
    5840:	b01ffff5 	adrp	x21, 40002000 <level_warning+0x1140>
    5844:	b01ffff4 	adrp	x20, 40002000 <level_warning+0x1140>
    5848:	9131e2b5 	add	x21, x21, #0xc78
    584c:	912d6294 	add	x20, x20, #0xb58
    5850:	3980a660 	ldrsb	x0, [x19, #41]
    5854:	f9404267 	ldr	x7, [x19, #128]
    5858:	39c0a264 	ldrsb	w4, [x19, #40]
    585c:	294c1a65 	ldp	w5, w6, [x19, #96]
    5860:	f8607aa3 	ldr	x3, [x21, x0, lsl #3]
    5864:	f9402262 	ldr	x2, [x19, #64]
    5868:	b4000407 	cbz	x7, 58e8 <cmd_list_cb+0xe0>
    586c:	39424261 	ldrb	w1, [x19, #144]
    5870:	2a0703e8 	mov	w8, w7
    5874:	d2800000 	mov	x0, #0x0                   	// #0
    5878:	7100643f 	cmp	w1, #0x19
    587c:	540000a0 	b.eq	5890 <cmd_list_cb+0x88>  // b.none
    5880:	14000009 	b	58a4 <cmd_list_cb+0x9c>
    5884:	39424021 	ldrb	w1, [x1, #144]
    5888:	7100643f 	cmp	w1, #0x19
    588c:	540002a1 	b.ne	58e0 <cmd_list_cb+0xd8>  // b.any
    5890:	91000400 	add	x0, x0, #0x1
    5894:	8b000261 	add	x1, x19, x0
    5898:	eb07001f 	cmp	x0, x7
    589c:	54ffff41 	b.ne	5884 <cmd_list_cb+0x7c>  // b.any
    58a0:	52800007 	mov	w7, #0x0                   	// #0
    58a4:	3940c260 	ldrb	w0, [x19, #48]
    58a8:	aa1403e1 	mov	x1, x20
    58ac:	b90003e8 	str	w8, [sp]
    58b0:	b9000be0 	str	w0, [sp, #8]
    58b4:	aa1603e0 	mov	x0, x22
    58b8:	94001c84 	bl	cac8 <std_fprintf>
    58bc:	f9402673 	ldr	x19, [x19, #72]
    58c0:	b5fffc93 	cbnz	x19, 5850 <cmd_list_cb+0x48>
    58c4:	a941d7b4 	ldp	x20, x21, [x29, #24]
    58c8:	52800000 	mov	w0, #0x0                   	// #0
    58cc:	a9417bfd 	ldp	x29, x30, [sp, #16]
    58d0:	f94013f3 	ldr	x19, [sp, #32]
    58d4:	f9401ff6 	ldr	x22, [sp, #56]
    58d8:	910103ff 	add	sp, sp, #0x40
    58dc:	d65f03c0 	ret
    58e0:	4b0000e7 	sub	w7, w7, w0
    58e4:	17fffff0 	b	58a4 <cmd_list_cb+0x9c>
    58e8:	52800007 	mov	w7, #0x0                   	// #0
    58ec:	52800008 	mov	w8, #0x0                   	// #0
    58f0:	17ffffed 	b	58a4 <cmd_list_cb+0x9c>
    58f4:	00000000 	.inst	0x00000000 ; undefined

00000000000058f8 <terminate>:
    58f8:	a9be7bfd 	stp	x29, x30, [sp, #-32]!
    58fc:	910003fd 	mov	x29, sp
    5900:	f9000bf3 	str	x19, [sp, #16]
    5904:	d0200013 	adrp	x19, 40007000 <idle_thrd_stack+0x400>
    5908:	91124273 	add	x19, x19, #0x490
    590c:	97ffff5b 	bl	5678 <sys_lock>
    5910:	52800021 	mov	w1, #0x1                   	// #1
    5914:	f9400660 	ldr	x0, [x19, #8]
    5918:	91014000 	add	x0, x0, #0x50
    591c:	94001a55 	bl	c270 <sem_give_isr>
    5920:	f9400660 	ldr	x0, [x19, #8]
    5924:	52800081 	mov	w1, #0x4                   	// #4
    5928:	3900a401 	strb	w1, [x0, #41]
    592c:	97ffff63 	bl	56b8 <thrd_reschedule>
    5930:	f9400bf3 	ldr	x19, [sp, #16]
    5934:	a8c27bfd 	ldp	x29, x30, [sp], #32
    5938:	52800020 	mov	w0, #0x1                   	// #1
    593c:	17fffded 	b	50f0 <sys_stop>

0000000000005940 <thrd_self>:
    5940:	d0200000 	adrp	x0, 40007000 <idle_thrd_stack+0x400>
    5944:	f9424c00 	ldr	x0, [x0, #1176]
    5948:	d65f03c0 	ret
    594c:	00000000 	.inst	0x00000000 ; undefined

0000000000005950 <thrd_set_name>:
    5950:	d0200001 	adrp	x1, 40007000 <idle_thrd_stack+0x400>
    5954:	f9424c21 	ldr	x1, [x1, #1176]
    5958:	f9002020 	str	x0, [x1, #64]
    595c:	52800000 	mov	w0, #0x0                   	// #0
    5960:	d65f03c0 	ret
    5964:	00000000 	.inst	0x00000000 ; undefined

0000000000005968 <thrd_get_name>:
    5968:	d0200000 	adrp	x0, 40007000 <idle_thrd_stack+0x400>
    596c:	f9424c00 	ldr	x0, [x0, #1176]
    5970:	f9402000 	ldr	x0, [x0, #64]
    5974:	d65f03c0 	ret

0000000000005978 <thrd_get_by_name>:
    5978:	a9be7bfd 	stp	x29, x30, [sp, #-32]!
    597c:	d0200001 	adrp	x1, 40007000 <idle_thrd_stack+0x400>
    5980:	910003fd 	mov	x29, sp
    5984:	f9000bf3 	str	x19, [sp, #16]
    5988:	f9425433 	ldr	x19, [x1, #1192]
    598c:	b4000213 	cbz	x19, 59cc <thrd_get_by_name+0x54>
    5990:	f9000fb4 	str	x20, [x29, #24]
    5994:	aa0003f4 	mov	x20, x0
    5998:	14000003 	b	59a4 <thrd_get_by_name+0x2c>
    599c:	f9402673 	ldr	x19, [x19, #72]
    59a0:	b4000153 	cbz	x19, 59c8 <thrd_get_by_name+0x50>
    59a4:	f9402260 	ldr	x0, [x19, #64]
    59a8:	aa1403e1 	mov	x1, x20
    59ac:	97fff101 	bl	1db0 <strcmp>
    59b0:	35ffff60 	cbnz	w0, 599c <thrd_get_by_name+0x24>
    59b4:	aa1303e0 	mov	x0, x19
    59b8:	f9400fb4 	ldr	x20, [x29, #24]
    59bc:	f9400bf3 	ldr	x19, [sp, #16]
    59c0:	a8c27bfd 	ldp	x29, x30, [sp], #32
    59c4:	d65f03c0 	ret
    59c8:	f9400fb4 	ldr	x20, [x29, #24]
    59cc:	d2800013 	mov	x19, #0x0                   	// #0
    59d0:	aa1303e0 	mov	x0, x19
    59d4:	f9400bf3 	ldr	x19, [sp, #16]
    59d8:	a8c27bfd 	ldp	x29, x30, [sp], #32
    59dc:	d65f03c0 	ret

00000000000059e0 <cmd_set_log_mask_cb>:
    59e0:	a9bd7bfd 	stp	x29, x30, [sp, #-48]!
    59e4:	71000c1f 	cmp	w0, #0x3
    59e8:	910003fd 	mov	x29, sp
    59ec:	54000221 	b.ne	5a30 <cmd_set_log_mask_cb+0x50>  // b.any
    59f0:	f9400420 	ldr	x0, [x1, #8]
    59f4:	a90153b3 	stp	x19, x20, [x29, #16]
    59f8:	aa0103f3 	mov	x19, x1
    59fc:	97ffffdf 	bl	5978 <thrd_get_by_name>
    5a00:	aa0003f4 	mov	x20, x0
    5a04:	b4000220 	cbz	x0, 5a48 <cmd_set_log_mask_cb+0x68>
    5a08:	f9400a60 	ldr	x0, [x19, #16]
    5a0c:	9100a3a1 	add	x1, x29, #0x28
    5a10:	94001d24 	bl	cea0 <std_strtol>
    5a14:	b4000200 	cbz	x0, 5a54 <cmd_set_log_mask_cb+0x74>
    5a18:	f94017a1 	ldr	x1, [x29, #40]
    5a1c:	52800000 	mov	w0, #0x0                   	// #0
    5a20:	3900c281 	strb	w1, [x20, #48]
    5a24:	a94153b3 	ldp	x19, x20, [x29, #16]
    5a28:	a8c37bfd 	ldp	x29, x30, [sp], #48
    5a2c:	d65f03c0 	ret
    5a30:	b01fffe1 	adrp	x1, 40002000 <level_warning+0x1140>
    5a34:	aa0203e0 	mov	x0, x2
    5a38:	912f6021 	add	x1, x1, #0xbd8
    5a3c:	94001c23 	bl	cac8 <std_fprintf>
    5a40:	128002a0 	mov	w0, #0xffffffea            	// #-22
    5a44:	17fffff9 	b	5a28 <cmd_set_log_mask_cb+0x48>
    5a48:	12800040 	mov	w0, #0xfffffffd            	// #-3
    5a4c:	a94153b3 	ldp	x19, x20, [x29, #16]
    5a50:	17fffff6 	b	5a28 <cmd_set_log_mask_cb+0x48>
    5a54:	128002a0 	mov	w0, #0xffffffea            	// #-22
    5a58:	a94153b3 	ldp	x19, x20, [x29, #16]
    5a5c:	17fffff3 	b	5a28 <cmd_set_log_mask_cb+0x48>

0000000000005a60 <thrd_get_log_mask>:
    5a60:	d0200000 	adrp	x0, 40007000 <idle_thrd_stack+0x400>
    5a64:	f9424c00 	ldr	x0, [x0, #1176]
    5a68:	3940c000 	ldrb	w0, [x0, #48]
    5a6c:	d65f03c0 	ret

0000000000005a70 <thrd_get_global_env>:
    5a70:	a9bc7bfd 	stp	x29, x30, [sp, #-64]!
    5a74:	910003fd 	mov	x29, sp
    5a78:	f9000bf3 	str	x19, [sp, #16]
    5a7c:	a9025bf5 	stp	x21, x22, [sp, #32]
    5a80:	aa0003f6 	mov	x22, x0
    5a84:	f9001bf7 	str	x23, [sp, #48]
    5a88:	b4000440 	cbz	x0, 5b10 <thrd_get_global_env+0xa0>
    5a8c:	d0200017 	adrp	x23, 40007000 <idle_thrd_stack+0x400>
    5a90:	911242f5 	add	x21, x23, #0x490
    5a94:	9101e2a0 	add	x0, x21, #0x78
    5a98:	94001814 	bl	bae8 <mutex_lock>
    5a9c:	a94602b3 	ldp	x19, x0, [x21, #96]
    5aa0:	b4000240 	cbz	x0, 5ae8 <thrd_get_global_env+0x78>
    5aa4:	f9000fb4 	str	x20, [x29, #24]
    5aa8:	d2800034 	mov	x20, #0x1                   	// #1
    5aac:	14000007 	b	5ac8 <thrd_get_global_env+0x58>
    5ab0:	f94036a1 	ldr	x1, [x21, #104]
    5ab4:	91000680 	add	x0, x20, #0x1
    5ab8:	91004273 	add	x19, x19, #0x10
    5abc:	eb01029f 	cmp	x20, x1
    5ac0:	aa0003f4 	mov	x20, x0
    5ac4:	54000102 	b.cs	5ae4 <thrd_get_global_env+0x74>  // b.hs, b.nlast
    5ac8:	f9400260 	ldr	x0, [x19]
    5acc:	aa1603e1 	mov	x1, x22
    5ad0:	97fff0b8 	bl	1db0 <strcmp>
    5ad4:	35fffee0 	cbnz	w0, 5ab0 <thrd_get_global_env+0x40>
    5ad8:	f9400673 	ldr	x19, [x19, #8]
    5adc:	f9400fb4 	ldr	x20, [x29, #24]
    5ae0:	14000003 	b	5aec <thrd_get_global_env+0x7c>
    5ae4:	f9400fb4 	ldr	x20, [x29, #24]
    5ae8:	d2800013 	mov	x19, #0x0                   	// #0
    5aec:	911242e0 	add	x0, x23, #0x490
    5af0:	9101e000 	add	x0, x0, #0x78
    5af4:	94001827 	bl	bb90 <mutex_unlock>
    5af8:	aa1303e0 	mov	x0, x19
    5afc:	f9400bf3 	ldr	x19, [sp, #16]
    5b00:	a9425bf5 	ldp	x21, x22, [sp, #32]
    5b04:	f9401bf7 	ldr	x23, [sp, #48]
    5b08:	a8c47bfd 	ldp	x29, x30, [sp], #64
    5b0c:	d65f03c0 	ret
    5b10:	b01fffe0 	adrp	x0, 40002000 <level_warning+0x1140>
    5b14:	9134e000 	add	x0, x0, #0xd38
    5b18:	94001b48 	bl	c838 <std_printf>
    5b1c:	f01fffc1 	adrp	x1, 40000000 <__ram_begin>
    5b20:	528002c0 	mov	w0, #0x16                  	// #22
    5b24:	f9400421 	ldr	x1, [x1, #8]
    5b28:	d63f0020 	blr	x1
    5b2c:	17ffffd8 	b	5a8c <thrd_get_global_env+0x1c>

0000000000005b30 <thrd_get_env>:
    5b30:	a9bd7bfd 	stp	x29, x30, [sp, #-48]!
    5b34:	910003fd 	mov	x29, sp
    5b38:	f9000bf3 	str	x19, [sp, #16]
    5b3c:	a9025bf5 	stp	x21, x22, [sp, #32]
    5b40:	aa0003f5 	mov	x21, x0
    5b44:	b40003e0 	cbz	x0, 5bc0 <thrd_get_env+0x90>
    5b48:	d0200000 	adrp	x0, 40007000 <idle_thrd_stack+0x400>
    5b4c:	f9424c16 	ldr	x22, [x0, #1176]
    5b50:	a94682d3 	ldp	x19, x0, [x22, #104]
    5b54:	b40002c0 	cbz	x0, 5bac <thrd_get_env+0x7c>
    5b58:	f9000fb4 	str	x20, [x29, #24]
    5b5c:	d2800034 	mov	x20, #0x1                   	// #1
    5b60:	14000007 	b	5b7c <thrd_get_env+0x4c>
    5b64:	f9403ac1 	ldr	x1, [x22, #112]
    5b68:	91000680 	add	x0, x20, #0x1
    5b6c:	91004273 	add	x19, x19, #0x10
    5b70:	eb14003f 	cmp	x1, x20
    5b74:	aa0003f4 	mov	x20, x0
    5b78:	54000189 	b.ls	5ba8 <thrd_get_env+0x78>  // b.plast
    5b7c:	f9400260 	ldr	x0, [x19]
    5b80:	aa1503e1 	mov	x1, x21
    5b84:	97fff08b 	bl	1db0 <strcmp>
    5b88:	35fffee0 	cbnz	w0, 5b64 <thrd_get_env+0x34>
    5b8c:	f9400660 	ldr	x0, [x19, #8]
    5b90:	b40000c0 	cbz	x0, 5ba8 <thrd_get_env+0x78>
    5b94:	f9400fb4 	ldr	x20, [x29, #24]
    5b98:	f9400bf3 	ldr	x19, [sp, #16]
    5b9c:	a9425bf5 	ldp	x21, x22, [sp, #32]
    5ba0:	a8c37bfd 	ldp	x29, x30, [sp], #48
    5ba4:	d65f03c0 	ret
    5ba8:	f9400fb4 	ldr	x20, [x29, #24]
    5bac:	aa1503e0 	mov	x0, x21
    5bb0:	f9400bf3 	ldr	x19, [sp, #16]
    5bb4:	a9425bf5 	ldp	x21, x22, [sp, #32]
    5bb8:	a8c37bfd 	ldp	x29, x30, [sp], #48
    5bbc:	17ffffad 	b	5a70 <thrd_get_global_env>
    5bc0:	b01fffe0 	adrp	x0, 40002000 <level_warning+0x1140>
    5bc4:	91336000 	add	x0, x0, #0xcd8
    5bc8:	94001b1c 	bl	c838 <std_printf>
    5bcc:	f01fffc1 	adrp	x1, 40000000 <__ram_begin>
    5bd0:	528002c0 	mov	w0, #0x16                  	// #22
    5bd4:	f9400421 	ldr	x1, [x1, #8]
    5bd8:	d63f0020 	blr	x1
    5bdc:	17ffffdb 	b	5b48 <thrd_get_env+0x18>

0000000000005be0 <thrd_tick_isr>:
    5be0:	d65f03c0 	ret
    5be4:	00000000 	.inst	0x00000000 ; undefined

0000000000005be8 <thrd_prio_list_init>:
    5be8:	f900001f 	str	xzr, [x0]
    5bec:	52800000 	mov	w0, #0x0                   	// #0
    5bf0:	d65f03c0 	ret
    5bf4:	00000000 	.inst	0x00000000 ; undefined

0000000000005bf8 <thrd_prio_list_push_isr>:
    5bf8:	f9400006 	ldr	x6, [x0]
    5bfc:	f900003f 	str	xzr, [x1]
    5c00:	b4000226 	cbz	x6, 5c44 <thrd_prio_list_push_isr+0x4c>
    5c04:	f9400423 	ldr	x3, [x1, #8]
    5c08:	aa0603e2 	mov	x2, x6
    5c0c:	d2800004 	mov	x4, #0x0                   	// #0
    5c10:	39c0a065 	ldrsb	w5, [x3, #40]
    5c14:	14000002 	b	5c1c <thrd_prio_list_push_isr+0x24>
    5c18:	aa0303e2 	mov	x2, x3
    5c1c:	f9400443 	ldr	x3, [x2, #8]
    5c20:	39c0a063 	ldrsb	w3, [x3, #40]
    5c24:	6b05007f 	cmp	w3, w5
    5c28:	5400012c 	b.gt	5c4c <thrd_prio_list_push_isr+0x54>
    5c2c:	f9400043 	ldr	x3, [x2]
    5c30:	aa0203e4 	mov	x4, x2
    5c34:	b5ffff23 	cbnz	x3, 5c18 <thrd_prio_list_push_isr+0x20>
    5c38:	f9000041 	str	x1, [x2]
    5c3c:	d65f03c0 	ret
    5c40:	f9000026 	str	x6, [x1]
    5c44:	f9000001 	str	x1, [x0]
    5c48:	d65f03c0 	ret
    5c4c:	b4ffffa4 	cbz	x4, 5c40 <thrd_prio_list_push_isr+0x48>
    5c50:	f9400080 	ldr	x0, [x4]
    5c54:	f9000020 	str	x0, [x1]
    5c58:	f9000081 	str	x1, [x4]
    5c5c:	d65f03c0 	ret

0000000000005c60 <thrd_spawn>:
    5c60:	a9bc7bfd 	stp	x29, x30, [sp, #-64]!
    5c64:	910003fd 	mov	x29, sp
    5c68:	a90153f3 	stp	x19, x20, [sp, #16]
    5c6c:	aa0303f3 	mov	x19, x3
    5c70:	a9025bf5 	stp	x21, x22, [sp, #32]
    5c74:	aa0403f4 	mov	x20, x4
    5c78:	f9001bf7 	str	x23, [sp, #48]
    5c7c:	aa0003f5 	mov	x21, x0
    5c80:	aa0103f6 	mov	x22, x1
    5c84:	2a0203f7 	mov	w23, w2
    5c88:	b4000820 	cbz	x0, 5d8c <thrd_spawn+0x12c>
    5c8c:	b4000933 	cbz	x19, 5db0 <thrd_spawn+0x150>
    5c90:	f102469f 	cmp	x20, #0x91
    5c94:	540006c9 	b.ls	5d6c <thrd_spawn+0x10c>  // b.plast
    5c98:	52800020 	mov	w0, #0x1                   	// #1
    5c9c:	3900a660 	strb	w0, [x19, #41]
    5ca0:	528001e0 	mov	w0, #0xf                   	// #15
    5ca4:	d1024281 	sub	x1, x20, #0x90
    5ca8:	f9000673 	str	x19, [x19, #8]
    5cac:	52800022 	mov	w2, #0x1                   	// #1
    5cb0:	3900a277 	strb	w23, [x19, #40]
    5cb4:	b9002e7f 	str	wzr, [x19, #44]
    5cb8:	3900c260 	strb	w0, [x19, #48]
    5cbc:	b01fffe0 	adrp	x0, 40002000 <level_warning+0x1140>
    5cc0:	f9004261 	str	x1, [x19, #128]
    5cc4:	911ec000 	add	x0, x0, #0x7b0
    5cc8:	a903827f 	stp	xzr, x0, [x19, #56]
    5ccc:	2a0203e1 	mov	w1, w2
    5cd0:	91014260 	add	x0, x19, #0x50
    5cd4:	94001931 	bl	c198 <sem_init>
    5cd8:	a9067e7f 	stp	xzr, xzr, [x19, #96]
    5cdc:	f9404261 	ldr	x1, [x19, #128]
    5ce0:	528266e0 	mov	w0, #0x1337                	// #4919
    5ce4:	a9077e7f 	stp	xzr, xzr, [x19, #112]
    5ce8:	79011260 	strh	w0, [x19, #136]
    5cec:	b4000101 	cbz	x1, 5d0c <thrd_spawn+0xac>
    5cf0:	8b010261 	add	x1, x19, x1
    5cf4:	91024260 	add	x0, x19, #0x90
    5cf8:	91024021 	add	x1, x1, #0x90
    5cfc:	52800322 	mov	w2, #0x19                  	// #25
    5d00:	38001402 	strb	w2, [x0], #1
    5d04:	eb01001f 	cmp	x0, x1
    5d08:	54ffffc1 	b.ne	5d00 <thrd_spawn+0xa0>  // b.any
    5d0c:	d0200017 	adrp	x23, 40007000 <idle_thrd_stack+0x400>
    5d10:	911242f7 	add	x23, x23, #0x490
    5d14:	d1040294 	sub	x20, x20, #0x100
    5d18:	90000041 	adrp	x1, d000 <std_strcmp_f+0x18>
    5d1c:	8b140260 	add	x0, x19, x20
    5d20:	f9001260 	str	x0, [x19, #32]
    5d24:	f9400ee2 	ldr	x2, [x23, #24]
    5d28:	910b8021 	add	x1, x1, #0x2e0
    5d2c:	f9002662 	str	x2, [x19, #72]
    5d30:	f9000ef3 	str	x19, [x23, #24]
    5d34:	f9000415 	str	x21, [x0, #8]
    5d38:	f8346a76 	str	x22, [x19, x20]
    5d3c:	f9007801 	str	x1, [x0, #240]
    5d40:	97fffe4e 	bl	5678 <sys_lock>
    5d44:	aa1303e1 	mov	x1, x19
    5d48:	910042e0 	add	x0, x23, #0x10
    5d4c:	97ffffab 	bl	5bf8 <thrd_prio_list_push_isr>
    5d50:	97fffe4c 	bl	5680 <sys_unlock>
    5d54:	f9401bf7 	ldr	x23, [sp, #48]
    5d58:	aa1303e0 	mov	x0, x19
    5d5c:	a94153f3 	ldp	x19, x20, [sp, #16]
    5d60:	a9425bf5 	ldp	x21, x22, [sp, #32]
    5d64:	a8c47bfd 	ldp	x29, x30, [sp], #64
    5d68:	d65f03c0 	ret
    5d6c:	b01fffe0 	adrp	x0, 40002000 <level_warning+0x1140>
    5d70:	913fe000 	add	x0, x0, #0xff8
    5d74:	94001ab1 	bl	c838 <std_printf>
    5d78:	f01fffc1 	adrp	x1, 40000000 <__ram_begin>
    5d7c:	528002c0 	mov	w0, #0x16                  	// #22
    5d80:	f9400421 	ldr	x1, [x1, #8]
    5d84:	d63f0020 	blr	x1
    5d88:	17ffffc4 	b	5c98 <thrd_spawn+0x38>
    5d8c:	b01fffe0 	adrp	x0, 40002000 <level_warning+0x1140>
    5d90:	913d0000 	add	x0, x0, #0xf40
    5d94:	94001aa9 	bl	c838 <std_printf>
    5d98:	f01fffc1 	adrp	x1, 40000000 <__ram_begin>
    5d9c:	528002c0 	mov	w0, #0x16                  	// #22
    5da0:	f9400421 	ldr	x1, [x1, #8]
    5da4:	d63f0020 	blr	x1
    5da8:	b5fff753 	cbnz	x19, 5c90 <thrd_spawn+0x30>
    5dac:	d503201f 	nop
    5db0:	b01fffe0 	adrp	x0, 40002000 <level_warning+0x1140>
    5db4:	913e6000 	add	x0, x0, #0xf98
    5db8:	94001aa0 	bl	c838 <std_printf>
    5dbc:	f01fffc1 	adrp	x1, 40000000 <__ram_begin>
    5dc0:	528002c0 	mov	w0, #0x16                  	// #22
    5dc4:	f9400421 	ldr	x1, [x1, #8]
    5dc8:	d63f0020 	blr	x1
    5dcc:	17ffffb1 	b	5c90 <thrd_spawn+0x30>

0000000000005dd0 <thrd_module_init>:
    5dd0:	a9bc7bfd 	stp	x29, x30, [sp, #-64]!
    5dd4:	910003fd 	mov	x29, sp
    5dd8:	f90013f5 	str	x21, [sp, #32]
    5ddc:	d0200015 	adrp	x21, 40007000 <idle_thrd_stack+0x400>
    5de0:	39d242a0 	ldrsb	w0, [x21, #1168]
    5de4:	7100041f 	cmp	w0, #0x1
    5de8:	54000e00 	b.eq	5fa8 <thrd_module_init+0x1d8>  // b.none
    5dec:	911242a1 	add	x1, x21, #0x490
    5df0:	a90153b3 	stp	x19, x20, [x29, #16]
    5df4:	f90017b6 	str	x22, [x29, #40]
    5df8:	52800022 	mov	w2, #0x1                   	// #1
    5dfc:	391242a2 	strb	w2, [x21, #1168]
    5e00:	d2800082 	mov	x2, #0x4                   	// #4
    5e04:	f900083f 	str	xzr, [x1, #16]
    5e08:	91008020 	add	x0, x1, #0x20
    5e0c:	f0200016 	adrp	x22, 40008000 <module>
    5e10:	910b62d3 	add	x19, x22, #0x2d8
    5e14:	a9067c20 	stp	x0, xzr, [x1, #96]
    5e18:	9101e020 	add	x0, x1, #0x78
    5e1c:	f9003822 	str	x2, [x1, #112]
    5e20:	9400172a 	bl	bac8 <mutex_init>
    5e24:	910103b4 	add	x20, x29, #0x40
    5e28:	91024261 	add	x1, x19, #0x90
    5e2c:	d02003c0 	adrp	x0, 4007f000 <_end+0x76c98>
    5e30:	913fe000 	add	x0, x0, #0xff8
    5e34:	cb010000 	sub	x0, x0, x1
    5e38:	7900527f 	strh	wzr, [x19, #40]
    5e3c:	528001e1 	mov	w1, #0xf                   	// #15
    5e40:	3900c261 	strb	w1, [x19, #48]
    5e44:	b01fffe1 	adrp	x1, 40002000 <level_warning+0x1140>
    5e48:	91366021 	add	x1, x1, #0xd98
    5e4c:	52800022 	mov	w2, #0x1                   	// #1
    5e50:	381ffe9f 	strb	wzr, [x20, #-1]!
    5e54:	f9000673 	str	x19, [x19, #8]
    5e58:	b9002e7f 	str	wzr, [x19, #44]
    5e5c:	a903867f 	stp	xzr, x1, [x19, #56]
    5e60:	2a0203e1 	mov	w1, w2
    5e64:	f900267f 	str	xzr, [x19, #72]
    5e68:	f9004260 	str	x0, [x19, #128]
    5e6c:	91014260 	add	x0, x19, #0x50
    5e70:	940018ca 	bl	c198 <sem_init>
    5e74:	a9067e7f 	stp	xzr, xzr, [x19, #96]
    5e78:	528266e0 	mov	w0, #0x1337                	// #4919
    5e7c:	a9077e7f 	stp	xzr, xzr, [x19, #112]
    5e80:	79011260 	strh	w0, [x19, #136]
    5e84:	91048262 	add	x2, x19, #0x120
    5e88:	eb020282 	subs	x2, x20, x2
    5e8c:	54000120 	b.eq	5eb0 <thrd_module_init+0xe0>  // b.none
    5e90:	aa1303e1 	mov	x1, x19
    5e94:	8b020262 	add	x2, x19, x2
    5e98:	52800320 	mov	w0, #0x19                  	// #25
    5e9c:	d503201f 	nop
    5ea0:	39024020 	strb	w0, [x1, #144]
    5ea4:	91000421 	add	x1, x1, #0x1
    5ea8:	eb02003f 	cmp	x1, x2
    5eac:	54ffffa1 	b.ne	5ea0 <thrd_module_init+0xd0>  // b.any
    5eb0:	911242b3 	add	x19, x21, #0x490
    5eb4:	910b62d6 	add	x22, x22, #0x2d8
    5eb8:	d2811204 	mov	x4, #0x890                 	// #2192
    5ebc:	52800fe2 	mov	w2, #0x7f                  	// #127
    5ec0:	d2800001 	mov	x1, #0x0                   	// #0
    5ec4:	b0200003 	adrp	x3, 40006000 <null+0x928>
    5ec8:	f9000676 	str	x22, [x19, #8]
    5ecc:	91300063 	add	x3, x3, #0xc00
    5ed0:	f9000e76 	str	x22, [x19, #24]
    5ed4:	b0000000 	adrp	x0, 6000 <thrd_resume_isr.part.8+0x20>
    5ed8:	91020000 	add	x0, x0, #0x80
    5edc:	97ffff61 	bl	5c60 <thrd_spawn>
    5ee0:	d2811204 	mov	x4, #0x890                 	// #2192
    5ee4:	128009e2 	mov	w2, #0xffffffb0            	// #-80
    5ee8:	d2800001 	mov	x1, #0x0                   	// #0
    5eec:	d0200003 	adrp	x3, 40007000 <idle_thrd_stack+0x400>
    5ef0:	b0000000 	adrp	x0, 6000 <thrd_resume_isr.part.8+0x20>
    5ef4:	91168063 	add	x3, x3, #0x5a0
    5ef8:	9108a000 	add	x0, x0, #0x228
    5efc:	97ffff59 	bl	5c60 <thrd_spawn>
    5f00:	90000002 	adrp	x2, 5000 <crc_32+0x38>
    5f04:	b01fffe1 	adrp	x1, 40002000 <level_warning+0x1140>
    5f08:	91202042 	add	x2, x2, #0x808
    5f0c:	91368021 	add	x1, x1, #0xda0
    5f10:	91022274 	add	x20, x19, #0x88
    5f14:	d2800003 	mov	x3, #0x0                   	// #0
    5f18:	aa1403e0 	mov	x0, x20
    5f1c:	94001509 	bl	b340 <fs_command_init>
    5f20:	aa1403e0 	mov	x0, x20
    5f24:	94001539 	bl	b408 <fs_command_register>
    5f28:	90000002 	adrp	x2, 5000 <crc_32+0x38>
    5f2c:	b01fffe1 	adrp	x1, 40002000 <level_warning+0x1140>
    5f30:	91278042 	add	x2, x2, #0x9e0
    5f34:	9136e021 	add	x1, x1, #0xdb8
    5f38:	9102a274 	add	x20, x19, #0xa8
    5f3c:	d2800003 	mov	x3, #0x0                   	// #0
    5f40:	aa1403e0 	mov	x0, x20
    5f44:	940014ff 	bl	b340 <fs_command_init>
    5f48:	aa1403e0 	mov	x0, x20
    5f4c:	9400152f 	bl	b408 <fs_command_register>
    5f50:	90000002 	adrp	x2, 5000 <crc_32+0x38>
    5f54:	b01fffe1 	adrp	x1, 40002000 <level_warning+0x1140>
    5f58:	911e8042 	add	x2, x2, #0x7a0
    5f5c:	91376021 	add	x1, x1, #0xdd8
    5f60:	91032274 	add	x20, x19, #0xc8
    5f64:	d2800003 	mov	x3, #0x0                   	// #0
    5f68:	aa1403e0 	mov	x0, x20
    5f6c:	940014f5 	bl	b340 <fs_command_init>
    5f70:	aa1403e0 	mov	x0, x20
    5f74:	94001525 	bl	b408 <fs_command_register>
    5f78:	90000002 	adrp	x2, 5000 <crc_32+0x38>
    5f7c:	b01fffe1 	adrp	x1, 40002000 <level_warning+0x1140>
    5f80:	911ce042 	add	x2, x2, #0x738
    5f84:	91380021 	add	x1, x1, #0xe00
    5f88:	9103a273 	add	x19, x19, #0xe8
    5f8c:	d2800003 	mov	x3, #0x0                   	// #0
    5f90:	aa1303e0 	mov	x0, x19
    5f94:	940014eb 	bl	b340 <fs_command_init>
    5f98:	aa1303e0 	mov	x0, x19
    5f9c:	9400151b 	bl	b408 <fs_command_register>
    5fa0:	a94153b3 	ldp	x19, x20, [x29, #16]
    5fa4:	f94017b6 	ldr	x22, [x29, #40]
    5fa8:	f94013f5 	ldr	x21, [sp, #32]
    5fac:	52800000 	mov	w0, #0x0                   	// #0
    5fb0:	a8c47bfd 	ldp	x29, x30, [sp], #64
    5fb4:	d65f03c0 	ret

0000000000005fb8 <on_suspend_timer_expired>:
    5fb8:	12800da3 	mov	w3, #0xffffff92            	// #-110
    5fbc:	52800024 	mov	w4, #0x1                   	// #1
    5fc0:	3900a404 	strb	w4, [x0, #41]
    5fc4:	d0200002 	adrp	x2, 40007000 <idle_thrd_stack+0x400>
    5fc8:	b9002c03 	str	w3, [x0, #44]
    5fcc:	91124042 	add	x2, x2, #0x490
    5fd0:	f9001c1f 	str	xzr, [x0, #56]
    5fd4:	aa0003e1 	mov	x1, x0
    5fd8:	91004040 	add	x0, x2, #0x10
    5fdc:	17ffff07 	b	5bf8 <thrd_prio_list_push_isr>

0000000000005fe0 <thrd_resume_isr.part.8>:
    5fe0:	a9be7bfd 	stp	x29, x30, [sp, #-32]!
    5fe4:	52800021 	mov	w1, #0x1                   	// #1
    5fe8:	910003fd 	mov	x29, sp
    5fec:	f9000bf3 	str	x19, [sp, #16]
    5ff0:	aa0003f3 	mov	x19, x0
    5ff4:	f9401c00 	ldr	x0, [x0, #56]
    5ff8:	3900a661 	strb	w1, [x19, #41]
    5ffc:	b40000a0 	cbz	x0, 6010 <thrd_resume_isr.part.8+0x30>
    6000:	94000216 	bl	6858 <timer_stop_isr>
    6004:	7100041f 	cmp	w0, #0x1
    6008:	54000161 	b.ne	6034 <thrd_resume_isr.part.8+0x54>  // b.any
    600c:	f9001e7f 	str	xzr, [x19, #56]
    6010:	b0200000 	adrp	x0, 40007000 <idle_thrd_stack+0x400>
    6014:	91124000 	add	x0, x0, #0x490
    6018:	aa1303e1 	mov	x1, x19
    601c:	91004000 	add	x0, x0, #0x10
    6020:	97fffef6 	bl	5bf8 <thrd_prio_list_push_isr>
    6024:	f9400bf3 	ldr	x19, [sp, #16]
    6028:	52800000 	mov	w0, #0x0                   	// #0
    602c:	a8c27bfd 	ldp	x29, x30, [sp], #32
    6030:	d65f03c0 	ret
    6034:	901fffe0 	adrp	x0, 40002000 <level_warning+0x1140>
    6038:	913a6000 	add	x0, x0, #0xe98
    603c:	97fffd07 	bl	5458 <sys_panic>
    6040:	17fffff3 	b	600c <thrd_resume_isr.part.8+0x2c>
    6044:	00000000 	.inst	0x00000000 ; undefined

0000000000006048 <thrd_resume_isr>:
    6048:	39c0a403 	ldrsb	w3, [x0, #41]
    604c:	aa0003e2 	mov	x2, x0
    6050:	b9002c01 	str	w1, [x0, #44]
    6054:	7100087f 	cmp	w3, #0x2
    6058:	540000e0 	b.eq	6074 <thrd_resume_isr+0x2c>  // b.none
    605c:	7100107f 	cmp	w3, #0x4
    6060:	540000c0 	b.eq	6078 <thrd_resume_isr+0x30>  // b.none
    6064:	52800061 	mov	w1, #0x3                   	// #3
    6068:	52800000 	mov	w0, #0x0                   	// #0
    606c:	3900a441 	strb	w1, [x2, #41]
    6070:	d65f03c0 	ret
    6074:	17ffffdb 	b	5fe0 <thrd_resume_isr.part.8>
    6078:	12800000 	mov	w0, #0xffffffff            	// #-1
    607c:	d65f03c0 	ret

0000000000006080 <idle_thrd>:
    6080:	a9bd7bfd 	stp	x29, x30, [sp, #-48]!
    6084:	901fffe1 	adrp	x1, 40002000 <level_warning+0x1140>
    6088:	91302021 	add	x1, x1, #0xc08
    608c:	901fffe0 	adrp	x0, 40002000 <level_warning+0x1140>
    6090:	910003fd 	mov	x29, sp
    6094:	a90153f3 	stp	x19, x20, [sp, #16]
    6098:	b0200013 	adrp	x19, 40007000 <idle_thrd_stack+0x400>
    609c:	91124273 	add	x19, x19, #0x490
    60a0:	91304000 	add	x0, x0, #0xc10
    60a4:	52800034 	mov	w20, #0x1                   	// #1
    60a8:	f9400662 	ldr	x2, [x19, #8]
    60ac:	f90013f5 	str	x21, [sp, #32]
    60b0:	91004275 	add	x21, x19, #0x10
    60b4:	f9002041 	str	x1, [x2, #64]
    60b8:	940019e0 	bl	c838 <std_printf>
    60bc:	f9400673 	ldr	x19, [x19, #8]
    60c0:	d503207f 	wfi
    60c4:	97fffd6f 	bl	5680 <sys_unlock>
    60c8:	97fffd6c 	bl	5678 <sys_lock>
    60cc:	3900a674 	strb	w20, [x19, #41]
    60d0:	aa1303e1 	mov	x1, x19
    60d4:	aa1503e0 	mov	x0, x21
    60d8:	97fffec8 	bl	5bf8 <thrd_prio_list_push_isr>
    60dc:	97fffd77 	bl	56b8 <thrd_reschedule>
    60e0:	17fffff8 	b	60c0 <idle_thrd+0x40>
    60e4:	00000000 	.inst	0x00000000 ; undefined

00000000000060e8 <thrd_suspend_isr>:
    60e8:	a9bb7bfd 	stp	x29, x30, [sp, #-80]!
    60ec:	b0200002 	adrp	x2, 40007000 <idle_thrd_stack+0x400>
    60f0:	91124042 	add	x2, x2, #0x490
    60f4:	910003fd 	mov	x29, sp
    60f8:	a90153f3 	stp	x19, x20, [sp, #16]
    60fc:	aa0003f4 	mov	x20, x0
    6100:	f9400453 	ldr	x19, [x2, #8]
    6104:	39c0a660 	ldrsb	w0, [x19, #41]
    6108:	71000c1f 	cmp	w0, #0x3
    610c:	54000420 	b.eq	6190 <thrd_suspend_isr+0xa8>  // b.none
    6110:	52800040 	mov	w0, #0x2                   	// #2
    6114:	3900a660 	strb	w0, [x19, #41]
    6118:	b4000294 	cbz	x20, 6168 <thrd_suspend_isr+0x80>
    611c:	b9400280 	ldr	w0, [x20]
    6120:	7100001f 	cmp	w0, #0x0
    6124:	540002cd 	b.le	617c <thrd_suspend_isr+0x94>
    6128:	f9401e60 	ldr	x0, [x19, #56]
    612c:	b4000080 	cbz	x0, 613c <thrd_suspend_isr+0x54>
    6130:	b01fffe0 	adrp	x0, 40003000 <state_fmt+0x388>
    6134:	9101a000 	add	x0, x0, #0x68
    6138:	97fffcc8 	bl	5458 <sys_panic>
    613c:	aa1403e1 	mov	x1, x20
    6140:	f0ffffe2 	adrp	x2, 5000 <crc_32+0x38>
    6144:	9100a3b4 	add	x20, x29, #0x28
    6148:	aa1303e3 	mov	x3, x19
    614c:	913ee042 	add	x2, x2, #0xfb8
    6150:	f9001e74 	str	x20, [x19, #56]
    6154:	52800004 	mov	w4, #0x0                   	// #0
    6158:	aa1403e0 	mov	x0, x20
    615c:	9400013f 	bl	6658 <timer_init>
    6160:	aa1403e0 	mov	x0, x20
    6164:	9400017f 	bl	6760 <timer_start_isr>
    6168:	97fffd54 	bl	56b8 <thrd_reschedule>
    616c:	b9402e60 	ldr	w0, [x19, #44]
    6170:	a94153f3 	ldp	x19, x20, [sp, #16]
    6174:	a8c57bfd 	ldp	x29, x30, [sp], #80
    6178:	d65f03c0 	ret
    617c:	b9400680 	ldr	w0, [x20, #4]
    6180:	7100001f 	cmp	w0, #0x0
    6184:	54fffd2c 	b.gt	6128 <thrd_suspend_isr+0x40>
    6188:	12800da0 	mov	w0, #0xffffff92            	// #-110
    618c:	17fffff9 	b	6170 <thrd_suspend_isr+0x88>
    6190:	52800020 	mov	w0, #0x1                   	// #1
    6194:	3900a660 	strb	w0, [x19, #41]
    6198:	aa1303e1 	mov	x1, x19
    619c:	91004040 	add	x0, x2, #0x10
    61a0:	97fffe96 	bl	5bf8 <thrd_prio_list_push_isr>
    61a4:	17fffff1 	b	6168 <thrd_suspend_isr+0x80>

00000000000061a8 <thrd_sleep_us>:
    61a8:	d2869b62 	mov	x2, #0x34db                	// #13531
    61ac:	a9bd7bfd 	stp	x29, x30, [sp, #-48]!
    61b0:	f2baf6c2 	movk	x2, #0xd7b6, lsl #16
    61b4:	d2884804 	mov	x4, #0x4240                	// #16960
    61b8:	f2dbd042 	movk	x2, #0xde82, lsl #32
    61bc:	910003fd 	mov	x29, sp
    61c0:	f2e86362 	movk	x2, #0x431b, lsl #48
    61c4:	f2a001e4 	movk	x4, #0xf, lsl #16
    61c8:	52807d03 	mov	w3, #0x3e8                 	// #1000
    61cc:	9b427c02 	smulh	x2, x0, x2
    61d0:	f9000bf3 	str	x19, [sp, #16]
    61d4:	9352fc42 	asr	x2, x2, #18
    61d8:	cb80fc41 	sub	x1, x2, x0, asr #63
    61dc:	b9002ba1 	str	w1, [x29, #40]
    61e0:	d503201f 	nop
    61e4:	9b048021 	msub	x1, x1, x4, x0
    61e8:	1b037c21 	mul	w1, w1, w3
    61ec:	b9002fa1 	str	w1, [x29, #44]
    61f0:	97fffd22 	bl	5678 <sys_lock>
    61f4:	9100a3a0 	add	x0, x29, #0x28
    61f8:	97ffffbc 	bl	60e8 <thrd_suspend_isr>
    61fc:	2a0003f3 	mov	w19, w0
    6200:	97fffd20 	bl	5680 <sys_unlock>
    6204:	3101ba7f 	cmn	w19, #0x6e
    6208:	54000080 	b.eq	6218 <thrd_sleep_us+0x70>  // b.none
    620c:	901fffe0 	adrp	x0, 40002000 <level_warning+0x1140>
    6210:	913ba000 	add	x0, x0, #0xee8
    6214:	97fffc91 	bl	5458 <sys_panic>
    6218:	f9400bf3 	ldr	x19, [sp, #16]
    621c:	52800000 	mov	w0, #0x0                   	// #0
    6220:	a8c37bfd 	ldp	x29, x30, [sp], #48
    6224:	d65f03c0 	ret

0000000000006228 <monitor_main>:
    6228:	a9bc7bfd 	stp	x29, x30, [sp, #-64]!
    622c:	901fffe0 	adrp	x0, 40002000 <level_warning+0x1140>
    6230:	91306000 	add	x0, x0, #0xc18
    6234:	910003fd 	mov	x29, sp
    6238:	a90363f7 	stp	x23, x24, [sp, #48]
    623c:	b0200017 	adrp	x23, 40007000 <idle_thrd_stack+0x400>
    6240:	911242f7 	add	x23, x23, #0x490
    6244:	a90153f3 	stp	x19, x20, [sp, #16]
    6248:	a9025bf5 	stp	x21, x22, [sp, #32]
    624c:	901ffff8 	adrp	x24, 40002000 <level_warning+0x1140>
    6250:	d01fffd5 	adrp	x21, 40000000 <__ram_begin>
    6254:	901ffff6 	adrp	x22, 40002000 <level_warning+0x1140>
    6258:	f94006e1 	ldr	x1, [x23, #8]
    625c:	9100a2b5 	add	x21, x21, #0x28
    6260:	91308318 	add	x24, x24, #0xc20
    6264:	9131a2d6 	add	x22, x22, #0xc68
    6268:	f9002020 	str	x0, [x1, #64]
    626c:	d503201f 	nop
    6270:	f94002a0 	ldr	x0, [x21]
    6274:	97ffffcd 	bl	61a8 <thrd_sleep_us>
    6278:	b9400ab4 	ldr	w20, [x21, #8]
    627c:	97fffd0b 	bl	56a8 <sys_interrupt_cpu_usage_get>
    6280:	2a0003f3 	mov	w19, w0
    6284:	97fffd0b 	bl	56b0 <sys_interrupt_cpu_usage_reset>
    6288:	7100069f 	cmp	w20, #0x1
    628c:	540001c0 	b.eq	62c4 <monitor_main+0x9c>  // b.none
    6290:	f9400ef3 	ldr	x19, [x23, #24]
    6294:	b5000093 	cbnz	x19, 62a4 <monitor_main+0x7c>
    6298:	17fffff6 	b	6270 <monitor_main+0x48>
    629c:	f9402673 	ldr	x19, [x19, #72]
    62a0:	b4fffe93 	cbz	x19, 6270 <monitor_main+0x48>
    62a4:	b900627f 	str	wzr, [x19, #96]
    62a8:	7100069f 	cmp	w20, #0x1
    62ac:	54ffff81 	b.ne	629c <monitor_main+0x74>  // b.any
    62b0:	f9402261 	ldr	x1, [x19, #64]
    62b4:	52800002 	mov	w2, #0x0                   	// #0
    62b8:	aa1603e0 	mov	x0, x22
    62bc:	9400195f 	bl	c838 <std_printf>
    62c0:	17fffff7 	b	629c <monitor_main+0x74>
    62c4:	2a1303e1 	mov	w1, w19
    62c8:	aa1803e0 	mov	x0, x24
    62cc:	9400195b 	bl	c838 <std_printf>
    62d0:	17fffff0 	b	6290 <monitor_main+0x68>
    62d4:	00000000 	.inst	0x00000000 ; undefined

00000000000062d8 <thrd_sleep_ms>:
    62d8:	52807d01 	mov	w1, #0x3e8                 	// #1000
    62dc:	9b217c00 	smull	x0, w0, w1
    62e0:	17ffffb2 	b	61a8 <thrd_sleep_us>
    62e4:	00000000 	.inst	0x00000000 ; undefined

00000000000062e8 <thrd_yield>:
    62e8:	a9bf7bfd 	stp	x29, x30, [sp, #-16]!
    62ec:	910003fd 	mov	x29, sp
    62f0:	97fffce2 	bl	5678 <sys_lock>
    62f4:	b0200001 	adrp	x1, 40007000 <idle_thrd_stack+0x400>
    62f8:	91124021 	add	x1, x1, #0x490
    62fc:	91004020 	add	x0, x1, #0x10
    6300:	52800023 	mov	w3, #0x1                   	// #1
    6304:	f9400422 	ldr	x2, [x1, #8]
    6308:	aa0203e1 	mov	x1, x2
    630c:	3900a443 	strb	w3, [x2, #41]
    6310:	97fffe3a 	bl	5bf8 <thrd_prio_list_push_isr>
    6314:	97fffce9 	bl	56b8 <thrd_reschedule>
    6318:	97fffcda 	bl	5680 <sys_unlock>
    631c:	52800000 	mov	w0, #0x0                   	// #0
    6320:	a8c17bfd 	ldp	x29, x30, [sp], #16
    6324:	d65f03c0 	ret

0000000000006328 <thrd_prio_list_pop_isr>:
    6328:	aa0003e1 	mov	x1, x0
    632c:	f9400000 	ldr	x0, [x0]
    6330:	b4000060 	cbz	x0, 633c <thrd_prio_list_pop_isr+0x14>
    6334:	f9400002 	ldr	x2, [x0]
    6338:	f9000022 	str	x2, [x1]
    633c:	d65f03c0 	ret

0000000000006340 <adjust_result>:
    6340:	29400801 	ldp	w1, w2, [x0]
    6344:	5286c023 	mov	w3, #0x3601                	// #13825
    6348:	72b88ca3 	movk	w3, #0xc465, lsl #16
    634c:	6b03005f 	cmp	w2, w3
    6350:	5400016a 	b.ge	637c <adjust_result+0x3c>  // b.tcont
    6354:	52994003 	mov	w3, #0xca00                	// #51712
    6358:	51000421 	sub	w1, w1, #0x1
    635c:	72a77343 	movk	w3, #0x3b9a, lsl #16
    6360:	0b030042 	add	w2, w2, w3
    6364:	29000801 	stp	w1, w2, [x0]
    6368:	7100003f 	cmp	w1, #0x0
    636c:	540001ed 	b.le	63a8 <adjust_result+0x68>
    6370:	b9400402 	ldr	w2, [x0, #4]
    6374:	37f802e2 	tbnz	w2, #31, 63d0 <adjust_result+0x90>
    6378:	d65f03c0 	ret
    637c:	52993fe3 	mov	w3, #0xc9ff                	// #51711
    6380:	72a77343 	movk	w3, #0x3b9a, lsl #16
    6384:	6b03005f 	cmp	w2, w3
    6388:	54ffff0d 	b.le	6368 <adjust_result+0x28>
    638c:	5286c003 	mov	w3, #0x3600                	// #13824
    6390:	11000421 	add	w1, w1, #0x1
    6394:	72b88ca3 	movk	w3, #0xc465, lsl #16
    6398:	0b030042 	add	w2, w2, w3
    639c:	29000801 	stp	w1, w2, [x0]
    63a0:	7100003f 	cmp	w1, #0x0
    63a4:	54fffe6c 	b.gt	6370 <adjust_result+0x30>
    63a8:	54fffe80 	b.eq	6378 <adjust_result+0x38>  // b.none
    63ac:	b9400402 	ldr	w2, [x0, #4]
    63b0:	7100005f 	cmp	w2, #0x0
    63b4:	54fffe2d 	b.le	6378 <adjust_result+0x38>
    63b8:	5286c003 	mov	w3, #0x3600                	// #13824
    63bc:	11000421 	add	w1, w1, #0x1
    63c0:	72b88ca3 	movk	w3, #0xc465, lsl #16
    63c4:	0b030042 	add	w2, w2, w3
    63c8:	29000801 	stp	w1, w2, [x0]
    63cc:	d65f03c0 	ret
    63d0:	52994003 	mov	w3, #0xca00                	// #51712
    63d4:	51000421 	sub	w1, w1, #0x1
    63d8:	72a77343 	movk	w3, #0x3b9a, lsl #16
    63dc:	0b030042 	add	w2, w2, w3
    63e0:	29000801 	stp	w1, w2, [x0]
    63e4:	d65f03c0 	ret

00000000000063e8 <time_add>:
    63e8:	a9bd7bfd 	stp	x29, x30, [sp, #-48]!
    63ec:	910003fd 	mov	x29, sp
    63f0:	a90153f3 	stp	x19, x20, [sp, #16]
    63f4:	aa0003f3 	mov	x19, x0
    63f8:	f90013f5 	str	x21, [sp, #32]
    63fc:	aa0203f4 	mov	x20, x2
    6400:	aa0103f5 	mov	x21, x1
    6404:	b40003e0 	cbz	x0, 6480 <time_add+0x98>
    6408:	b40001d5 	cbz	x21, 6440 <time_add+0x58>
    640c:	b40002b4 	cbz	x20, 6460 <time_add+0x78>
    6410:	29400a81 	ldp	w1, w2, [x20]
    6414:	294002a3 	ldp	w3, w0, [x21]
    6418:	0b010061 	add	w1, w3, w1
    641c:	0b020000 	add	w0, w0, w2
    6420:	29000261 	stp	w1, w0, [x19]
    6424:	aa1303e0 	mov	x0, x19
    6428:	97ffffc6 	bl	6340 <adjust_result>
    642c:	f94013f5 	ldr	x21, [sp, #32]
    6430:	52800000 	mov	w0, #0x0                   	// #0
    6434:	a94153f3 	ldp	x19, x20, [sp, #16]
    6438:	a8c37bfd 	ldp	x29, x30, [sp], #48
    643c:	d65f03c0 	ret
    6440:	b01fffe0 	adrp	x0, 40003000 <state_fmt+0x388>
    6444:	9104a000 	add	x0, x0, #0x128
    6448:	940018fc 	bl	c838 <std_printf>
    644c:	d01fffc1 	adrp	x1, 40000000 <__ram_begin>
    6450:	528002c0 	mov	w0, #0x16                  	// #22
    6454:	f9400421 	ldr	x1, [x1, #8]
    6458:	d63f0020 	blr	x1
    645c:	b5fffdb4 	cbnz	x20, 6410 <time_add+0x28>
    6460:	b01fffe0 	adrp	x0, 40003000 <state_fmt+0x388>
    6464:	91060000 	add	x0, x0, #0x180
    6468:	940018f4 	bl	c838 <std_printf>
    646c:	d01fffc1 	adrp	x1, 40000000 <__ram_begin>
    6470:	528002c0 	mov	w0, #0x16                  	// #22
    6474:	f9400421 	ldr	x1, [x1, #8]
    6478:	d63f0020 	blr	x1
    647c:	17ffffe5 	b	6410 <time_add+0x28>
    6480:	b01fffe0 	adrp	x0, 40003000 <state_fmt+0x388>
    6484:	91034000 	add	x0, x0, #0xd0
    6488:	940018ec 	bl	c838 <std_printf>
    648c:	d01fffc1 	adrp	x1, 40000000 <__ram_begin>
    6490:	528002c0 	mov	w0, #0x16                  	// #22
    6494:	f9400421 	ldr	x1, [x1, #8]
    6498:	d63f0020 	blr	x1
    649c:	b5fffb95 	cbnz	x21, 640c <time_add+0x24>
    64a0:	17ffffe8 	b	6440 <time_add+0x58>
    64a4:	00000000 	.inst	0x00000000 ; undefined

00000000000064a8 <time_get>:
    64a8:	a9be7bfd 	stp	x29, x30, [sp, #-32]!
    64ac:	910003fd 	mov	x29, sp
    64b0:	f9000bf3 	str	x19, [sp, #16]
    64b4:	aa0003f3 	mov	x19, x0
    64b8:	b4000160 	cbz	x0, 64e4 <time_get+0x3c>
    64bc:	aa1303e0 	mov	x0, x19
    64c0:	97fffc1e 	bl	5538 <sys_uptime>
    64c4:	35000200 	cbnz	w0, 6504 <time_get+0x5c>
    64c8:	aa1303e1 	mov	x1, x19
    64cc:	aa1303e0 	mov	x0, x19
    64d0:	f9400bf3 	ldr	x19, [sp, #16]
    64d4:	b0200002 	adrp	x2, 40007000 <idle_thrd_stack+0x400>
    64d8:	a8c27bfd 	ldp	x29, x30, [sp], #32
    64dc:	9138c042 	add	x2, x2, #0xe30
    64e0:	17ffffc2 	b	63e8 <time_add>
    64e4:	b01fffe0 	adrp	x0, 40003000 <state_fmt+0x388>
    64e8:	91078000 	add	x0, x0, #0x1e0
    64ec:	940018d3 	bl	c838 <std_printf>
    64f0:	d01fffc1 	adrp	x1, 40000000 <__ram_begin>
    64f4:	528002c0 	mov	w0, #0x16                  	// #22
    64f8:	f9400421 	ldr	x1, [x1, #8]
    64fc:	d63f0020 	blr	x1
    6500:	17ffffef 	b	64bc <time_get+0x14>
    6504:	12800000 	mov	w0, #0xffffffff            	// #-1
    6508:	f9400bf3 	ldr	x19, [sp, #16]
    650c:	a8c27bfd 	ldp	x29, x30, [sp], #32
    6510:	d65f03c0 	ret
    6514:	00000000 	.inst	0x00000000 ; undefined

0000000000006518 <time_busy_wait_us>:
    6518:	d10043ff 	sub	sp, sp, #0x10
    651c:	528000c1 	mov	w1, #0x6                   	// #6
    6520:	9b217c00 	smull	x0, w0, w1
    6524:	b9000fff 	str	wzr, [sp, #12]
    6528:	b9400fe2 	ldr	w2, [sp, #12]
    652c:	eb22c01f 	cmp	x0, w2, sxtw
    6530:	5400010d 	b.le	6550 <time_busy_wait_us+0x38>
    6534:	d503201f 	nop
    6538:	b9400fe1 	ldr	w1, [sp, #12]
    653c:	11000421 	add	w1, w1, #0x1
    6540:	b9000fe1 	str	w1, [sp, #12]
    6544:	b9400fe1 	ldr	w1, [sp, #12]
    6548:	eb21c01f 	cmp	x0, w1, sxtw
    654c:	54ffff6c 	b.gt	6538 <time_busy_wait_us+0x20>
    6550:	910043ff 	add	sp, sp, #0x10
    6554:	d65f03c0 	ret

0000000000006558 <timer_tick_isr>:
    6558:	a9bd7bfd 	stp	x29, x30, [sp, #-48]!
    655c:	910003fd 	mov	x29, sp
    6560:	a90153f3 	stp	x19, x20, [sp, #16]
    6564:	f90013f5 	str	x21, [sp, #32]
    6568:	97fffc48 	bl	5688 <sys_lock_isr>
    656c:	d01fffc0 	adrp	x0, 40000000 <__ram_begin>
    6570:	9100e014 	add	x20, x0, #0x38
    6574:	91002295 	add	x21, x20, #0x8
    6578:	f9401c13 	ldr	x19, [x0, #56]
    657c:	eb15027f 	cmp	x19, x21
    6580:	540001e0 	b.eq	65bc <timer_tick_isr+0x64>  // b.none
    6584:	b9400a60 	ldr	w0, [x19, #8]
    6588:	51000400 	sub	w0, w0, #0x1
    658c:	b9000a60 	str	w0, [x19, #8]
    6590:	35000160 	cbnz	w0, 65bc <timer_tick_isr+0x64>
    6594:	d503201f 	nop
    6598:	f9400262 	ldr	x2, [x19]
    659c:	a9418261 	ldp	x1, x0, [x19, #24]
    65a0:	f9000282 	str	x2, [x20]
    65a4:	d63f0020 	blr	x1
    65a8:	b9401260 	ldr	w0, [x19, #16]
    65ac:	37000100 	tbnz	w0, #0, 65cc <timer_tick_isr+0x74>
    65b0:	f9400293 	ldr	x19, [x20]
    65b4:	b9400a60 	ldr	w0, [x19, #8]
    65b8:	34ffff00 	cbz	w0, 6598 <timer_tick_isr+0x40>
    65bc:	a94153f3 	ldp	x19, x20, [sp, #16]
    65c0:	f94013f5 	ldr	x21, [sp, #32]
    65c4:	a8c37bfd 	ldp	x29, x30, [sp], #48
    65c8:	17fffc32 	b	5690 <sys_unlock_isr>
    65cc:	b9400e60 	ldr	w0, [x19, #12]
    65d0:	f9400283 	ldr	x3, [x20]
    65d4:	b9000a60 	str	w0, [x19, #8]
    65d8:	b9400861 	ldr	w1, [x3, #8]
    65dc:	6b01001f 	cmp	w0, w1
    65e0:	54000068 	b.hi	65ec <timer_tick_isr+0x94>  // b.pmore
    65e4:	1400000f 	b	6620 <timer_tick_isr+0xc8>
    65e8:	aa0203e3 	mov	x3, x2
    65ec:	f9400062 	ldr	x2, [x3]
    65f0:	4b010000 	sub	w0, w0, w1
    65f4:	b9000a60 	str	w0, [x19, #8]
    65f8:	b9400841 	ldr	w1, [x2, #8]
    65fc:	6b00003f 	cmp	w1, w0
    6600:	54ffff43 	b.cc	65e8 <timer_tick_isr+0x90>  // b.lo, b.ul, b.last
    6604:	eb15005f 	cmp	x2, x21
    6608:	54000060 	b.eq	6614 <timer_tick_isr+0xbc>  // b.none
    660c:	4b000020 	sub	w0, w1, w0
    6610:	b9000840 	str	w0, [x2, #8]
    6614:	f9000262 	str	x2, [x19]
    6618:	f9000073 	str	x19, [x3]
    661c:	17ffffe5 	b	65b0 <timer_tick_isr+0x58>
    6620:	eb15007f 	cmp	x3, x21
    6624:	540000e0 	b.eq	6640 <timer_tick_isr+0xe8>  // b.none
    6628:	4b000020 	sub	w0, w1, w0
    662c:	b9000860 	str	w0, [x3, #8]
    6630:	f9000263 	str	x3, [x19]
    6634:	b9400a60 	ldr	w0, [x19, #8]
    6638:	f9000293 	str	x19, [x20]
    663c:	17ffffd5 	b	6590 <timer_tick_isr+0x38>
    6640:	f9000275 	str	x21, [x19]
    6644:	f9000293 	str	x19, [x20]
    6648:	17ffffd2 	b	6590 <timer_tick_isr+0x38>
    664c:	00000000 	.inst	0x00000000 ; undefined

0000000000006650 <timer_module_init>:
    6650:	52800000 	mov	w0, #0x0                   	// #0
    6654:	d65f03c0 	ret

0000000000006658 <timer_init>:
    6658:	a9bc7bfd 	stp	x29, x30, [sp, #-64]!
    665c:	910003fd 	mov	x29, sp
    6660:	a90153f3 	stp	x19, x20, [sp, #16]
    6664:	aa0003f3 	mov	x19, x0
    6668:	a9025bf5 	stp	x21, x22, [sp, #32]
    666c:	aa0103f4 	mov	x20, x1
    6670:	f9001bf7 	str	x23, [sp, #48]
    6674:	aa0203f5 	mov	x21, x2
    6678:	aa0303f6 	mov	x22, x3
    667c:	2a0403f7 	mov	w23, w4
    6680:	b40005c0 	cbz	x0, 6738 <timer_init+0xe0>
    6684:	b40003b4 	cbz	x20, 66f8 <timer_init+0xa0>
    6688:	b4000495 	cbz	x21, 6718 <timer_init+0xc0>
    668c:	29401686 	ldp	w6, w5, [x20]
    6690:	5289ba68 	mov	w8, #0x4dd3                	// #19923
    6694:	72a20c48 	movk	w8, #0x1062, lsl #16
    6698:	528847e2 	mov	w2, #0x423f                	// #16959
    669c:	110f9ca5 	add	w5, w5, #0x3e7
    66a0:	52800c89 	mov	w9, #0x64                  	// #100
    66a4:	72a001e2 	movk	w2, #0xf, lsl #16
    66a8:	529bd067 	mov	w7, #0xde83                	// #56963
    66ac:	72a86367 	movk	w7, #0x431b, lsl #16
    66b0:	a901da75 	stp	x21, x22, [x19, #24]
    66b4:	9b287ca1 	smull	x1, w5, w8
    66b8:	52800000 	mov	w0, #0x0                   	// #0
    66bc:	a9425bf5 	ldp	x21, x22, [sp, #32]
    66c0:	9366fc21 	asr	x1, x1, #38
    66c4:	4b857c25 	sub	w5, w1, w5, asr #31
    66c8:	1b0908a1 	madd	w1, w5, w9, w2
    66cc:	9b277c22 	smull	x2, w1, w7
    66d0:	9372fc42 	asr	x2, x2, #50
    66d4:	4b817c41 	sub	w1, w2, w1, asr #31
    66d8:	1b0904c1 	madd	w1, w6, w9, w1
    66dc:	7100003f 	cmp	w1, #0x0
    66e0:	1a9f1421 	csinc	w1, w1, wzr, ne  // ne = any
    66e4:	2901de61 	stp	w1, w23, [x19, #12]
    66e8:	a94153f3 	ldp	x19, x20, [sp, #16]
    66ec:	f9401bf7 	ldr	x23, [sp, #48]
    66f0:	a8c47bfd 	ldp	x29, x30, [sp], #64
    66f4:	d65f03c0 	ret
    66f8:	b01fffe0 	adrp	x0, 40003000 <state_fmt+0x388>
    66fc:	910a6000 	add	x0, x0, #0x298
    6700:	9400184e 	bl	c838 <std_printf>
    6704:	d01fffc1 	adrp	x1, 40000000 <__ram_begin>
    6708:	528002c0 	mov	w0, #0x16                  	// #22
    670c:	f9400421 	ldr	x1, [x1, #8]
    6710:	d63f0020 	blr	x1
    6714:	b5fffbd5 	cbnz	x21, 668c <timer_init+0x34>
    6718:	b01fffe0 	adrp	x0, 40003000 <state_fmt+0x388>
    671c:	910be000 	add	x0, x0, #0x2f8
    6720:	94001846 	bl	c838 <std_printf>
    6724:	d01fffc1 	adrp	x1, 40000000 <__ram_begin>
    6728:	528002c0 	mov	w0, #0x16                  	// #22
    672c:	f9400421 	ldr	x1, [x1, #8]
    6730:	d63f0020 	blr	x1
    6734:	17ffffd6 	b	668c <timer_init+0x34>
    6738:	b01fffe0 	adrp	x0, 40003000 <state_fmt+0x388>
    673c:	9108e000 	add	x0, x0, #0x238
    6740:	9400183e 	bl	c838 <std_printf>
    6744:	d01fffc1 	adrp	x1, 40000000 <__ram_begin>
    6748:	528002c0 	mov	w0, #0x16                  	// #22
    674c:	f9400421 	ldr	x1, [x1, #8]
    6750:	d63f0020 	blr	x1
    6754:	b5fff9b4 	cbnz	x20, 6688 <timer_init+0x30>
    6758:	17ffffe8 	b	66f8 <timer_init+0xa0>
    675c:	00000000 	.inst	0x00000000 ; undefined

0000000000006760 <timer_start_isr>:
    6760:	29418801 	ldp	w1, w2, [x0, #12]
    6764:	b9000801 	str	w1, [x0, #8]
    6768:	d01fffc4 	adrp	x4, 40000000 <__ram_begin>
    676c:	36080362 	tbz	w2, #1, 67d8 <timer_start_isr+0x78>
    6770:	9100e083 	add	x3, x4, #0x38
    6774:	f9401865 	ldr	x5, [x3, #48]
    6778:	b94008a2 	ldr	w2, [x5, #8]
    677c:	6b02003f 	cmp	w1, w2
    6780:	54000168 	b.hi	67ac <timer_start_isr+0x4c>  // b.pmore
    6784:	9100e063 	add	x3, x3, #0x38
    6788:	eb0300bf 	cmp	x5, x3
    678c:	54000060 	b.eq	6798 <timer_start_isr+0x38>  // b.none
    6790:	4b010041 	sub	w1, w2, w1
    6794:	b90008a1 	str	w1, [x5, #8]
    6798:	9100e084 	add	x4, x4, #0x38
    679c:	f9000005 	str	x5, [x0]
    67a0:	f9001880 	str	x0, [x4, #48]
    67a4:	1400002b 	b	6850 <timer_start_isr+0xf0>
    67a8:	aa0303e5 	mov	x5, x3
    67ac:	f94000a3 	ldr	x3, [x5]
    67b0:	4b020021 	sub	w1, w1, w2
    67b4:	b9000801 	str	w1, [x0, #8]
    67b8:	b9400862 	ldr	w2, [x3, #8]
    67bc:	6b01005f 	cmp	w2, w1
    67c0:	54ffff43 	b.cc	67a8 <timer_start_isr+0x48>  // b.lo, b.ul, b.last
    67c4:	9100e084 	add	x4, x4, #0x38
    67c8:	9100e084 	add	x4, x4, #0x38
    67cc:	eb04007f 	cmp	x3, x4
    67d0:	54000381 	b.ne	6840 <timer_start_isr+0xe0>  // b.any
    67d4:	1400001d 	b	6848 <timer_start_isr+0xe8>
    67d8:	f9401c85 	ldr	x5, [x4, #56]
    67dc:	11000421 	add	w1, w1, #0x1
    67e0:	b9000801 	str	w1, [x0, #8]
    67e4:	9100e083 	add	x3, x4, #0x38
    67e8:	b94008a2 	ldr	w2, [x5, #8]
    67ec:	6b02003f 	cmp	w1, w2
    67f0:	54000148 	b.hi	6818 <timer_start_isr+0xb8>  // b.pmore
    67f4:	91002063 	add	x3, x3, #0x8
    67f8:	eb0300bf 	cmp	x5, x3
    67fc:	54000060 	b.eq	6808 <timer_start_isr+0xa8>  // b.none
    6800:	4b010041 	sub	w1, w2, w1
    6804:	b90008a1 	str	w1, [x5, #8]
    6808:	f9000005 	str	x5, [x0]
    680c:	f9001c80 	str	x0, [x4, #56]
    6810:	14000010 	b	6850 <timer_start_isr+0xf0>
    6814:	aa0303e5 	mov	x5, x3
    6818:	f94000a3 	ldr	x3, [x5]
    681c:	4b020021 	sub	w1, w1, w2
    6820:	b9000801 	str	w1, [x0, #8]
    6824:	b9400862 	ldr	w2, [x3, #8]
    6828:	6b01005f 	cmp	w2, w1
    682c:	54ffff43 	b.cc	6814 <timer_start_isr+0xb4>  // b.lo, b.ul, b.last
    6830:	9100e084 	add	x4, x4, #0x38
    6834:	91002084 	add	x4, x4, #0x8
    6838:	eb04007f 	cmp	x3, x4
    683c:	54000060 	b.eq	6848 <timer_start_isr+0xe8>  // b.none
    6840:	4b010041 	sub	w1, w2, w1
    6844:	b9000861 	str	w1, [x3, #8]
    6848:	f9000003 	str	x3, [x0]
    684c:	f90000a0 	str	x0, [x5]
    6850:	52800000 	mov	w0, #0x0                   	// #0
    6854:	d65f03c0 	ret

0000000000006858 <timer_stop_isr>:
    6858:	b9401002 	ldr	w2, [x0, #16]
    685c:	d01fffc3 	adrp	x3, 40000000 <__ram_begin>
    6860:	9100e061 	add	x1, x3, #0x38
    6864:	9100c023 	add	x3, x1, #0x30
    6868:	f27f005f 	tst	x2, #0x2
    686c:	9a811063 	csel	x3, x3, x1, ne  // ne = any
    6870:	f9400062 	ldr	x2, [x3]
    6874:	b4000362 	cbz	x2, 68e0 <timer_stop_isr+0x88>
    6878:	eb02001f 	cmp	x0, x2
    687c:	54000081 	b.ne	688c <timer_stop_isr+0x34>  // b.any
    6880:	14000015 	b	68d4 <timer_stop_isr+0x7c>
    6884:	540000e0 	b.eq	68a0 <timer_stop_isr+0x48>  // b.none
    6888:	aa0103e2 	mov	x2, x1
    688c:	f9400041 	ldr	x1, [x2]
    6890:	eb01001f 	cmp	x0, x1
    6894:	b5ffff81 	cbnz	x1, 6884 <timer_stop_isr+0x2c>
    6898:	2a0103e0 	mov	w0, w1
    689c:	d65f03c0 	ret
    68a0:	f9400001 	ldr	x1, [x0]
    68a4:	f9000041 	str	x1, [x2]
    68a8:	f9400002 	ldr	x2, [x0]
    68ac:	91002063 	add	x3, x3, #0x8
    68b0:	52800021 	mov	w1, #0x1                   	// #1
    68b4:	eb03005f 	cmp	x2, x3
    68b8:	54ffff00 	b.eq	6898 <timer_stop_isr+0x40>  // b.none
    68bc:	b9400800 	ldr	w0, [x0, #8]
    68c0:	b9400843 	ldr	w3, [x2, #8]
    68c4:	0b000060 	add	w0, w3, w0
    68c8:	b9000840 	str	w0, [x2, #8]
    68cc:	2a0103e0 	mov	w0, w1
    68d0:	d65f03c0 	ret
    68d4:	f9400001 	ldr	x1, [x0]
    68d8:	f9000061 	str	x1, [x3]
    68dc:	17fffff3 	b	68a8 <timer_stop_isr+0x50>
    68e0:	52800001 	mov	w1, #0x0                   	// #0
    68e4:	17ffffed 	b	6898 <timer_stop_isr+0x40>

00000000000068e8 <console_module_init>:
    68e8:	17fff548 	b	3e08 <uart_module_init>
    68ec:	00000000 	.inst	0x00000000 ; undefined

00000000000068f0 <console_init>:
    68f0:	b0200000 	adrp	x0, 40007000 <idle_thrd_stack+0x400>
    68f4:	9138e000 	add	x0, x0, #0xe38
    68f8:	9103a003 	add	x3, x0, #0xe8
    68fc:	d0200001 	adrp	x1, 40008000 <module>
    6900:	d2800404 	mov	x4, #0x20                  	// #32
    6904:	d292c002 	mov	x2, #0x9600                	// #38400
    6908:	9107e021 	add	x1, x1, #0x1f8
    690c:	91002000 	add	x0, x0, #0x8
    6910:	17fff546 	b	3e28 <uart_init>
    6914:	00000000 	.inst	0x00000000 ; undefined

0000000000006918 <console_start>:
    6918:	b0200000 	adrp	x0, 40007000 <idle_thrd_stack+0x400>
    691c:	9138e000 	add	x0, x0, #0xe38
    6920:	91002000 	add	x0, x0, #0x8
    6924:	17fff575 	b	3ef8 <uart_start>

0000000000006928 <console_get_input_channel>:
    6928:	b0200000 	adrp	x0, 40007000 <idle_thrd_stack+0x400>
    692c:	9138e000 	add	x0, x0, #0xe38
    6930:	91002000 	add	x0, x0, #0x8
    6934:	d65f03c0 	ret

0000000000006938 <console_get_output_channel>:
    6938:	b0200000 	adrp	x0, 40007000 <idle_thrd_stack+0x400>
    693c:	9138e000 	add	x0, x0, #0xe38
    6940:	91002000 	add	x0, x0, #0x8
    6944:	d65f03c0 	ret

0000000000006948 <nvm_module_init>:
    6948:	b0200004 	adrp	x4, 40007000 <idle_thrd_stack+0x400>
    694c:	39fd0080 	ldrsb	w0, [x4, #3904]
    6950:	7100041f 	cmp	w0, #0x1
    6954:	54000400 	b.eq	69d4 <nvm_module_init+0x8c>  // b.none
    6958:	a9be7bfd 	stp	x29, x30, [sp, #-32]!
    695c:	52800025 	mov	w5, #0x1                   	// #1
    6960:	90000002 	adrp	x2, 6000 <thrd_resume_isr.part.8+0x20>
    6964:	b01fffe1 	adrp	x1, 40003000 <state_fmt+0x388>
    6968:	910003fd 	mov	x29, sp
    696c:	a90153f3 	stp	x19, x20, [sp, #16]
    6970:	912ba042 	add	x2, x2, #0xae8
    6974:	913d0093 	add	x19, x4, #0xf40
    6978:	910f4021 	add	x1, x1, #0x3d0
    697c:	d2800003 	mov	x3, #0x0                   	// #0
    6980:	91020274 	add	x20, x19, #0x80
    6984:	393d0085 	strb	w5, [x4, #3904]
    6988:	aa1403e0 	mov	x0, x20
    698c:	9400126d 	bl	b340 <fs_command_init>
    6990:	aa1403e0 	mov	x0, x20
    6994:	9400129d 	bl	b408 <fs_command_register>
    6998:	90000002 	adrp	x2, 6000 <thrd_resume_isr.part.8+0x20>
    699c:	b01fffe1 	adrp	x1, 40003000 <state_fmt+0x388>
    69a0:	91316042 	add	x2, x2, #0xc58
    69a4:	910f8021 	add	x1, x1, #0x3e0
    69a8:	d2800003 	mov	x3, #0x0                   	// #0
    69ac:	91028274 	add	x20, x19, #0xa0
    69b0:	aa1403e0 	mov	x0, x20
    69b4:	94001263 	bl	b340 <fs_command_init>
    69b8:	aa1403e0 	mov	x0, x20
    69bc:	94001293 	bl	b408 <fs_command_register>
    69c0:	97fff6ea 	bl	4568 <eeprom_soft_module_init>
    69c4:	340000c0 	cbz	w0, 69dc <nvm_module_init+0x94>
    69c8:	a94153f3 	ldp	x19, x20, [sp, #16]
    69cc:	a8c27bfd 	ldp	x29, x30, [sp], #32
    69d0:	d65f03c0 	ret
    69d4:	52800000 	mov	w0, #0x0                   	// #0
    69d8:	d65f03c0 	ret
    69dc:	91002274 	add	x20, x19, #0x8
    69e0:	d0200001 	adrp	x1, 40008000 <module>
    69e4:	aa1403e0 	mov	x0, x20
    69e8:	91098021 	add	x1, x1, #0x260
    69ec:	97fff8e3 	bl	4d78 <flash_init>
    69f0:	35fffec0 	cbnz	w0, 69c8 <nvm_module_init+0x80>
    69f4:	d2880002 	mov	x2, #0x4000                	// #16384
    69f8:	f0000041 	adrp	x1, 11000 <__fini_array_end+0x3d10>
    69fc:	f0000020 	adrp	x0, d000 <std_strcmp_f+0x18>
    6a00:	910bc021 	add	x1, x1, #0x2f0
    6a04:	910bc000 	add	x0, x0, #0x2f0
    6a08:	a9060a61 	stp	x1, x2, [x19, #96]
    6a0c:	a9070a60 	stp	x0, x2, [x19, #112]
    6a10:	aa1403e1 	mov	x1, x20
    6a14:	91018262 	add	x2, x19, #0x60
    6a18:	91004260 	add	x0, x19, #0x10
    6a1c:	a94153f3 	ldp	x19, x20, [sp, #16]
    6a20:	d2810004 	mov	x4, #0x800                 	// #2048
    6a24:	a8c27bfd 	ldp	x29, x30, [sp], #32
    6a28:	52800043 	mov	w3, #0x2                   	// #2
    6a2c:	17fff6d1 	b	4570 <eeprom_soft_init>

0000000000006a30 <nvm_read>:
    6a30:	a9bd7bfd 	stp	x29, x30, [sp, #-48]!
    6a34:	910003fd 	mov	x29, sp
    6a38:	a90153f3 	stp	x19, x20, [sp, #16]
    6a3c:	b0200013 	adrp	x19, 40007000 <idle_thrd_stack+0x400>
    6a40:	a9025bf5 	stp	x21, x22, [sp, #32]
    6a44:	aa0003f4 	mov	x20, x0
    6a48:	39fd0260 	ldrsb	w0, [x19, #3904]
    6a4c:	2a0103f6 	mov	w22, w1
    6a50:	aa0203f5 	mov	x21, x2
    6a54:	7100041f 	cmp	w0, #0x1
    6a58:	54000261 	b.ne	6aa4 <nvm_read+0x74>  // b.any
    6a5c:	b4000354 	cbz	x20, 6ac4 <nvm_read+0x94>
    6a60:	b5000115 	cbnz	x21, 6a80 <nvm_read+0x50>
    6a64:	b01fffe0 	adrp	x0, 40003000 <state_fmt+0x388>
    6a68:	91128000 	add	x0, x0, #0x4a0
    6a6c:	94001773 	bl	c838 <std_printf>
    6a70:	d01fffc1 	adrp	x1, 40000000 <__ram_begin>
    6a74:	528002c0 	mov	w0, #0x16                  	// #22
    6a78:	f9400421 	ldr	x1, [x1, #8]
    6a7c:	d63f0020 	blr	x1
    6a80:	913d0260 	add	x0, x19, #0xf40
    6a84:	aa1503e3 	mov	x3, x21
    6a88:	2a1603e2 	mov	w2, w22
    6a8c:	aa1403e1 	mov	x1, x20
    6a90:	a94153f3 	ldp	x19, x20, [sp, #16]
    6a94:	91004000 	add	x0, x0, #0x10
    6a98:	a9425bf5 	ldp	x21, x22, [sp, #32]
    6a9c:	a8c37bfd 	ldp	x29, x30, [sp], #48
    6aa0:	17fff6f4 	b	4670 <eeprom_soft_read>
    6aa4:	b01fffe0 	adrp	x0, 40003000 <state_fmt+0x388>
    6aa8:	910fc000 	add	x0, x0, #0x3f0
    6aac:	94001763 	bl	c838 <std_printf>
    6ab0:	d01fffc1 	adrp	x1, 40000000 <__ram_begin>
    6ab4:	528002c0 	mov	w0, #0x16                  	// #22
    6ab8:	f9400421 	ldr	x1, [x1, #8]
    6abc:	d63f0020 	blr	x1
    6ac0:	b5fffd14 	cbnz	x20, 6a60 <nvm_read+0x30>
    6ac4:	b01fffe0 	adrp	x0, 40003000 <state_fmt+0x388>
    6ac8:	91112000 	add	x0, x0, #0x448
    6acc:	9400175b 	bl	c838 <std_printf>
    6ad0:	d01fffc1 	adrp	x1, 40000000 <__ram_begin>
    6ad4:	528002c0 	mov	w0, #0x16                  	// #22
    6ad8:	f9400421 	ldr	x1, [x1, #8]
    6adc:	d63f0020 	blr	x1
    6ae0:	17ffffe0 	b	6a60 <nvm_read+0x30>
    6ae4:	00000000 	.inst	0x00000000 ; undefined

0000000000006ae8 <cmd_read_cb>:
    6ae8:	a9bd7bfd 	stp	x29, x30, [sp, #-48]!
    6aec:	7100081f 	cmp	w0, #0x2
    6af0:	910003fd 	mov	x29, sp
    6af4:	f9000ff4 	str	x20, [sp, #24]
    6af8:	aa0203f4 	mov	x20, x2
    6afc:	54000341 	b.ne	6b64 <cmd_read_cb+0x7c>  // b.any
    6b00:	f9000bb3 	str	x19, [x29, #16]
    6b04:	aa0103f3 	mov	x19, x1
    6b08:	9100a3a1 	add	x1, x29, #0x28
    6b0c:	f9400660 	ldr	x0, [x19, #8]
    6b10:	940018e4 	bl	cea0 <std_strtol>
    6b14:	b4000340 	cbz	x0, 6b7c <cmd_read_cb+0x94>
    6b18:	b9402ba1 	ldr	w1, [x29, #40]
    6b1c:	d2800022 	mov	x2, #0x1                   	// #1
    6b20:	91009fa0 	add	x0, x29, #0x27
    6b24:	97ffffc3 	bl	6a30 <nvm_read>
    6b28:	f100041f 	cmp	x0, #0x1
    6b2c:	54000161 	b.ne	6b58 <cmd_read_cb+0x70>  // b.any
    6b30:	39409fa2 	ldrb	w2, [x29, #39]
    6b34:	901fffe1 	adrp	x1, 40002000 <level_warning+0x1140>
    6b38:	aa1403e0 	mov	x0, x20
    6b3c:	912e0021 	add	x1, x1, #0xb80
    6b40:	940017e2 	bl	cac8 <std_fprintf>
    6b44:	f9400bb3 	ldr	x19, [x29, #16]
    6b48:	52800000 	mov	w0, #0x0                   	// #0
    6b4c:	f9400ff4 	ldr	x20, [sp, #24]
    6b50:	a8c37bfd 	ldp	x29, x30, [sp], #48
    6b54:	d65f03c0 	ret
    6b58:	12800000 	mov	w0, #0xffffffff            	// #-1
    6b5c:	f9400bb3 	ldr	x19, [x29, #16]
    6b60:	17fffffb 	b	6b4c <cmd_read_cb+0x64>
    6b64:	b01fffe1 	adrp	x1, 40003000 <state_fmt+0x388>
    6b68:	aa0203e0 	mov	x0, x2
    6b6c:	910d6021 	add	x1, x1, #0x358
    6b70:	940017d6 	bl	cac8 <std_fprintf>
    6b74:	128002a0 	mov	w0, #0xffffffea            	// #-22
    6b78:	17fffff5 	b	6b4c <cmd_read_cb+0x64>
    6b7c:	f9400662 	ldr	x2, [x19, #8]
    6b80:	b01fffe1 	adrp	x1, 40003000 <state_fmt+0x388>
    6b84:	aa1403e0 	mov	x0, x20
    6b88:	910dc021 	add	x1, x1, #0x370
    6b8c:	940017cf 	bl	cac8 <std_fprintf>
    6b90:	f9400bb3 	ldr	x19, [x29, #16]
    6b94:	128002a0 	mov	w0, #0xffffffea            	// #-22
    6b98:	17ffffed 	b	6b4c <cmd_read_cb+0x64>
    6b9c:	00000000 	.inst	0x00000000 ; undefined

0000000000006ba0 <nvm_write>:
    6ba0:	a9bd7bfd 	stp	x29, x30, [sp, #-48]!
    6ba4:	910003fd 	mov	x29, sp
    6ba8:	a90153f3 	stp	x19, x20, [sp, #16]
    6bac:	b0200013 	adrp	x19, 40007000 <idle_thrd_stack+0x400>
    6bb0:	a9025bf5 	stp	x21, x22, [sp, #32]
    6bb4:	2a0003f6 	mov	w22, w0
    6bb8:	39fd0260 	ldrsb	w0, [x19, #3904]
    6bbc:	aa0103f4 	mov	x20, x1
    6bc0:	aa0203f5 	mov	x21, x2
    6bc4:	7100041f 	cmp	w0, #0x1
    6bc8:	54000261 	b.ne	6c14 <nvm_write+0x74>  // b.any
    6bcc:	b4000354 	cbz	x20, 6c34 <nvm_write+0x94>
    6bd0:	b5000115 	cbnz	x21, 6bf0 <nvm_write+0x50>
    6bd4:	b01fffe0 	adrp	x0, 40003000 <state_fmt+0x388>
    6bd8:	91166000 	add	x0, x0, #0x598
    6bdc:	94001717 	bl	c838 <std_printf>
    6be0:	d01fffc1 	adrp	x1, 40000000 <__ram_begin>
    6be4:	528002c0 	mov	w0, #0x16                  	// #22
    6be8:	f9400421 	ldr	x1, [x1, #8]
    6bec:	d63f0020 	blr	x1
    6bf0:	913d0260 	add	x0, x19, #0xf40
    6bf4:	aa1503e3 	mov	x3, x21
    6bf8:	aa1403e2 	mov	x2, x20
    6bfc:	2a1603e1 	mov	w1, w22
    6c00:	a94153f3 	ldp	x19, x20, [sp, #16]
    6c04:	91004000 	add	x0, x0, #0x10
    6c08:	a9425bf5 	ldp	x21, x22, [sp, #32]
    6c0c:	a8c37bfd 	ldp	x29, x30, [sp], #48
    6c10:	17fff82c 	b	4cc0 <eeprom_soft_write>
    6c14:	b01fffe0 	adrp	x0, 40003000 <state_fmt+0x388>
    6c18:	9113a000 	add	x0, x0, #0x4e8
    6c1c:	94001707 	bl	c838 <std_printf>
    6c20:	d01fffc1 	adrp	x1, 40000000 <__ram_begin>
    6c24:	528002c0 	mov	w0, #0x16                  	// #22
    6c28:	f9400421 	ldr	x1, [x1, #8]
    6c2c:	d63f0020 	blr	x1
    6c30:	b5fffd14 	cbnz	x20, 6bd0 <nvm_write+0x30>
    6c34:	b01fffe0 	adrp	x0, 40003000 <state_fmt+0x388>
    6c38:	91150000 	add	x0, x0, #0x540
    6c3c:	940016ff 	bl	c838 <std_printf>
    6c40:	d01fffc1 	adrp	x1, 40000000 <__ram_begin>
    6c44:	528002c0 	mov	w0, #0x16                  	// #22
    6c48:	f9400421 	ldr	x1, [x1, #8]
    6c4c:	d63f0020 	blr	x1
    6c50:	17ffffe0 	b	6bd0 <nvm_write+0x30>
    6c54:	00000000 	.inst	0x00000000 ; undefined

0000000000006c58 <cmd_write_cb>:
    6c58:	a9bc7bfd 	stp	x29, x30, [sp, #-64]!
    6c5c:	71000c1f 	cmp	w0, #0x3
    6c60:	910003fd 	mov	x29, sp
    6c64:	f9000ff4 	str	x20, [sp, #24]
    6c68:	aa0203f4 	mov	x20, x2
    6c6c:	54000321 	b.ne	6cd0 <cmd_write_cb+0x78>  // b.any
    6c70:	f9000bb3 	str	x19, [x29, #16]
    6c74:	aa0103f3 	mov	x19, x1
    6c78:	9100c3a1 	add	x1, x29, #0x30
    6c7c:	f9400660 	ldr	x0, [x19, #8]
    6c80:	94001888 	bl	cea0 <std_strtol>
    6c84:	b4000420 	cbz	x0, 6d08 <cmd_write_cb+0xb0>
    6c88:	f9400a60 	ldr	x0, [x19, #16]
    6c8c:	9100e3a1 	add	x1, x29, #0x38
    6c90:	94001884 	bl	cea0 <std_strtol>
    6c94:	b40004a0 	cbz	x0, 6d28 <cmd_write_cb+0xd0>
    6c98:	f9401fa3 	ldr	x3, [x29, #56]
    6c9c:	f103fc7f 	cmp	x3, #0xff
    6ca0:	54000248 	b.hi	6ce8 <cmd_write_cb+0x90>  // b.pmore
    6ca4:	910103a1 	add	x1, x29, #0x40
    6ca8:	b94033a0 	ldr	w0, [x29, #48]
    6cac:	d2800022 	mov	x2, #0x1                   	// #1
    6cb0:	381efc23 	strb	w3, [x1, #-17]!
    6cb4:	97ffffbb 	bl	6ba0 <nvm_write>
    6cb8:	f9400bb3 	ldr	x19, [x29, #16]
    6cbc:	f100041f 	cmp	x0, #0x1
    6cc0:	5a9f03e0 	csetm	w0, ne  // ne = any
    6cc4:	f9400ff4 	ldr	x20, [sp, #24]
    6cc8:	a8c47bfd 	ldp	x29, x30, [sp], #64
    6ccc:	d65f03c0 	ret
    6cd0:	b01fffe1 	adrp	x1, 40003000 <state_fmt+0x388>
    6cd4:	aa0203e0 	mov	x0, x2
    6cd8:	910e2021 	add	x1, x1, #0x388
    6cdc:	9400177b 	bl	cac8 <std_fprintf>
    6ce0:	128002a0 	mov	w0, #0xffffffea            	// #-22
    6ce4:	17fffff8 	b	6cc4 <cmd_write_cb+0x6c>
    6ce8:	f9400a62 	ldr	x2, [x19, #16]
    6cec:	b01fffe1 	adrp	x1, 40003000 <state_fmt+0x388>
    6cf0:	aa1403e0 	mov	x0, x20
    6cf4:	910ee021 	add	x1, x1, #0x3b8
    6cf8:	94001774 	bl	cac8 <std_fprintf>
    6cfc:	f9400bb3 	ldr	x19, [x29, #16]
    6d00:	128002a0 	mov	w0, #0xffffffea            	// #-22
    6d04:	17fffff0 	b	6cc4 <cmd_write_cb+0x6c>
    6d08:	f9400662 	ldr	x2, [x19, #8]
    6d0c:	b01fffe1 	adrp	x1, 40003000 <state_fmt+0x388>
    6d10:	aa1403e0 	mov	x0, x20
    6d14:	910dc021 	add	x1, x1, #0x370
    6d18:	9400176c 	bl	cac8 <std_fprintf>
    6d1c:	f9400bb3 	ldr	x19, [x29, #16]
    6d20:	128002a0 	mov	w0, #0xffffffea            	// #-22
    6d24:	17ffffe8 	b	6cc4 <cmd_write_cb+0x6c>
    6d28:	f9400a62 	ldr	x2, [x19, #16]
    6d2c:	b01fffe1 	adrp	x1, 40003000 <state_fmt+0x388>
    6d30:	aa1403e0 	mov	x0, x20
    6d34:	910ea021 	add	x1, x1, #0x3a8
    6d38:	94001764 	bl	cac8 <std_fprintf>
    6d3c:	f9400bb3 	ldr	x19, [x29, #16]
    6d40:	128002a0 	mov	w0, #0xffffffea            	// #-22
    6d44:	17ffffe0 	b	6cc4 <cmd_write_cb+0x6c>

0000000000006d48 <reset>:
    6d48:	b4000541 	cbz	x1, 6df0 <reset+0xa8>
    6d4c:	a9b47bfd 	stp	x29, x30, [sp, #-192]!
    6d50:	910003fd 	mov	x29, sp
    6d54:	a90153f3 	stp	x19, x20, [sp, #16]
    6d58:	910103b4 	add	x20, x29, #0x40
    6d5c:	a9025bf5 	stp	x21, x22, [sp, #32]
    6d60:	aa0003f6 	mov	x22, x0
    6d64:	a90363f7 	stp	x23, x24, [sp, #48]
    6d68:	aa0103f5 	mov	x21, x1
    6d6c:	90200017 	adrp	x23, 40006000 <null+0x928>
    6d70:	910c62f7 	add	x23, x23, #0x318
    6d74:	d2801018 	mov	x24, #0x80                  	// #128
    6d78:	f101febf 	cmp	x21, #0x7f
    6d7c:	8b1702c2 	add	x2, x22, x23
    6d80:	9a9892b3 	csel	x19, x21, x24, ls  // ls = plast
    6d84:	d2800000 	mov	x0, #0x0                   	// #0
    6d88:	38606841 	ldrb	w1, [x2, x0]
    6d8c:	38206a81 	strb	w1, [x20, x0]
    6d90:	91000400 	add	x0, x0, #0x1
    6d94:	eb00027f 	cmp	x19, x0
    6d98:	54ffff81 	b.ne	6d88 <reset+0x40>  // b.any
    6d9c:	aa1303e2 	mov	x2, x19
    6da0:	aa1403e1 	mov	x1, x20
    6da4:	2a1603e0 	mov	w0, w22
    6da8:	97ffff7e 	bl	6ba0 <nvm_write>
    6dac:	eb13001f 	cmp	x0, x19
    6db0:	54000141 	b.ne	6dd8 <reset+0x90>  // b.any
    6db4:	8b1302d6 	add	x22, x22, x19
    6db8:	eb1302b5 	subs	x21, x21, x19
    6dbc:	54fffde1 	b.ne	6d78 <reset+0x30>  // b.any
    6dc0:	a94153f3 	ldp	x19, x20, [sp, #16]
    6dc4:	52800000 	mov	w0, #0x0                   	// #0
    6dc8:	a9425bf5 	ldp	x21, x22, [sp, #32]
    6dcc:	a94363f7 	ldp	x23, x24, [sp, #48]
    6dd0:	a8cc7bfd 	ldp	x29, x30, [sp], #192
    6dd4:	d65f03c0 	ret
    6dd8:	a94153f3 	ldp	x19, x20, [sp, #16]
    6ddc:	12800000 	mov	w0, #0xffffffff            	// #-1
    6de0:	a9425bf5 	ldp	x21, x22, [sp, #32]
    6de4:	a94363f7 	ldp	x23, x24, [sp, #48]
    6de8:	a8cc7bfd 	ldp	x29, x30, [sp], #192
    6dec:	d65f03c0 	ret
    6df0:	52800000 	mov	w0, #0x0                   	// #0
    6df4:	d65f03c0 	ret

0000000000006df8 <settings_module_init>:
    6df8:	d0200004 	adrp	x4, 40008000 <module>
    6dfc:	39c00080 	ldrsb	w0, [x4]
    6e00:	7100041f 	cmp	w0, #0x1
    6e04:	54000640 	b.eq	6ecc <settings_module_init+0xd4>  // b.none
    6e08:	a9be7bfd 	stp	x29, x30, [sp, #-32]!
    6e0c:	52800025 	mov	w5, #0x1                   	// #1
    6e10:	b0000002 	adrp	x2, 7000 <cmd_read_cb+0xa8>
    6e14:	b01fffe1 	adrp	x1, 40003000 <state_fmt+0x388>
    6e18:	910003fd 	mov	x29, sp
    6e1c:	a90153f3 	stp	x19, x20, [sp, #16]
    6e20:	91062042 	add	x2, x2, #0x188
    6e24:	91000093 	add	x19, x4, #0x0
    6e28:	911da021 	add	x1, x1, #0x768
    6e2c:	91002274 	add	x20, x19, #0x8
    6e30:	d2800003 	mov	x3, #0x0                   	// #0
    6e34:	39000085 	strb	w5, [x4]
    6e38:	aa1403e0 	mov	x0, x20
    6e3c:	94001141 	bl	b340 <fs_command_init>
    6e40:	aa1403e0 	mov	x0, x20
    6e44:	94001171 	bl	b408 <fs_command_register>
    6e48:	b0000002 	adrp	x2, 7000 <cmd_read_cb+0xa8>
    6e4c:	b01fffe1 	adrp	x1, 40003000 <state_fmt+0x388>
    6e50:	911e2042 	add	x2, x2, #0x788
    6e54:	911e0021 	add	x1, x1, #0x780
    6e58:	9100a274 	add	x20, x19, #0x28
    6e5c:	d2800003 	mov	x3, #0x0                   	// #0
    6e60:	aa1403e0 	mov	x0, x20
    6e64:	94001137 	bl	b340 <fs_command_init>
    6e68:	aa1403e0 	mov	x0, x20
    6e6c:	94001167 	bl	b408 <fs_command_register>
    6e70:	90000002 	adrp	x2, 6000 <thrd_resume_isr.part.8+0x20>
    6e74:	b01fffe1 	adrp	x1, 40003000 <state_fmt+0x388>
    6e78:	913d6042 	add	x2, x2, #0xf58
    6e7c:	911e6021 	add	x1, x1, #0x798
    6e80:	91012274 	add	x20, x19, #0x48
    6e84:	d2800003 	mov	x3, #0x0                   	// #0
    6e88:	aa1403e0 	mov	x0, x20
    6e8c:	9400112d 	bl	b340 <fs_command_init>
    6e90:	aa1403e0 	mov	x0, x20
    6e94:	9400115d 	bl	b408 <fs_command_register>
    6e98:	b0000002 	adrp	x2, 7000 <cmd_read_cb+0xa8>
    6e9c:	b01fffe1 	adrp	x1, 40003000 <state_fmt+0x388>
    6ea0:	910f2042 	add	x2, x2, #0x3c8
    6ea4:	911ec021 	add	x1, x1, #0x7b0
    6ea8:	d2800003 	mov	x3, #0x0                   	// #0
    6eac:	9101a273 	add	x19, x19, #0x68
    6eb0:	aa1303e0 	mov	x0, x19
    6eb4:	94001123 	bl	b340 <fs_command_init>
    6eb8:	aa1303e0 	mov	x0, x19
    6ebc:	94001153 	bl	b408 <fs_command_register>
    6ec0:	a94153f3 	ldp	x19, x20, [sp, #16]
    6ec4:	a8c27bfd 	ldp	x29, x30, [sp], #32
    6ec8:	17fffea0 	b	6948 <nvm_module_init>
    6ecc:	52800000 	mov	w0, #0x0                   	// #0
    6ed0:	d65f03c0 	ret
    6ed4:	00000000 	.inst	0x00000000 ; undefined

0000000000006ed8 <settings_read>:
    6ed8:	a9bd7bfd 	stp	x29, x30, [sp, #-48]!
    6edc:	910003fd 	mov	x29, sp
    6ee0:	a90153f3 	stp	x19, x20, [sp, #16]
    6ee4:	aa0003f3 	mov	x19, x0
    6ee8:	f90013f5 	str	x21, [sp, #32]
    6eec:	aa0203f4 	mov	x20, x2
    6ef0:	aa0103f5 	mov	x21, x1
    6ef4:	b4000200 	cbz	x0, 6f34 <settings_read+0x5c>
    6ef8:	b5000114 	cbnz	x20, 6f18 <settings_read+0x40>
    6efc:	b01fffe0 	adrp	x0, 40003000 <state_fmt+0x388>
    6f00:	9120a000 	add	x0, x0, #0x828
    6f04:	9400164d 	bl	c838 <std_printf>
    6f08:	d01fffc1 	adrp	x1, 40000000 <__ram_begin>
    6f0c:	528002c0 	mov	w0, #0x16                  	// #22
    6f10:	f9400421 	ldr	x1, [x1, #8]
    6f14:	d63f0020 	blr	x1
    6f18:	aa1403e2 	mov	x2, x20
    6f1c:	2a1503e1 	mov	w1, w21
    6f20:	aa1303e0 	mov	x0, x19
    6f24:	f94013f5 	ldr	x21, [sp, #32]
    6f28:	a94153f3 	ldp	x19, x20, [sp, #16]
    6f2c:	a8c37bfd 	ldp	x29, x30, [sp], #48
    6f30:	17fffec0 	b	6a30 <nvm_read>
    6f34:	b01fffe0 	adrp	x0, 40003000 <state_fmt+0x388>
    6f38:	911f2000 	add	x0, x0, #0x7c8
    6f3c:	9400163f 	bl	c838 <std_printf>
    6f40:	d01fffc1 	adrp	x1, 40000000 <__ram_begin>
    6f44:	528002c0 	mov	w0, #0x16                  	// #22
    6f48:	f9400421 	ldr	x1, [x1, #8]
    6f4c:	d63f0020 	blr	x1
    6f50:	17ffffea 	b	6ef8 <settings_read+0x20>
    6f54:	00000000 	.inst	0x00000000 ; undefined

0000000000006f58 <cmd_read_cb>:
    6f58:	a9bb7bfd 	stp	x29, x30, [sp, #-80]!
    6f5c:	7100081f 	cmp	w0, #0x2
    6f60:	910003fd 	mov	x29, sp
    6f64:	f9000ff4 	str	x20, [sp, #24]
    6f68:	f90017f6 	str	x22, [sp, #40]
    6f6c:	aa0203f6 	mov	x22, x2
    6f70:	54000fe1 	b.ne	716c <cmd_read_cb+0x214>  // b.any
    6f74:	90200000 	adrp	x0, 40006000 <null+0x928>
    6f78:	f9001bb7 	str	x23, [x29, #48]
    6f7c:	aa0103f7 	mov	x23, x1
    6f80:	f9000bb3 	str	x19, [x29, #16]
    6f84:	f9415001 	ldr	x1, [x0, #672]
    6f88:	910a8013 	add	x19, x0, #0x2a0
    6f8c:	f90013b5 	str	x21, [x29, #32]
    6f90:	f94006f5 	ldr	x21, [x23, #8]
    6f94:	b5000081 	cbnz	x1, 6fa4 <cmd_read_cb+0x4c>
    6f98:	14000030 	b	7058 <cmd_read_cb+0x100>
    6f9c:	f8418e61 	ldr	x1, [x19, #24]!
    6fa0:	b40005a1 	cbz	x1, 7054 <cmd_read_cb+0xfc>
    6fa4:	aa1503e0 	mov	x0, x21
    6fa8:	940017e8 	bl	cf48 <std_strcmp>
    6fac:	2a0003f4 	mov	w20, w0
    6fb0:	35ffff60 	cbnz	w0, 6f9c <cmd_read_cb+0x44>
    6fb4:	b9400a62 	ldr	w2, [x19, #8]
    6fb8:	7100045f 	cmp	w2, #0x1
    6fbc:	540008e0 	b.eq	70d8 <cmd_read_cb+0x180>  // b.none
    6fc0:	34000682 	cbz	w2, 7090 <cmd_read_cb+0x138>
    6fc4:	7100085f 	cmp	w2, #0x2
    6fc8:	54000ba1 	b.ne	713c <cmd_read_cb+0x1e4>  // b.any
    6fcc:	f9400a60 	ldr	x0, [x19, #16]
    6fd0:	b40002a0 	cbz	x0, 7024 <cmd_read_cb+0xcc>
    6fd4:	f9001fb8 	str	x24, [x29, #56]
    6fd8:	910123b7 	add	x23, x29, #0x48
    6fdc:	b01ffff8 	adrp	x24, 40003000 <state_fmt+0x388>
    6fe0:	911a2318 	add	x24, x24, #0x688
    6fe4:	d2800015 	mov	x21, #0x0                   	// #0
    6fe8:	b9400e61 	ldr	w1, [x19, #12]
    6fec:	d2800022 	mov	x2, #0x1                   	// #1
    6ff0:	390123bf 	strb	wzr, [x29, #72]
    6ff4:	aa1703e0 	mov	x0, x23
    6ff8:	0b150021 	add	w1, w1, w21
    6ffc:	97fffe8d 	bl	6a30 <nvm_read>
    7000:	394123a2 	ldrb	w2, [x29, #72]
    7004:	aa1803e1 	mov	x1, x24
    7008:	aa1603e0 	mov	x0, x22
    700c:	910006b5 	add	x21, x21, #0x1
    7010:	940016ae 	bl	cac8 <std_fprintf>
    7014:	f9400a60 	ldr	x0, [x19, #16]
    7018:	eb15001f 	cmp	x0, x21
    701c:	54fffe68 	b.hi	6fe8 <cmd_read_cb+0x90>  // b.pmore
    7020:	f9401fb8 	ldr	x24, [x29, #56]
    7024:	aa1603e0 	mov	x0, x22
    7028:	d01fffe1 	adrp	x1, 40005000 <state_fmt+0x2388>
    702c:	9118a021 	add	x1, x1, #0x628
    7030:	940016a6 	bl	cac8 <std_fprintf>
    7034:	2a1403e0 	mov	w0, w20
    7038:	f9400bb3 	ldr	x19, [x29, #16]
    703c:	f94013b5 	ldr	x21, [x29, #32]
    7040:	f9401bb7 	ldr	x23, [x29, #48]
    7044:	f9400ff4 	ldr	x20, [sp, #24]
    7048:	f94017f6 	ldr	x22, [sp, #40]
    704c:	a8c57bfd 	ldp	x29, x30, [sp], #80
    7050:	d65f03c0 	ret
    7054:	f94006f5 	ldr	x21, [x23, #8]
    7058:	aa1503e2 	mov	x2, x21
    705c:	901fffe1 	adrp	x1, 40003000 <state_fmt+0x388>
    7060:	aa1603e0 	mov	x0, x22
    7064:	911aa021 	add	x1, x1, #0x6a8
    7068:	94001698 	bl	cac8 <std_fprintf>
    706c:	f9400bb3 	ldr	x19, [x29, #16]
    7070:	f94013b5 	ldr	x21, [x29, #32]
    7074:	128002b4 	mov	w20, #0xffffffea            	// #-22
    7078:	f9401bb7 	ldr	x23, [x29, #48]
    707c:	2a1403e0 	mov	w0, w20
    7080:	f9400ff4 	ldr	x20, [sp, #24]
    7084:	f94017f6 	ldr	x22, [sp, #40]
    7088:	a8c57bfd 	ldp	x29, x30, [sp], #80
    708c:	d65f03c0 	ret
    7090:	910143a0 	add	x0, x29, #0x50
    7094:	b9400e61 	ldr	w1, [x19, #12]
    7098:	f9400a62 	ldr	x2, [x19, #16]
    709c:	b81f8c1f 	str	wzr, [x0, #-8]!
    70a0:	97ffff8e 	bl	6ed8 <settings_read>
    70a4:	b9804ba2 	ldrsw	x2, [x29, #72]
    70a8:	aa1603e0 	mov	x0, x22
    70ac:	901fffe1 	adrp	x1, 40003000 <state_fmt+0x388>
    70b0:	91190021 	add	x1, x1, #0x640
    70b4:	94001685 	bl	cac8 <std_fprintf>
    70b8:	f9400bb3 	ldr	x19, [x29, #16]
    70bc:	f94013b5 	ldr	x21, [x29, #32]
    70c0:	2a1403e0 	mov	w0, w20
    70c4:	f9401bb7 	ldr	x23, [x29, #48]
    70c8:	f9400ff4 	ldr	x20, [sp, #24]
    70cc:	f94017f6 	ldr	x22, [sp, #40]
    70d0:	a8c57bfd 	ldp	x29, x30, [sp], #80
    70d4:	d65f03c0 	ret
    70d8:	f9400a60 	ldr	x0, [x19, #16]
    70dc:	d2800015 	mov	x21, #0x0                   	// #0
    70e0:	f9001fb8 	str	x24, [x29, #56]
    70e4:	910123b7 	add	x23, x29, #0x48
    70e8:	901ffff8 	adrp	x24, 40003000 <state_fmt+0x388>
    70ec:	911a0318 	add	x24, x24, #0x680
    70f0:	b50000c0 	cbnz	x0, 7108 <cmd_read_cb+0x1b0>
    70f4:	17ffffcb 	b	7020 <cmd_read_cb+0xc8>
    70f8:	94001674 	bl	cac8 <std_fprintf>
    70fc:	f9400a60 	ldr	x0, [x19, #16]
    7100:	eb15001f 	cmp	x0, x21
    7104:	54fff8e9 	b.ls	7020 <cmd_read_cb+0xc8>  // b.plast
    7108:	b9400e61 	ldr	w1, [x19, #12]
    710c:	d2800022 	mov	x2, #0x1                   	// #1
    7110:	390123bf 	strb	wzr, [x29, #72]
    7114:	aa1703e0 	mov	x0, x23
    7118:	0b150021 	add	w1, w1, w21
    711c:	97fffe45 	bl	6a30 <nvm_read>
    7120:	394123a3 	ldrb	w3, [x29, #72]
    7124:	aa1803e1 	mov	x1, x24
    7128:	aa1603e0 	mov	x0, x22
    712c:	910006b5 	add	x21, x21, #0x1
    7130:	2a0303e2 	mov	w2, w3
    7134:	35fffe23 	cbnz	w3, 70f8 <cmd_read_cb+0x1a0>
    7138:	17ffffba 	b	7020 <cmd_read_cb+0xc8>
    713c:	aa1603e0 	mov	x0, x22
    7140:	901fffe1 	adrp	x1, 40003000 <state_fmt+0x388>
    7144:	911a4021 	add	x1, x1, #0x690
    7148:	94001660 	bl	cac8 <std_fprintf>
    714c:	2a1403e0 	mov	w0, w20
    7150:	f9400bb3 	ldr	x19, [x29, #16]
    7154:	f94013b5 	ldr	x21, [x29, #32]
    7158:	f9401bb7 	ldr	x23, [x29, #48]
    715c:	f9400ff4 	ldr	x20, [sp, #24]
    7160:	f94017f6 	ldr	x22, [sp, #40]
    7164:	a8c57bfd 	ldp	x29, x30, [sp], #80
    7168:	d65f03c0 	ret
    716c:	901fffe1 	adrp	x1, 40003000 <state_fmt+0x388>
    7170:	aa0203e0 	mov	x0, x2
    7174:	9119a021 	add	x1, x1, #0x668
    7178:	128002b4 	mov	w20, #0xffffffea            	// #-22
    717c:	94001653 	bl	cac8 <std_fprintf>
    7180:	17ffffbf 	b	707c <cmd_read_cb+0x124>
    7184:	00000000 	.inst	0x00000000 ; undefined

0000000000007188 <cmd_list_cb>:
    7188:	a9b77bfd 	stp	x29, x30, [sp, #-144]!
    718c:	901fffe1 	adrp	x1, 40003000 <state_fmt+0x388>
    7190:	aa0203e0 	mov	x0, x2
    7194:	91178021 	add	x1, x1, #0x5e0
    7198:	910003fd 	mov	x29, sp
    719c:	f90013f5 	str	x21, [sp, #32]
    71a0:	aa0203f5 	mov	x21, x2
    71a4:	94001649 	bl	cac8 <std_fprintf>
    71a8:	f01fffe0 	adrp	x0, 40006000 <null+0x928>
    71ac:	f9415001 	ldr	x1, [x0, #672]
    71b0:	b4000741 	cbz	x1, 7298 <cmd_list_cb+0x110>
    71b4:	a90153b3 	stp	x19, x20, [x29, #16]
    71b8:	910a8013 	add	x19, x0, #0x2a0
    71bc:	a902dfb6 	stp	x22, x23, [x29, #40]
    71c0:	901ffff7 	adrp	x23, 40003000 <state_fmt+0x388>
    71c4:	a903e7b8 	stp	x24, x25, [x29, #56]
    71c8:	911a02f7 	add	x23, x23, #0x680
    71cc:	d01ffff9 	adrp	x25, 40005000 <state_fmt+0x2388>
    71d0:	9118a339 	add	x25, x25, #0x628
    71d4:	901ffff8 	adrp	x24, 40003000 <state_fmt+0x388>
    71d8:	f90027ba 	str	x26, [x29, #72]
    71dc:	d503201f 	nop
    71e0:	910183a0 	add	x0, x29, #0x60
    71e4:	94001731 	bl	cea8 <std_strcpy>
    71e8:	910183a2 	add	x2, x29, #0x60
    71ec:	9118a301 	add	x1, x24, #0x628
    71f0:	aa1503e0 	mov	x0, x21
    71f4:	94001635 	bl	cac8 <std_fprintf>
    71f8:	b9400a62 	ldr	w2, [x19, #8]
    71fc:	f9400a76 	ldr	x22, [x19, #16]
    7200:	7100045f 	cmp	w2, #0x1
    7204:	540005c0 	b.eq	72bc <cmd_list_cb+0x134>  // b.none
    7208:	34000882 	cbz	w2, 7318 <cmd_list_cb+0x190>
    720c:	7100085f 	cmp	w2, #0x2
    7210:	540004c1 	b.ne	72a8 <cmd_list_cb+0x120>  // b.any
    7214:	901fffe1 	adrp	x1, 40003000 <state_fmt+0x388>
    7218:	2a1603fa 	mov	w26, w22
    721c:	2a1603e2 	mov	w2, w22
    7220:	91196021 	add	x1, x1, #0x658
    7224:	aa1503e0 	mov	x0, x21
    7228:	94001628 	bl	cac8 <std_fprintf>
    722c:	b4000256 	cbz	x22, 7274 <cmd_list_cb+0xec>
    7230:	901ffff6 	adrp	x22, 40003000 <state_fmt+0x388>
    7234:	911a22d6 	add	x22, x22, #0x688
    7238:	52800014 	mov	w20, #0x0                   	// #0
    723c:	d503201f 	nop
    7240:	b9400e61 	ldr	w1, [x19, #12]
    7244:	d2800022 	mov	x2, #0x1                   	// #1
    7248:	390183bf 	strb	wzr, [x29, #96]
    724c:	910183a0 	add	x0, x29, #0x60
    7250:	0b010281 	add	w1, w20, w1
    7254:	97fffdf7 	bl	6a30 <nvm_read>
    7258:	394183a2 	ldrb	w2, [x29, #96]
    725c:	aa1603e1 	mov	x1, x22
    7260:	aa1503e0 	mov	x0, x21
    7264:	11000694 	add	w20, w20, #0x1
    7268:	94001618 	bl	cac8 <std_fprintf>
    726c:	6b14035f 	cmp	w26, w20
    7270:	54fffe81 	b.ne	7240 <cmd_list_cb+0xb8>  // b.any
    7274:	aa1903e1 	mov	x1, x25
    7278:	aa1503e0 	mov	x0, x21
    727c:	94001613 	bl	cac8 <std_fprintf>
    7280:	f8418e61 	ldr	x1, [x19, #24]!
    7284:	b5fffae1 	cbnz	x1, 71e0 <cmd_list_cb+0x58>
    7288:	a94153b3 	ldp	x19, x20, [x29, #16]
    728c:	a942dfb6 	ldp	x22, x23, [x29, #40]
    7290:	a943e7b8 	ldp	x24, x25, [x29, #56]
    7294:	f94027ba 	ldr	x26, [x29, #72]
    7298:	f94013f5 	ldr	x21, [sp, #32]
    729c:	52800000 	mov	w0, #0x0                   	// #0
    72a0:	a8c97bfd 	ldp	x29, x30, [sp], #144
    72a4:	d65f03c0 	ret
    72a8:	901fffe1 	adrp	x1, 40003000 <state_fmt+0x388>
    72ac:	aa1503e0 	mov	x0, x21
    72b0:	911a4021 	add	x1, x1, #0x690
    72b4:	94001605 	bl	cac8 <std_fprintf>
    72b8:	17fffff2 	b	7280 <cmd_list_cb+0xf8>
    72bc:	901fffe1 	adrp	x1, 40003000 <state_fmt+0x388>
    72c0:	2a1603e2 	mov	w2, w22
    72c4:	91192021 	add	x1, x1, #0x648
    72c8:	aa1503e0 	mov	x0, x21
    72cc:	940015ff 	bl	cac8 <std_fprintf>
    72d0:	b4fffd36 	cbz	x22, 7274 <cmd_list_cb+0xec>
    72d4:	d2800014 	mov	x20, #0x0                   	// #0
    72d8:	14000004 	b	72e8 <cmd_list_cb+0x160>
    72dc:	940015fb 	bl	cac8 <std_fprintf>
    72e0:	eb16029f 	cmp	x20, x22
    72e4:	54fffc80 	b.eq	7274 <cmd_list_cb+0xec>  // b.none
    72e8:	b9400e61 	ldr	w1, [x19, #12]
    72ec:	d2800022 	mov	x2, #0x1                   	// #1
    72f0:	910183a0 	add	x0, x29, #0x60
    72f4:	0b140021 	add	w1, w1, w20
    72f8:	97fffdce 	bl	6a30 <nvm_read>
    72fc:	394183a3 	ldrb	w3, [x29, #96]
    7300:	aa1703e1 	mov	x1, x23
    7304:	aa1503e0 	mov	x0, x21
    7308:	91000694 	add	x20, x20, #0x1
    730c:	2a0303e2 	mov	w2, w3
    7310:	35fffe63 	cbnz	w3, 72dc <cmd_list_cb+0x154>
    7314:	17ffffd8 	b	7274 <cmd_list_cb+0xec>
    7318:	910243a0 	add	x0, x29, #0x90
    731c:	b9400e61 	ldr	w1, [x19, #12]
    7320:	aa1603e2 	mov	x2, x22
    7324:	b81ccc1f 	str	wzr, [x0, #-52]!
    7328:	97fffeec 	bl	6ed8 <settings_read>
    732c:	b9805fa2 	ldrsw	x2, [x29, #92]
    7330:	901fffe1 	adrp	x1, 40003000 <state_fmt+0x388>
    7334:	aa1503e0 	mov	x0, x21
    7338:	9118c021 	add	x1, x1, #0x630
    733c:	940015e3 	bl	cac8 <std_fprintf>
    7340:	17ffffd0 	b	7280 <cmd_list_cb+0xf8>
    7344:	00000000 	.inst	0x00000000 ; undefined

0000000000007348 <settings_write>:
    7348:	a9bd7bfd 	stp	x29, x30, [sp, #-48]!
    734c:	910003fd 	mov	x29, sp
    7350:	a90153f3 	stp	x19, x20, [sp, #16]
    7354:	aa0103f3 	mov	x19, x1
    7358:	f90013f5 	str	x21, [sp, #32]
    735c:	aa0203f4 	mov	x20, x2
    7360:	aa0003f5 	mov	x21, x0
    7364:	b4000201 	cbz	x1, 73a4 <settings_write+0x5c>
    7368:	b5000114 	cbnz	x20, 7388 <settings_write+0x40>
    736c:	901fffe0 	adrp	x0, 40003000 <state_fmt+0x388>
    7370:	9126e000 	add	x0, x0, #0x9b8
    7374:	94001531 	bl	c838 <std_printf>
    7378:	b01fffc1 	adrp	x1, 40000000 <__ram_begin>
    737c:	528002c0 	mov	w0, #0x16                  	// #22
    7380:	f9400421 	ldr	x1, [x1, #8]
    7384:	d63f0020 	blr	x1
    7388:	aa1403e2 	mov	x2, x20
    738c:	aa1303e1 	mov	x1, x19
    7390:	2a1503e0 	mov	w0, w21
    7394:	f94013f5 	ldr	x21, [sp, #32]
    7398:	a94153f3 	ldp	x19, x20, [sp, #16]
    739c:	a8c37bfd 	ldp	x29, x30, [sp], #48
    73a0:	17fffe00 	b	6ba0 <nvm_write>
    73a4:	901fffe0 	adrp	x0, 40003000 <state_fmt+0x388>
    73a8:	91256000 	add	x0, x0, #0x958
    73ac:	94001523 	bl	c838 <std_printf>
    73b0:	b01fffc1 	adrp	x1, 40000000 <__ram_begin>
    73b4:	528002c0 	mov	w0, #0x16                  	// #22
    73b8:	f9400421 	ldr	x1, [x1, #8]
    73bc:	d63f0020 	blr	x1
    73c0:	17ffffea 	b	7368 <settings_write+0x20>
    73c4:	00000000 	.inst	0x00000000 ; undefined

00000000000073c8 <cmd_write_cb>:
    73c8:	a9b97bfd 	stp	x29, x30, [sp, #-112]!
    73cc:	71000c1f 	cmp	w0, #0x3
    73d0:	910003fd 	mov	x29, sp
    73d4:	f9000ff4 	str	x20, [sp, #24]
    73d8:	f90023f9 	str	x25, [sp, #64]
    73dc:	aa0203f9 	mov	x25, x2
    73e0:	54001561 	b.ne	768c <cmd_write_cb+0x2c4>  // b.any
    73e4:	f01fffe0 	adrp	x0, 40006000 <null+0x928>
    73e8:	f9001bb7 	str	x23, [x29, #48]
    73ec:	aa0103f7 	mov	x23, x1
    73f0:	f9000bb3 	str	x19, [x29, #16]
    73f4:	f9415001 	ldr	x1, [x0, #672]
    73f8:	910a8013 	add	x19, x0, #0x2a0
    73fc:	f90013b5 	str	x21, [x29, #32]
    7400:	f94006f5 	ldr	x21, [x23, #8]
    7404:	b5000081 	cbnz	x1, 7414 <cmd_write_cb+0x4c>
    7408:	1400003f 	b	7504 <cmd_write_cb+0x13c>
    740c:	f8418e61 	ldr	x1, [x19, #24]!
    7410:	b4000781 	cbz	x1, 7500 <cmd_write_cb+0x138>
    7414:	aa1503e0 	mov	x0, x21
    7418:	940016cc 	bl	cf48 <std_strcmp>
    741c:	2a0003f4 	mov	w20, w0
    7420:	35ffff60 	cbnz	w0, 740c <cmd_write_cb+0x44>
    7424:	b9400a62 	ldr	w2, [x19, #8]
    7428:	7100045f 	cmp	w2, #0x1
    742c:	54000b60 	b.eq	7598 <cmd_write_cb+0x1d0>  // b.none
    7430:	34000862 	cbz	w2, 753c <cmd_write_cb+0x174>
    7434:	7100085f 	cmp	w2, #0x2
    7438:	54000d01 	b.ne	75d8 <cmd_write_cb+0x210>  // b.any
    743c:	f9400ae0 	ldr	x0, [x23, #16]
    7440:	f9002bbb 	str	x27, [x29, #80]
    7444:	97ffea4f 	bl	1d80 <strlen>
    7448:	91000400 	add	x0, x0, #0x1
    744c:	f9400a61 	ldr	x1, [x19, #16]
    7450:	d341fc1b 	lsr	x27, x0, #1
    7454:	eb1b003f 	cmp	x1, x27
    7458:	54001261 	b.ne	76a4 <cmd_write_cb+0x2dc>  // b.any
    745c:	f90017b6 	str	x22, [x29, #40]
    7460:	d2800015 	mov	x21, #0x0                   	// #0
    7464:	f9001fb8 	str	x24, [x29, #56]
    7468:	52800898 	mov	w24, #0x44                  	// #68
    746c:	f90027ba 	str	x26, [x29, #72]
    7470:	f27ff81a 	ands	x26, x0, #0xfffffffffffffffe
    7474:	540001a1 	b.ne	74a8 <cmd_write_cb+0xe0>  // b.any
    7478:	14000064 	b	7608 <cmd_write_cb+0x240>
    747c:	97ffe9e1 	bl	1c00 <__locale_ctype_ptr>
    7480:	f9400af6 	ldr	x22, [x23, #16]
    7484:	8b1502c1 	add	x1, x22, x21
    7488:	91000ab5 	add	x21, x21, #0x2
    748c:	39400421 	ldrb	w1, [x1, #1]
    7490:	8b010000 	add	x0, x0, x1
    7494:	39400400 	ldrb	w0, [x0, #1]
    7498:	6a00031f 	tst	w24, w0
    749c:	54000140 	b.eq	74c4 <cmd_write_cb+0xfc>  // b.none
    74a0:	eb1a02bf 	cmp	x21, x26
    74a4:	54000b62 	b.cs	7610 <cmd_write_cb+0x248>  // b.hs, b.nlast
    74a8:	97ffe9d6 	bl	1c00 <__locale_ctype_ptr>
    74ac:	f9400af6 	ldr	x22, [x23, #16]
    74b0:	38756ac1 	ldrb	w1, [x22, x21]
    74b4:	8b010000 	add	x0, x0, x1
    74b8:	39400400 	ldrb	w0, [x0, #1]
    74bc:	6a00031f 	tst	w24, w0
    74c0:	54fffde1 	b.ne	747c <cmd_write_cb+0xb4>  // b.any
    74c4:	aa1603e2 	mov	x2, x22
    74c8:	aa1903e0 	mov	x0, x25
    74cc:	128002b4 	mov	w20, #0xffffffea            	// #-22
    74d0:	901fffe1 	adrp	x1, 40003000 <state_fmt+0x388>
    74d4:	911d4021 	add	x1, x1, #0x750
    74d8:	9400157c 	bl	cac8 <std_fprintf>
    74dc:	2a1403e0 	mov	w0, w20
    74e0:	f9400bb3 	ldr	x19, [x29, #16]
    74e4:	a9425bb5 	ldp	x21, x22, [x29, #32]
    74e8:	a94363b7 	ldp	x23, x24, [x29, #48]
    74ec:	a944efba 	ldp	x26, x27, [x29, #72]
    74f0:	f9400ff4 	ldr	x20, [sp, #24]
    74f4:	f94023f9 	ldr	x25, [sp, #64]
    74f8:	a8c77bfd 	ldp	x29, x30, [sp], #112
    74fc:	d65f03c0 	ret
    7500:	f94006f5 	ldr	x21, [x23, #8]
    7504:	901fffe1 	adrp	x1, 40003000 <state_fmt+0x388>
    7508:	aa1503e2 	mov	x2, x21
    750c:	911aa021 	add	x1, x1, #0x6a8
    7510:	aa1903e0 	mov	x0, x25
    7514:	9400156d 	bl	cac8 <std_fprintf>
    7518:	f9400bb3 	ldr	x19, [x29, #16]
    751c:	f94013b5 	ldr	x21, [x29, #32]
    7520:	128002b4 	mov	w20, #0xffffffea            	// #-22
    7524:	f9401bb7 	ldr	x23, [x29, #48]
    7528:	2a1403e0 	mov	w0, w20
    752c:	f9400ff4 	ldr	x20, [sp, #24]
    7530:	f94023f9 	ldr	x25, [sp, #64]
    7534:	a8c77bfd 	ldp	x29, x30, [sp], #112
    7538:	d65f03c0 	ret
    753c:	f9400ae0 	ldr	x0, [x23, #16]
    7540:	9101a3a1 	add	x1, x29, #0x68
    7544:	94001657 	bl	cea0 <std_strtol>
    7548:	b4000d80 	cbz	x0, 76f8 <cmd_write_cb+0x330>
    754c:	f94037a3 	ldr	x3, [x29, #104]
    7550:	d2b00000 	mov	x0, #0x80000000            	// #2147483648
    7554:	b2407fe1 	mov	x1, #0xffffffff            	// #4294967295
    7558:	8b000060 	add	x0, x3, x0
    755c:	eb01001f 	cmp	x0, x1
    7560:	54000b88 	b.hi	76d0 <cmd_write_cb+0x308>  // b.pmore
    7564:	9101c3a1 	add	x1, x29, #0x70
    7568:	f9400a62 	ldr	x2, [x19, #16]
    756c:	b9400e60 	ldr	w0, [x19, #12]
    7570:	b81f0c23 	str	w3, [x1, #-16]!
    7574:	97ffff75 	bl	7348 <settings_write>
    7578:	f9400bb3 	ldr	x19, [x29, #16]
    757c:	f94013b5 	ldr	x21, [x29, #32]
    7580:	2a1403e0 	mov	w0, w20
    7584:	f9401bb7 	ldr	x23, [x29, #48]
    7588:	f9400ff4 	ldr	x20, [sp, #24]
    758c:	f94023f9 	ldr	x25, [sp, #64]
    7590:	a8c77bfd 	ldp	x29, x30, [sp], #112
    7594:	d65f03c0 	ret
    7598:	f9400ae0 	ldr	x0, [x23, #16]
    759c:	97ffe9f9 	bl	1d80 <strlen>
    75a0:	f9400a62 	ldr	x2, [x19, #16]
    75a4:	eb02001f 	cmp	x0, x2
    75a8:	540009e2 	b.cs	76e4 <cmd_write_cb+0x31c>  // b.hs, b.nlast
    75ac:	f9400ae1 	ldr	x1, [x23, #16]
    75b0:	b9400e60 	ldr	w0, [x19, #12]
    75b4:	97ffff65 	bl	7348 <settings_write>
    75b8:	f9400bb3 	ldr	x19, [x29, #16]
    75bc:	f94013b5 	ldr	x21, [x29, #32]
    75c0:	2a1403e0 	mov	w0, w20
    75c4:	f9401bb7 	ldr	x23, [x29, #48]
    75c8:	f9400ff4 	ldr	x20, [sp, #24]
    75cc:	f94023f9 	ldr	x25, [sp, #64]
    75d0:	a8c77bfd 	ldp	x29, x30, [sp], #112
    75d4:	d65f03c0 	ret
    75d8:	aa1903e0 	mov	x0, x25
    75dc:	901fffe1 	adrp	x1, 40003000 <state_fmt+0x388>
    75e0:	911a4021 	add	x1, x1, #0x690
    75e4:	94001539 	bl	cac8 <std_fprintf>
    75e8:	2a1403e0 	mov	w0, w20
    75ec:	f9400bb3 	ldr	x19, [x29, #16]
    75f0:	f94013b5 	ldr	x21, [x29, #32]
    75f4:	f9401bb7 	ldr	x23, [x29, #48]
    75f8:	f9400ff4 	ldr	x20, [sp, #24]
    75fc:	f94023f9 	ldr	x25, [sp, #64]
    7600:	a8c77bfd 	ldp	x29, x30, [sp], #112
    7604:	d65f03c0 	ret
    7608:	f9400af6 	ldr	x22, [x23, #16]
    760c:	d503201f 	nop
    7610:	528f0600 	mov	w0, #0x7830                	// #30768
    7614:	7900c3a0 	strh	w0, [x29, #96]
    7618:	390193bf 	strb	wzr, [x29, #100]
    761c:	b400027b 	cbz	x27, 7668 <cmd_write_cb+0x2a0>
    7620:	aa1603e1 	mov	x1, x22
    7624:	91018bb8 	add	x24, x29, #0x62
    7628:	d2800015 	mov	x21, #0x0                   	// #0
    762c:	14000002 	b	7634 <cmd_write_cb+0x26c>
    7630:	f9400ae1 	ldr	x1, [x23, #16]
    7634:	d2800042 	mov	x2, #0x2                   	// #2
    7638:	8b150421 	add	x1, x1, x21, lsl #1
    763c:	aa1803e0 	mov	x0, x24
    7640:	97ffe974 	bl	1c10 <memcpy>
    7644:	9101a3a1 	add	x1, x29, #0x68
    7648:	910183a0 	add	x0, x29, #0x60
    764c:	94001615 	bl	cea0 <std_strtol>
    7650:	f94037a0 	ldr	x0, [x29, #104]
    7654:	38356ac0 	strb	w0, [x22, x21]
    7658:	910006b5 	add	x21, x21, #0x1
    765c:	eb1b02bf 	cmp	x21, x27
    7660:	54fffe81 	b.ne	7630 <cmd_write_cb+0x268>  // b.any
    7664:	f9400af6 	ldr	x22, [x23, #16]
    7668:	b9400e60 	ldr	w0, [x19, #12]
    766c:	aa1b03e2 	mov	x2, x27
    7670:	aa1603e1 	mov	x1, x22
    7674:	97ffff35 	bl	7348 <settings_write>
    7678:	f9400bb3 	ldr	x19, [x29, #16]
    767c:	a9425bb5 	ldp	x21, x22, [x29, #32]
    7680:	a94363b7 	ldp	x23, x24, [x29, #48]
    7684:	a944efba 	ldp	x26, x27, [x29, #72]
    7688:	17ffffa8 	b	7528 <cmd_write_cb+0x160>
    768c:	901fffe1 	adrp	x1, 40003000 <state_fmt+0x388>
    7690:	aa0203e0 	mov	x0, x2
    7694:	911b6021 	add	x1, x1, #0x6d8
    7698:	128002b4 	mov	w20, #0xffffffea            	// #-22
    769c:	9400150b 	bl	cac8 <std_fprintf>
    76a0:	17ffffa2 	b	7528 <cmd_write_cb+0x160>
    76a4:	aa1b03e2 	mov	x2, x27
    76a8:	901fffe1 	adrp	x1, 40003000 <state_fmt+0x388>
    76ac:	aa1903e0 	mov	x0, x25
    76b0:	911cc021 	add	x1, x1, #0x730
    76b4:	128002b4 	mov	w20, #0xffffffea            	// #-22
    76b8:	94001504 	bl	cac8 <std_fprintf>
    76bc:	f9400bb3 	ldr	x19, [x29, #16]
    76c0:	f94013b5 	ldr	x21, [x29, #32]
    76c4:	f9401bb7 	ldr	x23, [x29, #48]
    76c8:	f9402bbb 	ldr	x27, [x29, #80]
    76cc:	17ffff97 	b	7528 <cmd_write_cb+0x160>
    76d0:	901fffe1 	adrp	x1, 40003000 <state_fmt+0x388>
    76d4:	aa0303e2 	mov	x2, x3
    76d8:	911be021 	add	x1, x1, #0x6f8
    76dc:	aa1903e0 	mov	x0, x25
    76e0:	17ffff8d 	b	7514 <cmd_write_cb+0x14c>
    76e4:	901fffe1 	adrp	x1, 40003000 <state_fmt+0x388>
    76e8:	aa1903e0 	mov	x0, x25
    76ec:	911c6021 	add	x1, x1, #0x718
    76f0:	f9400ae2 	ldr	x2, [x23, #16]
    76f4:	17ffff88 	b	7514 <cmd_write_cb+0x14c>
    76f8:	128002b4 	mov	w20, #0xffffffea            	// #-22
    76fc:	f9400bb3 	ldr	x19, [x29, #16]
    7700:	f94013b5 	ldr	x21, [x29, #32]
    7704:	f9401bb7 	ldr	x23, [x29, #48]
    7708:	17ffff88 	b	7528 <cmd_write_cb+0x160>
    770c:	00000000 	.inst	0x00000000 ; undefined

0000000000007710 <settings_reset>:
    7710:	a9be7bfd 	stp	x29, x30, [sp, #-32]!
    7714:	f103fc1f 	cmp	x0, #0xff
    7718:	910003fd 	mov	x29, sp
    771c:	a90153f3 	stp	x19, x20, [sp, #16]
    7720:	aa0003f3 	mov	x19, x0
    7724:	aa0103f4 	mov	x20, x1
    7728:	54000208 	b.hi	7768 <settings_reset+0x58>  // b.pmore
    772c:	8b140260 	add	x0, x19, x20
    7730:	f104001f 	cmp	x0, #0x100
    7734:	54000109 	b.ls	7754 <settings_reset+0x44>  // b.plast
    7738:	901fffe0 	adrp	x0, 40003000 <state_fmt+0x388>
    773c:	91238000 	add	x0, x0, #0x8e0
    7740:	9400143e 	bl	c838 <std_printf>
    7744:	b01fffc1 	adrp	x1, 40000000 <__ram_begin>
    7748:	528002c0 	mov	w0, #0x16                  	// #22
    774c:	f9400421 	ldr	x1, [x1, #8]
    7750:	d63f0020 	blr	x1
    7754:	aa1403e1 	mov	x1, x20
    7758:	aa1303e0 	mov	x0, x19
    775c:	a94153f3 	ldp	x19, x20, [sp, #16]
    7760:	a8c27bfd 	ldp	x29, x30, [sp], #32
    7764:	17fffd79 	b	6d48 <reset>
    7768:	901fffe0 	adrp	x0, 40003000 <state_fmt+0x388>
    776c:	9121e000 	add	x0, x0, #0x878
    7770:	94001432 	bl	c838 <std_printf>
    7774:	b01fffc1 	adrp	x1, 40000000 <__ram_begin>
    7778:	528002c0 	mov	w0, #0x16                  	// #22
    777c:	f9400421 	ldr	x1, [x1, #8]
    7780:	d63f0020 	blr	x1
    7784:	17ffffea 	b	772c <settings_reset+0x1c>

0000000000007788 <cmd_reset_cb>:
    7788:	a9bd7bfd 	stp	x29, x30, [sp, #-48]!
    778c:	7100081f 	cmp	w0, #0x2
    7790:	910003fd 	mov	x29, sp
    7794:	f90017f6 	str	x22, [sp, #40]
    7798:	aa0203f6 	mov	x22, x2
    779c:	5400052c 	b.gt	7840 <cmd_reset_cb+0xb8>
    77a0:	7100041f 	cmp	w0, #0x1
    77a4:	54000440 	b.eq	782c <cmd_reset_cb+0xa4>  // b.none
    77a8:	f01fffe0 	adrp	x0, 40006000 <null+0x928>
    77ac:	f90013b5 	str	x21, [x29, #32]
    77b0:	aa0103f5 	mov	x21, x1
    77b4:	a90153b3 	stp	x19, x20, [x29, #16]
    77b8:	f9415001 	ldr	x1, [x0, #672]
    77bc:	910a8013 	add	x19, x0, #0x2a0
    77c0:	f94006b4 	ldr	x20, [x21, #8]
    77c4:	b5000081 	cbnz	x1, 77d4 <cmd_reset_cb+0x4c>
    77c8:	1400000e 	b	7800 <cmd_reset_cb+0x78>
    77cc:	f8418e61 	ldr	x1, [x19, #24]!
    77d0:	b4000161 	cbz	x1, 77fc <cmd_reset_cb+0x74>
    77d4:	aa1403e0 	mov	x0, x20
    77d8:	940015dc 	bl	cf48 <std_strcmp>
    77dc:	35ffff80 	cbnz	w0, 77cc <cmd_reset_cb+0x44>
    77e0:	b9400e60 	ldr	w0, [x19, #12]
    77e4:	f9400a61 	ldr	x1, [x19, #16]
    77e8:	f94017f6 	ldr	x22, [sp, #40]
    77ec:	a94153b3 	ldp	x19, x20, [x29, #16]
    77f0:	f94013b5 	ldr	x21, [x29, #32]
    77f4:	a8c37bfd 	ldp	x29, x30, [sp], #48
    77f8:	17ffffc6 	b	7710 <settings_reset>
    77fc:	f94006b4 	ldr	x20, [x21, #8]
    7800:	aa1403e2 	mov	x2, x20
    7804:	901fffe1 	adrp	x1, 40003000 <state_fmt+0x388>
    7808:	aa1603e0 	mov	x0, x22
    780c:	911aa021 	add	x1, x1, #0x6a8
    7810:	940014ae 	bl	cac8 <std_fprintf>
    7814:	f94013b5 	ldr	x21, [x29, #32]
    7818:	a94153b3 	ldp	x19, x20, [x29, #16]
    781c:	128002a0 	mov	w0, #0xffffffea            	// #-22
    7820:	f94017f6 	ldr	x22, [sp, #40]
    7824:	a8c37bfd 	ldp	x29, x30, [sp], #48
    7828:	d65f03c0 	ret
    782c:	f94017f6 	ldr	x22, [sp, #40]
    7830:	d2802001 	mov	x1, #0x100                 	// #256
    7834:	a8c37bfd 	ldp	x29, x30, [sp], #48
    7838:	d2800000 	mov	x0, #0x0                   	// #0
    783c:	17fffd43 	b	6d48 <reset>
    7840:	901fffe1 	adrp	x1, 40003000 <state_fmt+0x388>
    7844:	aa0203e0 	mov	x0, x2
    7848:	911b0021 	add	x1, x1, #0x6c0
    784c:	9400149f 	bl	cac8 <std_fprintf>
    7850:	17fffff3 	b	781c <cmd_reset_cb+0x94>
    7854:	00000000 	.inst	0x00000000 ; undefined

0000000000007858 <restore_previous_line>:
    7858:	a9be7bfd 	stp	x29, x30, [sp, #-32]!
    785c:	9101e003 	add	x3, x0, #0x78
    7860:	910003fd 	mov	x29, sp
    7864:	b9404022 	ldr	w2, [x1, #64]
    7868:	901fffe1 	adrp	x1, 40003000 <state_fmt+0x388>
    786c:	f9000bf3 	str	x19, [sp, #16]
    7870:	aa0003f3 	mov	x19, x0
    7874:	f9400400 	ldr	x0, [x0, #8]
    7878:	11004442 	add	w2, w2, #0x11
    787c:	91358021 	add	x1, x1, #0xd60
    7880:	94001492 	bl	cac8 <std_fprintf>
    7884:	29570a63 	ldp	w3, w2, [x19, #184]
    7888:	6b02007f 	cmp	w3, w2
    788c:	540000c0 	b.eq	78a4 <restore_previous_line+0x4c>  // b.none
    7890:	f9400660 	ldr	x0, [x19, #8]
    7894:	901fffe1 	adrp	x1, 40003000 <state_fmt+0x388>
    7898:	4b020062 	sub	w2, w3, w2
    789c:	9135c021 	add	x1, x1, #0xd70
    78a0:	9400148a 	bl	cac8 <std_fprintf>
    78a4:	52800000 	mov	w0, #0x0                   	// #0
    78a8:	f9400bf3 	ldr	x19, [sp, #16]
    78ac:	a8c27bfd 	ldp	x29, x30, [sp], #32
    78b0:	d65f03c0 	ret
    78b4:	00000000 	.inst	0x00000000 ; undefined

00000000000078b8 <line_delete>:
    78b8:	29480c02 	ldp	w2, w3, [x0, #64]
    78bc:	6b02007f 	cmp	w3, w2
    78c0:	54000240 	b.eq	7908 <line_delete+0x50>  // b.none
    78c4:	a9be7bfd 	stp	x29, x30, [sp, #-32]!
    78c8:	4b030042 	sub	w2, w2, w3
    78cc:	11000461 	add	w1, w3, #0x1
    78d0:	910003fd 	mov	x29, sp
    78d4:	f9000bf3 	str	x19, [sp, #16]
    78d8:	aa0003f3 	mov	x19, x0
    78dc:	8b21c261 	add	x1, x19, w1, sxtw
    78e0:	93407c42 	sxtw	x2, w2
    78e4:	8b23c000 	add	x0, x0, w3, sxtw
    78e8:	97ffe8ec 	bl	1c98 <memmove>
    78ec:	b9404261 	ldr	w1, [x19, #64]
    78f0:	52800000 	mov	w0, #0x0                   	// #0
    78f4:	51000421 	sub	w1, w1, #0x1
    78f8:	b9004261 	str	w1, [x19, #64]
    78fc:	f9400bf3 	ldr	x19, [sp, #16]
    7900:	a8c27bfd 	ldp	x29, x30, [sp], #32
    7904:	d65f03c0 	ret
    7908:	12800000 	mov	w0, #0xffffffff            	// #-1
    790c:	d65f03c0 	ret

0000000000007910 <line_insert>:
    7910:	b9404002 	ldr	w2, [x0, #64]
    7914:	7100fc5f 	cmp	w2, #0x3f
    7918:	54000320 	b.eq	797c <line_insert+0x6c>  // b.none
    791c:	a9be7bfd 	stp	x29, x30, [sp, #-32]!
    7920:	910003fd 	mov	x29, sp
    7924:	a90153f3 	stp	x19, x20, [sp, #16]
    7928:	12001c34 	and	w20, w1, #0xff
    792c:	b9404401 	ldr	w1, [x0, #68]
    7930:	aa0003f3 	mov	x19, x0
    7934:	4b010042 	sub	w2, w2, w1
    7938:	11000420 	add	w0, w1, #0x1
    793c:	11000442 	add	w2, w2, #0x1
    7940:	8b21c261 	add	x1, x19, w1, sxtw
    7944:	8b20c260 	add	x0, x19, w0, sxtw
    7948:	93407c42 	sxtw	x2, w2
    794c:	97ffe8d3 	bl	1c98 <memmove>
    7950:	b9404661 	ldr	w1, [x19, #68]
    7954:	52800000 	mov	w0, #0x0                   	// #0
    7958:	11000422 	add	w2, w1, #0x1
    795c:	b9004662 	str	w2, [x19, #68]
    7960:	3821ca74 	strb	w20, [x19, w1, sxtw]
    7964:	b9404261 	ldr	w1, [x19, #64]
    7968:	11000421 	add	w1, w1, #0x1
    796c:	b9004261 	str	w1, [x19, #64]
    7970:	a94153f3 	ldp	x19, x20, [sp, #16]
    7974:	a8c27bfd 	ldp	x29, x30, [sp], #32
    7978:	d65f03c0 	ret
    797c:	12800000 	mov	w0, #0xffffffff            	// #-1
    7980:	d65f03c0 	ret
    7984:	00000000 	.inst	0x00000000 ; undefined

0000000000007988 <read_line>:
    7988:	a9bb7bfd 	stp	x29, x30, [sp, #-80]!
    798c:	910003fd 	mov	x29, sp
    7990:	a90153f3 	stp	x19, x20, [sp, #16]
    7994:	aa0003f3 	mov	x19, x0
    7998:	9100c274 	add	x20, x19, #0x30
    799c:	a9025bf5 	stp	x21, x22, [sp, #32]
    79a0:	f9001bf7 	str	x23, [sp, #48]
    79a4:	901fffe0 	adrp	x0, 40003000 <state_fmt+0x388>
    79a8:	3900c27f 	strb	wzr, [x19, #48]
    79ac:	2a0103f6 	mov	w22, w1
    79b0:	29087e9f 	stp	wzr, wzr, [x20, #64]
    79b4:	91356015 	add	x21, x0, #0xd58
    79b8:	52800557 	mov	w23, #0x2a                  	// #42
    79bc:	b900c67f 	str	wzr, [x19, #196]
    79c0:	14000012 	b	7a08 <read_line+0x80>
    79c4:	540004e9 	b.ls	7a60 <read_line+0xd8>  // b.plast
    79c8:	7100343f 	cmp	w1, #0xd
    79cc:	54000320 	b.eq	7a30 <read_line+0xa8>  // b.none
    79d0:	7101fc3f 	cmp	w1, #0x7f
    79d4:	540004a1 	b.ne	7a68 <read_line+0xe0>  // b.any
    79d8:	b9407660 	ldr	w0, [x19, #116]
    79dc:	7100001f 	cmp	w0, #0x0
    79e0:	5400010d 	b.le	7a00 <read_line+0x78>
    79e4:	51000400 	sub	w0, w0, #0x1
    79e8:	b9007660 	str	w0, [x19, #116]
    79ec:	aa1403e0 	mov	x0, x20
    79f0:	97ffffb2 	bl	78b8 <line_delete>
    79f4:	f9400660 	ldr	x0, [x19, #8]
    79f8:	aa1503e1 	mov	x1, x21
    79fc:	94001433 	bl	cac8 <std_fprintf>
    7a00:	b940c660 	ldr	w0, [x19, #196]
    7a04:	35000220 	cbnz	w0, 7a48 <read_line+0xc0>
    7a08:	f9400260 	ldr	x0, [x19]
    7a0c:	d2800022 	mov	x2, #0x1                   	// #1
    7a10:	91013fa1 	add	x1, x29, #0x4f
    7a14:	94000f7b 	bl	b800 <chan_read>
    7a18:	f100041f 	cmp	x0, #0x1
    7a1c:	54000301 	b.ne	7a7c <read_line+0xf4>  // b.any
    7a20:	39413fa1 	ldrb	w1, [x29, #79]
    7a24:	7100283f 	cmp	w1, #0xa
    7a28:	54fffce1 	b.ne	79c4 <read_line+0x3c>  // b.any
    7a2c:	b900c660 	str	w0, [x19, #196]
    7a30:	f9400660 	ldr	x0, [x19, #8]
    7a34:	d2800022 	mov	x2, #0x1                   	// #1
    7a38:	91013fa1 	add	x1, x29, #0x4f
    7a3c:	94000fa5 	bl	b8d0 <chan_write>
    7a40:	b940c660 	ldr	w0, [x19, #196]
    7a44:	34fffe20 	cbz	w0, 7a08 <read_line+0x80>
    7a48:	a94153f3 	ldp	x19, x20, [sp, #16]
    7a4c:	52800000 	mov	w0, #0x0                   	// #0
    7a50:	a9425bf5 	ldp	x21, x22, [sp, #32]
    7a54:	f9401bf7 	ldr	x23, [sp, #48]
    7a58:	a8c57bfd 	ldp	x29, x30, [sp], #80
    7a5c:	d65f03c0 	ret
    7a60:	7100203f 	cmp	w1, #0x8
    7a64:	54fffba0 	b.eq	79d8 <read_line+0x50>  // b.none
    7a68:	aa1403e0 	mov	x0, x20
    7a6c:	97ffffa9 	bl	7910 <line_insert>
    7a70:	34fffe16 	cbz	w22, 7a30 <read_line+0xa8>
    7a74:	39013fb7 	strb	w23, [x29, #79]
    7a78:	17ffffee 	b	7a30 <read_line+0xa8>
    7a7c:	a94153f3 	ldp	x19, x20, [sp, #16]
    7a80:	12800080 	mov	w0, #0xfffffffb            	// #-5
    7a84:	a9425bf5 	ldp	x21, x22, [sp, #32]
    7a88:	f9401bf7 	ldr	x23, [sp, #48]
    7a8c:	a8c57bfd 	ldp	x29, x30, [sp], #80
    7a90:	d65f03c0 	ret
    7a94:	00000000 	.inst	0x00000000 ; undefined

0000000000007a98 <shell_command_compare>:
    7a98:	a9be7bfd 	stp	x29, x30, [sp, #-32]!
    7a9c:	910003fd 	mov	x29, sp
    7aa0:	a90153f3 	stp	x19, x20, [sp, #16]
    7aa4:	aa0003f3 	mov	x19, x0
    7aa8:	aa0203f4 	mov	x20, x2
    7aac:	aa0103e0 	mov	x0, x1
    7ab0:	aa1303e1 	mov	x1, x19
    7ab4:	94001575 	bl	d088 <std_strncmp>
    7ab8:	35000100 	cbnz	w0, 7ad8 <shell_command_compare+0x40>
    7abc:	38746a61 	ldrb	w1, [x19, x20]
    7ac0:	52801be0 	mov	w0, #0xdf                  	// #223
    7ac4:	a94153f3 	ldp	x19, x20, [sp, #16]
    7ac8:	6a00003f 	tst	w1, w0
    7acc:	1a9f17e0 	cset	w0, eq  // eq = none
    7ad0:	a8c27bfd 	ldp	x29, x30, [sp], #32
    7ad4:	d65f03c0 	ret
    7ad8:	52800000 	mov	w0, #0x0                   	// #0
    7adc:	a94153f3 	ldp	x19, x20, [sp, #16]
    7ae0:	a8c27bfd 	ldp	x29, x30, [sp], #32
    7ae4:	d65f03c0 	ret

0000000000007ae8 <shell_init>:
    7ae8:	a9bf7bfd 	stp	x29, x30, [sp, #-16]!
    7aec:	f100009f 	cmp	x4, #0x0
    7af0:	901fffe7 	adrp	x7, 40003000 <state_fmt+0x388>
    7af4:	9135e0e7 	add	x7, x7, #0xd78
    7af8:	910003fd 	mov	x29, sp
    7afc:	9a8400e4 	csel	x4, x7, x4, eq  // eq = none
    7b00:	f10000bf 	cmp	x5, #0x0
    7b04:	a9000801 	stp	x1, x2, [x0]
    7b08:	1a9f17e1 	cset	w1, eq  // eq = none
    7b0c:	a9011003 	stp	x3, x4, [x0, #16]
    7b10:	d2806002 	mov	x2, #0x300                 	// #768
    7b14:	a9021805 	stp	x5, x6, [x0, #32]
    7b18:	b900c801 	str	w1, [x0, #200]
    7b1c:	9107a001 	add	x1, x0, #0x1e8
    7b20:	a90d7c1f 	stp	xzr, xzr, [x0, #208]
    7b24:	91072000 	add	x0, x0, #0x1c8
    7b28:	f811801f 	stur	xzr, [x0, #-232]
    7b2c:	381b001f 	sturb	wzr, [x0, #-80]
    7b30:	b81f001f 	stur	wzr, [x0, #-16]
    7b34:	b81f401f 	stur	wzr, [x0, #-12]
    7b38:	b81f801f 	stur	wzr, [x0, #-8]
    7b3c:	97ffe90b 	bl	1f68 <circular_heap_init>
    7b40:	52800000 	mov	w0, #0x0                   	// #0
    7b44:	a8c17bfd 	ldp	x29, x30, [sp], #16
    7b48:	d65f03c0 	ret
    7b4c:	00000000 	.inst	0x00000000 ; undefined

0000000000007b50 <shell_main>:
    7b50:	a9b37bfd 	stp	x29, x30, [sp, #-208]!
    7b54:	910003fd 	mov	x29, sp
    7b58:	a90153f3 	stp	x19, x20, [sp, #16]
    7b5c:	aa0003f3 	mov	x19, x0
    7b60:	a9025bf5 	stp	x21, x22, [sp, #32]
    7b64:	a90363f7 	stp	x23, x24, [sp, #48]
    7b68:	a9046bf9 	stp	x25, x26, [sp, #64]
    7b6c:	a90573fb 	stp	x27, x28, [sp, #80]
    7b70:	b4005480 	cbz	x0, 8600 <shell_main+0xab0>
    7b74:	f9400e60 	ldr	x0, [x19, #24]
    7b78:	901ffffa 	adrp	x26, 40003000 <state_fmt+0x388>
    7b7c:	97fff775 	bl	5950 <thrd_set_name>
    7b80:	91390340 	add	x0, x26, #0xe40
    7b84:	f90037a0 	str	x0, [x29, #104]
    7b88:	b940ca60 	ldr	w0, [x19, #200]
    7b8c:	35000680 	cbnz	w0, 7c5c <shell_main+0x10c>
    7b90:	901ffff6 	adrp	x22, 40003000 <state_fmt+0x388>
    7b94:	901ffff7 	adrp	x23, 40003000 <state_fmt+0x388>
    7b98:	901ffff8 	adrp	x24, 40003000 <state_fmt+0x388>
    7b9c:	913762d6 	add	x22, x22, #0xdd8
    7ba0:	9137a2f7 	add	x23, x23, #0xde8
    7ba4:	9137e318 	add	x24, x24, #0xdf8
    7ba8:	f9400660 	ldr	x0, [x19, #8]
    7bac:	aa1603e1 	mov	x1, x22
    7bb0:	9100c274 	add	x20, x19, #0x30
    7bb4:	940013c5 	bl	cac8 <std_fprintf>
    7bb8:	52800001 	mov	w1, #0x0                   	// #0
    7bbc:	aa1303e0 	mov	x0, x19
    7bc0:	97ffff72 	bl	7988 <read_line>
    7bc4:	350003c0 	cbnz	w0, 7c3c <shell_main+0xec>
    7bc8:	b9407260 	ldr	w0, [x19, #112]
    7bcc:	aa1403e1 	mov	x1, x20
    7bd0:	34fffec0 	cbz	w0, 7ba8 <shell_main+0x58>
    7bd4:	f9401260 	ldr	x0, [x19, #32]
    7bd8:	97ffe876 	bl	1db0 <strcmp>
    7bdc:	2a0003f5 	mov	w21, w0
    7be0:	f9400660 	ldr	x0, [x19, #8]
    7be4:	aa1703e1 	mov	x1, x23
    7be8:	940013b8 	bl	cac8 <std_fprintf>
    7bec:	52800021 	mov	w1, #0x1                   	// #1
    7bf0:	aa1303e0 	mov	x0, x19
    7bf4:	97ffff65 	bl	7988 <read_line>
    7bf8:	35000220 	cbnz	w0, 7c3c <shell_main+0xec>
    7bfc:	f9401660 	ldr	x0, [x19, #40]
    7c00:	aa1403e1 	mov	x1, x20
    7c04:	97ffe86b 	bl	1db0 <strcmp>
    7c08:	2a0002a0 	orr	w0, w21, w0
    7c0c:	34002c80 	cbz	w0, 819c <shell_main+0x64c>
    7c10:	f9400660 	ldr	x0, [x19, #8]
    7c14:	aa1803e1 	mov	x1, x24
    7c18:	9100c274 	add	x20, x19, #0x30
    7c1c:	940013ab 	bl	cac8 <std_fprintf>
    7c20:	f9400660 	ldr	x0, [x19, #8]
    7c24:	aa1603e1 	mov	x1, x22
    7c28:	940013a8 	bl	cac8 <std_fprintf>
    7c2c:	52800001 	mov	w1, #0x0                   	// #0
    7c30:	aa1303e0 	mov	x0, x19
    7c34:	97ffff55 	bl	7988 <read_line>
    7c38:	34fffc80 	cbz	w0, 7bc8 <shell_main+0x78>
    7c3c:	a94153f3 	ldp	x19, x20, [sp, #16]
    7c40:	d2800000 	mov	x0, #0x0                   	// #0
    7c44:	a9425bf5 	ldp	x21, x22, [sp, #32]
    7c48:	a94363f7 	ldp	x23, x24, [sp, #48]
    7c4c:	a9446bf9 	ldp	x25, x26, [sp, #64]
    7c50:	a94573fb 	ldp	x27, x28, [sp, #80]
    7c54:	a8cd7bfd 	ldp	x29, x30, [sp], #208
    7c58:	d65f03c0 	ret
    7c5c:	9100c274 	add	x20, x19, #0x30
    7c60:	3900029f 	strb	wzr, [x20]
    7c64:	901ffff9 	adrp	x25, 40003000 <state_fmt+0x388>
    7c68:	29087e9f 	stp	wzr, wzr, [x20, #64]
    7c6c:	91388339 	add	x25, x25, #0xe20
    7c70:	f900627f 	str	xzr, [x19, #192]
    7c74:	14000034 	b	7d44 <shell_main+0x1f4>
    7c78:	7100483f 	cmp	w1, #0x12
    7c7c:	54001fa0 	b.eq	8070 <shell_main+0x520>  // b.none
    7c80:	540010a9 	b.ls	7e94 <shell_main+0x344>  // b.plast
    7c84:	71006c3f 	cmp	w1, #0x1b
    7c88:	540017a0 	b.eq	7f7c <shell_main+0x42c>  // b.none
    7c8c:	7101fc3f 	cmp	w1, #0x7f
    7c90:	54001d60 	b.eq	803c <shell_main+0x4ec>  // b.none
    7c94:	7100503f 	cmp	w1, #0x14
    7c98:	54001ca1 	b.ne	802c <shell_main+0x4dc>  // b.any
    7c9c:	294e5676 	ldp	w22, w21, [x19, #112]
    7ca0:	34000315 	cbz	w21, 7d00 <shell_main+0x1b0>
    7ca4:	710006df 	cmp	w22, #0x1
    7ca8:	540002cd 	b.le	7d00 <shell_main+0x1b0>
    7cac:	6b1602bf 	cmp	w21, w22
    7cb0:	54000061 	b.ne	7cbc <shell_main+0x16c>  // b.any
    7cb4:	510006b5 	sub	w21, w21, #0x1
    7cb8:	b9007675 	str	w21, [x19, #116]
    7cbc:	3875ca95 	ldrb	w21, [x20, w21, sxtw]
    7cc0:	aa1403e0 	mov	x0, x20
    7cc4:	97fffefd 	bl	78b8 <line_delete>
    7cc8:	b9407660 	ldr	w0, [x19, #116]
    7ccc:	7100001f 	cmp	w0, #0x0
    7cd0:	5400006d 	b.le	7cdc <shell_main+0x18c>
    7cd4:	51000400 	sub	w0, w0, #0x1
    7cd8:	b9007660 	str	w0, [x19, #116]
    7cdc:	2a1503e1 	mov	w1, w21
    7ce0:	aa1403e0 	mov	x0, x20
    7ce4:	97ffff0b 	bl	7910 <line_insert>
    7ce8:	294e5676 	ldp	w22, w21, [x19, #112]
    7cec:	6b1502df 	cmp	w22, w21
    7cf0:	5400008d 	b.le	7d00 <shell_main+0x1b0>
    7cf4:	110006b5 	add	w21, w21, #0x1
    7cf8:	b9007675 	str	w21, [x19, #116]
    7cfc:	d503201f 	nop
    7d00:	aa1703e1 	mov	x1, x23
    7d04:	aa1403e0 	mov	x0, x20
    7d08:	2957627b 	ldp	w27, w24, [x19, #184]
    7d0c:	97ffe829 	bl	1db0 <strcmp>
    7d10:	35000580 	cbnz	w0, 7dc0 <shell_main+0x270>
    7d14:	6b15031f 	cmp	w24, w21
    7d18:	54000b2b 	b.lt	7e7c <shell_main+0x32c>  // b.tstop
    7d1c:	540000ed 	b.le	7d38 <shell_main+0x1e8>
    7d20:	f9400660 	ldr	x0, [x19, #8]
    7d24:	901fffe1 	adrp	x1, 40003000 <state_fmt+0x388>
    7d28:	4b150302 	sub	w2, w24, w21
    7d2c:	9135c021 	add	x1, x1, #0xd70
    7d30:	94001366 	bl	cac8 <std_fprintf>
    7d34:	d503201f 	nop
    7d38:	b940c660 	ldr	w0, [x19, #196]
    7d3c:	7100041f 	cmp	w0, #0x1
    7d40:	54000800 	b.eq	7e40 <shell_main+0x2f0>  // b.none
    7d44:	f9400260 	ldr	x0, [x19]
    7d48:	d2800022 	mov	x2, #0x1                   	// #1
    7d4c:	9101ffa1 	add	x1, x29, #0x7f
    7d50:	94000eac 	bl	b800 <chan_read>
    7d54:	aa0003f5 	mov	x21, x0
    7d58:	f100041f 	cmp	x0, #0x1
    7d5c:	54fff701 	b.ne	7c3c <shell_main+0xec>  // b.any
    7d60:	9101e277 	add	x23, x19, #0x78
    7d64:	aa1403e1 	mov	x1, x20
    7d68:	d2800902 	mov	x2, #0x48                  	// #72
    7d6c:	aa1703e0 	mov	x0, x23
    7d70:	97ffe7a8 	bl	1c10 <memcpy>
    7d74:	3941ffa1 	ldrb	w1, [x29, #127]
    7d78:	7100283f 	cmp	w1, #0xa
    7d7c:	54001720 	b.eq	8060 <shell_main+0x510>  // b.none
    7d80:	54fff7c8 	b.hi	7c78 <shell_main+0x128>  // b.pmore
    7d84:	7100143f 	cmp	w1, #0x5
    7d88:	54000e80 	b.eq	7f58 <shell_main+0x408>  // b.none
    7d8c:	54000948 	b.hi	7eb4 <shell_main+0x364>  // b.pmore
    7d90:	7100043f 	cmp	w1, #0x1
    7d94:	54000da0 	b.eq	7f48 <shell_main+0x3f8>  // b.none
    7d98:	7100103f 	cmp	w1, #0x4
    7d9c:	54001481 	b.ne	802c <shell_main+0x4dc>  // b.any
    7da0:	aa1403e0 	mov	x0, x20
    7da4:	97fffec5 	bl	78b8 <line_delete>
    7da8:	aa1703e1 	mov	x1, x23
    7dac:	aa1403e0 	mov	x0, x20
    7db0:	294e5676 	ldp	w22, w21, [x19, #112]
    7db4:	2957627b 	ldp	w27, w24, [x19, #184]
    7db8:	97ffe7fe 	bl	1db0 <strcmp>
    7dbc:	34fffac0 	cbz	w0, 7d14 <shell_main+0x1c4>
    7dc0:	6b16037f 	cmp	w27, w22
    7dc4:	aa1703e1 	mov	x1, x23
    7dc8:	1a96d362 	csel	w2, w27, w22, le
    7dcc:	aa1403e0 	mov	x0, x20
    7dd0:	93407c42 	sxtw	x2, w2
    7dd4:	97ffe809 	bl	1df8 <strncmp>
    7dd8:	7100001f 	cmp	w0, #0x0
    7ddc:	7a5502c0 	ccmp	w22, w21, #0x0, eq  // eq = none
    7de0:	54002380 	b.eq	8250 <shell_main+0x700>  // b.none
    7de4:	7100031f 	cmp	w24, #0x0
    7de8:	f9400660 	ldr	x0, [x19, #8]
    7dec:	540000cd 	b.le	7e04 <shell_main+0x2b4>
    7df0:	901fffe1 	adrp	x1, 40003000 <state_fmt+0x388>
    7df4:	2a1803e2 	mov	w2, w24
    7df8:	9135c021 	add	x1, x1, #0xd70
    7dfc:	94001333 	bl	cac8 <std_fprintf>
    7e00:	f9400660 	ldr	x0, [x19, #8]
    7e04:	901fffe1 	adrp	x1, 40003000 <state_fmt+0x388>
    7e08:	aa1403e2 	mov	x2, x20
    7e0c:	9139a021 	add	x1, x1, #0xe68
    7e10:	9400132e 	bl	cac8 <std_fprintf>
    7e14:	6b1502df 	cmp	w22, w21
    7e18:	54fff90d 	b.le	7d38 <shell_main+0x1e8>
    7e1c:	f9400660 	ldr	x0, [x19, #8]
    7e20:	901fffe1 	adrp	x1, 40003000 <state_fmt+0x388>
    7e24:	4b1502c2 	sub	w2, w22, w21
    7e28:	9135c021 	add	x1, x1, #0xd70
    7e2c:	94001327 	bl	cac8 <std_fprintf>
    7e30:	b940c660 	ldr	w0, [x19, #196]
    7e34:	7100041f 	cmp	w0, #0x1
    7e38:	54fff861 	b.ne	7d44 <shell_main+0x1f4>  // b.any
    7e3c:	d503201f 	nop
    7e40:	b940c261 	ldr	w1, [x19, #192]
    7e44:	f9400660 	ldr	x0, [x19, #8]
    7e48:	7100043f 	cmp	w1, #0x1
    7e4c:	54003200 	b.eq	848c <shell_main+0x93c>  // b.none
    7e50:	d01fffe1 	adrp	x1, 40005000 <state_fmt+0x2388>
    7e54:	911fe021 	add	x1, x1, #0x7f8
    7e58:	9400131c 	bl	cac8 <std_fprintf>
    7e5c:	b9407260 	ldr	w0, [x19, #112]
    7e60:	35002560 	cbnz	w0, 830c <shell_main+0x7bc>
    7e64:	f900727f 	str	xzr, [x19, #224]
    7e68:	f9400660 	ldr	x0, [x19, #8]
    7e6c:	901fffe1 	adrp	x1, 40003000 <state_fmt+0x388>
    7e70:	91350021 	add	x1, x1, #0xd40
    7e74:	94001315 	bl	cac8 <std_fprintf>
    7e78:	17ffff44 	b	7b88 <shell_main+0x38>
    7e7c:	f9400660 	ldr	x0, [x19, #8]
    7e80:	901fffe1 	adrp	x1, 40003000 <state_fmt+0x388>
    7e84:	4b1802a2 	sub	w2, w21, w24
    7e88:	9139c021 	add	x1, x1, #0xe70
    7e8c:	9400130f 	bl	cac8 <std_fprintf>
    7e90:	17ffffaa 	b	7d38 <shell_main+0x1e8>
    7e94:	71002c3f 	cmp	w1, #0xb
    7e98:	54000680 	b.eq	7f68 <shell_main+0x418>  // b.none
    7e9c:	7100343f 	cmp	w1, #0xd
    7ea0:	54000c61 	b.ne	802c <shell_main+0x4dc>  // b.any
    7ea4:	b900c275 	str	w21, [x19, #192]
    7ea8:	b9407276 	ldr	w22, [x19, #112]
    7eac:	b9404695 	ldr	w21, [x20, #68]
    7eb0:	17ffff94 	b	7d00 <shell_main+0x1b0>
    7eb4:	7100203f 	cmp	w1, #0x8
    7eb8:	54000c20 	b.eq	803c <shell_main+0x4ec>  // b.none
    7ebc:	7100243f 	cmp	w1, #0x9
    7ec0:	54000b61 	b.ne	802c <shell_main+0x4dc>  // b.any
    7ec4:	aa1403e1 	mov	x1, x20
    7ec8:	910243b6 	add	x22, x29, #0x90
    7ecc:	aa1603e0 	mov	x0, x22
    7ed0:	97ffe7e4 	bl	1e60 <strcpy>
    7ed4:	aa1603e0 	mov	x0, x22
    7ed8:	94000c7a 	bl	b0c0 <fs_auto_complete>
    7edc:	7100001f 	cmp	w0, #0x0
    7ee0:	54001e6d 	b.le	82ac <shell_main+0x75c>
    7ee4:	b9407675 	ldr	w21, [x19, #116]
    7ee8:	8b35c2d8 	add	x24, x22, w21, sxtw
    7eec:	3875cac1 	ldrb	w1, [x22, w21, sxtw]
    7ef0:	35000081 	cbnz	w1, 7f00 <shell_main+0x3b0>
    7ef4:	14000007 	b	7f10 <shell_main+0x3c0>
    7ef8:	38401f01 	ldrb	w1, [x24, #1]!
    7efc:	34000081 	cbz	w1, 7f0c <shell_main+0x3bc>
    7f00:	aa1403e0 	mov	x0, x20
    7f04:	97fffe83 	bl	7910 <line_insert>
    7f08:	34ffff80 	cbz	w0, 7ef8 <shell_main+0x3a8>
    7f0c:	b9407675 	ldr	w21, [x19, #116]
    7f10:	b9407276 	ldr	w22, [x19, #112]
    7f14:	17ffff7b 	b	7d00 <shell_main+0x1b0>
    7f18:	f9400260 	ldr	x0, [x19]
    7f1c:	d2800022 	mov	x2, #0x1                   	// #1
    7f20:	aa1603e1 	mov	x1, x22
    7f24:	94000e37 	bl	b800 <chan_read>
    7f28:	f100041f 	cmp	x0, #0x1
    7f2c:	54000841 	b.ne	8034 <shell_main+0x4e4>  // b.any
    7f30:	394243a0 	ldrb	w0, [x29, #144]
    7f34:	7101181f 	cmp	w0, #0x46
    7f38:	54000100 	b.eq	7f58 <shell_main+0x408>  // b.none
    7f3c:	7101201f 	cmp	w0, #0x48
    7f40:	540007a1 	b.ne	8034 <shell_main+0x4e4>  // b.any
    7f44:	d503201f 	nop
    7f48:	52800015 	mov	w21, #0x0                   	// #0
    7f4c:	b9407276 	ldr	w22, [x19, #112]
    7f50:	b900767f 	str	wzr, [x19, #116]
    7f54:	17ffff6b 	b	7d00 <shell_main+0x1b0>
    7f58:	b9407276 	ldr	w22, [x19, #112]
    7f5c:	b9007676 	str	w22, [x19, #116]
    7f60:	2a1603f5 	mov	w21, w22
    7f64:	17ffff67 	b	7d00 <shell_main+0x1b0>
    7f68:	b9404696 	ldr	w22, [x20, #68]
    7f6c:	b9004296 	str	w22, [x20, #64]
    7f70:	2a1603f5 	mov	w21, w22
    7f74:	3836ca9f 	strb	wzr, [x20, w22, sxtw]
    7f78:	17ffff62 	b	7d00 <shell_main+0x1b0>
    7f7c:	f9400260 	ldr	x0, [x19]
    7f80:	aa1503e2 	mov	x2, x21
    7f84:	910243b6 	add	x22, x29, #0x90
    7f88:	aa1603e1 	mov	x1, x22
    7f8c:	94000e1d 	bl	b800 <chan_read>
    7f90:	aa0003e2 	mov	x2, x0
    7f94:	f100041f 	cmp	x0, #0x1
    7f98:	54000101 	b.ne	7fb8 <shell_main+0x468>  // b.any
    7f9c:	394243a0 	ldrb	w0, [x29, #144]
    7fa0:	71016c1f 	cmp	w0, #0x5b
    7fa4:	54002160 	b.eq	83d0 <shell_main+0x880>  // b.none
    7fa8:	7101901f 	cmp	w0, #0x64
    7fac:	540000e0 	b.eq	7fc8 <shell_main+0x478>  // b.none
    7fb0:	71013c1f 	cmp	w0, #0x4f
    7fb4:	54fffb20 	b.eq	7f18 <shell_main+0x3c8>  // b.none
    7fb8:	b9407276 	ldr	w22, [x19, #112]
    7fbc:	b9404695 	ldr	w21, [x20, #68]
    7fc0:	17ffff50 	b	7d00 <shell_main+0x1b0>
    7fc4:	97fffe3d 	bl	78b8 <line_delete>
    7fc8:	b9804680 	ldrsw	x0, [x20, #68]
    7fcc:	38606a95 	ldrb	w21, [x20, x0]
    7fd0:	97ffe70c 	bl	1c00 <__locale_ctype_ptr>
    7fd4:	8b350001 	add	x1, x0, w21, uxtb
    7fd8:	aa1403e0 	mov	x0, x20
    7fdc:	39c00421 	ldrsb	w1, [x1, #1]
    7fe0:	7100003f 	cmp	w1, #0x0
    7fe4:	7a49aaa4 	ccmp	w21, #0x9, #0x4, ge  // ge = tcont
    7fe8:	54fffee0 	b.eq	7fc4 <shell_main+0x474>  // b.none
    7fec:	14000002 	b	7ff4 <shell_main+0x4a4>
    7ff0:	97fffe32 	bl	78b8 <line_delete>
    7ff4:	b9804680 	ldrsw	x0, [x20, #68]
    7ff8:	38606a95 	ldrb	w21, [x20, x0]
    7ffc:	97ffe701 	bl	1c00 <__locale_ctype_ptr>
    8000:	8b350001 	add	x1, x0, w21, uxtb
    8004:	aa1403e0 	mov	x0, x20
    8008:	39c00421 	ldrsb	w1, [x1, #1]
    800c:	7100003f 	cmp	w1, #0x0
    8010:	7a49aaa4 	ccmp	w21, #0x9, #0x4, ge  // ge = tcont
    8014:	54fffd20 	b.eq	7fb8 <shell_main+0x468>  // b.none
    8018:	b9404695 	ldr	w21, [x20, #68]
    801c:	3875ca81 	ldrb	w1, [x20, w21, sxtw]
    8020:	35fffe81 	cbnz	w1, 7ff0 <shell_main+0x4a0>
    8024:	b9407276 	ldr	w22, [x19, #112]
    8028:	17ffff36 	b	7d00 <shell_main+0x1b0>
    802c:	aa1403e0 	mov	x0, x20
    8030:	97fffe38 	bl	7910 <line_insert>
    8034:	294e5676 	ldp	w22, w21, [x19, #112]
    8038:	17ffff32 	b	7d00 <shell_main+0x1b0>
    803c:	b9407675 	ldr	w21, [x19, #116]
    8040:	710002bf 	cmp	w21, #0x0
    8044:	54fff66d 	b.le	7f10 <shell_main+0x3c0>
    8048:	510006b5 	sub	w21, w21, #0x1
    804c:	b9007675 	str	w21, [x19, #116]
    8050:	aa1403e0 	mov	x0, x20
    8054:	97fffe19 	bl	78b8 <line_delete>
    8058:	294e5676 	ldp	w22, w21, [x19, #112]
    805c:	17ffff29 	b	7d00 <shell_main+0x1b0>
    8060:	b900c675 	str	w21, [x19, #196]
    8064:	b9407276 	ldr	w22, [x19, #112]
    8068:	b9404695 	ldr	w21, [x20, #68]
    806c:	17ffff25 	b	7d00 <shell_main+0x1b0>
    8070:	9103a275 	add	x21, x19, #0xe8
    8074:	3903a27f 	strb	wzr, [x19, #232]
    8078:	9104c278 	add	x24, x19, #0x130
    807c:	f9400660 	ldr	x0, [x19, #8]
    8080:	29087ebf 	stp	wzr, wzr, [x21, #64]
    8084:	3904c27f 	strb	wzr, [x19, #304]
    8088:	29087f1f 	stp	wzr, wzr, [x24, #64]
    808c:	b9407262 	ldr	w2, [x19, #112]
    8090:	35001342 	cbnz	w2, 82f8 <shell_main+0x7a8>
    8094:	f01fffdb 	adrp	x27, 40003000 <state_fmt+0x388>
    8098:	910243b6 	add	x22, x29, #0x90
    809c:	9139437b 	add	x27, x27, #0xe50
    80a0:	aa1903e1 	mov	x1, x25
    80a4:	94001289 	bl	cac8 <std_fprintf>
    80a8:	f9400260 	ldr	x0, [x19]
    80ac:	d2800022 	mov	x2, #0x1                   	// #1
    80b0:	aa1603e1 	mov	x1, x22
    80b4:	94000dd3 	bl	b800 <chan_read>
    80b8:	f100041f 	cmp	x0, #0x1
    80bc:	54fffbc1 	b.ne	8034 <shell_main+0x4e4>  // b.any
    80c0:	394243a1 	ldrb	w1, [x29, #144]
    80c4:	7100203f 	cmp	w1, #0x8
    80c8:	540000c0 	b.eq	80e0 <shell_main+0x590>  // b.none
    80cc:	540005a9 	b.ls	8180 <shell_main+0x630>  // b.plast
    80d0:	7100343f 	cmp	w1, #0xd
    80d4:	54000ba0 	b.eq	8248 <shell_main+0x6f8>  // b.none
    80d8:	7101fc3f 	cmp	w1, #0x7f
    80dc:	540006e1 	b.ne	81b8 <shell_main+0x668>  // b.any
    80e0:	b9412a60 	ldr	w0, [x19, #296]
    80e4:	34fffe20 	cbz	w0, 80a8 <shell_main+0x558>
    80e8:	f9400660 	ldr	x0, [x19, #8]
    80ec:	f94037a1 	ldr	x1, [x29, #104]
    80f0:	94001276 	bl	cac8 <std_fprintf>
    80f4:	b9412e60 	ldr	w0, [x19, #300]
    80f8:	7100001f 	cmp	w0, #0x0
    80fc:	5400006d 	b.le	8108 <shell_main+0x5b8>
    8100:	51000400 	sub	w0, w0, #0x1
    8104:	b9012e60 	str	w0, [x19, #300]
    8108:	aa1503e0 	mov	x0, x21
    810c:	97fffdeb 	bl	78b8 <line_delete>
    8110:	f9406e7a 	ldr	x26, [x19, #216]
    8114:	b500009a 	cbnz	x26, 8124 <shell_main+0x5d4>
    8118:	140000e2 	b	84a0 <shell_main+0x950>
    811c:	f940075a 	ldr	x26, [x26, #8]
    8120:	b4001c1a 	cbz	x26, 84a0 <shell_main+0x950>
    8124:	9100435c 	add	x28, x26, #0x10
    8128:	aa1503e1 	mov	x1, x21
    812c:	aa1c03e0 	mov	x0, x28
    8130:	97ffe762 	bl	1eb8 <strstr>
    8134:	b4ffff40 	cbz	x0, 811c <shell_main+0x5cc>
    8138:	3900031f 	strb	wzr, [x24]
    813c:	29087f1f 	stp	wzr, wzr, [x24, #64]
    8140:	39404341 	ldrb	w1, [x26, #16]
    8144:	350000a1 	cbnz	w1, 8158 <shell_main+0x608>
    8148:	52800063 	mov	w3, #0x3                   	// #3
    814c:	14000008 	b	816c <shell_main+0x61c>
    8150:	38401f81 	ldrb	w1, [x28, #1]!
    8154:	34000081 	cbz	w1, 8164 <shell_main+0x614>
    8158:	aa1803e0 	mov	x0, x24
    815c:	97fffded 	bl	7910 <line_insert>
    8160:	34ffff80 	cbz	w0, 8150 <shell_main+0x600>
    8164:	b9417263 	ldr	w3, [x19, #368]
    8168:	11000c63 	add	w3, w3, #0x3
    816c:	f9400660 	ldr	x0, [x19, #8]
    8170:	aa1803e2 	mov	x2, x24
    8174:	aa1b03e1 	mov	x1, x27
    8178:	94001254 	bl	cac8 <std_fprintf>
    817c:	17ffffcb 	b	80a8 <shell_main+0x558>
    8180:	71001c3f 	cmp	w1, #0x7
    8184:	540001a1 	b.ne	81b8 <shell_main+0x668>  // b.any
    8188:	aa1503e1 	mov	x1, x21
    818c:	aa1303e0 	mov	x0, x19
    8190:	97fffdb2 	bl	7858 <restore_previous_line>
    8194:	294e5676 	ldp	w22, w21, [x19, #112]
    8198:	17fffeda 	b	7d00 <shell_main+0x1b0>
    819c:	f9400660 	ldr	x0, [x19, #8]
    81a0:	f01fffc1 	adrp	x1, 40003000 <state_fmt+0x388>
    81a4:	91350021 	add	x1, x1, #0xd40
    81a8:	94001248 	bl	cac8 <std_fprintf>
    81ac:	52800020 	mov	w0, #0x1                   	// #1
    81b0:	b900ca60 	str	w0, [x19, #200]
    81b4:	17fffeab 	b	7c60 <shell_main+0x110>
    81b8:	97ffe692 	bl	1c00 <__locale_ctype_ptr>
    81bc:	394243a1 	ldrb	w1, [x29, #144]
    81c0:	528012e2 	mov	w2, #0x97                  	// #151
    81c4:	8b210000 	add	x0, x0, w1, uxtb
    81c8:	39400400 	ldrb	w0, [x0, #1]
    81cc:	6a00005f 	tst	w2, w0
    81d0:	54001ce0 	b.eq	856c <shell_main+0xa1c>  // b.none
    81d4:	aa1503e0 	mov	x0, x21
    81d8:	97fffdce 	bl	7910 <line_insert>
    81dc:	35fff660 	cbnz	w0, 80a8 <shell_main+0x558>
    81e0:	394243a2 	ldrb	w2, [x29, #144]
    81e4:	f01fffc1 	adrp	x1, 40003000 <state_fmt+0x388>
    81e8:	f9400660 	ldr	x0, [x19, #8]
    81ec:	91396021 	add	x1, x1, #0xe58
    81f0:	94001236 	bl	cac8 <std_fprintf>
    81f4:	f9406e7a 	ldr	x26, [x19, #216]
    81f8:	b500009a 	cbnz	x26, 8208 <shell_main+0x6b8>
    81fc:	140000a9 	b	84a0 <shell_main+0x950>
    8200:	f940075a 	ldr	x26, [x26, #8]
    8204:	b40014fa 	cbz	x26, 84a0 <shell_main+0x950>
    8208:	9100435c 	add	x28, x26, #0x10
    820c:	aa1503e1 	mov	x1, x21
    8210:	aa1c03e0 	mov	x0, x28
    8214:	97ffe729 	bl	1eb8 <strstr>
    8218:	b4ffff40 	cbz	x0, 8200 <shell_main+0x6b0>
    821c:	3900031f 	strb	wzr, [x24]
    8220:	29087f1f 	stp	wzr, wzr, [x24, #64]
    8224:	39404341 	ldrb	w1, [x26, #16]
    8228:	35000081 	cbnz	w1, 8238 <shell_main+0x6e8>
    822c:	17ffffc7 	b	8148 <shell_main+0x5f8>
    8230:	38401f81 	ldrb	w1, [x28, #1]!
    8234:	34fff981 	cbz	w1, 8164 <shell_main+0x614>
    8238:	aa1803e0 	mov	x0, x24
    823c:	97fffdb5 	bl	7910 <line_insert>
    8240:	34ffff80 	cbz	w0, 8230 <shell_main+0x6e0>
    8244:	17ffffc8 	b	8164 <shell_main+0x614>
    8248:	b900c260 	str	w0, [x19, #192]
    824c:	17ffff97 	b	80a8 <shell_main+0x558>
    8250:	6b16037f 	cmp	w27, w22
    8254:	54000fab 	b.lt	8448 <shell_main+0x8f8>  // b.tstop
    8258:	901ffff5 	adrp	x21, 40004000 <state_fmt+0x1388>
    825c:	6b1b031f 	cmp	w24, w27
    8260:	913342b5 	add	x21, x21, #0xcd0
    8264:	540000ea 	b.ge	8280 <shell_main+0x730>  // b.tcont
    8268:	f9400660 	ldr	x0, [x19, #8]
    826c:	aa1503e1 	mov	x1, x21
    8270:	11000718 	add	w24, w24, #0x1
    8274:	94001215 	bl	cac8 <std_fprintf>
    8278:	6b18037f 	cmp	w27, w24
    827c:	54ffff61 	b.ne	8268 <shell_main+0x718>  // b.any
    8280:	f01fffd5 	adrp	x21, 40003000 <state_fmt+0x388>
    8284:	6b16037f 	cmp	w27, w22
    8288:	913562b5 	add	x21, x21, #0xd58
    828c:	54ffd56d 	b.le	7d38 <shell_main+0x1e8>
    8290:	f9400660 	ldr	x0, [x19, #8]
    8294:	aa1503e1 	mov	x1, x21
    8298:	110006d6 	add	w22, w22, #0x1
    829c:	9400120b 	bl	cac8 <std_fprintf>
    82a0:	6b16037f 	cmp	w27, w22
    82a4:	54ffff61 	b.ne	8290 <shell_main+0x740>  // b.any
    82a8:	17fffea4 	b	7d38 <shell_main+0x1e8>
    82ac:	54ffe301 	b.ne	7f0c <shell_main+0x3bc>  // b.any
    82b0:	910223a2 	add	x2, x29, #0x88
    82b4:	910203a1 	add	x1, x29, #0x80
    82b8:	aa1603e0 	mov	x0, x22
    82bc:	94000be3 	bl	b248 <fs_split>
    82c0:	f9400660 	ldr	x0, [x19, #8]
    82c4:	b01fffe1 	adrp	x1, 40005000 <state_fmt+0x2388>
    82c8:	9118a021 	add	x1, x1, #0x628
    82cc:	940011ff 	bl	cac8 <std_fprintf>
    82d0:	f9400662 	ldr	x2, [x19, #8]
    82d4:	a94807a0 	ldp	x0, x1, [x29, #128]
    82d8:	94000b06 	bl	aef0 <fs_list>
    82dc:	f9400660 	ldr	x0, [x19, #8]
    82e0:	f01fffc1 	adrp	x1, 40003000 <state_fmt+0x388>
    82e4:	aa1403e2 	mov	x2, x20
    82e8:	91386021 	add	x1, x1, #0xe18
    82ec:	940011f7 	bl	cac8 <std_fprintf>
    82f0:	b9407675 	ldr	w21, [x19, #116]
    82f4:	17ffff07 	b	7f10 <shell_main+0x3c0>
    82f8:	f01fffc1 	adrp	x1, 40003000 <state_fmt+0x388>
    82fc:	9135c021 	add	x1, x1, #0xd70
    8300:	940011f2 	bl	cac8 <std_fprintf>
    8304:	f9400660 	ldr	x0, [x19, #8]
    8308:	17ffff63 	b	8094 <shell_main+0x544>
    830c:	f9406e60 	ldr	x0, [x19, #216]
    8310:	b40000a0 	cbz	x0, 8324 <shell_main+0x7d4>
    8314:	aa1403e1 	mov	x1, x20
    8318:	91004000 	add	x0, x0, #0x10
    831c:	97ffe6a5 	bl	1db0 <strcmp>
    8320:	34000f60 	cbz	w0, 850c <shell_main+0x9bc>
    8324:	aa1403e0 	mov	x0, x20
    8328:	91072276 	add	x22, x19, #0x1c8
    832c:	97ffe695 	bl	1d80 <strlen>
    8330:	91006417 	add	x23, x0, #0x19
    8334:	aa1703e1 	mov	x1, x23
    8338:	aa1603e0 	mov	x0, x22
    833c:	97ffe735 	bl	2010 <circular_heap_alloc>
    8340:	aa0003f5 	mov	x21, x0
    8344:	b40008e0 	cbz	x0, 8460 <shell_main+0x910>
    8348:	aa1403e1 	mov	x1, x20
    834c:	91004000 	add	x0, x0, #0x10
    8350:	97ffe6c4 	bl	1e60 <strcpy>
    8354:	f9406a60 	ldr	x0, [x19, #208]
    8358:	f90002bf 	str	xzr, [x21]
    835c:	b4000f60 	cbz	x0, 8548 <shell_main+0x9f8>
    8360:	f9406e60 	ldr	x0, [x19, #216]
    8364:	f90006a0 	str	x0, [x21, #8]
    8368:	f9000015 	str	x21, [x0]
    836c:	b9407260 	ldr	w0, [x19, #112]
    8370:	f9006e75 	str	x21, [x19, #216]
    8374:	f900727f 	str	xzr, [x19, #224]
    8378:	7100001f 	cmp	w0, #0x0
    837c:	540017ed 	b.le	8678 <shell_main+0xb28>
    8380:	aa1403e0 	mov	x0, x20
    8384:	d2800001 	mov	x1, #0x0                   	// #0
    8388:	94001370 	bl	d148 <std_strip>
    838c:	aa0003f4 	mov	x20, x0
    8390:	39400000 	ldrb	w0, [x0]
    8394:	71008c1f 	cmp	w0, #0x23
    8398:	54ffd680 	b.eq	7e68 <shell_main+0x318>  // b.none
    839c:	7100bc1f 	cmp	w0, #0x2f
    83a0:	f01fffc1 	adrp	x1, 40003000 <state_fmt+0x388>
    83a4:	9a941695 	cinc	x21, x20, eq  // eq = none
    83a8:	d28000c2 	mov	x2, #0x6                   	// #6
    83ac:	913a0021 	add	x1, x1, #0xe80
    83b0:	aa1503e0 	mov	x0, x21
    83b4:	97fffdb9 	bl	7a98 <shell_command_compare>
    83b8:	340007c0 	cbz	w0, 84b0 <shell_main+0x960>
    83bc:	a9400a61 	ldp	x1, x2, [x19]
    83c0:	aa1303e3 	mov	x3, x19
    83c4:	aa1403e0 	mov	x0, x20
    83c8:	94000794 	bl	a218 <fs_call>
    83cc:	17fffdef 	b	7b88 <shell_main+0x38>
    83d0:	f9400260 	ldr	x0, [x19]
    83d4:	aa1603e1 	mov	x1, x22
    83d8:	94000d0a 	bl	b800 <chan_read>
    83dc:	f100041f 	cmp	x0, #0x1
    83e0:	54ffe2a1 	b.ne	8034 <shell_main+0x4e4>  // b.any
    83e4:	394243a0 	ldrb	w0, [x29, #144]
    83e8:	71010c1f 	cmp	w0, #0x43
    83ec:	54000b40 	b.eq	8554 <shell_main+0xa04>  // b.none
    83f0:	54000928 	b.hi	8514 <shell_main+0x9c4>  // b.pmore
    83f4:	7101041f 	cmp	w0, #0x41
    83f8:	54ffe1e3 	b.cc	8034 <shell_main+0x4e4>  // b.lo, b.ul, b.last
    83fc:	f9407260 	ldr	x0, [x19, #224]
    8400:	54001100 	b.eq	8620 <shell_main+0xad0>  // b.none
    8404:	b4000f20 	cbz	x0, 85e8 <shell_main+0xa98>
    8408:	f9400015 	ldr	x21, [x0]
    840c:	f9007275 	str	x21, [x19, #224]
    8410:	b4000ed5 	cbz	x21, 85e8 <shell_main+0xa98>
    8414:	910042b5 	add	x21, x21, #0x10
    8418:	3900029f 	strb	wzr, [x20]
    841c:	29087e9f 	stp	wzr, wzr, [x20, #64]
    8420:	394002a1 	ldrb	w1, [x21]
    8424:	35000081 	cbnz	w1, 8434 <shell_main+0x8e4>
    8428:	14000091 	b	866c <shell_main+0xb1c>
    842c:	38401ea1 	ldrb	w1, [x21, #1]!
    8430:	34ffe021 	cbz	w1, 8034 <shell_main+0x4e4>
    8434:	aa1403e0 	mov	x0, x20
    8438:	97fffd36 	bl	7910 <line_insert>
    843c:	34ffff80 	cbz	w0, 842c <shell_main+0x8dc>
    8440:	294e5676 	ldp	w22, w21, [x19, #112]
    8444:	17fffe2f 	b	7d00 <shell_main+0x1b0>
    8448:	f9400660 	ldr	x0, [x19, #8]
    844c:	f01fffc1 	adrp	x1, 40003000 <state_fmt+0x388>
    8450:	8b38c282 	add	x2, x20, w24, sxtw
    8454:	9135a021 	add	x1, x1, #0xd68
    8458:	9400119c 	bl	cac8 <std_fprintf>
    845c:	17fffe37 	b	7d38 <shell_main+0x1e8>
    8460:	f9406a61 	ldr	x1, [x19, #208]
    8464:	b4000541 	cbz	x1, 850c <shell_main+0x9bc>
    8468:	f9406e60 	ldr	x0, [x19, #216]
    846c:	eb00003f 	cmp	x1, x0
    8470:	540007a0 	b.eq	8564 <shell_main+0xa14>  // b.none
    8474:	f9400020 	ldr	x0, [x1]
    8478:	f9006a60 	str	x0, [x19, #208]
    847c:	f900041f 	str	xzr, [x0, #8]
    8480:	aa1603e0 	mov	x0, x22
    8484:	97ffe713 	bl	20d0 <circular_heap_free>
    8488:	17ffffab 	b	8334 <shell_main+0x7e4>
    848c:	f01fffc1 	adrp	x1, 40003000 <state_fmt+0x388>
    8490:	9139e021 	add	x1, x1, #0xe78
    8494:	9400118d 	bl	cac8 <std_fprintf>
    8498:	f9400660 	ldr	x0, [x19, #8]
    849c:	17fffe6d 	b	7e50 <shell_main+0x300>
    84a0:	3900031f 	strb	wzr, [x24]
    84a4:	52800063 	mov	w3, #0x3                   	// #3
    84a8:	29087f1f 	stp	wzr, wzr, [x24, #64]
    84ac:	17ffff30 	b	816c <shell_main+0x61c>
    84b0:	f01fffc1 	adrp	x1, 40003000 <state_fmt+0x388>
    84b4:	d28000e2 	mov	x2, #0x7                   	// #7
    84b8:	913a2021 	add	x1, x1, #0xe88
    84bc:	aa1503e0 	mov	x0, x21
    84c0:	97fffd76 	bl	7a98 <shell_command_compare>
    84c4:	35fff7c0 	cbnz	w0, 83bc <shell_main+0x86c>
    84c8:	f01fffc1 	adrp	x1, 40003000 <state_fmt+0x388>
    84cc:	d2800082 	mov	x2, #0x4                   	// #4
    84d0:	913a4021 	add	x1, x1, #0xe90
    84d4:	aa1503e0 	mov	x0, x21
    84d8:	97fffd70 	bl	7a98 <shell_command_compare>
    84dc:	35fff700 	cbnz	w0, 83bc <shell_main+0x86c>
    84e0:	a9400a61 	ldp	x1, x2, [x19]
    84e4:	aa1403e0 	mov	x0, x20
    84e8:	f9400a63 	ldr	x3, [x19, #16]
    84ec:	9400074b 	bl	a218 <fs_call>
    84f0:	2a0003e2 	mov	w2, w0
    84f4:	35000200 	cbnz	w0, 8534 <shell_main+0x9e4>
    84f8:	f9400660 	ldr	x0, [x19, #8]
    84fc:	f01fffc1 	adrp	x1, 40003000 <state_fmt+0x388>
    8500:	913a6021 	add	x1, x1, #0xe98
    8504:	94001171 	bl	cac8 <std_fprintf>
    8508:	17fffe58 	b	7e68 <shell_main+0x318>
    850c:	b9407260 	ldr	w0, [x19, #112]
    8510:	17ffff99 	b	8374 <shell_main+0x824>
    8514:	7101101f 	cmp	w0, #0x44
    8518:	54ffd8e1 	b.ne	8034 <shell_main+0x4e4>  // b.any
    851c:	294e5676 	ldp	w22, w21, [x19, #112]
    8520:	710002bf 	cmp	w21, #0x0
    8524:	54ffbeed 	b.le	7d00 <shell_main+0x1b0>
    8528:	510006b5 	sub	w21, w21, #0x1
    852c:	b9007675 	str	w21, [x19, #116]
    8530:	17fffdf4 	b	7d00 <shell_main+0x1b0>
    8534:	f9400660 	ldr	x0, [x19, #8]
    8538:	f01fffc1 	adrp	x1, 40003000 <state_fmt+0x388>
    853c:	913a8021 	add	x1, x1, #0xea0
    8540:	94001162 	bl	cac8 <std_fprintf>
    8544:	17fffe49 	b	7e68 <shell_main+0x318>
    8548:	f90006bf 	str	xzr, [x21, #8]
    854c:	f9006a75 	str	x21, [x19, #208]
    8550:	17ffff87 	b	836c <shell_main+0x81c>
    8554:	294e5676 	ldp	w22, w21, [x19, #112]
    8558:	6b1502df 	cmp	w22, w21
    855c:	54ffbd2d 	b.le	7d00 <shell_main+0x1b0>
    8560:	17fffde5 	b	7cf4 <shell_main+0x1a4>
    8564:	a90d7e7f 	stp	xzr, xzr, [x19, #208]
    8568:	17ffffc6 	b	8480 <shell_main+0x930>
    856c:	aa1503e1 	mov	x1, x21
    8570:	aa1303e0 	mov	x0, x19
    8574:	97fffcb9 	bl	7858 <restore_previous_line>
    8578:	d2800902 	mov	x2, #0x48                  	// #72
    857c:	aa1803e1 	mov	x1, x24
    8580:	aa1403e0 	mov	x0, x20
    8584:	97ffe5a3 	bl	1c10 <memcpy>
    8588:	394243a0 	ldrb	w0, [x29, #144]
    858c:	7100281f 	cmp	w0, #0xa
    8590:	54000240 	b.eq	85d8 <shell_main+0xa88>  // b.none
    8594:	71006c1f 	cmp	w0, #0x1b
    8598:	54ffd4e1 	b.ne	8034 <shell_main+0x4e4>  // b.any
    859c:	f9400260 	ldr	x0, [x19]
    85a0:	d2800022 	mov	x2, #0x1                   	// #1
    85a4:	aa1603e1 	mov	x1, x22
    85a8:	94000c96 	bl	b800 <chan_read>
    85ac:	aa0003e2 	mov	x2, x0
    85b0:	f100041f 	cmp	x0, #0x1
    85b4:	54ffd401 	b.ne	8034 <shell_main+0x4e4>  // b.any
    85b8:	394243a0 	ldrb	w0, [x29, #144]
    85bc:	7101901f 	cmp	w0, #0x64
    85c0:	54ffd3a0 	b.eq	8034 <shell_main+0x4e4>  // b.none
    85c4:	f9400260 	ldr	x0, [x19]
    85c8:	aa1603e1 	mov	x1, x22
    85cc:	94000c8d 	bl	b800 <chan_read>
    85d0:	294e5676 	ldp	w22, w21, [x19, #112]
    85d4:	17fffdcb 	b	7d00 <shell_main+0x1b0>
    85d8:	52800020 	mov	w0, #0x1                   	// #1
    85dc:	b900c660 	str	w0, [x19, #196]
    85e0:	294e5676 	ldp	w22, w21, [x19, #112]
    85e4:	17fffdc7 	b	7d00 <shell_main+0x1b0>
    85e8:	b941c260 	ldr	w0, [x19, #448]
    85ec:	7100041f 	cmp	w0, #0x1
    85f0:	54ffd221 	b.ne	8034 <shell_main+0x4e4>  // b.any
    85f4:	9105e275 	add	x21, x19, #0x178
    85f8:	b901c27f 	str	wzr, [x19, #448]
    85fc:	17ffff87 	b	8418 <shell_main+0x8c8>
    8600:	f01fffc0 	adrp	x0, 40003000 <state_fmt+0x388>
    8604:	91360000 	add	x0, x0, #0xd80
    8608:	9400108c 	bl	c838 <std_printf>
    860c:	901fffc1 	adrp	x1, 40000000 <__ram_begin>
    8610:	528002c0 	mov	w0, #0x16                  	// #22
    8614:	f9400421 	ldr	x1, [x1, #8]
    8618:	d63f0020 	blr	x1
    861c:	17fffd56 	b	7b74 <shell_main+0x24>
    8620:	f9406a61 	ldr	x1, [x19, #208]
    8624:	eb00003f 	cmp	x1, x0
    8628:	54ffd060 	b.eq	8034 <shell_main+0x4e4>  // b.none
    862c:	b40000e0 	cbz	x0, 8648 <shell_main+0xaf8>
    8630:	f9400416 	ldr	x22, [x0, #8]
    8634:	f9007276 	str	x22, [x19, #224]
    8638:	910042d5 	add	x21, x22, #0x10
    863c:	b5ffeef6 	cbnz	x22, 8418 <shell_main+0x8c8>
    8640:	294e5676 	ldp	w22, w21, [x19, #112]
    8644:	17fffdaf 	b	7d00 <shell_main+0x1b0>
    8648:	f9406e76 	ldr	x22, [x19, #216]
    864c:	d2800902 	mov	x2, #0x48                  	// #72
    8650:	f9007276 	str	x22, [x19, #224]
    8654:	aa1403e1 	mov	x1, x20
    8658:	9105e260 	add	x0, x19, #0x178
    865c:	97ffe56d 	bl	1c10 <memcpy>
    8660:	52800020 	mov	w0, #0x1                   	// #1
    8664:	b901c260 	str	w0, [x19, #448]
    8668:	17fffff4 	b	8638 <shell_main+0xae8>
    866c:	52800015 	mov	w21, #0x0                   	// #0
    8670:	52800016 	mov	w22, #0x0                   	// #0
    8674:	17fffda3 	b	7d00 <shell_main+0x1b0>
    8678:	3100141f 	cmn	w0, #0x5
    867c:	54ffae00 	b.eq	7c3c <shell_main+0xec>  // b.none
    8680:	17fffdfa 	b	7e68 <shell_main+0x318>
    8684:	00000000 	.inst	0x00000000 ; undefined

0000000000008688 <cache_flush>:
    8688:	a9bd7bfd 	stp	x29, x30, [sp, #-48]!
    868c:	910003fd 	mov	x29, sp
    8690:	f9000ff4 	str	x20, [sp, #24]
    8694:	9100d014 	add	x20, x0, #0x34
    8698:	39401281 	ldrb	w1, [x20, #4]
    869c:	34000341 	cbz	w1, 8704 <cache_flush+0x7c>
    86a0:	f9000bb3 	str	x19, [x29, #16]
    86a4:	aa0003f3 	mov	x19, x0
    86a8:	f90013b5 	str	x21, [x29, #32]
    86ac:	91010015 	add	x21, x0, #0x40
    86b0:	b9403401 	ldr	w1, [x0, #52]
    86b4:	aa1503e2 	mov	x2, x21
    86b8:	a9408003 	ldp	x3, x0, [x0, #8]
    86bc:	d63f0060 	blr	x3
    86c0:	f108001f 	cmp	x0, #0x200
    86c4:	54000281 	b.ne	8714 <cache_flush+0x8c>  // b.any
    86c8:	b9400a81 	ldr	w1, [x20, #8]
    86cc:	340000e1 	cbz	w1, 86e8 <cache_flush+0x60>
    86d0:	a9408263 	ldp	x3, x0, [x19, #8]
    86d4:	aa1503e2 	mov	x2, x21
    86d8:	d63f0060 	blr	x3
    86dc:	f108001f 	cmp	x0, #0x200
    86e0:	540001a1 	b.ne	8714 <cache_flush+0x8c>  // b.any
    86e4:	b9000a9f 	str	wzr, [x20, #8]
    86e8:	3900129f 	strb	wzr, [x20, #4]
    86ec:	52800000 	mov	w0, #0x0                   	// #0
    86f0:	f9400bb3 	ldr	x19, [x29, #16]
    86f4:	f94013b5 	ldr	x21, [x29, #32]
    86f8:	f9400ff4 	ldr	x20, [sp, #24]
    86fc:	a8c37bfd 	ldp	x29, x30, [sp], #48
    8700:	d65f03c0 	ret
    8704:	52800000 	mov	w0, #0x0                   	// #0
    8708:	f9400ff4 	ldr	x20, [sp, #24]
    870c:	a8c37bfd 	ldp	x29, x30, [sp], #48
    8710:	d65f03c0 	ret
    8714:	12800000 	mov	w0, #0xffffffff            	// #-1
    8718:	f9400bb3 	ldr	x19, [x29, #16]
    871c:	f94013b5 	ldr	x21, [x29, #32]
    8720:	17fffff6 	b	86f8 <cache_flush+0x70>
    8724:	00000000 	.inst	0x00000000 ; undefined

0000000000008728 <cache_raw_block>:
    8728:	a9bd7bfd 	stp	x29, x30, [sp, #-48]!
    872c:	910003fd 	mov	x29, sp
    8730:	a90153f3 	stp	x19, x20, [sp, #16]
    8734:	aa0003f3 	mov	x19, x0
    8738:	f90013f5 	str	x21, [sp, #32]
    873c:	2a0103f5 	mov	w21, w1
    8740:	b9403401 	ldr	w1, [x0, #52]
    8744:	12001c54 	and	w20, w2, #0xff
    8748:	6b15003f 	cmp	w1, w21
    874c:	54000121 	b.ne	8770 <cache_raw_block+0x48>  // b.any
    8750:	3940e261 	ldrb	w1, [x19, #56]
    8754:	52800000 	mov	w0, #0x0                   	// #0
    8758:	2a010294 	orr	w20, w20, w1
    875c:	3900e274 	strb	w20, [x19, #56]
    8760:	a94153f3 	ldp	x19, x20, [sp, #16]
    8764:	f94013f5 	ldr	x21, [sp, #32]
    8768:	a8c37bfd 	ldp	x29, x30, [sp], #48
    876c:	d65f03c0 	ret
    8770:	97ffffc6 	bl	8688 <cache_flush>
    8774:	35000140 	cbnz	w0, 879c <cache_raw_block+0x74>
    8778:	f9400263 	ldr	x3, [x19]
    877c:	2a1503e2 	mov	w2, w21
    8780:	f9400a60 	ldr	x0, [x19, #16]
    8784:	91010261 	add	x1, x19, #0x40
    8788:	d63f0060 	blr	x3
    878c:	f108001f 	cmp	x0, #0x200
    8790:	54000061 	b.ne	879c <cache_raw_block+0x74>  // b.any
    8794:	b9003675 	str	w21, [x19, #52]
    8798:	17ffffee 	b	8750 <cache_raw_block+0x28>
    879c:	12800000 	mov	w0, #0xffffffff            	// #-1
    87a0:	17fffff0 	b	8760 <cache_raw_block+0x38>
    87a4:	00000000 	.inst	0x00000000 ; undefined

00000000000087a8 <fat_get>:
    87a8:	a9bd7bfd 	stp	x29, x30, [sp, #-48]!
    87ac:	910003fd 	mov	x29, sp
    87b0:	f9000ff4 	str	x20, [sp, #24]
    87b4:	12003c34 	and	w20, w1, #0xffff
    87b8:	79404401 	ldrh	w1, [x0, #34]
    87bc:	11000421 	add	w1, w1, #0x1
    87c0:	6b01029f 	cmp	w20, w1
    87c4:	5400030c 	b.gt	8824 <fat_get+0x7c>
    87c8:	b9402801 	ldr	w1, [x0, #40]
    87cc:	f9000bb3 	str	x19, [x29, #16]
    87d0:	aa0003f3 	mov	x19, x0
    87d4:	f90013b5 	str	x21, [x29, #32]
    87d8:	aa0203f5 	mov	x21, x2
    87dc:	b9403402 	ldr	w2, [x0, #52]
    87e0:	0b542021 	add	w1, w1, w20, lsr #8
    87e4:	6b01005f 	cmp	w2, w1
    87e8:	54000141 	b.ne	8810 <fat_get+0x68>  // b.any
    87ec:	8b340673 	add	x19, x19, w20, uxtb #1
    87f0:	52800000 	mov	w0, #0x0                   	// #0
    87f4:	79408261 	ldrh	w1, [x19, #64]
    87f8:	790002a1 	strh	w1, [x21]
    87fc:	f9400bb3 	ldr	x19, [x29, #16]
    8800:	f94013b5 	ldr	x21, [x29, #32]
    8804:	f9400ff4 	ldr	x20, [sp, #24]
    8808:	a8c37bfd 	ldp	x29, x30, [sp], #48
    880c:	d65f03c0 	ret
    8810:	52800002 	mov	w2, #0x0                   	// #0
    8814:	97ffffc5 	bl	8728 <cache_raw_block>
    8818:	34fffea0 	cbz	w0, 87ec <fat_get+0x44>
    881c:	f9400bb3 	ldr	x19, [x29, #16]
    8820:	f94013b5 	ldr	x21, [x29, #32]
    8824:	12800000 	mov	w0, #0xffffffff            	// #-1
    8828:	17fffff7 	b	8804 <fat_get+0x5c>
    882c:	00000000 	.inst	0x00000000 ; undefined

0000000000008830 <fat_put>:
    8830:	a9bd7bfd 	stp	x29, x30, [sp, #-48]!
    8834:	910003fd 	mov	x29, sp
    8838:	f9000ff4 	str	x20, [sp, #24]
    883c:	12003c34 	and	w20, w1, #0xffff
    8840:	7100069f 	cmp	w20, #0x1
    8844:	540004a9 	b.ls	88d8 <fat_put+0xa8>  // b.plast
    8848:	79404401 	ldrh	w1, [x0, #34]
    884c:	f9000bb3 	str	x19, [x29, #16]
    8850:	aa0003f3 	mov	x19, x0
    8854:	11000421 	add	w1, w1, #0x1
    8858:	6b01029f 	cmp	w20, w1
    885c:	540004ec 	b.gt	88f8 <fat_put+0xc8>
    8860:	a9025bb5 	stp	x21, x22, [x29, #32]
    8864:	12003c56 	and	w22, w2, #0xffff
    8868:	b9402815 	ldr	w21, [x0, #40]
    886c:	b9403401 	ldr	w1, [x0, #52]
    8870:	0b5422b5 	add	w21, w21, w20, lsr #8
    8874:	6b15003f 	cmp	w1, w21
    8878:	54000241 	b.ne	88c0 <fat_put+0x90>  // b.any
    887c:	8b340674 	add	x20, x19, w20, uxtb #1
    8880:	79008296 	strh	w22, [x20, #64]
    8884:	3940e260 	ldrb	w0, [x19, #56]
    8888:	39407261 	ldrb	w1, [x19, #28]
    888c:	32000000 	orr	w0, w0, #0x1
    8890:	3900e260 	strb	w0, [x19, #56]
    8894:	7100043f 	cmp	w1, #0x1
    8898:	54000249 	b.ls	88e0 <fat_put+0xb0>  // b.plast
    889c:	79404261 	ldrh	w1, [x19, #32]
    88a0:	52800000 	mov	w0, #0x0                   	// #0
    88a4:	0b150035 	add	w21, w1, w21
    88a8:	b9003e75 	str	w21, [x19, #60]
    88ac:	f9400bb3 	ldr	x19, [x29, #16]
    88b0:	a9425bb5 	ldp	x21, x22, [x29, #32]
    88b4:	f9400ff4 	ldr	x20, [sp, #24]
    88b8:	a8c37bfd 	ldp	x29, x30, [sp], #48
    88bc:	d65f03c0 	ret
    88c0:	52800002 	mov	w2, #0x0                   	// #0
    88c4:	2a1503e1 	mov	w1, w21
    88c8:	97ffff98 	bl	8728 <cache_raw_block>
    88cc:	34fffd80 	cbz	w0, 887c <fat_put+0x4c>
    88d0:	f9400bb3 	ldr	x19, [x29, #16]
    88d4:	a9425bb5 	ldp	x21, x22, [x29, #32]
    88d8:	12800000 	mov	w0, #0xffffffff            	// #-1
    88dc:	17fffff6 	b	88b4 <fat_put+0x84>
    88e0:	52800000 	mov	w0, #0x0                   	// #0
    88e4:	f9400bb3 	ldr	x19, [x29, #16]
    88e8:	a9425bb5 	ldp	x21, x22, [x29, #32]
    88ec:	f9400ff4 	ldr	x20, [sp, #24]
    88f0:	a8c37bfd 	ldp	x29, x30, [sp], #48
    88f4:	d65f03c0 	ret
    88f8:	f9400bb3 	ldr	x19, [x29, #16]
    88fc:	12800000 	mov	w0, #0xffffffff            	// #-1
    8900:	17ffffed 	b	88b4 <fat_put+0x84>
    8904:	00000000 	.inst	0x00000000 ; undefined

0000000000008908 <free_chain>:
    8908:	a9bc7bfd 	stp	x29, x30, [sp, #-64]!
    890c:	910003fd 	mov	x29, sp
    8910:	a90153f3 	stp	x19, x20, [sp, #16]
    8914:	aa0003f4 	mov	x20, x0
    8918:	f90013f5 	str	x21, [sp, #32]
    891c:	12003c33 	and	w19, w1, #0xffff
    8920:	529ffef5 	mov	w21, #0xfff7                	// #65527
    8924:	14000009 	b	8948 <free_chain+0x40>
    8928:	2a1303e1 	mov	w1, w19
    892c:	52800002 	mov	w2, #0x0                   	// #0
    8930:	aa1403e0 	mov	x0, x20
    8934:	97ffffbf 	bl	8830 <fat_put>
    8938:	35000120 	cbnz	w0, 895c <free_chain+0x54>
    893c:	79407fb3 	ldrh	w19, [x29, #62]
    8940:	6b15027f 	cmp	w19, w21
    8944:	540000e8 	b.hi	8960 <free_chain+0x58>  // b.pmore
    8948:	2a1303e1 	mov	w1, w19
    894c:	9100fba2 	add	x2, x29, #0x3e
    8950:	aa1403e0 	mov	x0, x20
    8954:	97ffff95 	bl	87a8 <fat_get>
    8958:	34fffe80 	cbz	w0, 8928 <free_chain+0x20>
    895c:	12800000 	mov	w0, #0xffffffff            	// #-1
    8960:	a94153f3 	ldp	x19, x20, [sp, #16]
    8964:	f94013f5 	ldr	x21, [sp, #32]
    8968:	a8c47bfd 	ldp	x29, x30, [sp], #64
    896c:	d65f03c0 	ret

0000000000008970 <add_cluster>:
    8970:	a9bb7bfd 	stp	x29, x30, [sp, #-80]!
    8974:	910003fd 	mov	x29, sp
    8978:	a90153f3 	stp	x19, x20, [sp, #16]
    897c:	a9025bf5 	stp	x21, x22, [sp, #32]
    8980:	aa0003f6 	mov	x22, x0
    8984:	79403014 	ldrh	w20, [x0, #24]
    8988:	f9400000 	ldr	x0, [x0]
    898c:	7100029f 	cmp	w20, #0x0
    8990:	1a9f1694 	csinc	w20, w20, wzr, ne  // ne = any
    8994:	79404415 	ldrh	w21, [x0, #34]
    8998:	340002b5 	cbz	w21, 89ec <add_cluster+0x7c>
    899c:	f9001bb7 	str	x23, [x29, #48]
    89a0:	52800013 	mov	w19, #0x0                   	// #0
    89a4:	52800057 	mov	w23, #0x2                   	// #2
    89a8:	14000007 	b	89c4 <add_cluster+0x54>
    89ac:	79409fa0 	ldrh	w0, [x29, #78]
    89b0:	12003e73 	and	w19, w19, #0xffff
    89b4:	6b1302bf 	cmp	w21, w19
    89b8:	34000260 	cbz	w0, 8a04 <add_cluster+0x94>
    89bc:	54000160 	b.eq	89e8 <add_cluster+0x78>  // b.none
    89c0:	f94002c0 	ldr	x0, [x22]
    89c4:	6b1402bf 	cmp	w21, w20
    89c8:	11000681 	add	w1, w20, #0x1
    89cc:	12003c34 	and	w20, w1, #0xffff
    89d0:	91013ba2 	add	x2, x29, #0x4e
    89d4:	1a972294 	csel	w20, w20, w23, cs  // cs = hs, nlast
    89d8:	11000673 	add	w19, w19, #0x1
    89dc:	2a1403e1 	mov	w1, w20
    89e0:	97ffff72 	bl	87a8 <fat_get>
    89e4:	34fffe40 	cbz	w0, 89ac <add_cluster+0x3c>
    89e8:	f9401bb7 	ldr	x23, [x29, #48]
    89ec:	12800013 	mov	w19, #0xffffffff            	// #-1
    89f0:	2a1303e0 	mov	w0, w19
    89f4:	a94153f3 	ldp	x19, x20, [sp, #16]
    89f8:	a9425bf5 	ldp	x21, x22, [sp, #32]
    89fc:	a8c57bfd 	ldp	x29, x30, [sp], #80
    8a00:	d65f03c0 	ret
    8a04:	f94002c0 	ldr	x0, [x22]
    8a08:	12800002 	mov	w2, #0xffffffff            	// #-1
    8a0c:	2a1403e1 	mov	w1, w20
    8a10:	97ffff88 	bl	8830 <fat_put>
    8a14:	2a0003f3 	mov	w19, w0
    8a18:	35fffe80 	cbnz	w0, 89e8 <add_cluster+0x78>
    8a1c:	794032c1 	ldrh	w1, [x22, #24]
    8a20:	35000181 	cbnz	w1, 8a50 <add_cluster+0xe0>
    8a24:	394022c0 	ldrb	w0, [x22, #8]
    8a28:	79001ed4 	strh	w20, [x22, #14]
    8a2c:	32196000 	orr	w0, w0, #0xffffff80
    8a30:	390022c0 	strb	w0, [x22, #8]
    8a34:	790032d4 	strh	w20, [x22, #24]
    8a38:	2a1303e0 	mov	w0, w19
    8a3c:	f9401bb7 	ldr	x23, [x29, #48]
    8a40:	a94153f3 	ldp	x19, x20, [sp, #16]
    8a44:	a9425bf5 	ldp	x21, x22, [sp, #32]
    8a48:	a8c57bfd 	ldp	x29, x30, [sp], #80
    8a4c:	d65f03c0 	ret
    8a50:	f94002c0 	ldr	x0, [x22]
    8a54:	2a1403e2 	mov	w2, w20
    8a58:	97ffff76 	bl	8830 <fat_put>
    8a5c:	34fffec0 	cbz	w0, 8a34 <add_cluster+0xc4>
    8a60:	f9401bb7 	ldr	x23, [x29, #48]
    8a64:	17ffffe2 	b	89ec <add_cluster+0x7c>

0000000000008a68 <dir_init>:
    8a68:	a9bd7bfd 	stp	x29, x30, [sp, #-48]!
    8a6c:	910003fd 	mov	x29, sp
    8a70:	a90153f3 	stp	x19, x20, [sp, #16]
    8a74:	aa0003f3 	mov	x19, x0
    8a78:	f90013f5 	str	x21, [sp, #32]
    8a7c:	12001c54 	and	w20, w2, #0xff
    8a80:	aa0103f5 	mov	x21, x1
    8a84:	d2800402 	mov	x2, #0x20                  	// #32
    8a88:	52800001 	mov	w1, #0x0                   	// #0
    8a8c:	97ffe491 	bl	1cd0 <memset>
    8a90:	aa1503e1 	mov	x1, x21
    8a94:	d2800162 	mov	x2, #0xb                   	// #11
    8a98:	aa1303e0 	mov	x0, x19
    8a9c:	97ffe45d 	bl	1c10 <memcpy>
    8aa0:	52800422 	mov	w2, #0x21                  	// #33
    8aa4:	52800501 	mov	w1, #0x28                  	// #40
    8aa8:	39002e74 	strb	w20, [x19, #11]
    8aac:	52800103 	mov	w3, #0x8                   	// #8
    8ab0:	39003a7f 	strb	wzr, [x19, #14]
    8ab4:	52800000 	mov	w0, #0x0                   	// #0
    8ab8:	39003e63 	strb	w3, [x19, #15]
    8abc:	39004262 	strb	w2, [x19, #16]
    8ac0:	39004661 	strb	w1, [x19, #17]
    8ac4:	39004a62 	strb	w2, [x19, #18]
    8ac8:	39004e61 	strb	w1, [x19, #19]
    8acc:	39005a7f 	strb	wzr, [x19, #22]
    8ad0:	39005e63 	strb	w3, [x19, #23]
    8ad4:	39006262 	strb	w2, [x19, #24]
    8ad8:	39006661 	strb	w1, [x19, #25]
    8adc:	a94153f3 	ldp	x19, x20, [sp, #16]
    8ae0:	f94013f5 	ldr	x21, [sp, #32]
    8ae4:	a8c37bfd 	ldp	x29, x30, [sp], #48
    8ae8:	d65f03c0 	ret
    8aec:	00000000 	.inst	0x00000000 ; undefined

0000000000008af0 <dir_open_in_blocks>:
    8af0:	a9ba7bfd 	stp	x29, x30, [sp, #-96]!
    8af4:	910003fd 	mov	x29, sp
    8af8:	f9001bf7 	str	x23, [sp, #48]
    8afc:	13003c97 	sxth	w23, w4
    8b00:	6b1700bf 	cmp	w5, w23
    8b04:	5400058d 	b.le	8bb4 <dir_open_in_blocks+0xc4>
    8b08:	a90153b3 	stp	x19, x20, [x29, #16]
    8b0c:	aa0003f4 	mov	x20, x0
    8b10:	a9025bb5 	stp	x21, x22, [x29, #32]
    8b14:	aa0303f6 	mov	x22, x3
    8b18:	a903e7b8 	stp	x24, x25, [x29, #56]
    8b1c:	aa0203f9 	mov	x25, x2
    8b20:	a904efba 	stp	x26, x27, [x29, #72]
    8b24:	aa0103f8 	mov	x24, x1
    8b28:	2a0503fa 	mov	w26, w5
    8b2c:	9101001b 	add	x27, x0, #0x40
    8b30:	f9002fbc 	str	x28, [x29, #88]
    8b34:	12003ef5 	and	w21, w23, #0xffff
    8b38:	aa1b03fc 	mov	x28, x27
    8b3c:	52800013 	mov	w19, #0x0                   	// #0
    8b40:	52800002 	mov	w2, #0x0                   	// #0
    8b44:	2a1503e1 	mov	w1, w21
    8b48:	aa1403e0 	mov	x0, x20
    8b4c:	97fffef7 	bl	8728 <cache_raw_block>
    8b50:	35000540 	cbnz	w0, 8bf8 <dir_open_in_blocks+0x108>
    8b54:	b400053c 	cbz	x28, 8bf8 <dir_open_in_blocks+0x108>
    8b58:	39400380 	ldrb	w0, [x28]
    8b5c:	7103941f 	cmp	w0, #0xe5
    8b60:	7a401804 	ccmp	w0, #0x0, #0x4, ne  // ne = any
    8b64:	54000381 	b.ne	8bd4 <dir_open_in_blocks+0xe4>  // b.any
    8b68:	79c002c1 	ldrsh	w1, [x22]
    8b6c:	37f802c1 	tbnz	w1, #31, 8bc4 <dir_open_in_blocks+0xd4>
    8b70:	34000180 	cbz	w0, 8ba0 <dir_open_in_blocks+0xb0>
    8b74:	11000664 	add	w4, w19, #0x1
    8b78:	9100839c 	add	x28, x28, #0x20
    8b7c:	12003c84 	and	w4, w4, #0xffff
    8b80:	7100409f 	cmp	w4, #0x10
    8b84:	13003c93 	sxth	w19, w4
    8b88:	54fffdc1 	b.ne	8b40 <dir_open_in_blocks+0x50>  // b.any
    8b8c:	110006b5 	add	w21, w21, #0x1
    8b90:	13003eb7 	sxth	w23, w21
    8b94:	6b1a02ff 	cmp	w23, w26
    8b98:	54fffceb 	b.lt	8b34 <dir_open_in_blocks+0x44>  // b.tstop
    8b9c:	d503201f 	nop
    8ba0:	a94153b3 	ldp	x19, x20, [x29, #16]
    8ba4:	a9425bb5 	ldp	x21, x22, [x29, #32]
    8ba8:	a943e7b8 	ldp	x24, x25, [x29, #56]
    8bac:	a944efba 	ldp	x26, x27, [x29, #72]
    8bb0:	f9402fbc 	ldr	x28, [x29, #88]
    8bb4:	52800000 	mov	w0, #0x0                   	// #0
    8bb8:	f9401bf7 	ldr	x23, [sp, #48]
    8bbc:	a8c67bfd 	ldp	x29, x30, [sp], #96
    8bc0:	d65f03c0 	ret
    8bc4:	79000337 	strh	w23, [x25]
    8bc8:	790002d3 	strh	w19, [x22]
    8bcc:	39400380 	ldrb	w0, [x28]
    8bd0:	17ffffe8 	b	8b70 <dir_open_in_blocks+0x80>
    8bd4:	aa1c03e1 	mov	x1, x28
    8bd8:	d2800162 	mov	x2, #0xb                   	// #11
    8bdc:	aa1803e0 	mov	x0, x24
    8be0:	97ffe458 	bl	1d40 <memcmp>
    8be4:	35fffc80 	cbnz	w0, 8b74 <dir_open_in_blocks+0x84>
    8be8:	79000337 	strh	w23, [x25]
    8bec:	52800020 	mov	w0, #0x1                   	// #1
    8bf0:	790002d3 	strh	w19, [x22]
    8bf4:	14000002 	b	8bfc <dir_open_in_blocks+0x10c>
    8bf8:	12800000 	mov	w0, #0xffffffff            	// #-1
    8bfc:	a94153b3 	ldp	x19, x20, [x29, #16]
    8c00:	a9425bb5 	ldp	x21, x22, [x29, #32]
    8c04:	a943e7b8 	ldp	x24, x25, [x29, #56]
    8c08:	a944efba 	ldp	x26, x27, [x29, #72]
    8c0c:	f9402fbc 	ldr	x28, [x29, #88]
    8c10:	f9401bf7 	ldr	x23, [sp, #48]
    8c14:	a8c67bfd 	ldp	x29, x30, [sp], #96
    8c18:	d65f03c0 	ret
    8c1c:	00000000 	.inst	0x00000000 ; undefined

0000000000008c20 <fat16_file_read>:
    8c20:	a9ba7bfd 	stp	x29, x30, [sp, #-96]!
    8c24:	910003fd 	mov	x29, sp
    8c28:	f90013f5 	str	x21, [sp, #32]
    8c2c:	aa0103f5 	mov	x21, x1
    8c30:	f9001bf7 	str	x23, [sp, #48]
    8c34:	aa0203f7 	mov	x23, x2
    8c38:	f90027fa 	str	x26, [sp, #72]
    8c3c:	aa0003fa 	mov	x26, x0
    8c40:	b4000d40 	cbz	x0, 8de8 <fat16_file_read+0x1c8>
    8c44:	f10002bf 	cmp	x21, #0x0
    8c48:	fa400ae4 	ccmp	x23, #0x0, #0x4, eq  // eq = none
    8c4c:	54000a81 	b.ne	8d9c <fat16_file_read+0x17c>  // b.any
    8c50:	39402340 	ldrb	w0, [x26, #8]
    8c54:	360008e0 	tbz	w0, #0, 8d70 <fat16_file_read+0x150>
    8c58:	f9400b40 	ldr	x0, [x26, #16]
    8c5c:	f9000bb3 	str	x19, [x29, #16]
    8c60:	f9401353 	ldr	x19, [x26, #32]
    8c64:	8b170262 	add	x2, x19, x23
    8c68:	cb130001 	sub	x1, x0, x19
    8c6c:	eb00005f 	cmp	x2, x0
    8c70:	9a978037 	csel	x23, x1, x23, hi  // hi = pmore
    8c74:	b4000ad7 	cbz	x23, 8dcc <fat16_file_read+0x1ac>
    8c78:	f9000fb4 	str	x20, [x29, #24]
    8c7c:	aa1703f4 	mov	x20, x23
    8c80:	f90017b6 	str	x22, [x29, #40]
    8c84:	52804016 	mov	w22, #0x200                 	// #512
    8c88:	a903e7b8 	stp	x24, x25, [x29, #56]
    8c8c:	91006359 	add	x25, x26, #0x18
    8c90:	529ffeb8 	mov	w24, #0xfff5                	// #65525
    8c94:	f9002bbb 	str	x27, [x29, #80]
    8c98:	14000020 	b	8d18 <fat16_file_read+0xf8>
    8c9c:	35000761 	cbnz	w1, 8d88 <fat16_file_read+0x168>
    8ca0:	79401f41 	ldrh	w1, [x26, #14]
    8ca4:	79003341 	strh	w1, [x26, #24]
    8ca8:	51000821 	sub	w1, w1, #0x2
    8cac:	6b21231f 	cmp	w24, w1, uxth
    8cb0:	54000583 	b.cc	8d60 <fat16_file_read+0x140>  // b.lo, b.ul, b.last
    8cb4:	f9400340 	ldr	x0, [x26]
    8cb8:	52800002 	mov	w2, #0x0                   	// #0
    8cbc:	b9403004 	ldr	w4, [x0, #48]
    8cc0:	39407403 	ldrb	w3, [x0, #29]
    8cc4:	0b040273 	add	w19, w19, w4
    8cc8:	1b034c21 	madd	w1, w1, w3, w19
    8ccc:	4b1b02d3 	sub	w19, w22, w27
    8cd0:	92403f7b 	and	x27, x27, #0xffff
    8cd4:	97fffe95 	bl	8728 <cache_raw_block>
    8cd8:	35000440 	cbnz	w0, 8d60 <fat16_file_read+0x140>
    8cdc:	93407e73 	sxtw	x19, w19
    8ce0:	f9400341 	ldr	x1, [x26]
    8ce4:	eb14027f 	cmp	x19, x20
    8ce8:	aa1503e0 	mov	x0, x21
    8cec:	9a949273 	csel	x19, x19, x20, ls  // ls = plast
    8cf0:	91010021 	add	x1, x1, #0x40
    8cf4:	aa1303e2 	mov	x2, x19
    8cf8:	8b1b0021 	add	x1, x1, x27
    8cfc:	97ffe3c5 	bl	1c10 <memcpy>
    8d00:	8b1302b5 	add	x21, x21, x19
    8d04:	f9401341 	ldr	x1, [x26, #32]
    8d08:	eb130294 	subs	x20, x20, x19
    8d0c:	8b010273 	add	x19, x19, x1
    8d10:	f9001353 	str	x19, [x26, #32]
    8d14:	54000540 	b.eq	8dbc <fat16_file_read+0x19c>  // b.none
    8d18:	f9400340 	ldr	x0, [x26]
    8d1c:	1200227b 	and	w27, w19, #0x1ff
    8d20:	79403341 	ldrh	w1, [x26, #24]
    8d24:	39407403 	ldrb	w3, [x0, #29]
    8d28:	51000462 	sub	w2, w3, #0x1
    8d2c:	0a532453 	and	w19, w2, w19, lsr #9
    8d30:	72001e73 	ands	w19, w19, #0xff
    8d34:	7a400b60 	ccmp	w27, #0x0, #0x0, eq  // eq = none
    8d38:	54fffb20 	b.eq	8c9c <fat16_file_read+0x7c>  // b.none
    8d3c:	b9403004 	ldr	w4, [x0, #48]
    8d40:	51000821 	sub	w1, w1, #0x2
    8d44:	52800002 	mov	w2, #0x0                   	// #0
    8d48:	0b040273 	add	w19, w19, w4
    8d4c:	1b034c21 	madd	w1, w1, w3, w19
    8d50:	4b1b02d3 	sub	w19, w22, w27
    8d54:	92403f7b 	and	x27, x27, #0xffff
    8d58:	97fffe74 	bl	8728 <cache_raw_block>
    8d5c:	34fffc00 	cbz	w0, 8cdc <fat16_file_read+0xbc>
    8d60:	a94153b3 	ldp	x19, x20, [x29, #16]
    8d64:	f94017b6 	ldr	x22, [x29, #40]
    8d68:	a943e7b8 	ldp	x24, x25, [x29, #56]
    8d6c:	f9402bbb 	ldr	x27, [x29, #80]
    8d70:	92800000 	mov	x0, #0xffffffffffffffff    	// #-1
    8d74:	f94013f5 	ldr	x21, [sp, #32]
    8d78:	f9401bf7 	ldr	x23, [sp, #48]
    8d7c:	f94027fa 	ldr	x26, [sp, #72]
    8d80:	a8c67bfd 	ldp	x29, x30, [sp], #96
    8d84:	d65f03c0 	ret
    8d88:	aa1903e2 	mov	x2, x25
    8d8c:	97fffe87 	bl	87a8 <fat_get>
    8d90:	35fffe80 	cbnz	w0, 8d60 <fat16_file_read+0x140>
    8d94:	79403341 	ldrh	w1, [x26, #24]
    8d98:	17ffffc4 	b	8ca8 <fat16_file_read+0x88>
    8d9c:	901fffe0 	adrp	x0, 40004000 <state_fmt+0x1388>
    8da0:	910a0000 	add	x0, x0, #0x280
    8da4:	94000ea5 	bl	c838 <std_printf>
    8da8:	901fffc1 	adrp	x1, 40000000 <__ram_begin>
    8dac:	528002c0 	mov	w0, #0x16                  	// #22
    8db0:	f9400421 	ldr	x1, [x1, #8]
    8db4:	d63f0020 	blr	x1
    8db8:	17ffffa6 	b	8c50 <fat16_file_read+0x30>
    8dbc:	f9400fb4 	ldr	x20, [x29, #24]
    8dc0:	f94017b6 	ldr	x22, [x29, #40]
    8dc4:	a943e7b8 	ldp	x24, x25, [x29, #56]
    8dc8:	f9402bbb 	ldr	x27, [x29, #80]
    8dcc:	aa1703e0 	mov	x0, x23
    8dd0:	f9400bb3 	ldr	x19, [x29, #16]
    8dd4:	f94013f5 	ldr	x21, [sp, #32]
    8dd8:	f9401bf7 	ldr	x23, [sp, #48]
    8ddc:	f94027fa 	ldr	x26, [sp, #72]
    8de0:	a8c67bfd 	ldp	x29, x30, [sp], #96
    8de4:	d65f03c0 	ret
    8de8:	901fffe0 	adrp	x0, 40004000 <state_fmt+0x1388>
    8dec:	91088000 	add	x0, x0, #0x220
    8df0:	94000e92 	bl	c838 <std_printf>
    8df4:	901fffc1 	adrp	x1, 40000000 <__ram_begin>
    8df8:	528002c0 	mov	w0, #0x16                  	// #22
    8dfc:	f9400421 	ldr	x1, [x1, #8]
    8e00:	d63f0020 	blr	x1
    8e04:	17ffff90 	b	8c44 <fat16_file_read+0x24>

0000000000008e08 <fat16_file_seek>:
    8e08:	a9bc7bfd 	stp	x29, x30, [sp, #-64]!
    8e0c:	910003fd 	mov	x29, sp
    8e10:	f9000ff4 	str	x20, [sp, #24]
    8e14:	aa0003f4 	mov	x20, x0
    8e18:	b4000840 	cbz	x0, 8f20 <fat16_file_seek+0x118>
    8e1c:	7100045f 	cmp	w2, #0x1
    8e20:	540006a0 	b.eq	8ef4 <fat16_file_seek+0xec>  // b.none
    8e24:	7100085f 	cmp	w2, #0x2
    8e28:	54000520 	b.eq	8ecc <fat16_file_seek+0xc4>  // b.none
    8e2c:	35000722 	cbnz	w2, 8f10 <fat16_file_seek+0x108>
    8e30:	2a0103e0 	mov	w0, w1
    8e34:	f9400a82 	ldr	x2, [x20, #16]
    8e38:	f90017b6 	str	x22, [x29, #40]
    8e3c:	93407c16 	sxtw	x22, w0
    8e40:	7100001f 	cmp	w0, #0x0
    8e44:	fa42a2c2 	ccmp	x22, x2, #0x2, ge  // ge = tcont
    8e48:	540008e8 	b.hi	8f64 <fat16_file_seek+0x15c>  // b.pmore
    8e4c:	34000480 	cbz	w0, 8edc <fat16_file_seek+0xd4>
    8e50:	f9400281 	ldr	x1, [x20]
    8e54:	f9000bb3 	str	x19, [x29, #16]
    8e58:	51000413 	sub	w19, w0, #0x1
    8e5c:	f90013b5 	str	x21, [x29, #32]
    8e60:	13097e73 	asr	w19, w19, #9
    8e64:	f9401280 	ldr	x0, [x20, #32]
    8e68:	39407421 	ldrb	w1, [x1, #29]
    8e6c:	f100001f 	cmp	x0, #0x0
    8e70:	fa4012c0 	ccmp	x22, x0, #0x0, ne  // ne = any
    8e74:	1ac10a73 	udiv	w19, w19, w1
    8e78:	12003e73 	and	w19, w19, #0xffff
    8e7c:	54000662 	b.cs	8f48 <fat16_file_seek+0x140>  // b.hs, b.nlast
    8e80:	79401e80 	ldrh	w0, [x20, #14]
    8e84:	79003280 	strh	w0, [x20, #24]
    8e88:	91006295 	add	x21, x20, #0x18
    8e8c:	14000007 	b	8ea8 <fat16_file_seek+0xa0>
    8e90:	79403281 	ldrh	w1, [x20, #24]
    8e94:	51000673 	sub	w19, w19, #0x1
    8e98:	f9400280 	ldr	x0, [x20]
    8e9c:	12003e73 	and	w19, w19, #0xffff
    8ea0:	97fffe42 	bl	87a8 <fat_get>
    8ea4:	35000320 	cbnz	w0, 8f08 <fat16_file_seek+0x100>
    8ea8:	aa1503e2 	mov	x2, x21
    8eac:	35ffff33 	cbnz	w19, 8e90 <fat16_file_seek+0x88>
    8eb0:	f9400bb3 	ldr	x19, [x29, #16]
    8eb4:	52800000 	mov	w0, #0x0                   	// #0
    8eb8:	f9001296 	str	x22, [x20, #32]
    8ebc:	a9425bb5 	ldp	x21, x22, [x29, #32]
    8ec0:	f9400ff4 	ldr	x20, [sp, #24]
    8ec4:	a8c47bfd 	ldp	x29, x30, [sp], #64
    8ec8:	d65f03c0 	ret
    8ecc:	f9400a82 	ldr	x2, [x20, #16]
    8ed0:	f90017b6 	str	x22, [x29, #40]
    8ed4:	0b020020 	add	w0, w1, w2
    8ed8:	17ffffd9 	b	8e3c <fat16_file_seek+0x34>
    8edc:	7900329f 	strh	wzr, [x20, #24]
    8ee0:	f94017b6 	ldr	x22, [x29, #40]
    8ee4:	f900129f 	str	xzr, [x20, #32]
    8ee8:	f9400ff4 	ldr	x20, [sp, #24]
    8eec:	a8c47bfd 	ldp	x29, x30, [sp], #64
    8ef0:	d65f03c0 	ret
    8ef4:	f9401280 	ldr	x0, [x20, #32]
    8ef8:	f9400a82 	ldr	x2, [x20, #16]
    8efc:	0b000020 	add	w0, w1, w0
    8f00:	f90017b6 	str	x22, [x29, #40]
    8f04:	17ffffce 	b	8e3c <fat16_file_seek+0x34>
    8f08:	f9400bb3 	ldr	x19, [x29, #16]
    8f0c:	a9425bb5 	ldp	x21, x22, [x29, #32]
    8f10:	12800000 	mov	w0, #0xffffffff            	// #-1
    8f14:	f9400ff4 	ldr	x20, [sp, #24]
    8f18:	a8c47bfd 	ldp	x29, x30, [sp], #64
    8f1c:	d65f03c0 	ret
    8f20:	290707a2 	stp	w2, w1, [x29, #56]
    8f24:	901fffe0 	adrp	x0, 40004000 <state_fmt+0x1388>
    8f28:	910bc000 	add	x0, x0, #0x2f0
    8f2c:	94000e43 	bl	c838 <std_printf>
    8f30:	901fffc3 	adrp	x3, 40000000 <__ram_begin>
    8f34:	528002c0 	mov	w0, #0x16                  	// #22
    8f38:	f9400463 	ldr	x3, [x3, #8]
    8f3c:	d63f0060 	blr	x3
    8f40:	294707a2 	ldp	w2, w1, [x29, #56]
    8f44:	17ffffb6 	b	8e1c <fat16_file_seek+0x14>
    8f48:	d1000400 	sub	x0, x0, #0x1
    8f4c:	92401c21 	and	x1, x1, #0xff
    8f50:	d349fc00 	lsr	x0, x0, #9
    8f54:	9ac10800 	udiv	x0, x0, x1
    8f58:	4b000273 	sub	w19, w19, w0
    8f5c:	12003e73 	and	w19, w19, #0xffff
    8f60:	17ffffca 	b	8e88 <fat16_file_seek+0x80>
    8f64:	f94017b6 	ldr	x22, [x29, #40]
    8f68:	12800000 	mov	w0, #0xffffffff            	// #-1
    8f6c:	17ffffea 	b	8f14 <fat16_file_seek+0x10c>

0000000000008f70 <fat16_file_sync>:
    8f70:	a9bd7bfd 	stp	x29, x30, [sp, #-48]!
    8f74:	910003fd 	mov	x29, sp
    8f78:	f9000bf3 	str	x19, [sp, #16]
    8f7c:	aa0003f3 	mov	x19, x0
    8f80:	f90013f5 	str	x21, [sp, #32]
    8f84:	b40004c0 	cbz	x0, 901c <fat16_file_sync+0xac>
    8f88:	39c02260 	ldrsb	w0, [x19, #8]
    8f8c:	f9400275 	ldr	x21, [x19]
    8f90:	37f800c0 	tbnz	w0, #31, 8fa8 <fat16_file_sync+0x38>
    8f94:	aa1503e0 	mov	x0, x21
    8f98:	f9400bf3 	ldr	x19, [sp, #16]
    8f9c:	f94013f5 	ldr	x21, [sp, #32]
    8fa0:	a8c37bfd 	ldp	x29, x30, [sp], #48
    8fa4:	17fffdb9 	b	8688 <cache_flush>
    8fa8:	79401661 	ldrh	w1, [x19, #10]
    8fac:	52800022 	mov	w2, #0x1                   	// #1
    8fb0:	f9000fb4 	str	x20, [x29, #24]
    8fb4:	aa1503e0 	mov	x0, x21
    8fb8:	79401a74 	ldrh	w20, [x19, #12]
    8fbc:	0b541021 	add	w1, w1, w20, lsr #4
    8fc0:	97fffdda 	bl	8728 <cache_raw_block>
    8fc4:	350003c0 	cbnz	w0, 903c <fat16_file_sync+0xcc>
    8fc8:	12000e94 	and	w20, w20, #0xf
    8fcc:	d37b0e80 	ubfiz	x0, x20, #5, #4
    8fd0:	91010000 	add	x0, x0, #0x40
    8fd4:	ab0002bf 	cmn	x21, x0
    8fd8:	54000320 	b.eq	903c <fat16_file_sync+0xcc>  // b.none
    8fdc:	d37b0e94 	ubfiz	x20, x20, #5, #4
    8fe0:	f9400a60 	ldr	x0, [x19, #16]
    8fe4:	8b1402b4 	add	x20, x21, x20
    8fe8:	79401e61 	ldrh	w1, [x19, #14]
    8fec:	f9400275 	ldr	x21, [x19]
    8ff0:	7900b681 	strh	w1, [x20, #90]
    8ff4:	b9005e80 	str	w0, [x20, #92]
    8ff8:	39402260 	ldrb	w0, [x19, #8]
    8ffc:	12001800 	and	w0, w0, #0x7f
    9000:	39002260 	strb	w0, [x19, #8]
    9004:	aa1503e0 	mov	x0, x21
    9008:	f9400fb4 	ldr	x20, [x29, #24]
    900c:	f9400bf3 	ldr	x19, [sp, #16]
    9010:	f94013f5 	ldr	x21, [sp, #32]
    9014:	a8c37bfd 	ldp	x29, x30, [sp], #48
    9018:	17fffd9c 	b	8688 <cache_flush>
    901c:	f01fffc0 	adrp	x0, 40004000 <state_fmt+0x1388>
    9020:	910d4000 	add	x0, x0, #0x350
    9024:	94000e05 	bl	c838 <std_printf>
    9028:	f01fffa1 	adrp	x1, 40000000 <__ram_begin>
    902c:	528002c0 	mov	w0, #0x16                  	// #22
    9030:	f9400421 	ldr	x1, [x1, #8]
    9034:	d63f0020 	blr	x1
    9038:	17ffffd4 	b	8f88 <fat16_file_sync+0x18>
    903c:	12800000 	mov	w0, #0xffffffff            	// #-1
    9040:	f9400fb4 	ldr	x20, [x29, #24]
    9044:	f9400bf3 	ldr	x19, [sp, #16]
    9048:	f94013f5 	ldr	x21, [sp, #32]
    904c:	a8c37bfd 	ldp	x29, x30, [sp], #48
    9050:	d65f03c0 	ret
    9054:	00000000 	.inst	0x00000000 ; undefined

0000000000009058 <fat16_file_close>:
    9058:	a9be7bfd 	stp	x29, x30, [sp, #-32]!
    905c:	910003fd 	mov	x29, sp
    9060:	f9000bf3 	str	x19, [sp, #16]
    9064:	aa0003f3 	mov	x19, x0
    9068:	b4000100 	cbz	x0, 9088 <fat16_file_close+0x30>
    906c:	aa1303e0 	mov	x0, x19
    9070:	97ffffc0 	bl	8f70 <fat16_file_sync>
    9074:	7100001f 	cmp	w0, #0x0
    9078:	f9400bf3 	ldr	x19, [sp, #16]
    907c:	5a9f03e0 	csetm	w0, ne  // ne = any
    9080:	a8c27bfd 	ldp	x29, x30, [sp], #32
    9084:	d65f03c0 	ret
    9088:	f01fffc0 	adrp	x0, 40004000 <state_fmt+0x1388>
    908c:	91028000 	add	x0, x0, #0xa0
    9090:	94000dea 	bl	c838 <std_printf>
    9094:	f01fffa1 	adrp	x1, 40000000 <__ram_begin>
    9098:	528002c0 	mov	w0, #0x16                  	// #22
    909c:	f9400421 	ldr	x1, [x1, #8]
    90a0:	d63f0020 	blr	x1
    90a4:	aa1303e0 	mov	x0, x19
    90a8:	97ffffb2 	bl	8f70 <fat16_file_sync>
    90ac:	7100001f 	cmp	w0, #0x0
    90b0:	f9400bf3 	ldr	x19, [sp, #16]
    90b4:	5a9f03e0 	csetm	w0, ne  // ne = any
    90b8:	a8c27bfd 	ldp	x29, x30, [sp], #32
    90bc:	d65f03c0 	ret

00000000000090c0 <fat16_file_write>:
    90c0:	a9b97bfd 	stp	x29, x30, [sp, #-112]!
    90c4:	910003fd 	mov	x29, sp
    90c8:	f90013f5 	str	x21, [sp, #32]
    90cc:	aa0103f5 	mov	x21, x1
    90d0:	f9001bf7 	str	x23, [sp, #48]
    90d4:	aa0203f7 	mov	x23, x2
    90d8:	f90027fa 	str	x26, [sp, #72]
    90dc:	aa0003fa 	mov	x26, x0
    90e0:	b4001220 	cbz	x0, 9324 <fat16_file_write+0x264>
    90e4:	f10002bf 	cmp	x21, #0x0
    90e8:	fa400ae4 	ccmp	x23, #0x0, #0x4, eq  // eq = none
    90ec:	54001001 	b.ne	92ec <fat16_file_write+0x22c>  // b.any
    90f0:	39402340 	ldrb	w0, [x26, #8]
    90f4:	36081140 	tbz	w0, #1, 931c <fat16_file_write+0x25c>
    90f8:	f9000bb3 	str	x19, [x29, #16]
    90fc:	f9401353 	ldr	x19, [x26, #32]
    9100:	37100e00 	tbnz	w0, #2, 92c0 <fat16_file_write+0x200>
    9104:	f9000fb4 	str	x20, [x29, #24]
    9108:	aa1703f4 	mov	x20, x23
    910c:	b4000bd7 	cbz	x23, 9284 <fat16_file_write+0x1c4>
    9110:	f90017b6 	str	x22, [x29, #40]
    9114:	52804016 	mov	w22, #0x200                 	// #512
    9118:	a903e7b8 	stp	x24, x25, [x29, #56]
    911c:	529ffef8 	mov	w24, #0xfff7                	// #65527
    9120:	f9002bbb 	str	x27, [x29, #80]
    9124:	14000021 	b	91a8 <fat16_file_write+0xe8>
    9128:	350007bb 	cbnz	w27, 921c <fat16_file_write+0x15c>
    912c:	35000801 	cbnz	w1, 922c <fat16_file_write+0x16c>
    9130:	79401f42 	ldrh	w2, [x26, #14]
    9134:	34000922 	cbz	w2, 9258 <fat16_file_write+0x198>
    9138:	79003342 	strh	w2, [x26, #24]
    913c:	b9403001 	ldr	w1, [x0, #48]
    9140:	51000842 	sub	w2, w2, #0x2
    9144:	1b190459 	madd	w25, w2, w25, w1
    9148:	f9400b41 	ldr	x1, [x26, #16]
    914c:	eb13003f 	cmp	x1, x19
    9150:	540004c9 	b.ls	91e8 <fat16_file_write+0x128>  // b.plast
    9154:	52800022 	mov	w2, #0x1                   	// #1
    9158:	2a1903e1 	mov	w1, w25
    915c:	97fffd73 	bl	8728 <cache_raw_block>
    9160:	35000f20 	cbnz	w0, 9344 <fat16_file_write+0x284>
    9164:	4b1b02d3 	sub	w19, w22, w27
    9168:	f9400342 	ldr	x2, [x26]
    916c:	92403f60 	and	x0, x27, #0xffff
    9170:	aa1503e1 	mov	x1, x21
    9174:	93407e73 	sxtw	x19, w19
    9178:	91010042 	add	x2, x2, #0x40
    917c:	eb14027f 	cmp	x19, x20
    9180:	8b000040 	add	x0, x2, x0
    9184:	9a949273 	csel	x19, x19, x20, ls  // ls = plast
    9188:	aa1303e2 	mov	x2, x19
    918c:	8b1302b5 	add	x21, x21, x19
    9190:	97ffe2a0 	bl	1c10 <memcpy>
    9194:	f9401340 	ldr	x0, [x26, #32]
    9198:	eb130294 	subs	x20, x20, x19
    919c:	8b000273 	add	x19, x19, x0
    91a0:	f9001353 	str	x19, [x26, #32]
    91a4:	540006a0 	b.eq	9278 <fat16_file_write+0x1b8>  // b.none
    91a8:	f9400340 	ldr	x0, [x26]
    91ac:	1200227b 	and	w27, w19, #0x1ff
    91b0:	79403341 	ldrh	w1, [x26, #24]
    91b4:	39407419 	ldrb	w25, [x0, #29]
    91b8:	51000722 	sub	w2, w25, #0x1
    91bc:	0a532442 	and	w2, w2, w19, lsr #9
    91c0:	72001c42 	ands	w2, w2, #0xff
    91c4:	54fffb20 	b.eq	9128 <fat16_file_write+0x68>  // b.none
    91c8:	b9403003 	ldr	w3, [x0, #48]
    91cc:	51000821 	sub	w1, w1, #0x2
    91d0:	1b190c39 	madd	w25, w1, w25, w3
    91d4:	0b020339 	add	w25, w25, w2
    91d8:	35fffbfb 	cbnz	w27, 9154 <fat16_file_write+0x94>
    91dc:	f9400b41 	ldr	x1, [x26, #16]
    91e0:	eb13003f 	cmp	x1, x19
    91e4:	54fffb88 	b.hi	9154 <fat16_file_write+0x94>  // b.pmore
    91e8:	97fffd28 	bl	8688 <cache_flush>
    91ec:	35000ac0 	cbnz	w0, 9344 <fat16_file_write+0x284>
    91f0:	f9400343 	ldr	x3, [x26]
    91f4:	52800001 	mov	w1, #0x0                   	// #0
    91f8:	d2804002 	mov	x2, #0x200                 	// #512
    91fc:	91010060 	add	x0, x3, #0x40
    9200:	b9003479 	str	w25, [x3, #52]
    9204:	97ffe2b3 	bl	1cd0 <memset>
    9208:	f9400341 	ldr	x1, [x26]
    920c:	3940e020 	ldrb	w0, [x1, #56]
    9210:	32000000 	orr	w0, w0, #0x1
    9214:	3900e020 	strb	w0, [x1, #56]
    9218:	17ffffd3 	b	9164 <fat16_file_write+0xa4>
    921c:	b9403002 	ldr	w2, [x0, #48]
    9220:	51000821 	sub	w1, w1, #0x2
    9224:	1b190839 	madd	w25, w1, w25, w2
    9228:	17ffffcb 	b	9154 <fat16_file_write+0x94>
    922c:	9101bba2 	add	x2, x29, #0x6e
    9230:	97fffd5e 	bl	87a8 <fat_get>
    9234:	35000880 	cbnz	w0, 9344 <fat16_file_write+0x284>
    9238:	7940dfa2 	ldrh	w2, [x29, #110]
    923c:	6b18005f 	cmp	w2, w24
    9240:	540000c8 	b.hi	9258 <fat16_file_write+0x198>  // b.pmore
    9244:	f9400340 	ldr	x0, [x26]
    9248:	79003342 	strh	w2, [x26, #24]
    924c:	f9401353 	ldr	x19, [x26, #32]
    9250:	39407419 	ldrb	w25, [x0, #29]
    9254:	17ffffba 	b	913c <fat16_file_write+0x7c>
    9258:	aa1a03e0 	mov	x0, x26
    925c:	97fffdc5 	bl	8970 <add_cluster>
    9260:	35000720 	cbnz	w0, 9344 <fat16_file_write+0x284>
    9264:	f9400340 	ldr	x0, [x26]
    9268:	79403342 	ldrh	w2, [x26, #24]
    926c:	f9401353 	ldr	x19, [x26, #32]
    9270:	39407419 	ldrb	w25, [x0, #29]
    9274:	17ffffb2 	b	913c <fat16_file_write+0x7c>
    9278:	f94017b6 	ldr	x22, [x29, #40]
    927c:	a943e7b8 	ldp	x24, x25, [x29, #56]
    9280:	f9402bbb 	ldr	x27, [x29, #80]
    9284:	f9400b41 	ldr	x1, [x26, #16]
    9288:	39402340 	ldrb	w0, [x26, #8]
    928c:	eb13003f 	cmp	x1, x19
    9290:	54000082 	b.cs	92a0 <fat16_file_write+0x1e0>  // b.hs, b.nlast
    9294:	32190000 	orr	w0, w0, #0x80
    9298:	39002340 	strb	w0, [x26, #8]
    929c:	f9000b53 	str	x19, [x26, #16]
    92a0:	37180360 	tbnz	w0, #3, 930c <fat16_file_write+0x24c>
    92a4:	a94153b3 	ldp	x19, x20, [x29, #16]
    92a8:	aa1703e0 	mov	x0, x23
    92ac:	f94013f5 	ldr	x21, [sp, #32]
    92b0:	f9401bf7 	ldr	x23, [sp, #48]
    92b4:	f94027fa 	ldr	x26, [sp, #72]
    92b8:	a8c77bfd 	ldp	x29, x30, [sp], #112
    92bc:	d65f03c0 	ret
    92c0:	f9400b40 	ldr	x0, [x26, #16]
    92c4:	eb13001f 	cmp	x0, x19
    92c8:	54fff1e0 	b.eq	9104 <fat16_file_write+0x44>  // b.none
    92cc:	52800042 	mov	w2, #0x2                   	// #2
    92d0:	52800001 	mov	w1, #0x0                   	// #0
    92d4:	aa1a03e0 	mov	x0, x26
    92d8:	97fffecc 	bl	8e08 <fat16_file_seek>
    92dc:	35000480 	cbnz	w0, 936c <fat16_file_write+0x2ac>
    92e0:	f9401353 	ldr	x19, [x26, #32]
    92e4:	f9000fb4 	str	x20, [x29, #24]
    92e8:	17ffff88 	b	9108 <fat16_file_write+0x48>
    92ec:	f01fffc0 	adrp	x0, 40004000 <state_fmt+0x1388>
    92f0:	9111c000 	add	x0, x0, #0x470
    92f4:	94000d51 	bl	c838 <std_printf>
    92f8:	f01fffa1 	adrp	x1, 40000000 <__ram_begin>
    92fc:	528002c0 	mov	w0, #0x16                  	// #22
    9300:	f9400421 	ldr	x1, [x1, #8]
    9304:	d63f0020 	blr	x1
    9308:	17ffff7a 	b	90f0 <fat16_file_write+0x30>
    930c:	aa1a03e0 	mov	x0, x26
    9310:	97ffff18 	bl	8f70 <fat16_file_sync>
    9314:	34fffc80 	cbz	w0, 92a4 <fat16_file_write+0x1e4>
    9318:	a94153b3 	ldp	x19, x20, [x29, #16]
    931c:	92800000 	mov	x0, #0xffffffffffffffff    	// #-1
    9320:	17ffffe3 	b	92ac <fat16_file_write+0x1ec>
    9324:	f01fffc0 	adrp	x0, 40004000 <state_fmt+0x1388>
    9328:	91104000 	add	x0, x0, #0x410
    932c:	94000d43 	bl	c838 <std_printf>
    9330:	f01fffa1 	adrp	x1, 40000000 <__ram_begin>
    9334:	528002c0 	mov	w0, #0x16                  	// #22
    9338:	f9400421 	ldr	x1, [x1, #8]
    933c:	d63f0020 	blr	x1
    9340:	17ffff69 	b	90e4 <fat16_file_write+0x24>
    9344:	a94153b3 	ldp	x19, x20, [x29, #16]
    9348:	92800000 	mov	x0, #0xffffffffffffffff    	// #-1
    934c:	f94017b6 	ldr	x22, [x29, #40]
    9350:	a943e7b8 	ldp	x24, x25, [x29, #56]
    9354:	f9402bbb 	ldr	x27, [x29, #80]
    9358:	f94013f5 	ldr	x21, [sp, #32]
    935c:	f9401bf7 	ldr	x23, [sp, #48]
    9360:	f94027fa 	ldr	x26, [sp, #72]
    9364:	a8c77bfd 	ldp	x29, x30, [sp], #112
    9368:	d65f03c0 	ret
    936c:	f9400bb3 	ldr	x19, [x29, #16]
    9370:	92800000 	mov	x0, #0xffffffffffffffff    	// #-1
    9374:	17ffffce 	b	92ac <fat16_file_write+0x1ec>

0000000000009378 <fat16_file_truncate>:
    9378:	a9bc7bfd 	stp	x29, x30, [sp, #-64]!
    937c:	910003fd 	mov	x29, sp
    9380:	a90153f3 	stp	x19, x20, [sp, #16]
    9384:	aa0003f4 	mov	x20, x0
    9388:	aa0103f3 	mov	x19, x1
    938c:	b40009a0 	cbz	x0, 94c0 <fat16_file_truncate+0x148>
    9390:	39402280 	ldrb	w0, [x20, #8]
    9394:	36080800 	tbz	w0, #1, 9494 <fat16_file_truncate+0x11c>
    9398:	f9400a80 	ldr	x0, [x20, #16]
    939c:	eb13001f 	cmp	x0, x19
    93a0:	54000523 	b.cc	9444 <fat16_file_truncate+0xcc>  // b.lo, b.ul, b.last
    93a4:	b4000480 	cbz	x0, 9434 <fat16_file_truncate+0xbc>
    93a8:	f9401281 	ldr	x1, [x20, #32]
    93ac:	f90013b5 	str	x21, [x29, #32]
    93b0:	eb13003f 	cmp	x1, x19
    93b4:	9a939035 	csel	x21, x1, x19, ls  // ls = plast
    93b8:	b4000773 	cbz	x19, 94a4 <fat16_file_truncate+0x12c>
    93bc:	52800002 	mov	w2, #0x0                   	// #0
    93c0:	2a1303e1 	mov	w1, w19
    93c4:	aa1403e0 	mov	x0, x20
    93c8:	97fffe90 	bl	8e08 <fat16_file_seek>
    93cc:	35000620 	cbnz	w0, 9490 <fat16_file_truncate+0x118>
    93d0:	79403281 	ldrh	w1, [x20, #24]
    93d4:	9100fba2 	add	x2, x29, #0x3e
    93d8:	f9400280 	ldr	x0, [x20]
    93dc:	97fffcf3 	bl	87a8 <fat_get>
    93e0:	35000580 	cbnz	w0, 9490 <fat16_file_truncate+0x118>
    93e4:	79407fa1 	ldrh	w1, [x29, #62]
    93e8:	529ffee0 	mov	w0, #0xfff7                	// #65527
    93ec:	6b00003f 	cmp	w1, w0
    93f0:	54000789 	b.ls	94e0 <fat16_file_truncate+0x168>  // b.plast
    93f4:	39402281 	ldrb	w1, [x20, #8]
    93f8:	aa1403e0 	mov	x0, x20
    93fc:	f9000a93 	str	x19, [x20, #16]
    9400:	32196021 	orr	w1, w1, #0xffffff80
    9404:	39002281 	strb	w1, [x20, #8]
    9408:	97fffeda 	bl	8f70 <fat16_file_sync>
    940c:	35000420 	cbnz	w0, 9490 <fat16_file_truncate+0x118>
    9410:	2a1503e1 	mov	w1, w21
    9414:	52800002 	mov	w2, #0x0                   	// #0
    9418:	aa1403e0 	mov	x0, x20
    941c:	97fffe7b 	bl	8e08 <fat16_file_seek>
    9420:	f94013b5 	ldr	x21, [x29, #32]
    9424:	a94153f3 	ldp	x19, x20, [sp, #16]
    9428:	a8c47bfd 	ldp	x29, x30, [sp], #64
    942c:	d65f03c0 	ret
    9430:	f94013b5 	ldr	x21, [x29, #32]
    9434:	a94153f3 	ldp	x19, x20, [sp, #16]
    9438:	52800000 	mov	w0, #0x0                   	// #0
    943c:	a8c47bfd 	ldp	x29, x30, [sp], #64
    9440:	d65f03c0 	ret
    9444:	52800042 	mov	w2, #0x2                   	// #2
    9448:	52800001 	mov	w1, #0x0                   	// #0
    944c:	aa1403e0 	mov	x0, x20
    9450:	97fffe6e 	bl	8e08 <fat16_file_seek>
    9454:	35000200 	cbnz	w0, 9494 <fat16_file_truncate+0x11c>
    9458:	f9400a80 	ldr	x0, [x20, #16]
    945c:	f90013b5 	str	x21, [x29, #32]
    9460:	910103b5 	add	x21, x29, #0x40
    9464:	cb000273 	sub	x19, x19, x0
    9468:	381feebf 	strb	wzr, [x21, #-2]!
    946c:	d503201f 	nop
    9470:	b4fffe13 	cbz	x19, 9430 <fat16_file_truncate+0xb8>
    9474:	d2800022 	mov	x2, #0x1                   	// #1
    9478:	aa1503e1 	mov	x1, x21
    947c:	aa1403e0 	mov	x0, x20
    9480:	d1000673 	sub	x19, x19, #0x1
    9484:	97ffff0f 	bl	90c0 <fat16_file_write>
    9488:	f100041f 	cmp	x0, #0x1
    948c:	54ffff20 	b.eq	9470 <fat16_file_truncate+0xf8>  // b.none
    9490:	f94013b5 	ldr	x21, [x29, #32]
    9494:	a94153f3 	ldp	x19, x20, [sp, #16]
    9498:	12800000 	mov	w0, #0xffffffff            	// #-1
    949c:	a8c47bfd 	ldp	x29, x30, [sp], #64
    94a0:	d65f03c0 	ret
    94a4:	79401e81 	ldrh	w1, [x20, #14]
    94a8:	f9400280 	ldr	x0, [x20]
    94ac:	97fffd17 	bl	8908 <free_chain>
    94b0:	35ffff00 	cbnz	w0, 9490 <fat16_file_truncate+0x118>
    94b4:	79001e9f 	strh	wzr, [x20, #14]
    94b8:	7900329f 	strh	wzr, [x20, #24]
    94bc:	17ffffce 	b	93f4 <fat16_file_truncate+0x7c>
    94c0:	f01fffc0 	adrp	x0, 40004000 <state_fmt+0x1388>
    94c4:	910ec000 	add	x0, x0, #0x3b0
    94c8:	94000cdc 	bl	c838 <std_printf>
    94cc:	f01fffa1 	adrp	x1, 40000000 <__ram_begin>
    94d0:	528002c0 	mov	w0, #0x16                  	// #22
    94d4:	f9400421 	ldr	x1, [x1, #8]
    94d8:	d63f0020 	blr	x1
    94dc:	17ffffad 	b	9390 <fat16_file_truncate+0x18>
    94e0:	79403281 	ldrh	w1, [x20, #24]
    94e4:	12800002 	mov	w2, #0xffffffff            	// #-1
    94e8:	f9400280 	ldr	x0, [x20]
    94ec:	97fffcd1 	bl	8830 <fat_put>
    94f0:	34fffd00 	cbz	w0, 9490 <fat16_file_truncate+0x118>
    94f4:	79407fa1 	ldrh	w1, [x29, #62]
    94f8:	f9400280 	ldr	x0, [x20]
    94fc:	97fffd03 	bl	8908 <free_chain>
    9500:	35fff7a0 	cbnz	w0, 93f4 <fat16_file_truncate+0x7c>
    9504:	f94013b5 	ldr	x21, [x29, #32]
    9508:	17ffffe3 	b	9494 <fat16_file_truncate+0x11c>
    950c:	00000000 	.inst	0x00000000 ; undefined

0000000000009510 <file_open>:
    9510:	a9b77bfd 	stp	x29, x30, [sp, #-144]!
    9514:	2a0303e5 	mov	w5, w3
    9518:	910003fd 	mov	x29, sp
    951c:	f9002bfb 	str	x27, [sp, #80]
    9520:	aa0003fb 	mov	x27, x0
    9524:	12001c80 	and	w0, w4, #0xff
    9528:	b9006ba0 	str	w0, [x29, #104]
    952c:	b9006fa3 	str	w3, [x29, #108]
    9530:	52800843 	mov	w3, #0x42                  	// #66
    9534:	0a0300a3 	and	w3, w5, w3
    9538:	7101007f 	cmp	w3, #0x40
    953c:	54002040 	b.eq	9944 <file_open+0x434>  // b.none
    9540:	a90153b3 	stp	x19, x20, [x29, #16]
    9544:	aa0203f3 	mov	x19, x2
    9548:	a9025bb5 	stp	x21, x22, [x29, #32]
    954c:	910203b4 	add	x20, x29, #0x80
    9550:	a90363b7 	stp	x23, x24, [x29, #48]
    9554:	52800015 	mov	w21, #0x0                   	// #0
    9558:	a9046bb9 	stp	x25, x26, [x29, #64]
    955c:	12800018 	mov	w24, #0xffffffff            	// #-1
    9560:	f9002fbc 	str	x28, [x29, #88]
    9564:	aa0103f7 	mov	x23, x1
    9568:	2a1803f9 	mov	w25, w24
    956c:	f01fffd6 	adrp	x22, 40004000 <state_fmt+0x1388>
    9570:	39400260 	ldrb	w0, [x19]
    9574:	aa1303fc 	mov	x28, x19
    9578:	7100bc1f 	cmp	w0, #0x2f
    957c:	7a401804 	ccmp	w0, #0x0, #0x4, ne  // ne = any
    9580:	540007a0 	b.eq	9674 <file_open+0x164>  // b.none
    9584:	d503201f 	nop
    9588:	38401f80 	ldrb	w0, [x28, #1]!
    958c:	7100bc1f 	cmp	w0, #0x2f
    9590:	7a401804 	ccmp	w0, #0x0, #0x4, ne  // ne = any
    9594:	54ffffa1 	b.ne	9588 <file_open+0x78>  // b.any
    9598:	cb13039a 	sub	x26, x28, x19
    959c:	d2800162 	mov	x2, #0xb                   	// #11
    95a0:	52800401 	mov	w1, #0x20                  	// #32
    95a4:	aa1403e0 	mov	x0, x20
    95a8:	97ffe1ca 	bl	1cd0 <memset>
    95ac:	f100035f 	cmp	x26, #0x0
    95b0:	540001cd 	b.le	95e8 <file_open+0xd8>
    95b4:	8b1a0264 	add	x4, x19, x26
    95b8:	52800003 	mov	w3, #0x0                   	// #0
    95bc:	528000e5 	mov	w5, #0x7                   	// #7
    95c0:	39400261 	ldrb	w1, [x19]
    95c4:	7100b83f 	cmp	w1, #0x2e
    95c8:	54000c21 	b.ne	974c <file_open+0x23c>  // b.any
    95cc:	710028bf 	cmp	w5, #0xa
    95d0:	54000ec0 	b.eq	97a8 <file_open+0x298>  // b.none
    95d4:	52800103 	mov	w3, #0x8                   	// #8
    95d8:	52800145 	mov	w5, #0xa                   	// #10
    95dc:	91000673 	add	x19, x19, #0x1
    95e0:	eb13009f 	cmp	x4, x19
    95e4:	54fffee1 	b.ne	95c0 <file_open+0xb0>  // b.any
    95e8:	aa1c03f3 	mov	x19, x28
    95ec:	394203a0 	ldrb	w0, [x29, #128]
    95f0:	7100801f 	cmp	w0, #0x20
    95f4:	540009a0 	b.eq	9728 <file_open+0x218>  // b.none
    95f8:	39400260 	ldrb	w0, [x19]
    95fc:	7100bc1f 	cmp	w0, #0x2f
    9600:	54000061 	b.ne	960c <file_open+0xfc>  // b.any
    9604:	39400660 	ldrb	w0, [x19, #1]
    9608:	91000673 	add	x19, x19, #0x1
    960c:	7100001f 	cmp	w0, #0x0
    9610:	9a9f1273 	csel	x19, x19, xzr, ne  // ne = any
    9614:	350003b5 	cbnz	w21, 9688 <file_open+0x178>
    9618:	b9402f60 	ldr	w0, [x27, #44]
    961c:	12800001 	mov	w1, #0xffffffff            	// #-1
    9620:	79403f65 	ldrh	w5, [x27, #30]
    9624:	9101f3a3 	add	x3, x29, #0x7c
    9628:	7900fba1 	strh	w1, [x29, #124]
    962c:	2a0003e4 	mov	w4, w0
    9630:	9101eba2 	add	x2, x29, #0x7a
    9634:	aa1403e1 	mov	x1, x20
    9638:	0b451005 	add	w5, w0, w5, lsr #4
    963c:	aa1b03e0 	mov	x0, x27
    9640:	97fffd2c 	bl	8af0 <dir_open_in_blocks>
    9644:	2a0003fa 	mov	w26, w0
    9648:	37f80700 	tbnz	w0, #31, 9728 <file_open+0x218>
    964c:	b4000b33 	cbz	x19, 97b0 <file_open+0x2a0>
    9650:	340006da 	cbz	w26, 9728 <file_open+0x218>
    9654:	39400260 	ldrb	w0, [x19]
    9658:	110006b5 	add	w21, w21, #0x1
    965c:	79c0f7b9 	ldrsh	w25, [x29, #122]
    9660:	aa1303fc 	mov	x28, x19
    9664:	7100bc1f 	cmp	w0, #0x2f
    9668:	79c0fbb8 	ldrsh	w24, [x29, #124]
    966c:	7a401804 	ccmp	w0, #0x0, #0x4, ne  // ne = any
    9670:	54fff8c1 	b.ne	9588 <file_open+0x78>  // b.any
    9674:	d2800162 	mov	x2, #0xb                   	// #11
    9678:	52800401 	mov	w1, #0x20                  	// #32
    967c:	aa1403e0 	mov	x0, x20
    9680:	97ffe194 	bl	1cd0 <memset>
    9684:	17ffffda 	b	95ec <file_open+0xdc>
    9688:	7940fbbc 	ldrh	w28, [x29, #124]
    968c:	52800022 	mov	w2, #0x1                   	// #1
    9690:	7940f7a1 	ldrh	w1, [x29, #122]
    9694:	aa1b03e0 	mov	x0, x27
    9698:	0b5c1021 	add	w1, w1, w28, lsr #4
    969c:	97fffc23 	bl	8728 <cache_raw_block>
    96a0:	35000440 	cbnz	w0, 9728 <file_open+0x218>
    96a4:	12000f9c 	and	w28, w28, #0xf
    96a8:	d37b0f80 	ubfiz	x0, x28, #5, #4
    96ac:	91010000 	add	x0, x0, #0x40
    96b0:	ab00037f 	cmn	x27, x0
    96b4:	540003a0 	b.eq	9728 <file_open+0x218>  // b.none
    96b8:	93407f80 	sxtw	x0, w28
    96bc:	12800001 	mov	w1, #0xffffffff            	// #-1
    96c0:	529ffefc 	mov	w28, #0xfff7                	// #65527
    96c4:	7900fba1 	strh	w1, [x29, #124]
    96c8:	8b001760 	add	x0, x27, x0, lsl #5
    96cc:	7940b400 	ldrh	w0, [x0, #90]
    96d0:	7900ffa0 	strh	w0, [x29, #126]
    96d4:	14000009 	b	96f8 <file_open+0x1e8>
    96d8:	7940ffa1 	ldrh	w1, [x29, #126]
    96dc:	9101fba2 	add	x2, x29, #0x7e
    96e0:	aa1b03e0 	mov	x0, x27
    96e4:	97fffc31 	bl	87a8 <fat_get>
    96e8:	35000200 	cbnz	w0, 9728 <file_open+0x218>
    96ec:	7940ffa0 	ldrh	w0, [x29, #126]
    96f0:	6b1c001f 	cmp	w0, w28
    96f4:	54fffac8 	b.hi	964c <file_open+0x13c>  // b.pmore
    96f8:	39407765 	ldrb	w5, [x27, #29]
    96fc:	51000804 	sub	w4, w0, #0x2
    9700:	b9403367 	ldr	w7, [x27, #48]
    9704:	9101f3a3 	add	x3, x29, #0x7c
    9708:	9101eba2 	add	x2, x29, #0x7a
    970c:	aa1403e1 	mov	x1, x20
    9710:	aa1b03e0 	mov	x0, x27
    9714:	1b051c84 	madd	w4, w4, w5, w7
    9718:	0b0400a5 	add	w5, w5, w4
    971c:	97fffcf5 	bl	8af0 <dir_open_in_blocks>
    9720:	2a0003fa 	mov	w26, w0
    9724:	36fffda0 	tbz	w0, #31, 96d8 <file_open+0x1c8>
    9728:	12800000 	mov	w0, #0xffffffff            	// #-1
    972c:	a94153b3 	ldp	x19, x20, [x29, #16]
    9730:	a9425bb5 	ldp	x21, x22, [x29, #32]
    9734:	a94363b7 	ldp	x23, x24, [x29, #48]
    9738:	a9446bb9 	ldp	x25, x26, [x29, #64]
    973c:	f9402fbc 	ldr	x28, [x29, #88]
    9740:	f9402bfb 	ldr	x27, [sp, #80]
    9744:	a8c97bfd 	ldp	x29, x30, [sp], #144
    9748:	d65f03c0 	ret
    974c:	911386c2 	add	x2, x22, #0x4e1
    9750:	52800f80 	mov	w0, #0x7c                  	// #124
    9754:	d503201f 	nop
    9758:	6b00003f 	cmp	w1, w0
    975c:	54fffe60 	b.eq	9728 <file_open+0x218>  // b.none
    9760:	38401440 	ldrb	w0, [x2], #1
    9764:	35ffffa0 	cbnz	w0, 9758 <file_open+0x248>
    9768:	51008420 	sub	w0, w1, #0x21
    976c:	12001c00 	and	w0, w0, #0xff
    9770:	7101741f 	cmp	w0, #0x5d
    9774:	7a459062 	ccmp	w3, w5, #0x2, ls  // ls = plast
    9778:	54fffd88 	b.hi	9728 <file_open+0x218>  // b.pmore
    977c:	51018422 	sub	w2, w1, #0x61
    9780:	92401c67 	and	x7, x3, #0xff
    9784:	51008020 	sub	w0, w1, #0x20
    9788:	12001c42 	and	w2, w2, #0xff
    978c:	12001c00 	and	w0, w0, #0xff
    9790:	7100685f 	cmp	w2, #0x1a
    9794:	11000463 	add	w3, w3, #0x1
    9798:	1a813001 	csel	w1, w0, w1, cc  // cc = lo, ul, last
    979c:	12001c63 	and	w3, w3, #0xff
    97a0:	38276a81 	strb	w1, [x20, x7]
    97a4:	17ffff8e 	b	95dc <file_open+0xcc>
    97a8:	aa1c03f3 	mov	x19, x28
    97ac:	17ffff93 	b	95f8 <file_open+0xe8>
    97b0:	7100075f 	cmp	w26, #0x1
    97b4:	54000b40 	b.eq	991c <file_open+0x40c>  // b.none
    97b8:	79c0fba2 	ldrsh	w2, [x29, #124]
    97bc:	37fffb62 	tbnz	w2, #31, 9728 <file_open+0x218>
    97c0:	b9406fa1 	ldr	w1, [x29, #108]
    97c4:	52800240 	mov	w0, #0x12                  	// #18
    97c8:	0a000020 	and	w0, w1, w0
    97cc:	7100481f 	cmp	w0, #0x12
    97d0:	54fffac1 	b.ne	9728 <file_open+0x218>  // b.any
    97d4:	37f80278 	tbnz	w24, #31, 9820 <file_open+0x310>
    97d8:	12003f18 	and	w24, w24, #0xffff
    97dc:	12003f21 	and	w1, w25, #0xffff
    97e0:	52800022 	mov	w2, #0x1                   	// #1
    97e4:	aa1b03e0 	mov	x0, x27
    97e8:	0b581021 	add	w1, w1, w24, lsr #4
    97ec:	97fffbcf 	bl	8728 <cache_raw_block>
    97f0:	35fff9c0 	cbnz	w0, 9728 <file_open+0x218>
    97f4:	12000f18 	and	w24, w24, #0xf
    97f8:	d37b0f00 	ubfiz	x0, x24, #5, #4
    97fc:	91010000 	add	x0, x0, #0x40
    9800:	ab00037f 	cmn	x27, x0
    9804:	54fff920 	b.eq	9728 <file_open+0x218>  // b.none
    9808:	d37b0f18 	ubfiz	x24, x24, #5, #4
    980c:	79c0fba2 	ldrsh	w2, [x29, #124]
    9810:	8b180360 	add	x0, x27, x24
    9814:	b9405c01 	ldr	w1, [x0, #92]
    9818:	11008021 	add	w1, w1, #0x20
    981c:	b9005c01 	str	w1, [x0, #92]
    9820:	7940f7a1 	ldrh	w1, [x29, #122]
    9824:	12003c53 	and	w19, w2, #0xffff
    9828:	aa1b03e0 	mov	x0, x27
    982c:	52800022 	mov	w2, #0x1                   	// #1
    9830:	0b531021 	add	w1, w1, w19, lsr #4
    9834:	97fffbbd 	bl	8728 <cache_raw_block>
    9838:	35fff780 	cbnz	w0, 9728 <file_open+0x218>
    983c:	d37b0e60 	ubfiz	x0, x19, #5, #4
    9840:	91010000 	add	x0, x0, #0x40
    9844:	ab000360 	adds	x0, x27, x0
    9848:	54fff700 	b.eq	9728 <file_open+0x218>  // b.none
    984c:	3941a3a2 	ldrb	w2, [x29, #104]
    9850:	aa1403e1 	mov	x1, x20
    9854:	97fffc85 	bl	8a68 <dir_init>
    9858:	aa1b03e0 	mov	x0, x27
    985c:	97fffb8b 	bl	8688 <cache_flush>
    9860:	35fff640 	cbnz	w0, 9728 <file_open+0x218>
    9864:	7940fbb3 	ldrh	w19, [x29, #124]
    9868:	52800002 	mov	w2, #0x0                   	// #0
    986c:	7940f7a1 	ldrh	w1, [x29, #122]
    9870:	aa1b03e0 	mov	x0, x27
    9874:	0b531021 	add	w1, w1, w19, lsr #4
    9878:	97fffbac 	bl	8728 <cache_raw_block>
    987c:	350005a0 	cbnz	w0, 9930 <file_open+0x420>
    9880:	12000e60 	and	w0, w19, #0xf
    9884:	d37b0c01 	ubfiz	x1, x0, #5, #4
    9888:	91010021 	add	x1, x1, #0x40
    988c:	ab01037f 	cmn	x27, x1
    9890:	54000500 	b.eq	9930 <file_open+0x420>  // b.none
    9894:	937b7c01 	sbfiz	x1, x0, #5, #32
    9898:	b9406ba3 	ldr	w3, [x29, #104]
    989c:	8b010361 	add	x1, x27, x1
    98a0:	39412c21 	ldrb	w1, [x1, #75]
    98a4:	121a7822 	and	w2, w1, #0xffffffdf
    98a8:	6b03005f 	cmp	w2, w3
    98ac:	54000421 	b.ne	9930 <file_open+0x420>  // b.any
    98b0:	360000a1 	tbz	w1, #0, 98c4 <file_open+0x3b4>
    98b4:	b9406fa2 	ldr	w2, [x29, #108]
    98b8:	52800841 	mov	w1, #0x42                  	// #66
    98bc:	6a01005f 	tst	w2, w1
    98c0:	54000381 	b.ne	9930 <file_open+0x420>  // b.any
    98c4:	d37b0c00 	ubfiz	x0, x0, #5, #4
    98c8:	7940fba1 	ldrh	w1, [x29, #124]
    98cc:	8b000360 	add	x0, x27, x0
    98d0:	b9406fa4 	ldr	w4, [x29, #108]
    98d4:	7940f7a3 	ldrh	w3, [x29, #122]
    98d8:	79001ae1 	strh	w1, [x23, #12]
    98dc:	12000c82 	and	w2, w4, #0xf
    98e0:	b9405c01 	ldr	w1, [x0, #92]
    98e4:	7940b400 	ldrh	w0, [x0, #90]
    98e8:	f90002fb 	str	x27, [x23]
    98ec:	390022e2 	strb	w2, [x23, #8]
    98f0:	790016e3 	strh	w3, [x23, #10]
    98f4:	79001ee0 	strh	w0, [x23, #14]
    98f8:	121a0080 	and	w0, w4, #0x40
    98fc:	f9000ae1 	str	x1, [x23, #16]
    9900:	790032ff 	strh	wzr, [x23, #24]
    9904:	f90012ff 	str	xzr, [x23, #32]
    9908:	3637f124 	tbz	w4, #6, 972c <file_open+0x21c>
    990c:	d2800001 	mov	x1, #0x0                   	// #0
    9910:	aa1703e0 	mov	x0, x23
    9914:	97fffe99 	bl	9378 <fat16_file_truncate>
    9918:	17ffff85 	b	972c <file_open+0x21c>
    991c:	b9406fa0 	ldr	w0, [x29, #108]
    9920:	121c0400 	and	w0, w0, #0x30
    9924:	7100c01f 	cmp	w0, #0x30
    9928:	54fff9e1 	b.ne	9864 <file_open+0x354>  // b.any
    992c:	17ffff7f 	b	9728 <file_open+0x218>
    9930:	a94153b3 	ldp	x19, x20, [x29, #16]
    9934:	a9425bb5 	ldp	x21, x22, [x29, #32]
    9938:	a94363b7 	ldp	x23, x24, [x29, #48]
    993c:	a9446bb9 	ldp	x25, x26, [x29, #64]
    9940:	f9402fbc 	ldr	x28, [x29, #88]
    9944:	12800000 	mov	w0, #0xffffffff            	// #-1
    9948:	17ffff7e 	b	9740 <file_open+0x230>
    994c:	00000000 	.inst	0x00000000 ; undefined

0000000000009950 <fat16_file_open>:
    9950:	a9bd7bfd 	stp	x29, x30, [sp, #-48]!
    9954:	910003fd 	mov	x29, sp
    9958:	a90153f3 	stp	x19, x20, [sp, #16]
    995c:	aa0003f3 	mov	x19, x0
    9960:	a9025bf5 	stp	x21, x22, [sp, #32]
    9964:	aa0103f4 	mov	x20, x1
    9968:	aa0203f5 	mov	x21, x2
    996c:	2a0303f6 	mov	w22, w3
    9970:	b4000380 	cbz	x0, 99e0 <fat16_file_open+0x90>
    9974:	b4000174 	cbz	x20, 99a0 <fat16_file_open+0x50>
    9978:	b4000255 	cbz	x21, 99c0 <fat16_file_open+0x70>
    997c:	2a1603e3 	mov	w3, w22
    9980:	aa1503e2 	mov	x2, x21
    9984:	aa1403e1 	mov	x1, x20
    9988:	aa1303e0 	mov	x0, x19
    998c:	a94153f3 	ldp	x19, x20, [sp, #16]
    9990:	52800004 	mov	w4, #0x0                   	// #0
    9994:	a9425bf5 	ldp	x21, x22, [sp, #32]
    9998:	a8c37bfd 	ldp	x29, x30, [sp], #48
    999c:	17fffedd 	b	9510 <file_open>
    99a0:	f01fffc0 	adrp	x0, 40004000 <state_fmt+0x1388>
    99a4:	91058000 	add	x0, x0, #0x160
    99a8:	94000ba4 	bl	c838 <std_printf>
    99ac:	f01fffa1 	adrp	x1, 40000000 <__ram_begin>
    99b0:	528002c0 	mov	w0, #0x16                  	// #22
    99b4:	f9400421 	ldr	x1, [x1, #8]
    99b8:	d63f0020 	blr	x1
    99bc:	b5fffe15 	cbnz	x21, 997c <fat16_file_open+0x2c>
    99c0:	f01fffc0 	adrp	x0, 40004000 <state_fmt+0x1388>
    99c4:	91070000 	add	x0, x0, #0x1c0
    99c8:	94000b9c 	bl	c838 <std_printf>
    99cc:	f01fffa1 	adrp	x1, 40000000 <__ram_begin>
    99d0:	528002c0 	mov	w0, #0x16                  	// #22
    99d4:	f9400421 	ldr	x1, [x1, #8]
    99d8:	d63f0020 	blr	x1
    99dc:	17ffffe8 	b	997c <fat16_file_open+0x2c>
    99e0:	f01fffc0 	adrp	x0, 40004000 <state_fmt+0x1388>
    99e4:	91040000 	add	x0, x0, #0x100
    99e8:	94000b94 	bl	c838 <std_printf>
    99ec:	f01fffa1 	adrp	x1, 40000000 <__ram_begin>
    99f0:	528002c0 	mov	w0, #0x16                  	// #22
    99f4:	f9400421 	ldr	x1, [x1, #8]
    99f8:	d63f0020 	blr	x1
    99fc:	b5fffbf4 	cbnz	x20, 9978 <fat16_file_open+0x28>
    9a00:	17ffffe8 	b	99a0 <fat16_file_open+0x50>
    9a04:	00000000 	.inst	0x00000000 ; undefined

0000000000009a08 <fat16_dir_open>:
    9a08:	a9b97bfd 	stp	x29, x30, [sp, #-112]!
    9a0c:	910003fd 	mov	x29, sp
    9a10:	a90153f3 	stp	x19, x20, [sp, #16]
    9a14:	aa0103f4 	mov	x20, x1
    9a18:	a9025bf5 	stp	x21, x22, [sp, #32]
    9a1c:	2a0303f3 	mov	w19, w3
    9a20:	aa0003f6 	mov	x22, x0
    9a24:	aa0203f5 	mov	x21, x2
    9a28:	b4000441 	cbz	x1, 9ab0 <fat16_dir_open+0xa8>
    9a2c:	b4000535 	cbz	x21, 9ad0 <fat16_dir_open+0xc8>
    9a30:	d01fffc1 	adrp	x1, 40003000 <state_fmt+0x388>
    9a34:	aa1503e0 	mov	x0, x21
    9a38:	913f4021 	add	x1, x1, #0xfd0
    9a3c:	97ffe0dd 	bl	1db0 <strcmp>
    9a40:	35000040 	cbnz	w0, 9a48 <fat16_dir_open+0x40>
    9a44:	370002b3 	tbnz	w19, #0, 9a98 <fat16_dir_open+0x90>
    9a48:	f9001bb7 	str	x23, [x29, #48]
    9a4c:	91002297 	add	x23, x20, #0x8
    9a50:	52800204 	mov	w4, #0x10                  	// #16
    9a54:	2a1303e3 	mov	w3, w19
    9a58:	aa1503e2 	mov	x2, x21
    9a5c:	aa1603e0 	mov	x0, x22
    9a60:	aa1703e1 	mov	x1, x23
    9a64:	97fffeab 	bl	9510 <file_open>
    9a68:	35000860 	cbnz	w0, 9b74 <fat16_dir_open+0x16c>
    9a6c:	12800001 	mov	w1, #0xffffffff            	// #-1
    9a70:	79000281 	strh	w1, [x20]
    9a74:	52800241 	mov	w1, #0x12                  	// #18
    9a78:	0a010273 	and	w19, w19, w1
    9a7c:	6b01027f 	cmp	w19, w1
    9a80:	54000380 	b.eq	9af0 <fat16_dir_open+0xe8>  // b.none
    9a84:	f9401bb7 	ldr	x23, [x29, #48]
    9a88:	a94153f3 	ldp	x19, x20, [sp, #16]
    9a8c:	a9425bf5 	ldp	x21, x22, [sp, #32]
    9a90:	a8c77bfd 	ldp	x29, x30, [sp], #112
    9a94:	d65f03c0 	ret
    9a98:	7900029f 	strh	wzr, [x20]
    9a9c:	f9000696 	str	x22, [x20, #8]
    9aa0:	a94153f3 	ldp	x19, x20, [sp, #16]
    9aa4:	a9425bf5 	ldp	x21, x22, [sp, #32]
    9aa8:	a8c77bfd 	ldp	x29, x30, [sp], #112
    9aac:	d65f03c0 	ret
    9ab0:	d01fffc0 	adrp	x0, 40003000 <state_fmt+0x388>
    9ab4:	913c4000 	add	x0, x0, #0xf10
    9ab8:	94000b60 	bl	c838 <std_printf>
    9abc:	f01fffa1 	adrp	x1, 40000000 <__ram_begin>
    9ac0:	528002c0 	mov	w0, #0x16                  	// #22
    9ac4:	f9400421 	ldr	x1, [x1, #8]
    9ac8:	d63f0020 	blr	x1
    9acc:	b5fffb35 	cbnz	x21, 9a30 <fat16_dir_open+0x28>
    9ad0:	d01fffc0 	adrp	x0, 40003000 <state_fmt+0x388>
    9ad4:	913dc000 	add	x0, x0, #0xf70
    9ad8:	94000b58 	bl	c838 <std_printf>
    9adc:	f01fffa1 	adrp	x1, 40000000 <__ram_begin>
    9ae0:	528002c0 	mov	w0, #0x16                  	// #22
    9ae4:	f9400421 	ldr	x1, [x1, #8]
    9ae8:	d63f0020 	blr	x1
    9aec:	17ffffd1 	b	9a30 <fat16_dir_open+0x28>
    9af0:	d2800162 	mov	x2, #0xb                   	// #11
    9af4:	52800401 	mov	w1, #0x20                  	// #32
    9af8:	910103a0 	add	x0, x29, #0x40
    9afc:	97ffe075 	bl	1cd0 <memset>
    9b00:	52800202 	mov	w2, #0x10                  	// #16
    9b04:	910103a1 	add	x1, x29, #0x40
    9b08:	528005d4 	mov	w20, #0x2e                  	// #46
    9b0c:	910143a0 	add	x0, x29, #0x50
    9b10:	390103b4 	strb	w20, [x29, #64]
    9b14:	97fffbd5 	bl	8a68 <dir_init>
    9b18:	d2800402 	mov	x2, #0x20                  	// #32
    9b1c:	910143a1 	add	x1, x29, #0x50
    9b20:	aa1703e0 	mov	x0, x23
    9b24:	97fffd67 	bl	90c0 <fat16_file_write>
    9b28:	aa0003f3 	mov	x19, x0
    9b2c:	f100801f 	cmp	x0, #0x20
    9b30:	54000221 	b.ne	9b74 <fat16_dir_open+0x16c>  // b.any
    9b34:	390107b4 	strb	w20, [x29, #65]
    9b38:	910103a1 	add	x1, x29, #0x40
    9b3c:	52800202 	mov	w2, #0x10                  	// #16
    9b40:	910143a0 	add	x0, x29, #0x50
    9b44:	97fffbc9 	bl	8a68 <dir_init>
    9b48:	aa1303e2 	mov	x2, x19
    9b4c:	910143a1 	add	x1, x29, #0x50
    9b50:	aa1703e0 	mov	x0, x23
    9b54:	97fffd5b 	bl	90c0 <fat16_file_write>
    9b58:	f100801f 	cmp	x0, #0x20
    9b5c:	f9401bb7 	ldr	x23, [x29, #48]
    9b60:	a94153f3 	ldp	x19, x20, [sp, #16]
    9b64:	5a9f03e0 	csetm	w0, ne  // ne = any
    9b68:	a9425bf5 	ldp	x21, x22, [sp, #32]
    9b6c:	a8c77bfd 	ldp	x29, x30, [sp], #112
    9b70:	d65f03c0 	ret
    9b74:	12800000 	mov	w0, #0xffffffff            	// #-1
    9b78:	f9401bb7 	ldr	x23, [x29, #48]
    9b7c:	17ffffc3 	b	9a88 <fat16_dir_open+0x80>

0000000000009b80 <fat16_dir_close>:
    9b80:	a9be7bfd 	stp	x29, x30, [sp, #-32]!
    9b84:	910003fd 	mov	x29, sp
    9b88:	f9000bf3 	str	x19, [sp, #16]
    9b8c:	aa0003f3 	mov	x19, x0
    9b90:	b40001e0 	cbz	x0, 9bcc <fat16_dir_close+0x4c>
    9b94:	79c00261 	ldrsh	w1, [x19]
    9b98:	52800000 	mov	w0, #0x0                   	// #0
    9b9c:	3100043f 	cmn	w1, #0x1
    9ba0:	54000080 	b.eq	9bb0 <fat16_dir_close+0x30>  // b.none
    9ba4:	f9400bf3 	ldr	x19, [sp, #16]
    9ba8:	a8c27bfd 	ldp	x29, x30, [sp], #32
    9bac:	d65f03c0 	ret
    9bb0:	91002260 	add	x0, x19, #0x8
    9bb4:	97fffcef 	bl	8f70 <fat16_file_sync>
    9bb8:	7100001f 	cmp	w0, #0x0
    9bbc:	f9400bf3 	ldr	x19, [sp, #16]
    9bc0:	5a9f03e0 	csetm	w0, ne  // ne = any
    9bc4:	a8c27bfd 	ldp	x29, x30, [sp], #32
    9bc8:	d65f03c0 	ret
    9bcc:	d01fffc0 	adrp	x0, 40003000 <state_fmt+0x388>
    9bd0:	913ac000 	add	x0, x0, #0xeb0
    9bd4:	94000b19 	bl	c838 <std_printf>
    9bd8:	f01fffa1 	adrp	x1, 40000000 <__ram_begin>
    9bdc:	528002c0 	mov	w0, #0x16                  	// #22
    9be0:	f9400421 	ldr	x1, [x1, #8]
    9be4:	d63f0020 	blr	x1
    9be8:	17ffffeb 	b	9b94 <fat16_dir_close+0x14>
    9bec:	00000000 	.inst	0x00000000 ; undefined

0000000000009bf0 <fat16_dir_read>:
    9bf0:	a9ba7bfd 	stp	x29, x30, [sp, #-96]!
    9bf4:	910003fd 	mov	x29, sp
    9bf8:	a90153f3 	stp	x19, x20, [sp, #16]
    9bfc:	a9025bf5 	stp	x21, x22, [sp, #32]
    9c00:	aa0103f5 	mov	x21, x1
    9c04:	f9001bf7 	str	x23, [sp, #48]
    9c08:	aa0003f7 	mov	x23, x0
    9c0c:	b4000dc0 	cbz	x0, 9dc4 <fat16_dir_read+0x1d4>
    9c10:	b4000cb5 	cbz	x21, 9da4 <fat16_dir_read+0x1b4>
    9c14:	910022f6 	add	x22, x23, #0x8
    9c18:	1400001f 	b	9c94 <fat16_dir_read+0xa4>
    9c1c:	f94006f4 	ldr	x20, [x23, #8]
    9c20:	6b0003f3 	negs	w19, w0
    9c24:	12000e73 	and	w19, w19, #0xf
    9c28:	5a934473 	csneg	w19, w3, w19, mi  // mi = first
    9c2c:	7100001f 	cmp	w0, #0x0
    9c30:	b9402e83 	ldr	w3, [x20, #44]
    9c34:	1a80b021 	csel	w1, w1, w0, lt  // lt = tstop
    9c38:	12003e73 	and	w19, w19, #0xffff
    9c3c:	aa1403e0 	mov	x0, x20
    9c40:	0b811061 	add	w1, w3, w1, asr #4
    9c44:	53047e63 	lsr	w3, w19, #4
    9c48:	d37b0e73 	ubfiz	x19, x19, #5, #4
    9c4c:	0b212061 	add	w1, w3, w1, uxth
    9c50:	97fffab6 	bl	8728 <cache_raw_block>
    9c54:	35000ca0 	cbnz	w0, 9de8 <fat16_dir_read+0x1f8>
    9c58:	8b130293 	add	x19, x20, x19
    9c5c:	794002e0 	ldrh	w0, [x23]
    9c60:	11000400 	add	w0, w0, #0x1
    9c64:	a9440e64 	ldp	x4, x3, [x19, #64]
    9c68:	a9040fa4 	stp	x4, x3, [x29, #64]
    9c6c:	a9450662 	ldp	x2, x1, [x19, #80]
    9c70:	a90507a2 	stp	x2, x1, [x29, #80]
    9c74:	790002e0 	strh	w0, [x23]
    9c78:	394103a0 	ldrb	w0, [x29, #64]
    9c7c:	7103941f 	cmp	w0, #0xe5
    9c80:	34000220 	cbz	w0, 9cc4 <fat16_dir_read+0xd4>
    9c84:	39412fa1 	ldrb	w1, [x29, #75]
    9c88:	121d0022 	and	w2, w1, #0x8
    9c8c:	7a401840 	ccmp	w2, #0x0, #0x0, ne  // ne = any
    9c90:	54000260 	b.eq	9cdc <fat16_dir_read+0xec>  // b.none
    9c94:	79c002e0 	ldrsh	w0, [x23]
    9c98:	52800002 	mov	w2, #0x0                   	// #0
    9c9c:	12000c03 	and	w3, w0, #0xf
    9ca0:	11003c01 	add	w1, w0, #0xf
    9ca4:	3100041f 	cmn	w0, #0x1
    9ca8:	54fffba1 	b.ne	9c1c <fat16_dir_read+0x2c>  // b.any
    9cac:	d2800402 	mov	x2, #0x20                  	// #32
    9cb0:	910103a1 	add	x1, x29, #0x40
    9cb4:	aa1603e0 	mov	x0, x22
    9cb8:	97fffbda 	bl	8c20 <fat16_file_read>
    9cbc:	f100801f 	cmp	x0, #0x20
    9cc0:	54fffdc0 	b.eq	9c78 <fat16_dir_read+0x88>  // b.none
    9cc4:	a94153f3 	ldp	x19, x20, [sp, #16]
    9cc8:	52800000 	mov	w0, #0x0                   	// #0
    9ccc:	a9425bf5 	ldp	x21, x22, [sp, #32]
    9cd0:	f9401bf7 	ldr	x23, [sp, #48]
    9cd4:	a8c67bfd 	ldp	x29, x30, [sp], #96
    9cd8:	d65f03c0 	ret
    9cdc:	910103a8 	add	x8, x29, #0x40
    9ce0:	d2800002 	mov	x2, #0x0                   	// #0
    9ce4:	52800003 	mov	w3, #0x0                   	// #0
    9ce8:	528005c9 	mov	w9, #0x2e                  	// #46
    9cec:	1400000a 	b	9d14 <fat16_dir_read+0x124>
    9cf0:	8b24c2a7 	add	x7, x21, w4, sxtw
    9cf4:	f100205f 	cmp	x2, #0x8
    9cf8:	54000840 	b.eq	9e00 <fat16_dir_read+0x210>  // b.none
    9cfc:	390000c0 	strb	w0, [x6]
    9d00:	91000442 	add	x2, x2, #0x1
    9d04:	2a0403e3 	mov	w3, w4
    9d08:	f1002c5f 	cmp	x2, #0xb
    9d0c:	54000160 	b.eq	9d38 <fat16_dir_read+0x148>  // b.none
    9d10:	38686840 	ldrb	w0, [x2, x8]
    9d14:	93407c65 	sxtw	x5, w3
    9d18:	11000464 	add	w4, w3, #0x1
    9d1c:	8b0502a6 	add	x6, x21, x5
    9d20:	7100801f 	cmp	w0, #0x20
    9d24:	54fffe61 	b.ne	9cf0 <fat16_dir_read+0x100>  // b.any
    9d28:	91000442 	add	x2, x2, #0x1
    9d2c:	aa0603e7 	mov	x7, x6
    9d30:	f1002c5f 	cmp	x2, #0xb
    9d34:	54fffee1 	b.ne	9d10 <fat16_dir_read+0x120>  // b.any
    9d38:	121d0421 	and	w1, w1, #0x18
    9d3c:	390000ff 	strb	wzr, [x7]
    9d40:	7100403f 	cmp	w1, #0x10
    9d44:	52800020 	mov	w0, #0x1                   	// #1
    9d48:	1a9f17e3 	cset	w3, eq  // eq = none
    9d4c:	7940b3a1 	ldrh	w1, [x29, #88]
    9d50:	7940afa2 	ldrh	w2, [x29, #86]
    9d54:	b9405fa7 	ldr	w7, [x29, #92]
    9d58:	12001024 	and	w4, w1, #0x1f
    9d5c:	b90102a3 	str	w3, [x21, #256]
    9d60:	910402a3 	add	x3, x21, #0x100
    9d64:	f90086a7 	str	x7, [x21, #264]
    9d68:	d34b3c45 	ubfx	x5, x2, #11, #5
    9d6c:	d3452846 	ubfx	x6, x2, #5, #6
    9d70:	531f1042 	ubfiz	w2, w2, #1, #5
    9d74:	29021862 	stp	w2, w6, [x3, #16]
    9d78:	29031065 	stp	w5, w4, [x3, #24]
    9d7c:	d3493c23 	ubfx	x3, x1, #9, #7
    9d80:	111ef063 	add	w3, w3, #0x7bc
    9d84:	d3452021 	ubfx	x1, x1, #5, #4
    9d88:	b90126a1 	str	w1, [x21, #292]
    9d8c:	b9012aa3 	str	w3, [x21, #296]
    9d90:	a94153f3 	ldp	x19, x20, [sp, #16]
    9d94:	a9425bf5 	ldp	x21, x22, [sp, #32]
    9d98:	f9401bf7 	ldr	x23, [sp, #48]
    9d9c:	a8c67bfd 	ldp	x29, x30, [sp], #96
    9da0:	d65f03c0 	ret
    9da4:	f01fffc0 	adrp	x0, 40004000 <state_fmt+0x1388>
    9da8:	9100e000 	add	x0, x0, #0x38
    9dac:	94000aa3 	bl	c838 <std_printf>
    9db0:	f01fffa1 	adrp	x1, 40000000 <__ram_begin>
    9db4:	528002c0 	mov	w0, #0x16                  	// #22
    9db8:	f9400421 	ldr	x1, [x1, #8]
    9dbc:	d63f0020 	blr	x1
    9dc0:	17ffff95 	b	9c14 <fat16_dir_read+0x24>
    9dc4:	d01fffc0 	adrp	x0, 40003000 <state_fmt+0x388>
    9dc8:	913f6000 	add	x0, x0, #0xfd8
    9dcc:	94000a9b 	bl	c838 <std_printf>
    9dd0:	f01fffa1 	adrp	x1, 40000000 <__ram_begin>
    9dd4:	528002c0 	mov	w0, #0x16                  	// #22
    9dd8:	f9400421 	ldr	x1, [x1, #8]
    9ddc:	d63f0020 	blr	x1
    9de0:	b5fff1b5 	cbnz	x21, 9c14 <fat16_dir_read+0x24>
    9de4:	17fffff0 	b	9da4 <fat16_dir_read+0x1b4>
    9de8:	a94153f3 	ldp	x19, x20, [sp, #16]
    9dec:	12800000 	mov	w0, #0xffffffff            	// #-1
    9df0:	a9425bf5 	ldp	x21, x22, [sp, #32]
    9df4:	f9401bf7 	ldr	x23, [sp, #48]
    9df8:	a8c67bfd 	ldp	x29, x30, [sp], #96
    9dfc:	d65f03c0 	ret
    9e00:	11000864 	add	w4, w3, #0x2
    9e04:	aa0703e6 	mov	x6, x7
    9e08:	38256aa9 	strb	w9, [x21, x5]
    9e0c:	8b24c2a7 	add	x7, x21, w4, sxtw
    9e10:	17ffffbb 	b	9cfc <fat16_dir_read+0x10c>
    9e14:	00000000 	.inst	0x00000000 ; undefined

0000000000009e18 <cmd_counters_reset_cb>:
    9e18:	a9bd7bfd 	stp	x29, x30, [sp, #-48]!
    9e1c:	f01fffe0 	adrp	x0, 40008000 <module>
    9e20:	910003fd 	mov	x29, sp
    9e24:	f9000bf3 	str	x19, [sp, #16]
    9e28:	f9405413 	ldr	x19, [x0, #168]
    9e2c:	b40001f3 	cbz	x19, 9e68 <cmd_counters_reset_cb+0x50>
    9e30:	a901d7b4 	stp	x20, x21, [x29, #24]
    9e34:	aa0203f5 	mov	x21, x2
    9e38:	aa0403f4 	mov	x20, x4
    9e3c:	d503201f 	nop
    9e40:	a9409266 	ldp	x6, x4, [x19, #8]
    9e44:	aa1403e5 	mov	x5, x20
    9e48:	d2800003 	mov	x3, #0x0                   	// #0
    9e4c:	aa1503e2 	mov	x2, x21
    9e50:	d2800001 	mov	x1, #0x0                   	// #0
    9e54:	52800000 	mov	w0, #0x0                   	// #0
    9e58:	d63f00c0 	blr	x6
    9e5c:	f9401673 	ldr	x19, [x19, #40]
    9e60:	b5ffff13 	cbnz	x19, 9e40 <cmd_counters_reset_cb+0x28>
    9e64:	a941d7b4 	ldp	x20, x21, [x29, #24]
    9e68:	52800000 	mov	w0, #0x0                   	// #0
    9e6c:	f9400bf3 	ldr	x19, [sp, #16]
    9e70:	a8c37bfd 	ldp	x29, x30, [sp], #48
    9e74:	d65f03c0 	ret

0000000000009e78 <cmd_parameters_list_cb>:
    9e78:	a9b97bfd 	stp	x29, x30, [sp, #-112]!
    9e7c:	f01fffc1 	adrp	x1, 40004000 <state_fmt+0x1388>
    9e80:	aa0203e0 	mov	x0, x2
    9e84:	91180021 	add	x1, x1, #0x600
    9e88:	910003fd 	mov	x29, sp
    9e8c:	a90153f3 	stp	x19, x20, [sp, #16]
    9e90:	aa0203f4 	mov	x20, x2
    9e94:	f90017f6 	str	x22, [sp, #40]
    9e98:	aa0503f6 	mov	x22, x5
    9e9c:	94000b0b 	bl	cac8 <std_fprintf>
    9ea0:	f01fffe0 	adrp	x0, 40008000 <module>
    9ea4:	f9405813 	ldr	x19, [x0, #176]
    9ea8:	b40002b3 	cbz	x19, 9efc <cmd_parameters_list_cb+0x84>
    9eac:	f90013b5 	str	x21, [x29, #32]
    9eb0:	f01fffd5 	adrp	x21, 40004000 <state_fmt+0x1388>
    9eb4:	911902b5 	add	x21, x21, #0x640
    9eb8:	f9400261 	ldr	x1, [x19]
    9ebc:	9100c3a0 	add	x0, x29, #0x30
    9ec0:	94000bfa 	bl	cea8 <std_strcpy>
    9ec4:	9100c3a2 	add	x2, x29, #0x30
    9ec8:	aa1503e1 	mov	x1, x21
    9ecc:	aa1403e0 	mov	x0, x20
    9ed0:	94000afe 	bl	cac8 <std_fprintf>
    9ed4:	a9409266 	ldp	x6, x4, [x19, #8]
    9ed8:	aa1603e5 	mov	x5, x22
    9edc:	d2800003 	mov	x3, #0x0                   	// #0
    9ee0:	aa1403e2 	mov	x2, x20
    9ee4:	d2800001 	mov	x1, #0x0                   	// #0
    9ee8:	52800020 	mov	w0, #0x1                   	// #1
    9eec:	d63f00c0 	blr	x6
    9ef0:	f9401e73 	ldr	x19, [x19, #56]
    9ef4:	b5fffe33 	cbnz	x19, 9eb8 <cmd_parameters_list_cb+0x40>
    9ef8:	f94013b5 	ldr	x21, [x29, #32]
    9efc:	a94153f3 	ldp	x19, x20, [sp, #16]
    9f00:	52800000 	mov	w0, #0x0                   	// #0
    9f04:	f94017f6 	ldr	x22, [sp, #40]
    9f08:	a8c77bfd 	ldp	x29, x30, [sp], #112
    9f0c:	d65f03c0 	ret

0000000000009f10 <cmd_counters_list_cb>:
    9f10:	a9b97bfd 	stp	x29, x30, [sp, #-112]!
    9f14:	f01fffc1 	adrp	x1, 40004000 <state_fmt+0x1388>
    9f18:	aa0203e0 	mov	x0, x2
    9f1c:	91180021 	add	x1, x1, #0x600
    9f20:	910003fd 	mov	x29, sp
    9f24:	a90153f3 	stp	x19, x20, [sp, #16]
    9f28:	aa0203f4 	mov	x20, x2
    9f2c:	f90017f6 	str	x22, [sp, #40]
    9f30:	aa0403f6 	mov	x22, x4
    9f34:	94000ae5 	bl	cac8 <std_fprintf>
    9f38:	f01fffe0 	adrp	x0, 40008000 <module>
    9f3c:	f9405413 	ldr	x19, [x0, #168]
    9f40:	b40002b3 	cbz	x19, 9f94 <cmd_counters_list_cb+0x84>
    9f44:	f90013b5 	str	x21, [x29, #32]
    9f48:	f01fffd5 	adrp	x21, 40004000 <state_fmt+0x1388>
    9f4c:	911902b5 	add	x21, x21, #0x640
    9f50:	f9400261 	ldr	x1, [x19]
    9f54:	9100c3a0 	add	x0, x29, #0x30
    9f58:	94000bd4 	bl	cea8 <std_strcpy>
    9f5c:	9100c3a2 	add	x2, x29, #0x30
    9f60:	aa1503e1 	mov	x1, x21
    9f64:	aa1403e0 	mov	x0, x20
    9f68:	94000ad8 	bl	cac8 <std_fprintf>
    9f6c:	a9409266 	ldp	x6, x4, [x19, #8]
    9f70:	aa1603e5 	mov	x5, x22
    9f74:	d2800003 	mov	x3, #0x0                   	// #0
    9f78:	aa1403e2 	mov	x2, x20
    9f7c:	d2800001 	mov	x1, #0x0                   	// #0
    9f80:	52800020 	mov	w0, #0x1                   	// #1
    9f84:	d63f00c0 	blr	x6
    9f88:	f9401673 	ldr	x19, [x19, #40]
    9f8c:	b5fffe33 	cbnz	x19, 9f50 <cmd_counters_list_cb+0x40>
    9f90:	f94013b5 	ldr	x21, [x29, #32]
    9f94:	a94153f3 	ldp	x19, x20, [sp, #16]
    9f98:	52800000 	mov	w0, #0x0                   	// #0
    9f9c:	f94017f6 	ldr	x22, [sp, #40]
    9fa0:	a8c77bfd 	ldp	x29, x30, [sp], #112
    9fa4:	d65f03c0 	ret

0000000000009fa8 <cmd_filesystems_list_cb>:
    9fa8:	a9b77bfd 	stp	x29, x30, [sp, #-144]!
    9fac:	f01fffc1 	adrp	x1, 40004000 <state_fmt+0x1388>
    9fb0:	aa0203e0 	mov	x0, x2
    9fb4:	91154021 	add	x1, x1, #0x550
    9fb8:	910003fd 	mov	x29, sp
    9fbc:	f9000bf3 	str	x19, [sp, #16]
    9fc0:	f90017f6 	str	x22, [sp, #40]
    9fc4:	aa0203f6 	mov	x22, x2
    9fc8:	94000ac0 	bl	cac8 <std_fprintf>
    9fcc:	f01fffe0 	adrp	x0, 40008000 <module>
    9fd0:	f9405013 	ldr	x19, [x0, #160]
    9fd4:	b4000493 	cbz	x19, a064 <cmd_filesystems_list_cb+0xbc>
    9fd8:	a901d7b4 	stp	x20, x21, [x29, #24]
    9fdc:	f01fffd4 	adrp	x20, 40004000 <state_fmt+0x1388>
    9fe0:	f01fffd5 	adrp	x21, 40004000 <state_fmt+0x1388>
    9fe4:	f90023b9 	str	x25, [x29, #64]
    9fe8:	9114e2b5 	add	x21, x21, #0x538
    9fec:	f01fffd9 	adrp	x25, 40004000 <state_fmt+0x1388>
    9ff0:	91152294 	add	x20, x20, #0x548
    9ff4:	91150339 	add	x25, x25, #0x540
    9ff8:	a90363b7 	stp	x23, x24, [x29, #48]
    9ffc:	f01fffd8 	adrp	x24, 40004000 <state_fmt+0x1388>
    a000:	d01fffd7 	adrp	x23, 40004000 <state_fmt+0x1388>
    a004:	d503201f 	nop
    a008:	f9400261 	ldr	x1, [x19]
    a00c:	d2800802 	mov	x2, #0x40                  	// #64
    a010:	910143a0 	add	x0, x29, #0x50
    a014:	97ffdf9d 	bl	1e88 <strncpy>
    a018:	39023fbf 	strb	wzr, [x29, #143]
    a01c:	91168307 	add	x7, x24, #0x5a0
    a020:	aa1403e6 	mov	x6, x20
    a024:	b9400a68 	ldr	w8, [x19, #8]
    a028:	aa1403e5 	mov	x5, x20
    a02c:	aa1403e3 	mov	x3, x20
    a030:	910143a2 	add	x2, x29, #0x50
    a034:	9116a2e1 	add	x1, x23, #0x5a8
    a038:	aa1603e0 	mov	x0, x22
    a03c:	aa1503e4 	mov	x4, x21
    a040:	7100091f 	cmp	w8, #0x2
    a044:	34000048 	cbz	w8, a04c <cmd_filesystems_list_cb+0xa4>
    a048:	9a940324 	csel	x4, x25, x20, eq  // eq = none
    a04c:	94000a9f 	bl	cac8 <std_fprintf>
    a050:	f9400e73 	ldr	x19, [x19, #24]
    a054:	b5fffdb3 	cbnz	x19, a008 <cmd_filesystems_list_cb+0x60>
    a058:	a941d7b4 	ldp	x20, x21, [x29, #24]
    a05c:	a94363b7 	ldp	x23, x24, [x29, #48]
    a060:	f94023b9 	ldr	x25, [x29, #64]
    a064:	f9400bf3 	ldr	x19, [sp, #16]
    a068:	52800000 	mov	w0, #0x0                   	// #0
    a06c:	f94017f6 	ldr	x22, [sp, #40]
    a070:	a8c97bfd 	ldp	x29, x30, [sp], #144
    a074:	d65f03c0 	ret

000000000000a078 <create_absolute_path>:
    a078:	a9bd7bfd 	stp	x29, x30, [sp, #-48]!
    a07c:	910003fd 	mov	x29, sp
    a080:	a90153f3 	stp	x19, x20, [sp, #16]
    a084:	aa0103f4 	mov	x20, x1
    a088:	f90013f5 	str	x21, [sp, #32]
    a08c:	aa0003f5 	mov	x21, x0
    a090:	39400020 	ldrb	w0, [x1]
    a094:	7100bc1f 	cmp	w0, #0x2f
    a098:	54000440 	b.eq	a120 <create_absolute_path+0xa8>  // b.none
    a09c:	d01fffc0 	adrp	x0, 40004000 <state_fmt+0x1388>
    a0a0:	911cc000 	add	x0, x0, #0x730
    a0a4:	97ffeea3 	bl	5b30 <thrd_get_env>
    a0a8:	aa0003f3 	mov	x19, x0
    a0ac:	b4000420 	cbz	x0, a130 <create_absolute_path+0xb8>
    a0b0:	39400001 	ldrb	w1, [x0]
    a0b4:	d01fffc0 	adrp	x0, 40004000 <state_fmt+0x1388>
    a0b8:	911ca000 	add	x0, x0, #0x728
    a0bc:	7100003f 	cmp	w1, #0x0
    a0c0:	9a930013 	csel	x19, x0, x19, eq  // eq = none
    a0c4:	aa1303e0 	mov	x0, x19
    a0c8:	97ffdf2e 	bl	1d80 <strlen>
    a0cc:	8b000260 	add	x0, x19, x0
    a0d0:	d01fffc1 	adrp	x1, 40004000 <state_fmt+0x1388>
    a0d4:	901fffc4 	adrp	x4, 40002000 <level_warning+0x1140>
    a0d8:	911ca021 	add	x1, x1, #0x728
    a0dc:	911ec084 	add	x4, x4, #0x7b0
    a0e0:	385ff000 	ldurb	w0, [x0, #-1]
    a0e4:	7100bc1f 	cmp	w0, #0x2f
    a0e8:	9a810084 	csel	x4, x4, x1, eq  // eq = none
    a0ec:	aa1403e5 	mov	x5, x20
    a0f0:	aa1303e3 	mov	x3, x19
    a0f4:	d2800801 	mov	x1, #0x40                  	// #64
    a0f8:	aa1503e0 	mov	x0, x21
    a0fc:	d01fffc2 	adrp	x2, 40004000 <state_fmt+0x1388>
    a100:	911ce042 	add	x2, x2, #0x738
    a104:	94000a61 	bl	ca88 <std_snprintf>
    a108:	f100001f 	cmp	x0, #0x0
    a10c:	9a9fd000 	csel	x0, x0, xzr, le
    a110:	f94013f5 	ldr	x21, [sp, #32]
    a114:	a94153f3 	ldp	x19, x20, [sp, #16]
    a118:	a8c37bfd 	ldp	x29, x30, [sp], #48
    a11c:	d65f03c0 	ret
    a120:	901fffc4 	adrp	x4, 40002000 <level_warning+0x1140>
    a124:	911ec084 	add	x4, x4, #0x7b0
    a128:	aa0403f3 	mov	x19, x4
    a12c:	17fffff0 	b	a0ec <create_absolute_path+0x74>
    a130:	d01fffd3 	adrp	x19, 40004000 <state_fmt+0x1388>
    a134:	911ca273 	add	x19, x19, #0x728
    a138:	17ffffe3 	b	a0c4 <create_absolute_path+0x4c>
    a13c:	00000000 	.inst	0x00000000 ; undefined

000000000000a140 <get_filesystem_path_from_path>:
    a140:	a9bc7bfd 	stp	x29, x30, [sp, #-64]!
    a144:	910003fd 	mov	x29, sp
    a148:	a902dff6 	stp	x22, x23, [sp, #40]
    a14c:	aa0203f6 	mov	x22, x2
    a150:	d01fffe2 	adrp	x2, 40008000 <module>
    a154:	f9000ff4 	str	x20, [sp, #24]
    a158:	aa0003f7 	mov	x23, x0
    a15c:	f9405054 	ldr	x20, [x2, #160]
    a160:	394002c0 	ldrb	w0, [x22]
    a164:	7100bc1f 	cmp	w0, #0x2f
    a168:	9a9616d6 	cinc	x22, x22, eq  // eq = none
    a16c:	b40004d4 	cbz	x20, a204 <get_filesystem_path_from_path+0xc4>
    a170:	f9000bb3 	str	x19, [x29, #16]
    a174:	f90013b5 	str	x21, [x29, #32]
    a178:	f9001fb8 	str	x24, [x29, #56]
    a17c:	aa0103f8 	mov	x24, x1
    a180:	14000003 	b	a18c <get_filesystem_path_from_path+0x4c>
    a184:	f9400e94 	ldr	x20, [x20, #24]
    a188:	b4000394 	cbz	x20, a1f8 <get_filesystem_path_from_path+0xb8>
    a18c:	f9400293 	ldr	x19, [x20]
    a190:	39400260 	ldrb	w0, [x19]
    a194:	7100bc1f 	cmp	w0, #0x2f
    a198:	9a931673 	cinc	x19, x19, eq  // eq = none
    a19c:	aa1303e0 	mov	x0, x19
    a1a0:	97ffdef8 	bl	1d80 <strlen>
    a1a4:	93407c15 	sxtw	x21, w0
    a1a8:	aa1503e2 	mov	x2, x21
    a1ac:	aa1603e1 	mov	x1, x22
    a1b0:	aa1303e0 	mov	x0, x19
    a1b4:	97ffdf11 	bl	1df8 <strncmp>
    a1b8:	35fffe60 	cbnz	w0, a184 <get_filesystem_path_from_path+0x44>
    a1bc:	38756ac2 	ldrb	w2, [x22, x21]
    a1c0:	901fffc1 	adrp	x1, 40002000 <level_warning+0x1140>
    a1c4:	8b1502d5 	add	x21, x22, x21
    a1c8:	911ec036 	add	x22, x1, #0x7b0
    a1cc:	7100005f 	cmp	w2, #0x0
    a1d0:	f9400bb3 	ldr	x19, [x29, #16]
    a1d4:	9a9506d5 	csinc	x21, x22, x21, eq  // eq = none
    a1d8:	f9000315 	str	x21, [x24]
    a1dc:	f94013b5 	ldr	x21, [x29, #32]
    a1e0:	f9401fb8 	ldr	x24, [x29, #56]
    a1e4:	f90002f4 	str	x20, [x23]
    a1e8:	f9400ff4 	ldr	x20, [sp, #24]
    a1ec:	a942dff6 	ldp	x22, x23, [sp, #40]
    a1f0:	a8c47bfd 	ldp	x29, x30, [sp], #64
    a1f4:	d65f03c0 	ret
    a1f8:	f9400bb3 	ldr	x19, [x29, #16]
    a1fc:	f94013b5 	ldr	x21, [x29, #32]
    a200:	f9401fb8 	ldr	x24, [x29, #56]
    a204:	12800000 	mov	w0, #0xffffffff            	// #-1
    a208:	f9400ff4 	ldr	x20, [sp, #24]
    a20c:	a942dff6 	ldp	x22, x23, [sp, #40]
    a210:	a8c47bfd 	ldp	x29, x30, [sp], #64
    a214:	d65f03c0 	ret

000000000000a218 <fs_call>:
    a218:	a9b27bfd 	stp	x29, x30, [sp, #-224]!
    a21c:	910003fd 	mov	x29, sp
    a220:	a90153f3 	stp	x19, x20, [sp, #16]
    a224:	aa0003f3 	mov	x19, x0
    a228:	f90017f6 	str	x22, [sp, #40]
    a22c:	a9046bf9 	stp	x25, x26, [sp, #64]
    a230:	aa0103fa 	mov	x26, x1
    a234:	f9002bfb 	str	x27, [sp, #80]
    a238:	aa0203f9 	mov	x25, x2
    a23c:	aa0303fb 	mov	x27, x3
    a240:	b4001700 	cbz	x0, a520 <fs_call+0x308>
    a244:	d2800001 	mov	x1, #0x0                   	// #0
    a248:	aa1303e0 	mov	x0, x19
    a24c:	94000bbf 	bl	d148 <std_strip>
    a250:	aa0003f4 	mov	x20, x0
    a254:	97ffdecb 	bl	1d80 <strlen>
    a258:	b4001120 	cbz	x0, a47c <fs_call+0x264>
    a25c:	f90013b5 	str	x21, [x29, #32]
    a260:	a90363b7 	stp	x23, x24, [x29, #48]
    a264:	910183b8 	add	x24, x29, #0x60
    a268:	d2800017 	mov	x23, #0x0                   	// #0
    a26c:	39400280 	ldrb	w0, [x20]
    a270:	2a1703f6 	mov	w22, w23
    a274:	34001660 	cbz	w0, a540 <fs_call+0x328>
    a278:	f10042ff 	cmp	x23, #0x10
    a27c:	540011c0 	b.eq	a4b4 <fs_call+0x29c>  // b.none
    a280:	d2800001 	mov	x1, #0x0                   	// #0
    a284:	aa1403e0 	mov	x0, x20
    a288:	94000bb0 	bl	d148 <std_strip>
    a28c:	f8377b00 	str	x0, [x24, x23, lsl #3]
    a290:	aa0003f3 	mov	x19, x0
    a294:	39400000 	ldrb	w0, [x0]
    a298:	340010a0 	cbz	w0, a4ac <fs_call+0x294>
    a29c:	52800015 	mov	w21, #0x0                   	// #0
    a2a0:	91000674 	add	x20, x19, #0x1
    a2a4:	7101701f 	cmp	w0, #0x5c
    a2a8:	54000c80 	b.eq	a438 <fs_call+0x220>  // b.none
    a2ac:	350006d5 	cbnz	w21, a384 <fs_call+0x16c>
    a2b0:	7100881f 	cmp	w0, #0x22
    a2b4:	54000540 	b.eq	a35c <fs_call+0x144>  // b.none
    a2b8:	7100801f 	cmp	w0, #0x20
    a2bc:	54000cc0 	b.eq	a454 <fs_call+0x23c>  // b.none
    a2c0:	39400660 	ldrb	w0, [x19, #1]
    a2c4:	aa1403f3 	mov	x19, x20
    a2c8:	52800015 	mov	w21, #0x0                   	// #0
    a2cc:	35fffea0 	cbnz	w0, a2a0 <fs_call+0x88>
    a2d0:	110006f6 	add	w22, w23, #0x1
    a2d4:	35000d15 	cbnz	w21, a474 <fs_call+0x25c>
    a2d8:	d01fffe1 	adrp	x1, 40008000 <module>
    a2dc:	f94033a0 	ldr	x0, [x29, #96]
    a2e0:	f9404c33 	ldr	x19, [x1, #152]
    a2e4:	39400001 	ldrb	w1, [x0]
    a2e8:	7100bc3f 	cmp	w1, #0x2f
    a2ec:	1a9f07f4 	cset	w20, ne  // ne = any
    a2f0:	b4000f73 	cbz	x19, a4dc <fs_call+0x2c4>
    a2f4:	92401e94 	and	x20, x20, #0xff
    a2f8:	14000004 	b	a308 <fs_call+0xf0>
    a2fc:	f9400e73 	ldr	x19, [x19, #24]
    a300:	f94033a0 	ldr	x0, [x29, #96]
    a304:	b4000ed3 	cbz	x19, a4dc <fs_call+0x2c4>
    a308:	f9400261 	ldr	x1, [x19]
    a30c:	8b140021 	add	x1, x1, x20
    a310:	94000b0e 	bl	cf48 <std_strcmp>
    a314:	35ffff40 	cbnz	w0, a2fc <fs_call+0xe4>
    a318:	a9409266 	ldp	x6, x4, [x19, #8]
    a31c:	aa1b03e5 	mov	x5, x27
    a320:	aa1a03e3 	mov	x3, x26
    a324:	aa1903e2 	mov	x2, x25
    a328:	910183a1 	add	x1, x29, #0x60
    a32c:	2a1603e0 	mov	w0, w22
    a330:	d63f00c0 	blr	x6
    a334:	2a0003f6 	mov	w22, w0
    a338:	f94013b5 	ldr	x21, [x29, #32]
    a33c:	2a1603e0 	mov	w0, w22
    a340:	a94363b7 	ldp	x23, x24, [x29, #48]
    a344:	a94153f3 	ldp	x19, x20, [sp, #16]
    a348:	f94017f6 	ldr	x22, [sp, #40]
    a34c:	a9446bf9 	ldp	x25, x26, [sp, #64]
    a350:	f9402bfb 	ldr	x27, [sp, #80]
    a354:	a8ce7bfd 	ldp	x29, x30, [sp], #224
    a358:	d65f03c0 	ret
    a35c:	aa1403e0 	mov	x0, x20
    a360:	97ffde88 	bl	1d80 <strlen>
    a364:	aa1403e1 	mov	x1, x20
    a368:	91000402 	add	x2, x0, #0x1
    a36c:	aa1303e0 	mov	x0, x19
    a370:	97ffde4a 	bl	1c98 <memmove>
    a374:	39400260 	ldrb	w0, [x19]
    a378:	340007e0 	cbz	w0, a474 <fs_call+0x25c>
    a37c:	7101701f 	cmp	w0, #0x5c
    a380:	54000620 	b.eq	a444 <fs_call+0x22c>  // b.none
    a384:	7100881f 	cmp	w0, #0x22
    a388:	54000240 	b.eq	a3d0 <fs_call+0x1b8>  // b.none
    a38c:	39400660 	ldrb	w0, [x19, #1]
    a390:	34000720 	cbz	w0, a474 <fs_call+0x25c>
    a394:	7101701f 	cmp	w0, #0x5c
    a398:	54000820 	b.eq	a49c <fs_call+0x284>  // b.none
    a39c:	7100881f 	cmp	w0, #0x22
    a3a0:	91000696 	add	x22, x20, #0x1
    a3a4:	54000120 	b.eq	a3c8 <fs_call+0x1b0>  // b.none
    a3a8:	39400680 	ldrb	w0, [x20, #1]
    a3ac:	7101701f 	cmp	w0, #0x5c
    a3b0:	34000620 	cbz	w0, a474 <fs_call+0x25c>
    a3b4:	540005a0 	b.eq	a468 <fs_call+0x250>  // b.none
    a3b8:	aa1603f4 	mov	x20, x22
    a3bc:	7100881f 	cmp	w0, #0x22
    a3c0:	91000696 	add	x22, x20, #0x1
    a3c4:	54ffff21 	b.ne	a3a8 <fs_call+0x190>  // b.any
    a3c8:	aa1403f3 	mov	x19, x20
    a3cc:	aa1603f4 	mov	x20, x22
    a3d0:	aa1403e0 	mov	x0, x20
    a3d4:	97ffde6b 	bl	1d80 <strlen>
    a3d8:	aa1403e1 	mov	x1, x20
    a3dc:	91000402 	add	x2, x0, #0x1
    a3e0:	aa1303e0 	mov	x0, x19
    a3e4:	97ffde2d 	bl	1c98 <memmove>
    a3e8:	39400260 	ldrb	w0, [x19]
    a3ec:	34000960 	cbz	w0, a518 <fs_call+0x300>
    a3f0:	7101701f 	cmp	w0, #0x5c
    a3f4:	54fff5e1 	b.ne	a2b0 <fs_call+0x98>  // b.any
    a3f8:	aa1303f6 	mov	x22, x19
    a3fc:	aa1403f3 	mov	x19, x20
    a400:	52800015 	mov	w21, #0x0                   	// #0
    a404:	d503201f 	nop
    a408:	394006c0 	ldrb	w0, [x22, #1]
    a40c:	7100881f 	cmp	w0, #0x22
    a410:	54fff5e1 	b.ne	a2cc <fs_call+0xb4>  // b.any
    a414:	aa1303e0 	mov	x0, x19
    a418:	97ffde5a 	bl	1d80 <strlen>
    a41c:	aa1303e1 	mov	x1, x19
    a420:	91000402 	add	x2, x0, #0x1
    a424:	aa1603e0 	mov	x0, x22
    a428:	97ffde1c 	bl	1c98 <memmove>
    a42c:	394006c0 	ldrb	w0, [x22, #1]
    a430:	35fff380 	cbnz	w0, a2a0 <fs_call+0x88>
    a434:	17ffffa7 	b	a2d0 <fs_call+0xb8>
    a438:	aa1303f6 	mov	x22, x19
    a43c:	aa1403f3 	mov	x19, x20
    a440:	17fffff2 	b	a408 <fs_call+0x1f0>
    a444:	aa1303f6 	mov	x22, x19
    a448:	52800035 	mov	w21, #0x1                   	// #1
    a44c:	aa1403f3 	mov	x19, x20
    a450:	17ffffee 	b	a408 <fs_call+0x1f0>
    a454:	3900027f 	strb	wzr, [x19]
    a458:	b40000f4 	cbz	x20, a474 <fs_call+0x25c>
    a45c:	39400280 	ldrb	w0, [x20]
    a460:	910006f7 	add	x23, x23, #0x1
    a464:	17ffff83 	b	a270 <fs_call+0x58>
    a468:	91000a93 	add	x19, x20, #0x2
    a46c:	52800035 	mov	w21, #0x1                   	// #1
    a470:	17ffffe6 	b	a408 <fs_call+0x1f0>
    a474:	f94013b5 	ldr	x21, [x29, #32]
    a478:	a94363b7 	ldp	x23, x24, [x29, #48]
    a47c:	12800016 	mov	w22, #0xffffffff            	// #-1
    a480:	2a1603e0 	mov	w0, w22
    a484:	f94017f6 	ldr	x22, [sp, #40]
    a488:	a94153f3 	ldp	x19, x20, [sp, #16]
    a48c:	a9446bf9 	ldp	x25, x26, [sp, #64]
    a490:	f9402bfb 	ldr	x27, [sp, #80]
    a494:	a8ce7bfd 	ldp	x29, x30, [sp], #224
    a498:	d65f03c0 	ret
    a49c:	91000693 	add	x19, x20, #0x1
    a4a0:	aa1403f6 	mov	x22, x20
    a4a4:	52800035 	mov	w21, #0x1                   	// #1
    a4a8:	17ffffd8 	b	a408 <fs_call+0x1f0>
    a4ac:	110006f6 	add	w22, w23, #0x1
    a4b0:	17ffff8a 	b	a2d8 <fs_call+0xc0>
    a4b4:	128000d6 	mov	w22, #0xfffffff9            	// #-7
    a4b8:	f94013b5 	ldr	x21, [x29, #32]
    a4bc:	a94363b7 	ldp	x23, x24, [x29, #48]
    a4c0:	2a1603e0 	mov	w0, w22
    a4c4:	a94153f3 	ldp	x19, x20, [sp, #16]
    a4c8:	f94017f6 	ldr	x22, [sp, #40]
    a4cc:	a9446bf9 	ldp	x25, x26, [sp, #64]
    a4d0:	f9402bfb 	ldr	x27, [sp, #80]
    a4d4:	a8ce7bfd 	ldp	x29, x30, [sp], #224
    a4d8:	d65f03c0 	ret
    a4dc:	aa0003e2 	mov	x2, x0
    a4e0:	12807d56 	mov	w22, #0xfffffc15            	// #-1003
    a4e4:	aa1903e0 	mov	x0, x25
    a4e8:	d01fffc1 	adrp	x1, 40004000 <state_fmt+0x1388>
    a4ec:	91200021 	add	x1, x1, #0x800
    a4f0:	94000976 	bl	cac8 <std_fprintf>
    a4f4:	2a1603e0 	mov	w0, w22
    a4f8:	f94013b5 	ldr	x21, [x29, #32]
    a4fc:	a94363b7 	ldp	x23, x24, [x29, #48]
    a500:	a94153f3 	ldp	x19, x20, [sp, #16]
    a504:	f94017f6 	ldr	x22, [sp, #40]
    a508:	a9446bf9 	ldp	x25, x26, [sp, #64]
    a50c:	f9402bfb 	ldr	x27, [sp, #80]
    a510:	a8ce7bfd 	ldp	x29, x30, [sp], #224
    a514:	d65f03c0 	ret
    a518:	aa1303f4 	mov	x20, x19
    a51c:	17ffffd0 	b	a45c <fs_call+0x244>
    a520:	d01fffc0 	adrp	x0, 40004000 <state_fmt+0x1388>
    a524:	911e8000 	add	x0, x0, #0x7a0
    a528:	940008c4 	bl	c838 <std_printf>
    a52c:	d01fffa1 	adrp	x1, 40000000 <__ram_begin>
    a530:	528002c0 	mov	w0, #0x16                  	// #22
    a534:	f9400421 	ldr	x1, [x1, #8]
    a538:	d63f0020 	blr	x1
    a53c:	17ffff42 	b	a244 <fs_call+0x2c>
    a540:	35ffecd7 	cbnz	w23, a2d8 <fs_call+0xc0>
    a544:	f94013b5 	ldr	x21, [x29, #32]
    a548:	a94363b7 	ldp	x23, x24, [x29, #48]
    a54c:	17ffffcd 	b	a480 <fs_call+0x268>

000000000000a550 <fs_open>:
    a550:	a9b87bfd 	stp	x29, x30, [sp, #-128]!
    a554:	910003fd 	mov	x29, sp
    a558:	a90153f3 	stp	x19, x20, [sp, #16]
    a55c:	aa0003f3 	mov	x19, x0
    a560:	2a0203f4 	mov	w20, w2
    a564:	f90017a1 	str	x1, [x29, #40]
    a568:	b40005e0 	cbz	x0, a624 <fs_open+0xd4>
    a56c:	f94017a1 	ldr	x1, [x29, #40]
    a570:	b4000481 	cbz	x1, a600 <fs_open+0xb0>
    a574:	910103a0 	add	x0, x29, #0x40
    a578:	97fffec0 	bl	a078 <create_absolute_path>
    a57c:	35000180 	cbnz	w0, a5ac <fs_open+0x5c>
    a580:	910103a2 	add	x2, x29, #0x40
    a584:	9100a3a1 	add	x1, x29, #0x28
    a588:	9100e3a0 	add	x0, x29, #0x38
    a58c:	97fffeed 	bl	a140 <get_filesystem_path_from_path>
    a590:	350000e0 	cbnz	w0, a5ac <fs_open+0x5c>
    a594:	f9401fa0 	ldr	x0, [x29, #56]
    a598:	b9400801 	ldr	w1, [x0, #8]
    a59c:	f9000260 	str	x0, [x19]
    a5a0:	34000201 	cbz	w1, a5e0 <fs_open+0x90>
    a5a4:	7100083f 	cmp	w1, #0x2
    a5a8:	540000a0 	b.eq	a5bc <fs_open+0x6c>  // b.none
    a5ac:	a94153f3 	ldp	x19, x20, [sp, #16]
    a5b0:	12800000 	mov	w0, #0xffffffff            	// #-1
    a5b4:	a8c87bfd 	ldp	x29, x30, [sp], #128
    a5b8:	d65f03c0 	ret
    a5bc:	f9400804 	ldr	x4, [x0, #16]
    a5c0:	2a1403e3 	mov	w3, w20
    a5c4:	f94017a2 	ldr	x2, [x29, #40]
    a5c8:	aa1303e1 	mov	x1, x19
    a5cc:	f9400084 	ldr	x4, [x4]
    a5d0:	d63f0080 	blr	x4
    a5d4:	a94153f3 	ldp	x19, x20, [sp, #16]
    a5d8:	a8c87bfd 	ldp	x29, x30, [sp], #128
    a5dc:	d65f03c0 	ret
    a5e0:	f94017a2 	ldr	x2, [x29, #40]
    a5e4:	2a1403e3 	mov	w3, w20
    a5e8:	f9400800 	ldr	x0, [x0, #16]
    a5ec:	91002261 	add	x1, x19, #0x8
    a5f0:	97fffcd8 	bl	9950 <fat16_file_open>
    a5f4:	a94153f3 	ldp	x19, x20, [sp, #16]
    a5f8:	a8c87bfd 	ldp	x29, x30, [sp], #128
    a5fc:	d65f03c0 	ret
    a600:	d01fffc0 	adrp	x0, 40004000 <state_fmt+0x1388>
    a604:	91396000 	add	x0, x0, #0xe58
    a608:	9400088c 	bl	c838 <std_printf>
    a60c:	d01fffa1 	adrp	x1, 40000000 <__ram_begin>
    a610:	528002c0 	mov	w0, #0x16                  	// #22
    a614:	f9400421 	ldr	x1, [x1, #8]
    a618:	d63f0020 	blr	x1
    a61c:	f94017a1 	ldr	x1, [x29, #40]
    a620:	17ffffd5 	b	a574 <fs_open+0x24>
    a624:	d01fffc0 	adrp	x0, 40004000 <state_fmt+0x1388>
    a628:	9137e000 	add	x0, x0, #0xdf8
    a62c:	94000883 	bl	c838 <std_printf>
    a630:	d01fffa1 	adrp	x1, 40000000 <__ram_begin>
    a634:	528002c0 	mov	w0, #0x16                  	// #22
    a638:	f9400421 	ldr	x1, [x1, #8]
    a63c:	d63f0020 	blr	x1
    a640:	17ffffcb 	b	a56c <fs_open+0x1c>
    a644:	00000000 	.inst	0x00000000 ; undefined

000000000000a648 <fs_close>:
    a648:	a9be7bfd 	stp	x29, x30, [sp, #-32]!
    a64c:	910003fd 	mov	x29, sp
    a650:	f9000bf3 	str	x19, [sp, #16]
    a654:	aa0003f3 	mov	x19, x0
    a658:	b4000280 	cbz	x0, a6a8 <fs_close+0x60>
    a65c:	f9400261 	ldr	x1, [x19]
    a660:	b9400820 	ldr	w0, [x1, #8]
    a664:	340001a0 	cbz	w0, a698 <fs_close+0x50>
    a668:	7100081f 	cmp	w0, #0x2
    a66c:	540000e1 	b.ne	a688 <fs_close+0x40>  // b.any
    a670:	f9400821 	ldr	x1, [x1, #16]
    a674:	aa1303e0 	mov	x0, x19
    a678:	f9400bf3 	ldr	x19, [sp, #16]
    a67c:	a8c27bfd 	ldp	x29, x30, [sp], #32
    a680:	f9400421 	ldr	x1, [x1, #8]
    a684:	d61f0020 	br	x1
    a688:	12800000 	mov	w0, #0xffffffff            	// #-1
    a68c:	f9400bf3 	ldr	x19, [sp, #16]
    a690:	a8c27bfd 	ldp	x29, x30, [sp], #32
    a694:	d65f03c0 	ret
    a698:	91002260 	add	x0, x19, #0x8
    a69c:	f9400bf3 	ldr	x19, [sp, #16]
    a6a0:	a8c27bfd 	ldp	x29, x30, [sp], #32
    a6a4:	17fffa6d 	b	9058 <fat16_file_close>
    a6a8:	d01fffc0 	adrp	x0, 40004000 <state_fmt+0x1388>
    a6ac:	91206000 	add	x0, x0, #0x818
    a6b0:	94000862 	bl	c838 <std_printf>
    a6b4:	d01fffa1 	adrp	x1, 40000000 <__ram_begin>
    a6b8:	528002c0 	mov	w0, #0x16                  	// #22
    a6bc:	f9400421 	ldr	x1, [x1, #8]
    a6c0:	d63f0020 	blr	x1
    a6c4:	17ffffe6 	b	a65c <fs_close+0x14>

000000000000a6c8 <fs_read>:
    a6c8:	a9bd7bfd 	stp	x29, x30, [sp, #-48]!
    a6cc:	910003fd 	mov	x29, sp
    a6d0:	a90153f3 	stp	x19, x20, [sp, #16]
    a6d4:	aa0003f3 	mov	x19, x0
    a6d8:	f90013f5 	str	x21, [sp, #32]
    a6dc:	aa0103f4 	mov	x20, x1
    a6e0:	aa0203f5 	mov	x21, x2
    a6e4:	b40004c0 	cbz	x0, a77c <fs_read+0xb4>
    a6e8:	f100029f 	cmp	x20, #0x0
    a6ec:	fa400aa4 	ccmp	x21, #0x0, #0x4, eq  // eq = none
    a6f0:	54000361 	b.ne	a75c <fs_read+0x94>  // b.any
    a6f4:	f9400261 	ldr	x1, [x19]
    a6f8:	b9400820 	ldr	w0, [x1, #8]
    a6fc:	34000220 	cbz	w0, a740 <fs_read+0x78>
    a700:	7100081f 	cmp	w0, #0x2
    a704:	54000141 	b.ne	a72c <fs_read+0x64>  // b.any
    a708:	f9400823 	ldr	x3, [x1, #16]
    a70c:	aa1503e2 	mov	x2, x21
    a710:	aa1303e0 	mov	x0, x19
    a714:	aa1403e1 	mov	x1, x20
    a718:	a94153f3 	ldp	x19, x20, [sp, #16]
    a71c:	f94013f5 	ldr	x21, [sp, #32]
    a720:	f9400863 	ldr	x3, [x3, #16]
    a724:	a8c37bfd 	ldp	x29, x30, [sp], #48
    a728:	d61f0060 	br	x3
    a72c:	92800000 	mov	x0, #0xffffffffffffffff    	// #-1
    a730:	f94013f5 	ldr	x21, [sp, #32]
    a734:	a94153f3 	ldp	x19, x20, [sp, #16]
    a738:	a8c37bfd 	ldp	x29, x30, [sp], #48
    a73c:	d65f03c0 	ret
    a740:	aa1503e2 	mov	x2, x21
    a744:	aa1403e1 	mov	x1, x20
    a748:	91002260 	add	x0, x19, #0x8
    a74c:	f94013f5 	ldr	x21, [sp, #32]
    a750:	a94153f3 	ldp	x19, x20, [sp, #16]
    a754:	a8c37bfd 	ldp	x29, x30, [sp], #48
    a758:	17fff932 	b	8c20 <fat16_file_read>
    a75c:	d01fffc0 	adrp	x0, 40004000 <state_fmt+0x1388>
    a760:	913c6000 	add	x0, x0, #0xf18
    a764:	94000835 	bl	c838 <std_printf>
    a768:	d01fffa1 	adrp	x1, 40000000 <__ram_begin>
    a76c:	528002c0 	mov	w0, #0x16                  	// #22
    a770:	f9400421 	ldr	x1, [x1, #8]
    a774:	d63f0020 	blr	x1
    a778:	17ffffdf 	b	a6f4 <fs_read+0x2c>
    a77c:	d01fffc0 	adrp	x0, 40004000 <state_fmt+0x1388>
    a780:	913ae000 	add	x0, x0, #0xeb8
    a784:	9400082d 	bl	c838 <std_printf>
    a788:	d01fffa1 	adrp	x1, 40000000 <__ram_begin>
    a78c:	528002c0 	mov	w0, #0x16                  	// #22
    a790:	f9400421 	ldr	x1, [x1, #8]
    a794:	d63f0020 	blr	x1
    a798:	17ffffd4 	b	a6e8 <fs_read+0x20>
    a79c:	00000000 	.inst	0x00000000 ; undefined

000000000000a7a0 <cmd_read_cb>:
    a7a0:	a9b87bfd 	stp	x29, x30, [sp, #-128]!
    a7a4:	7100081f 	cmp	w0, #0x2
    a7a8:	910003fd 	mov	x29, sp
    a7ac:	a90153f3 	stp	x19, x20, [sp, #16]
    a7b0:	aa0203f3 	mov	x19, x2
    a7b4:	54000361 	b.ne	a820 <cmd_read_cb+0x80>  // b.any
    a7b8:	f90013b5 	str	x21, [x29, #32]
    a7bc:	aa0103f5 	mov	x21, x1
    a7c0:	f9400421 	ldr	x1, [x1, #8]
    a7c4:	52800022 	mov	w2, #0x1                   	// #1
    a7c8:	910143a0 	add	x0, x29, #0x50
    a7cc:	97ffff61 	bl	a550 <fs_open>
    a7d0:	2a0003f4 	mov	w20, w0
    a7d4:	34000080 	cbz	w0, a7e4 <cmd_read_cb+0x44>
    a7d8:	14000018 	b	a838 <cmd_read_cb+0x98>
    a7dc:	9100c3a1 	add	x1, x29, #0x30
    a7e0:	9400043c 	bl	b8d0 <chan_write>
    a7e4:	d2800402 	mov	x2, #0x20                  	// #32
    a7e8:	9100c3a1 	add	x1, x29, #0x30
    a7ec:	910143a0 	add	x0, x29, #0x50
    a7f0:	97ffffb6 	bl	a6c8 <fs_read>
    a7f4:	aa0003e2 	mov	x2, x0
    a7f8:	aa1303e0 	mov	x0, x19
    a7fc:	f100005f 	cmp	x2, #0x0
    a800:	54fffeec 	b.gt	a7dc <cmd_read_cb+0x3c>
    a804:	910143a0 	add	x0, x29, #0x50
    a808:	97ffff90 	bl	a648 <fs_close>
    a80c:	f94013b5 	ldr	x21, [x29, #32]
    a810:	2a1403e0 	mov	w0, w20
    a814:	a94153f3 	ldp	x19, x20, [sp, #16]
    a818:	a8c87bfd 	ldp	x29, x30, [sp], #128
    a81c:	d65f03c0 	ret
    a820:	d01fffc1 	adrp	x1, 40004000 <state_fmt+0x1388>
    a824:	aa0203e0 	mov	x0, x2
    a828:	91192021 	add	x1, x1, #0x648
    a82c:	12800014 	mov	w20, #0xffffffff            	// #-1
    a830:	940008a6 	bl	cac8 <std_fprintf>
    a834:	17fffff7 	b	a810 <cmd_read_cb+0x70>
    a838:	f94006a2 	ldr	x2, [x21, #8]
    a83c:	d01fffc1 	adrp	x1, 40004000 <state_fmt+0x1388>
    a840:	aa1303e0 	mov	x0, x19
    a844:	91198021 	add	x1, x1, #0x660
    a848:	12800014 	mov	w20, #0xffffffff            	// #-1
    a84c:	9400089f 	bl	cac8 <std_fprintf>
    a850:	f94013b5 	ldr	x21, [x29, #32]
    a854:	17ffffef 	b	a810 <cmd_read_cb+0x70>

000000000000a858 <fs_write>:
    a858:	a9bd7bfd 	stp	x29, x30, [sp, #-48]!
    a85c:	910003fd 	mov	x29, sp
    a860:	a90153f3 	stp	x19, x20, [sp, #16]
    a864:	aa0003f3 	mov	x19, x0
    a868:	f90013f5 	str	x21, [sp, #32]
    a86c:	aa0103f4 	mov	x20, x1
    a870:	aa0203f5 	mov	x21, x2
    a874:	b40004c0 	cbz	x0, a90c <fs_write+0xb4>
    a878:	f100029f 	cmp	x20, #0x0
    a87c:	fa400aa4 	ccmp	x21, #0x0, #0x4, eq  // eq = none
    a880:	54000361 	b.ne	a8ec <fs_write+0x94>  // b.any
    a884:	f9400261 	ldr	x1, [x19]
    a888:	b9400820 	ldr	w0, [x1, #8]
    a88c:	34000220 	cbz	w0, a8d0 <fs_write+0x78>
    a890:	7100081f 	cmp	w0, #0x2
    a894:	54000141 	b.ne	a8bc <fs_write+0x64>  // b.any
    a898:	f9400823 	ldr	x3, [x1, #16]
    a89c:	aa1503e2 	mov	x2, x21
    a8a0:	aa1303e0 	mov	x0, x19
    a8a4:	aa1403e1 	mov	x1, x20
    a8a8:	a94153f3 	ldp	x19, x20, [sp, #16]
    a8ac:	f94013f5 	ldr	x21, [sp, #32]
    a8b0:	f9400c63 	ldr	x3, [x3, #24]
    a8b4:	a8c37bfd 	ldp	x29, x30, [sp], #48
    a8b8:	d61f0060 	br	x3
    a8bc:	92800000 	mov	x0, #0xffffffffffffffff    	// #-1
    a8c0:	f94013f5 	ldr	x21, [sp, #32]
    a8c4:	a94153f3 	ldp	x19, x20, [sp, #16]
    a8c8:	a8c37bfd 	ldp	x29, x30, [sp], #48
    a8cc:	d65f03c0 	ret
    a8d0:	aa1503e2 	mov	x2, x21
    a8d4:	aa1403e1 	mov	x1, x20
    a8d8:	91002260 	add	x0, x19, #0x8
    a8dc:	f94013f5 	ldr	x21, [sp, #32]
    a8e0:	a94153f3 	ldp	x19, x20, [sp, #16]
    a8e4:	a8c37bfd 	ldp	x29, x30, [sp], #48
    a8e8:	17fff9f6 	b	90c0 <fat16_file_write>
    a8ec:	f01fffc0 	adrp	x0, 40005000 <state_fmt+0x2388>
    a8f0:	9105a000 	add	x0, x0, #0x168
    a8f4:	940007d1 	bl	c838 <std_printf>
    a8f8:	d01fffa1 	adrp	x1, 40000000 <__ram_begin>
    a8fc:	528002c0 	mov	w0, #0x16                  	// #22
    a900:	f9400421 	ldr	x1, [x1, #8]
    a904:	d63f0020 	blr	x1
    a908:	17ffffdf 	b	a884 <fs_write+0x2c>
    a90c:	f01fffc0 	adrp	x0, 40005000 <state_fmt+0x2388>
    a910:	91042000 	add	x0, x0, #0x108
    a914:	940007c9 	bl	c838 <std_printf>
    a918:	d01fffa1 	adrp	x1, 40000000 <__ram_begin>
    a91c:	528002c0 	mov	w0, #0x16                  	// #22
    a920:	f9400421 	ldr	x1, [x1, #8]
    a924:	d63f0020 	blr	x1
    a928:	17ffffd4 	b	a878 <fs_write+0x20>
    a92c:	00000000 	.inst	0x00000000 ; undefined

000000000000a930 <cmd_append_cb>:
    a930:	a9ba7bfd 	stp	x29, x30, [sp, #-96]!
    a934:	71000c1f 	cmp	w0, #0x3
    a938:	910003fd 	mov	x29, sp
    a93c:	f9000ff4 	str	x20, [sp, #24]
    a940:	f90017f6 	str	x22, [sp, #40]
    a944:	aa0203f6 	mov	x22, x2
    a948:	54000381 	b.ne	a9b8 <cmd_append_cb+0x88>  // b.any
    a94c:	f9000bb3 	str	x19, [x29, #16]
    a950:	aa0103f3 	mov	x19, x1
    a954:	f9400421 	ldr	x1, [x1, #8]
    a958:	528000e2 	mov	w2, #0x7                   	// #7
    a95c:	9100c3a0 	add	x0, x29, #0x30
    a960:	97fffefc 	bl	a550 <fs_open>
    a964:	2a0003f4 	mov	w20, w0
    a968:	35000460 	cbnz	w0, a9f4 <cmd_append_cb+0xc4>
    a96c:	f9400a60 	ldr	x0, [x19, #16]
    a970:	f90013b5 	str	x21, [x29, #32]
    a974:	97ffdd03 	bl	1d80 <strlen>
    a978:	aa0003f5 	mov	x21, x0
    a97c:	f9400a61 	ldr	x1, [x19, #16]
    a980:	aa0003e2 	mov	x2, x0
    a984:	9100c3a0 	add	x0, x29, #0x30
    a988:	97ffffb4 	bl	a858 <fs_write>
    a98c:	eb15001f 	cmp	x0, x21
    a990:	54000201 	b.ne	a9d0 <cmd_append_cb+0xa0>  // b.any
    a994:	9100c3a0 	add	x0, x29, #0x30
    a998:	97ffff2c 	bl	a648 <fs_close>
    a99c:	f9400bb3 	ldr	x19, [x29, #16]
    a9a0:	f94013b5 	ldr	x21, [x29, #32]
    a9a4:	2a1403e0 	mov	w0, w20
    a9a8:	f9400ff4 	ldr	x20, [sp, #24]
    a9ac:	f94017f6 	ldr	x22, [sp, #40]
    a9b0:	a8c67bfd 	ldp	x29, x30, [sp], #96
    a9b4:	d65f03c0 	ret
    a9b8:	d01fffc1 	adrp	x1, 40004000 <state_fmt+0x1388>
    a9bc:	aa0203e0 	mov	x0, x2
    a9c0:	9113c021 	add	x1, x1, #0x4f0
    a9c4:	12800014 	mov	w20, #0xffffffff            	// #-1
    a9c8:	94000840 	bl	cac8 <std_fprintf>
    a9cc:	17fffff6 	b	a9a4 <cmd_append_cb+0x74>
    a9d0:	f9400a62 	ldr	x2, [x19, #16]
    a9d4:	d01fffc1 	adrp	x1, 40004000 <state_fmt+0x1388>
    a9d8:	aa1603e0 	mov	x0, x22
    a9dc:	91144021 	add	x1, x1, #0x510
    a9e0:	12800014 	mov	w20, #0xffffffff            	// #-1
    a9e4:	94000839 	bl	cac8 <std_fprintf>
    a9e8:	f9400bb3 	ldr	x19, [x29, #16]
    a9ec:	f94013b5 	ldr	x21, [x29, #32]
    a9f0:	17ffffed 	b	a9a4 <cmd_append_cb+0x74>
    a9f4:	f9400662 	ldr	x2, [x19, #8]
    a9f8:	d01fffc1 	adrp	x1, 40004000 <state_fmt+0x1388>
    a9fc:	aa1603e0 	mov	x0, x22
    aa00:	91198021 	add	x1, x1, #0x660
    aa04:	12800014 	mov	w20, #0xffffffff            	// #-1
    aa08:	94000830 	bl	cac8 <std_fprintf>
    aa0c:	f9400bb3 	ldr	x19, [x29, #16]
    aa10:	17ffffe5 	b	a9a4 <cmd_append_cb+0x74>
    aa14:	00000000 	.inst	0x00000000 ; undefined

000000000000aa18 <cmd_write_cb>:
    aa18:	a9b87bfd 	stp	x29, x30, [sp, #-128]!
    aa1c:	7100041f 	cmp	w0, #0x1
    aa20:	910003fd 	mov	x29, sp
    aa24:	a902dff6 	stp	x22, x23, [sp, #40]
    aa28:	aa0203f7 	mov	x23, x2
    aa2c:	5400082d 	b.le	ab30 <cmd_write_cb+0x118>
    aa30:	f90013b5 	str	x21, [x29, #32]
    aa34:	aa0103f5 	mov	x21, x1
    aa38:	f9400421 	ldr	x1, [x1, #8]
    aa3c:	52800a62 	mov	w2, #0x53                  	// #83
    aa40:	a90153b3 	stp	x19, x20, [x29, #16]
    aa44:	2a0003f3 	mov	w19, w0
    aa48:	aa0303f4 	mov	x20, x3
    aa4c:	910143a0 	add	x0, x29, #0x50
    aa50:	97fffec0 	bl	a550 <fs_open>
    aa54:	2a0003f6 	mov	w22, w0
    aa58:	35000780 	cbnz	w0, ab48 <cmd_write_cb+0x130>
    aa5c:	71000e7f 	cmp	w19, #0x3
    aa60:	540004a0 	b.eq	aaf4 <cmd_write_cb+0xdc>  // b.none
    aa64:	d2800013 	mov	x19, #0x0                   	// #0
    aa68:	d01fffc1 	adrp	x1, 40004000 <state_fmt+0x1388>
    aa6c:	aa1703e0 	mov	x0, x23
    aa70:	911ba021 	add	x1, x1, #0x6e8
    aa74:	94000815 	bl	cac8 <std_fprintf>
    aa78:	14000009 	b	aa9c <cmd_write_cb+0x84>
    aa7c:	39413fa3 	ldrb	w3, [x29, #79]
    aa80:	91013fa1 	add	x1, x29, #0x4f
    aa84:	7100107f 	cmp	w3, #0x4
    aa88:	540001a0 	b.eq	aabc <cmd_write_cb+0xa4>  // b.none
    aa8c:	97ffff73 	bl	a858 <fs_write>
    aa90:	91000673 	add	x19, x19, #0x1
    aa94:	f100041f 	cmp	x0, #0x1
    aa98:	54000401 	b.ne	ab18 <cmd_write_cb+0x100>  // b.any
    aa9c:	d2800022 	mov	x2, #0x1                   	// #1
    aaa0:	91013fa1 	add	x1, x29, #0x4f
    aaa4:	aa1403e0 	mov	x0, x20
    aaa8:	94000356 	bl	b800 <chan_read>
    aaac:	aa0003e2 	mov	x2, x0
    aab0:	910143a0 	add	x0, x29, #0x50
    aab4:	f100045f 	cmp	x2, #0x1
    aab8:	54fffe20 	b.eq	aa7c <cmd_write_cb+0x64>  // b.none
    aabc:	f94006a3 	ldr	x3, [x21, #8]
    aac0:	d01fffc1 	adrp	x1, 40004000 <state_fmt+0x1388>
    aac4:	aa1303e2 	mov	x2, x19
    aac8:	911c4021 	add	x1, x1, #0x710
    aacc:	aa1703e0 	mov	x0, x23
    aad0:	940007fe 	bl	cac8 <std_fprintf>
    aad4:	910143a0 	add	x0, x29, #0x50
    aad8:	97fffedc 	bl	a648 <fs_close>
    aadc:	a94153b3 	ldp	x19, x20, [x29, #16]
    aae0:	f94013b5 	ldr	x21, [x29, #32]
    aae4:	2a1603e0 	mov	w0, w22
    aae8:	a942dff6 	ldp	x22, x23, [sp, #40]
    aaec:	a8c87bfd 	ldp	x29, x30, [sp], #128
    aaf0:	d65f03c0 	ret
    aaf4:	f9400aa0 	ldr	x0, [x21, #16]
    aaf8:	97ffdca2 	bl	1d80 <strlen>
    aafc:	aa0003f3 	mov	x19, x0
    ab00:	f9400aa1 	ldr	x1, [x21, #16]
    ab04:	aa0003e2 	mov	x2, x0
    ab08:	910143a0 	add	x0, x29, #0x50
    ab0c:	97ffff53 	bl	a858 <fs_write>
    ab10:	eb13001f 	cmp	x0, x19
    ab14:	54fffe00 	b.eq	aad4 <cmd_write_cb+0xbc>  // b.none
    ab18:	f94006a2 	ldr	x2, [x21, #8]
    ab1c:	d01fffc1 	adrp	x1, 40004000 <state_fmt+0x1388>
    ab20:	aa1703e0 	mov	x0, x23
    ab24:	911b2021 	add	x1, x1, #0x6c8
    ab28:	940007e8 	bl	cac8 <std_fprintf>
    ab2c:	17ffffea 	b	aad4 <cmd_write_cb+0xbc>
    ab30:	d01fffc1 	adrp	x1, 40004000 <state_fmt+0x1388>
    ab34:	aa0203e0 	mov	x0, x2
    ab38:	911aa021 	add	x1, x1, #0x6a8
    ab3c:	12800016 	mov	w22, #0xffffffff            	// #-1
    ab40:	940007e2 	bl	cac8 <std_fprintf>
    ab44:	17ffffe8 	b	aae4 <cmd_write_cb+0xcc>
    ab48:	f94006a2 	ldr	x2, [x21, #8]
    ab4c:	d01fffc1 	adrp	x1, 40004000 <state_fmt+0x1388>
    ab50:	aa1703e0 	mov	x0, x23
    ab54:	91198021 	add	x1, x1, #0x660
    ab58:	12800016 	mov	w22, #0xffffffff            	// #-1
    ab5c:	940007db 	bl	cac8 <std_fprintf>
    ab60:	f94013b5 	ldr	x21, [x29, #32]
    ab64:	a94153b3 	ldp	x19, x20, [x29, #16]
    ab68:	17ffffdf 	b	aae4 <cmd_write_cb+0xcc>
    ab6c:	00000000 	.inst	0x00000000 ; undefined

000000000000ab70 <fs_remove>:
    ab70:	a9b97bfd 	stp	x29, x30, [sp, #-112]!
    ab74:	910003fd 	mov	x29, sp
    ab78:	f9000fa0 	str	x0, [x29, #24]
    ab7c:	b4000180 	cbz	x0, abac <fs_remove+0x3c>
    ab80:	aa0003e1 	mov	x1, x0
    ab84:	9100c3a0 	add	x0, x29, #0x30
    ab88:	97fffd3c 	bl	a078 <create_absolute_path>
    ab8c:	350000a0 	cbnz	w0, aba0 <fs_remove+0x30>
    ab90:	9100c3a2 	add	x2, x29, #0x30
    ab94:	910063a1 	add	x1, x29, #0x18
    ab98:	9100a3a0 	add	x0, x29, #0x28
    ab9c:	97fffd69 	bl	a140 <get_filesystem_path_from_path>
    aba0:	12800000 	mov	w0, #0xffffffff            	// #-1
    aba4:	a8c77bfd 	ldp	x29, x30, [sp], #112
    aba8:	d65f03c0 	ret
    abac:	d01fffc0 	adrp	x0, 40004000 <state_fmt+0x1388>
    abb0:	913e2000 	add	x0, x0, #0xf88
    abb4:	94000721 	bl	c838 <std_printf>
    abb8:	d01fffa1 	adrp	x1, 40000000 <__ram_begin>
    abbc:	528002c0 	mov	w0, #0x16                  	// #22
    abc0:	f9400421 	ldr	x1, [x1, #8]
    abc4:	d63f0020 	blr	x1
    abc8:	f9400fa0 	ldr	x0, [x29, #24]
    abcc:	17ffffed 	b	ab80 <fs_remove+0x10>

000000000000abd0 <cmd_remove_cb>:
    abd0:	a9be7bfd 	stp	x29, x30, [sp, #-32]!
    abd4:	7100081f 	cmp	w0, #0x2
    abd8:	910003fd 	mov	x29, sp
    abdc:	f9000ff4 	str	x20, [sp, #24]
    abe0:	aa0203f4 	mov	x20, x2
    abe4:	54000141 	b.ne	ac0c <cmd_remove_cb+0x3c>  // b.any
    abe8:	f9400420 	ldr	x0, [x1, #8]
    abec:	f9000bb3 	str	x19, [x29, #16]
    abf0:	aa0103f3 	mov	x19, x1
    abf4:	97ffffdf 	bl	ab70 <fs_remove>
    abf8:	35000160 	cbnz	w0, ac24 <cmd_remove_cb+0x54>
    abfc:	f9400bb3 	ldr	x19, [x29, #16]
    ac00:	f9400ff4 	ldr	x20, [sp, #24]
    ac04:	a8c27bfd 	ldp	x29, x30, [sp], #32
    ac08:	d65f03c0 	ret
    ac0c:	d01fffc1 	adrp	x1, 40004000 <state_fmt+0x1388>
    ac10:	aa0203e0 	mov	x0, x2
    ac14:	9119e021 	add	x1, x1, #0x678
    ac18:	940007ac 	bl	cac8 <std_fprintf>
    ac1c:	12800000 	mov	w0, #0xffffffff            	// #-1
    ac20:	17fffff8 	b	ac00 <cmd_remove_cb+0x30>
    ac24:	f9400662 	ldr	x2, [x19, #8]
    ac28:	d01fffc1 	adrp	x1, 40004000 <state_fmt+0x1388>
    ac2c:	aa1403e0 	mov	x0, x20
    ac30:	911a4021 	add	x1, x1, #0x690
    ac34:	940007a5 	bl	cac8 <std_fprintf>
    ac38:	f9400bb3 	ldr	x19, [x29, #16]
    ac3c:	12800000 	mov	w0, #0xffffffff            	// #-1
    ac40:	17fffff0 	b	ac00 <cmd_remove_cb+0x30>
    ac44:	00000000 	.inst	0x00000000 ; undefined

000000000000ac48 <fs_format>:
    ac48:	a9be7bfd 	stp	x29, x30, [sp, #-32]!
    ac4c:	910003fd 	mov	x29, sp
    ac50:	a90153f3 	stp	x19, x20, [sp, #16]
    ac54:	aa0003f4 	mov	x20, x0
    ac58:	b40001e0 	cbz	x0, ac94 <fs_format+0x4c>
    ac5c:	d01fffe0 	adrp	x0, 40008000 <module>
    ac60:	f9405013 	ldr	x19, [x0, #160]
    ac64:	b5000093 	cbnz	x19, ac74 <fs_format+0x2c>
    ac68:	14000007 	b	ac84 <fs_format+0x3c>
    ac6c:	f9400e73 	ldr	x19, [x19, #24]
    ac70:	b40000b3 	cbz	x19, ac84 <fs_format+0x3c>
    ac74:	f9400260 	ldr	x0, [x19]
    ac78:	aa1403e1 	mov	x1, x20
    ac7c:	97ffdc4d 	bl	1db0 <strcmp>
    ac80:	35ffff60 	cbnz	w0, ac6c <fs_format+0x24>
    ac84:	12800000 	mov	w0, #0xffffffff            	// #-1
    ac88:	a94153f3 	ldp	x19, x20, [sp, #16]
    ac8c:	a8c27bfd 	ldp	x29, x30, [sp], #32
    ac90:	d65f03c0 	ret
    ac94:	d01fffc0 	adrp	x0, 40004000 <state_fmt+0x1388>
    ac98:	912ae000 	add	x0, x0, #0xab8
    ac9c:	940006e7 	bl	c838 <std_printf>
    aca0:	d01fffa1 	adrp	x1, 40000000 <__ram_begin>
    aca4:	528002c0 	mov	w0, #0x16                  	// #22
    aca8:	f9400421 	ldr	x1, [x1, #8]
    acac:	d63f0020 	blr	x1
    acb0:	17ffffeb 	b	ac5c <fs_format+0x14>
    acb4:	00000000 	.inst	0x00000000 ; undefined

000000000000acb8 <cmd_format_cb>:
    acb8:	7100081f 	cmp	w0, #0x2
    acbc:	54000061 	b.ne	acc8 <cmd_format_cb+0x10>  // b.any
    acc0:	f9400420 	ldr	x0, [x1, #8]
    acc4:	17ffffe1 	b	ac48 <fs_format>
    acc8:	a9bf7bfd 	stp	x29, x30, [sp, #-16]!
    accc:	aa0203e0 	mov	x0, x2
    acd0:	d01fffc1 	adrp	x1, 40004000 <state_fmt+0x1388>
    acd4:	91174021 	add	x1, x1, #0x5d0
    acd8:	910003fd 	mov	x29, sp
    acdc:	9400077b 	bl	cac8 <std_fprintf>
    ace0:	12800000 	mov	w0, #0xffffffff            	// #-1
    ace4:	a8c17bfd 	ldp	x29, x30, [sp], #16
    ace8:	d65f03c0 	ret
    acec:	00000000 	.inst	0x00000000 ; undefined

000000000000acf0 <fs_ls>:
    acf0:	d10803ff 	sub	sp, sp, #0x200
    acf4:	a9007bfd 	stp	x29, x30, [sp]
    acf8:	910003fd 	mov	x29, sp
    acfc:	f9000bf3 	str	x19, [sp, #16]
    ad00:	aa0203f3 	mov	x19, x2
    ad04:	f90027a0 	str	x0, [x29, #72]
    ad08:	f9001bf7 	str	x23, [sp, #48]
    ad0c:	b4000a20 	cbz	x0, ae50 <fs_ls+0x160>
    ad10:	b4000b13 	cbz	x19, ae70 <fs_ls+0x180>
    ad14:	f94027a1 	ldr	x1, [x29, #72]
    ad18:	910243a0 	add	x0, x29, #0x90
    ad1c:	97fffcd7 	bl	a078 <create_absolute_path>
    ad20:	35000b80 	cbnz	w0, ae90 <fs_ls+0x1a0>
    ad24:	910243a2 	add	x2, x29, #0x90
    ad28:	910123a1 	add	x1, x29, #0x48
    ad2c:	910163a0 	add	x0, x29, #0x58
    ad30:	97fffd04 	bl	a140 <get_filesystem_path_from_path>
    ad34:	35000ae0 	cbnz	w0, ae90 <fs_ls+0x1a0>
    ad38:	f94027a0 	ldr	x0, [x29, #72]
    ad3c:	39400000 	ldrb	w0, [x0]
    ad40:	34000800 	cbz	w0, ae40 <fs_ls+0x150>
    ad44:	f9402fa0 	ldr	x0, [x29, #88]
    ad48:	b9400801 	ldr	w1, [x0, #8]
    ad4c:	35000a21 	cbnz	w1, ae90 <fs_ls+0x1a0>
    ad50:	f9400800 	ldr	x0, [x0, #16]
    ad54:	52800023 	mov	w3, #0x1                   	// #1
    ad58:	f9000fb4 	str	x20, [x29, #24]
    ad5c:	910183a1 	add	x1, x29, #0x60
    ad60:	f94027b4 	ldr	x20, [x29, #72]
    ad64:	aa1403e2 	mov	x2, x20
    ad68:	97fffb28 	bl	9a08 <fat16_dir_open>
    ad6c:	2a0003f7 	mov	w23, w0
    ad70:	35000940 	cbnz	w0, ae98 <fs_ls+0x1a8>
    ad74:	a9025bb5 	stp	x21, x22, [x29, #32]
    ad78:	d01fffd4 	adrp	x20, 40004000 <state_fmt+0x1388>
    ad7c:	d01fffd5 	adrp	x21, 40004000 <state_fmt+0x1388>
    ad80:	9132e294 	add	x20, x20, #0xcb8
    ad84:	913362b5 	add	x21, x21, #0xcd8
    ad88:	b01fffd6 	adrp	x22, 40003000 <state_fmt+0x388>
    ad8c:	14000005 	b	ada0 <fs_ls+0xb0>
    ad90:	f01fffc1 	adrp	x1, 40005000 <state_fmt+0x2388>
    ad94:	aa1303e0 	mov	x0, x19
    ad98:	9118a021 	add	x1, x1, #0x628
    ad9c:	9400074b 	bl	cac8 <std_fprintf>
    ada0:	910343a1 	add	x1, x29, #0xd0
    ada4:	910183a0 	add	x0, x29, #0x60
    ada8:	97fffb92 	bl	9bf0 <fat16_dir_read>
    adac:	7100041f 	cmp	w0, #0x1
    adb0:	aa1403e1 	mov	x1, x20
    adb4:	aa1303e0 	mov	x0, x19
    adb8:	54000301 	b.ne	ae18 <fs_ls+0x128>  // b.any
    adbc:	b941e7a6 	ldr	w6, [x29, #484]
    adc0:	b941eba5 	ldr	w5, [x29, #488]
    adc4:	b941efa4 	ldr	w4, [x29, #492]
    adc8:	b941f7a3 	ldr	w3, [x29, #500]
    adcc:	b941fba2 	ldr	w2, [x29, #504]
    add0:	9400073e 	bl	cac8 <std_fprintf>
    add4:	f940efa2 	ldr	x2, [x29, #472]
    add8:	aa1503e1 	mov	x1, x21
    addc:	aa1303e0 	mov	x0, x19
    ade0:	9400073a 	bl	cac8 <std_fprintf>
    ade4:	910343a2 	add	x2, x29, #0xd0
    ade8:	9135a2c1 	add	x1, x22, #0xd68
    adec:	aa1303e0 	mov	x0, x19
    adf0:	94000736 	bl	cac8 <std_fprintf>
    adf4:	b941d3a0 	ldr	w0, [x29, #464]
    adf8:	7100041f 	cmp	w0, #0x1
    adfc:	54fffca1 	b.ne	ad90 <fs_ls+0xa0>  // b.any
    ae00:	d01fffc1 	adrp	x1, 40004000 <state_fmt+0x1388>
    ae04:	d2800022 	mov	x2, #0x1                   	// #1
    ae08:	911ca021 	add	x1, x1, #0x728
    ae0c:	aa1303e0 	mov	x0, x19
    ae10:	940002b0 	bl	b8d0 <chan_write>
    ae14:	17ffffdf 	b	ad90 <fs_ls+0xa0>
    ae18:	910183a0 	add	x0, x29, #0x60
    ae1c:	97fffb59 	bl	9b80 <fat16_dir_close>
    ae20:	a941d7b4 	ldp	x20, x21, [x29, #24]
    ae24:	f94017b6 	ldr	x22, [x29, #40]
    ae28:	2a1703e0 	mov	w0, w23
    ae2c:	f9400bf3 	ldr	x19, [sp, #16]
    ae30:	a9407bfd 	ldp	x29, x30, [sp]
    ae34:	f9401bf7 	ldr	x23, [sp, #48]
    ae38:	910803ff 	add	sp, sp, #0x200
    ae3c:	d65f03c0 	ret
    ae40:	b01fffc0 	adrp	x0, 40003000 <state_fmt+0x388>
    ae44:	913f4000 	add	x0, x0, #0xfd0
    ae48:	f90027a0 	str	x0, [x29, #72]
    ae4c:	17ffffbe 	b	ad44 <fs_ls+0x54>
    ae50:	d01fffc0 	adrp	x0, 40004000 <state_fmt+0x1388>
    ae54:	912f6000 	add	x0, x0, #0xbd8
    ae58:	94000678 	bl	c838 <std_printf>
    ae5c:	d01fffa1 	adrp	x1, 40000000 <__ram_begin>
    ae60:	528002c0 	mov	w0, #0x16                  	// #22
    ae64:	f9400421 	ldr	x1, [x1, #8]
    ae68:	d63f0020 	blr	x1
    ae6c:	b5fff553 	cbnz	x19, ad14 <fs_ls+0x24>
    ae70:	d01fffc0 	adrp	x0, 40004000 <state_fmt+0x1388>
    ae74:	9130e000 	add	x0, x0, #0xc38
    ae78:	94000670 	bl	c838 <std_printf>
    ae7c:	d01fffa1 	adrp	x1, 40000000 <__ram_begin>
    ae80:	528002c0 	mov	w0, #0x16                  	// #22
    ae84:	f9400421 	ldr	x1, [x1, #8]
    ae88:	d63f0020 	blr	x1
    ae8c:	17ffffa2 	b	ad14 <fs_ls+0x24>
    ae90:	12800017 	mov	w23, #0xffffffff            	// #-1
    ae94:	17ffffe5 	b	ae28 <fs_ls+0x138>
    ae98:	aa1403e2 	mov	x2, x20
    ae9c:	d01fffc1 	adrp	x1, 40004000 <state_fmt+0x1388>
    aea0:	aa1303e0 	mov	x0, x19
    aea4:	91326021 	add	x1, x1, #0xc98
    aea8:	12800017 	mov	w23, #0xffffffff            	// #-1
    aeac:	94000707 	bl	cac8 <std_fprintf>
    aeb0:	f9400fb4 	ldr	x20, [x29, #24]
    aeb4:	17ffffdd 	b	ae28 <fs_ls+0x138>

000000000000aeb8 <cmd_list_cb>:
    aeb8:	7100081f 	cmp	w0, #0x2
    aebc:	54000081 	b.ne	aecc <cmd_list_cb+0x14>  // b.any
    aec0:	f9400420 	ldr	x0, [x1, #8]
    aec4:	d2800001 	mov	x1, #0x0                   	// #0
    aec8:	17ffff8a 	b	acf0 <fs_ls>
    aecc:	a9bf7bfd 	stp	x29, x30, [sp, #-16]!
    aed0:	aa0203e0 	mov	x0, x2
    aed4:	d01fffc1 	adrp	x1, 40004000 <state_fmt+0x1388>
    aed8:	9117a021 	add	x1, x1, #0x5e8
    aedc:	910003fd 	mov	x29, sp
    aee0:	940006fa 	bl	cac8 <std_fprintf>
    aee4:	12800000 	mov	w0, #0xffffffff            	// #-1
    aee8:	a8c17bfd 	ldp	x29, x30, [sp], #16
    aeec:	d65f03c0 	ret

000000000000aef0 <fs_list>:
    aef0:	a9b57bfd 	stp	x29, x30, [sp, #-176]!
    aef4:	910003fd 	mov	x29, sp
    aef8:	a90153f3 	stp	x19, x20, [sp, #16]
    aefc:	aa0003f4 	mov	x20, x0
    af00:	a9025bf5 	stp	x21, x22, [sp, #32]
    af04:	a90363f7 	stp	x23, x24, [sp, #48]
    af08:	aa0103f8 	mov	x24, x1
    af0c:	f9002bfb 	str	x27, [sp, #80]
    af10:	aa0203fb 	mov	x27, x2
    af14:	b4000b40 	cbz	x0, b07c <fs_list+0x18c>
    af18:	b4000c5b 	cbz	x27, b0a0 <fs_list+0x1b0>
    af1c:	aa1403e0 	mov	x0, x20
    af20:	97ffdb98 	bl	1d80 <strlen>
    af24:	39400281 	ldrb	w1, [x20]
    af28:	2a0003f6 	mov	w22, w0
    af2c:	7100bc3f 	cmp	w1, #0x2f
    af30:	54000a00 	b.eq	b070 <fs_list+0x180>  // b.none
    af34:	11000415 	add	w21, w0, #0x1
    af38:	d2800037 	mov	x23, #0x1                   	// #1
    af3c:	7100001f 	cmp	w0, #0x0
    af40:	540000cd 	b.le	af58 <fs_list+0x68>
    af44:	8b20c281 	add	x1, x20, w0, sxtw
    af48:	385ff021 	ldurb	w1, [x1, #-1]
    af4c:	7100bc3f 	cmp	w1, #0x2f
    af50:	540008c0 	b.eq	b068 <fs_list+0x178>  // b.none
    af54:	110006b5 	add	w21, w21, #0x1
    af58:	d01fffe0 	adrp	x0, 40008000 <module>
    af5c:	f9404c13 	ldr	x19, [x0, #152]
    af60:	b4000513 	cbz	x19, b000 <fs_list+0x110>
    af64:	a9046bb9 	stp	x25, x26, [x29, #64]
    af68:	93407ed6 	sxtw	x22, w22
    af6c:	93407eb5 	sxtw	x21, w21
    af70:	9101c3b9 	add	x25, x29, #0x70
    af74:	d01fffba 	adrp	x26, 40000000 <__ram_begin>
    af78:	f9002fbc 	str	x28, [x29, #88]
    af7c:	91384340 	add	x0, x26, #0xe10
    af80:	1280001c 	mov	w28, #0xffffffff            	// #-1
    af84:	f90037a0 	str	x0, [x29, #104]
    af88:	f9400260 	ldr	x0, [x19]
    af8c:	aa1603e2 	mov	x2, x22
    af90:	aa1403e1 	mov	x1, x20
    af94:	8b170000 	add	x0, x0, x23
    af98:	9400083c 	bl	d088 <std_strncmp>
    af9c:	350002a0 	cbnz	w0, aff0 <fs_list+0x100>
    afa0:	f9400261 	ldr	x1, [x19]
    afa4:	8b15003a 	add	x26, x1, x21
    afa8:	b4000158 	cbz	x24, afd0 <fs_list+0xe0>
    afac:	aa1803e0 	mov	x0, x24
    afb0:	97ffdb74 	bl	1d80 <strlen>
    afb4:	aa1803e1 	mov	x1, x24
    afb8:	aa0003e2 	mov	x2, x0
    afbc:	aa1a03e0 	mov	x0, x26
    afc0:	94000832 	bl	d088 <std_strncmp>
    afc4:	35000160 	cbnz	w0, aff0 <fs_list+0x100>
    afc8:	f9400261 	ldr	x1, [x19]
    afcc:	8b15003a 	add	x26, x1, x21
    afd0:	3100079f 	cmn	w28, #0x1
    afd4:	54000260 	b.eq	b020 <fs_list+0x130>  // b.none
    afd8:	93407f82 	sxtw	x2, w28
    afdc:	aa1903e1 	mov	x1, x25
    afe0:	aa1a03e0 	mov	x0, x26
    afe4:	94000829 	bl	d088 <std_strncmp>
    afe8:	350001a0 	cbnz	w0, b01c <fs_list+0x12c>
    afec:	d503201f 	nop
    aff0:	f9400e73 	ldr	x19, [x19, #24]
    aff4:	b5fffcb3 	cbnz	x19, af88 <fs_list+0x98>
    aff8:	a9446bb9 	ldp	x25, x26, [x29, #64]
    affc:	f9402fbc 	ldr	x28, [x29, #88]
    b000:	a94153f3 	ldp	x19, x20, [sp, #16]
    b004:	52800000 	mov	w0, #0x0                   	// #0
    b008:	a9425bf5 	ldp	x21, x22, [sp, #32]
    b00c:	a94363f7 	ldp	x23, x24, [sp, #48]
    b010:	f9402bfb 	ldr	x27, [sp, #80]
    b014:	a8cb7bfd 	ldp	x29, x30, [sp], #176
    b018:	d65f03c0 	ret
    b01c:	f9400261 	ldr	x1, [x19]
    b020:	aa1503e0 	mov	x0, x21
    b024:	cb150322 	sub	x2, x25, x21
    b028:	5280001c 	mov	w28, #0x0                   	// #0
    b02c:	14000002 	b	b034 <fs_list+0x144>
    b030:	f9400261 	ldr	x1, [x19]
    b034:	38606821 	ldrb	w1, [x1, x0]
    b038:	1100079c 	add	w28, w28, #0x1
    b03c:	38206841 	strb	w1, [x2, x0]
    b040:	91000400 	add	x0, x0, #0x1
    b044:	7100bc3f 	cmp	w1, #0x2f
    b048:	7a401824 	ccmp	w1, #0x0, #0x4, ne  // ne = any
    b04c:	54ffff21 	b.ne	b030 <fs_list+0x140>  // b.any
    b050:	f94037a1 	ldr	x1, [x29, #104]
    b054:	aa1903e2 	mov	x2, x25
    b058:	383ccb3f 	strb	wzr, [x25, w28, sxtw]
    b05c:	aa1b03e0 	mov	x0, x27
    b060:	9400069a 	bl	cac8 <std_fprintf>
    b064:	17ffffe3 	b	aff0 <fs_list+0x100>
    b068:	51000416 	sub	w22, w0, #0x1
    b06c:	17ffffbb 	b	af58 <fs_list+0x68>
    b070:	2a0003f5 	mov	w21, w0
    b074:	d2800017 	mov	x23, #0x0                   	// #0
    b078:	17ffffb1 	b	af3c <fs_list+0x4c>
    b07c:	b01fffc0 	adrp	x0, 40004000 <state_fmt+0x1388>
    b080:	912c6000 	add	x0, x0, #0xb18
    b084:	940005ed 	bl	c838 <std_printf>
    b088:	b01fffa1 	adrp	x1, 40000000 <__ram_begin>
    b08c:	528002c0 	mov	w0, #0x16                  	// #22
    b090:	f9400421 	ldr	x1, [x1, #8]
    b094:	d63f0020 	blr	x1
    b098:	b5fff43b 	cbnz	x27, af1c <fs_list+0x2c>
    b09c:	d503201f 	nop
    b0a0:	b01fffc0 	adrp	x0, 40004000 <state_fmt+0x1388>
    b0a4:	912de000 	add	x0, x0, #0xb78
    b0a8:	940005e4 	bl	c838 <std_printf>
    b0ac:	b01fffa1 	adrp	x1, 40000000 <__ram_begin>
    b0b0:	528002c0 	mov	w0, #0x16                  	// #22
    b0b4:	f9400421 	ldr	x1, [x1, #8]
    b0b8:	d63f0020 	blr	x1
    b0bc:	17ffff98 	b	af1c <fs_list+0x2c>

000000000000b0c0 <fs_auto_complete>:
    b0c0:	a9ba7bfd 	stp	x29, x30, [sp, #-96]!
    b0c4:	910003fd 	mov	x29, sp
    b0c8:	f9000ff4 	str	x20, [sp, #24]
    b0cc:	a902dff6 	stp	x22, x23, [sp, #40]
    b0d0:	aa0003f6 	mov	x22, x0
    b0d4:	f90023f9 	str	x25, [sp, #64]
    b0d8:	f9002bfb 	str	x27, [sp, #80]
    b0dc:	b4000a40 	cbz	x0, b224 <fs_auto_complete+0x164>
    b0e0:	aa1603e0 	mov	x0, x22
    b0e4:	97ffdb27 	bl	1d80 <strlen>
    b0e8:	b01fffe1 	adrp	x1, 40008000 <module>
    b0ec:	aa0003fb 	mov	x27, x0
    b0f0:	394002c0 	ldrb	w0, [x22]
    b0f4:	f9404c39 	ldr	x25, [x1, #152]
    b0f8:	93407f74 	sxtw	x20, w27
    b0fc:	7100bc1f 	cmp	w0, #0x2f
    b100:	9a9f07f7 	cset	x23, ne  // ne = any
    b104:	b4000759 	cbz	x25, b1ec <fs_auto_complete+0x12c>
    b108:	f9000bb3 	str	x19, [x29, #16]
    b10c:	f90013b5 	str	x21, [x29, #32]
    b110:	f9001fb8 	str	x24, [x29, #56]
    b114:	f90027ba 	str	x26, [x29, #72]
    b118:	14000003 	b	b124 <fs_auto_complete+0x64>
    b11c:	f9400f39 	ldr	x25, [x25, #24]
    b120:	b40005f9 	cbz	x25, b1dc <fs_auto_complete+0x11c>
    b124:	f9400320 	ldr	x0, [x25]
    b128:	aa1403e2 	mov	x2, x20
    b12c:	aa1603e1 	mov	x1, x22
    b130:	8b170000 	add	x0, x0, x23
    b134:	940007d5 	bl	d088 <std_strncmp>
    b138:	35ffff20 	cbnz	w0, b11c <fs_auto_complete+0x5c>
    b13c:	d503201f 	nop
    b140:	8b170298 	add	x24, x20, x23
    b144:	f9400320 	ldr	x0, [x25]
    b148:	2a1403fa 	mov	w26, w20
    b14c:	aa1903f3 	mov	x19, x25
    b150:	38786815 	ldrb	w21, [x0, x24]
    b154:	14000002 	b	b15c <fs_auto_complete+0x9c>
    b158:	f9400260 	ldr	x0, [x19]
    b15c:	8b170000 	add	x0, x0, x23
    b160:	aa1403e2 	mov	x2, x20
    b164:	aa1603e1 	mov	x1, x22
    b168:	940007c8 	bl	d088 <std_strncmp>
    b16c:	350000e0 	cbnz	w0, b188 <fs_auto_complete+0xc8>
    b170:	f9400260 	ldr	x0, [x19]
    b174:	38786800 	ldrb	w0, [x0, x24]
    b178:	6b15001f 	cmp	w0, w21
    b17c:	54000161 	b.ne	b1a8 <fs_auto_complete+0xe8>  // b.any
    b180:	f9400e73 	ldr	x19, [x19, #24]
    b184:	b5fffeb3 	cbnz	x19, b158 <fs_auto_complete+0x98>
    b188:	38346ad5 	strb	w21, [x22, x20]
    b18c:	1100069a 	add	w26, w20, #0x1
    b190:	91000680 	add	x0, x20, #0x1
    b194:	7100bebf 	cmp	w21, #0x2f
    b198:	54000380 	b.eq	b208 <fs_auto_complete+0x148>  // b.none
    b19c:	340003b5 	cbz	w21, b210 <fs_auto_complete+0x150>
    b1a0:	aa0003f4 	mov	x20, x0
    b1a4:	17ffffe7 	b	b140 <fs_auto_complete+0x80>
    b1a8:	8b1402c1 	add	x1, x22, x20
    b1ac:	3900003f 	strb	wzr, [x1]
    b1b0:	4b1b0340 	sub	w0, w26, w27
    b1b4:	f9400bb3 	ldr	x19, [x29, #16]
    b1b8:	f94013b5 	ldr	x21, [x29, #32]
    b1bc:	f9401fb8 	ldr	x24, [x29, #56]
    b1c0:	f94027ba 	ldr	x26, [x29, #72]
    b1c4:	f9400ff4 	ldr	x20, [sp, #24]
    b1c8:	a942dff6 	ldp	x22, x23, [sp, #40]
    b1cc:	f94023f9 	ldr	x25, [sp, #64]
    b1d0:	f9402bfb 	ldr	x27, [sp, #80]
    b1d4:	a8c67bfd 	ldp	x29, x30, [sp], #96
    b1d8:	d65f03c0 	ret
    b1dc:	f9400bb3 	ldr	x19, [x29, #16]
    b1e0:	f94013b5 	ldr	x21, [x29, #32]
    b1e4:	f9401fb8 	ldr	x24, [x29, #56]
    b1e8:	f94027ba 	ldr	x26, [x29, #72]
    b1ec:	12800020 	mov	w0, #0xfffffffe            	// #-2
    b1f0:	f9400ff4 	ldr	x20, [sp, #24]
    b1f4:	a942dff6 	ldp	x22, x23, [sp, #40]
    b1f8:	f94023f9 	ldr	x25, [sp, #64]
    b1fc:	f9402bfb 	ldr	x27, [sp, #80]
    b200:	a8c67bfd 	ldp	x29, x30, [sp], #96
    b204:	d65f03c0 	ret
    b208:	8b0002c1 	add	x1, x22, x0
    b20c:	17ffffe8 	b	b1ac <fs_auto_complete+0xec>
    b210:	52800402 	mov	w2, #0x20                  	// #32
    b214:	38346ac2 	strb	w2, [x22, x20]
    b218:	8b0002c1 	add	x1, x22, x0
    b21c:	38206adf 	strb	wzr, [x22, x0]
    b220:	17ffffe3 	b	b1ac <fs_auto_complete+0xec>
    b224:	b01fffc0 	adrp	x0, 40004000 <state_fmt+0x1388>
    b228:	911d0000 	add	x0, x0, #0x740
    b22c:	94000583 	bl	c838 <std_printf>
    b230:	b01fffa1 	adrp	x1, 40000000 <__ram_begin>
    b234:	528002c0 	mov	w0, #0x16                  	// #22
    b238:	f9400421 	ldr	x1, [x1, #8]
    b23c:	d63f0020 	blr	x1
    b240:	17ffffa8 	b	b0e0 <fs_auto_complete+0x20>
    b244:	00000000 	.inst	0x00000000 ; undefined

000000000000b248 <fs_split>:
    b248:	a9bd7bfd 	stp	x29, x30, [sp, #-48]!
    b24c:	910003fd 	mov	x29, sp
    b250:	a90153f3 	stp	x19, x20, [sp, #16]
    b254:	aa0003f3 	mov	x19, x0
    b258:	f90013f5 	str	x21, [sp, #32]
    b25c:	aa0103f4 	mov	x20, x1
    b260:	aa0203f5 	mov	x21, x2
    b264:	b40005a0 	cbz	x0, b318 <fs_split+0xd0>
    b268:	b4000374 	cbz	x20, b2d4 <fs_split+0x8c>
    b26c:	b4000475 	cbz	x21, b2f8 <fs_split+0xb0>
    b270:	f9000293 	str	x19, [x20]
    b274:	39400260 	ldrb	w0, [x19]
    b278:	340001e0 	cbz	w0, b2b4 <fs_split+0x6c>
    b27c:	aa1303e3 	mov	x3, x19
    b280:	d2800004 	mov	x4, #0x0                   	// #0
    b284:	d503201f 	nop
    b288:	7100bc1f 	cmp	w0, #0x2f
    b28c:	9a831084 	csel	x4, x4, x3, ne  // ne = any
    b290:	38401c60 	ldrb	w0, [x3, #1]!
    b294:	35ffffa0 	cbnz	w0, b288 <fs_split+0x40>
    b298:	b40000e4 	cbz	x4, b2b4 <fs_split+0x6c>
    b29c:	3800149f 	strb	wzr, [x4], #1
    b2a0:	f90002a4 	str	x4, [x21]
    b2a4:	a94153f3 	ldp	x19, x20, [sp, #16]
    b2a8:	f94013f5 	ldr	x21, [sp, #32]
    b2ac:	a8c37bfd 	ldp	x29, x30, [sp], #48
    b2b0:	d65f03c0 	ret
    b2b4:	f90002b3 	str	x19, [x21]
    b2b8:	b01fffe0 	adrp	x0, 40008000 <module>
    b2bc:	91022000 	add	x0, x0, #0x88
    b2c0:	f9000280 	str	x0, [x20]
    b2c4:	a94153f3 	ldp	x19, x20, [sp, #16]
    b2c8:	f94013f5 	ldr	x21, [sp, #32]
    b2cc:	a8c37bfd 	ldp	x29, x30, [sp], #48
    b2d0:	d65f03c0 	ret
    b2d4:	d01fffc0 	adrp	x0, 40005000 <state_fmt+0x2388>
    b2d8:	91012000 	add	x0, x0, #0x48
    b2dc:	94000557 	bl	c838 <std_printf>
    b2e0:	b01fffa1 	adrp	x1, 40000000 <__ram_begin>
    b2e4:	528002c0 	mov	w0, #0x16                  	// #22
    b2e8:	f9400421 	ldr	x1, [x1, #8]
    b2ec:	d63f0020 	blr	x1
    b2f0:	b5fffc15 	cbnz	x21, b270 <fs_split+0x28>
    b2f4:	d503201f 	nop
    b2f8:	d01fffc0 	adrp	x0, 40005000 <state_fmt+0x2388>
    b2fc:	9102a000 	add	x0, x0, #0xa8
    b300:	9400054e 	bl	c838 <std_printf>
    b304:	b01fffa1 	adrp	x1, 40000000 <__ram_begin>
    b308:	528002c0 	mov	w0, #0x16                  	// #22
    b30c:	f9400421 	ldr	x1, [x1, #8]
    b310:	d63f0020 	blr	x1
    b314:	17ffffd7 	b	b270 <fs_split+0x28>
    b318:	b01fffc0 	adrp	x0, 40004000 <state_fmt+0x1388>
    b31c:	913fa000 	add	x0, x0, #0xfe8
    b320:	94000546 	bl	c838 <std_printf>
    b324:	b01fffa1 	adrp	x1, 40000000 <__ram_begin>
    b328:	528002c0 	mov	w0, #0x16                  	// #22
    b32c:	f9400421 	ldr	x1, [x1, #8]
    b330:	d63f0020 	blr	x1
    b334:	b5fff9d4 	cbnz	x20, b26c <fs_split+0x24>
    b338:	17ffffe7 	b	b2d4 <fs_split+0x8c>
    b33c:	00000000 	.inst	0x00000000 ; undefined

000000000000b340 <fs_command_init>:
    b340:	a9bd7bfd 	stp	x29, x30, [sp, #-48]!
    b344:	910003fd 	mov	x29, sp
    b348:	a90153f3 	stp	x19, x20, [sp, #16]
    b34c:	aa0003f3 	mov	x19, x0
    b350:	a9025bf5 	stp	x21, x22, [sp, #32]
    b354:	aa0203f4 	mov	x20, x2
    b358:	aa0103f5 	mov	x21, x1
    b35c:	aa0303f6 	mov	x22, x3
    b360:	b4000400 	cbz	x0, b3e0 <fs_command_init+0xa0>
    b364:	b4000135 	cbz	x21, b388 <fs_command_init+0x48>
    b368:	b4000214 	cbz	x20, b3a8 <fs_command_init+0x68>
    b36c:	a9005275 	stp	x21, x20, [x19]
    b370:	52800000 	mov	w0, #0x0                   	// #0
    b374:	a9017e76 	stp	x22, xzr, [x19, #16]
    b378:	a94153f3 	ldp	x19, x20, [sp, #16]
    b37c:	a9425bf5 	ldp	x21, x22, [sp, #32]
    b380:	a8c37bfd 	ldp	x29, x30, [sp], #48
    b384:	d65f03c0 	ret
    b388:	b01fffc0 	adrp	x0, 40004000 <state_fmt+0x1388>
    b38c:	91236000 	add	x0, x0, #0x8d8
    b390:	9400052a 	bl	c838 <std_printf>
    b394:	b01fffa1 	adrp	x1, 40000000 <__ram_begin>
    b398:	528002c0 	mov	w0, #0x16                  	// #22
    b39c:	f9400421 	ldr	x1, [x1, #8]
    b3a0:	d63f0020 	blr	x1
    b3a4:	b5fffe54 	cbnz	x20, b36c <fs_command_init+0x2c>
    b3a8:	b01fffc0 	adrp	x0, 40004000 <state_fmt+0x1388>
    b3ac:	9124e000 	add	x0, x0, #0x938
    b3b0:	94000522 	bl	c838 <std_printf>
    b3b4:	b01fffa1 	adrp	x1, 40000000 <__ram_begin>
    b3b8:	528002c0 	mov	w0, #0x16                  	// #22
    b3bc:	f9400421 	ldr	x1, [x1, #8]
    b3c0:	d63f0020 	blr	x1
    b3c4:	a9005275 	stp	x21, x20, [x19]
    b3c8:	a9017e76 	stp	x22, xzr, [x19, #16]
    b3cc:	52800000 	mov	w0, #0x0                   	// #0
    b3d0:	a94153f3 	ldp	x19, x20, [sp, #16]
    b3d4:	a9425bf5 	ldp	x21, x22, [sp, #32]
    b3d8:	a8c37bfd 	ldp	x29, x30, [sp], #48
    b3dc:	d65f03c0 	ret
    b3e0:	b01fffc0 	adrp	x0, 40004000 <state_fmt+0x1388>
    b3e4:	9121e000 	add	x0, x0, #0x878
    b3e8:	94000514 	bl	c838 <std_printf>
    b3ec:	b01fffa1 	adrp	x1, 40000000 <__ram_begin>
    b3f0:	528002c0 	mov	w0, #0x16                  	// #22
    b3f4:	f9400421 	ldr	x1, [x1, #8]
    b3f8:	d63f0020 	blr	x1
    b3fc:	b5fffb75 	cbnz	x21, b368 <fs_command_init+0x28>
    b400:	17ffffe2 	b	b388 <fs_command_init+0x48>
    b404:	00000000 	.inst	0x00000000 ; undefined

000000000000b408 <fs_command_register>:
    b408:	a9bd7bfd 	stp	x29, x30, [sp, #-48]!
    b40c:	910003fd 	mov	x29, sp
    b410:	a90153f3 	stp	x19, x20, [sp, #16]
    b414:	aa0003f4 	mov	x20, x0
    b418:	f90017f6 	str	x22, [sp, #40]
    b41c:	b4000460 	cbz	x0, b4a8 <fs_command_register+0xa0>
    b420:	b01ffff6 	adrp	x22, 40008000 <module>
    b424:	910242c0 	add	x0, x22, #0x90
    b428:	f9400413 	ldr	x19, [x0, #8]
    b42c:	b40004f3 	cbz	x19, b4c8 <fs_command_register+0xc0>
    b430:	f90013b5 	str	x21, [x29, #32]
    b434:	d2800015 	mov	x21, #0x0                   	// #0
    b438:	14000005 	b	b44c <fs_command_register+0x44>
    b43c:	f9400e60 	ldr	x0, [x19, #24]
    b440:	aa1303f5 	mov	x21, x19
    b444:	aa0003f3 	mov	x19, x0
    b448:	b40001c0 	cbz	x0, b480 <fs_command_register+0x78>
    b44c:	f9400261 	ldr	x1, [x19]
    b450:	f9400280 	ldr	x0, [x20]
    b454:	940006e5 	bl	cfe8 <std_strcmp_f>
    b458:	36ffff20 	tbz	w0, #31, b43c <fs_command_register+0x34>
    b45c:	f9000e93 	str	x19, [x20, #24]
    b460:	b4000155 	cbz	x21, b488 <fs_command_register+0x80>
    b464:	f9000eb4 	str	x20, [x21, #24]
    b468:	52800000 	mov	w0, #0x0                   	// #0
    b46c:	f94013b5 	ldr	x21, [x29, #32]
    b470:	a94153f3 	ldp	x19, x20, [sp, #16]
    b474:	f94017f6 	ldr	x22, [sp, #40]
    b478:	a8c37bfd 	ldp	x29, x30, [sp], #48
    b47c:	d65f03c0 	ret
    b480:	f9000e9f 	str	xzr, [x20, #24]
    b484:	17fffff8 	b	b464 <fs_command_register+0x5c>
    b488:	f94013b5 	ldr	x21, [x29, #32]
    b48c:	910242d6 	add	x22, x22, #0x90
    b490:	52800000 	mov	w0, #0x0                   	// #0
    b494:	f90006d4 	str	x20, [x22, #8]
    b498:	a94153f3 	ldp	x19, x20, [sp, #16]
    b49c:	f94017f6 	ldr	x22, [sp, #40]
    b4a0:	a8c37bfd 	ldp	x29, x30, [sp], #48
    b4a4:	d65f03c0 	ret
    b4a8:	b01fffc0 	adrp	x0, 40004000 <state_fmt+0x1388>
    b4ac:	91266000 	add	x0, x0, #0x998
    b4b0:	940004e2 	bl	c838 <std_printf>
    b4b4:	b01fffa1 	adrp	x1, 40000000 <__ram_begin>
    b4b8:	528002c0 	mov	w0, #0x16                  	// #22
    b4bc:	f9400421 	ldr	x1, [x1, #8]
    b4c0:	d63f0020 	blr	x1
    b4c4:	17ffffd7 	b	b420 <fs_command_register+0x18>
    b4c8:	f9000e9f 	str	xzr, [x20, #24]
    b4cc:	17fffff0 	b	b48c <fs_command_register+0x84>

000000000000b4d0 <fs_module_init>:
    b4d0:	b01fffe0 	adrp	x0, 40008000 <module>
    b4d4:	39c24001 	ldrsb	w1, [x0, #144]
    b4d8:	7100043f 	cmp	w1, #0x1
    b4dc:	54000bc0 	b.eq	b654 <fs_module_init+0x184>  // b.none
    b4e0:	a9be7bfd 	stp	x29, x30, [sp, #-32]!
    b4e4:	52800021 	mov	w1, #0x1                   	// #1
    b4e8:	910003fd 	mov	x29, sp
    b4ec:	a90153f3 	stp	x19, x20, [sp, #16]
    b4f0:	91024013 	add	x19, x0, #0x90
    b4f4:	39024001 	strb	w1, [x0, #144]
    b4f8:	b01fffc1 	adrp	x1, 40004000 <state_fmt+0x1388>
    b4fc:	91338021 	add	x1, x1, #0xce0
    b500:	9100a274 	add	x20, x19, #0x28
    b504:	d0ffffe0 	adrp	x0, 9000 <fat16_file_sync+0x90>
    b508:	913ea000 	add	x0, x0, #0xfa8
    b50c:	a900fe7f 	stp	xzr, xzr, [x19, #8]
    b510:	a901fe7f 	stp	xzr, xzr, [x19, #24]
    b514:	a9028261 	stp	x1, x0, [x19, #40]
    b518:	aa1403e0 	mov	x0, x20
    b51c:	a903fe7f 	stp	xzr, xzr, [x19, #56]
    b520:	97ffffba 	bl	b408 <fs_command_register>
    b524:	b01fffc1 	adrp	x1, 40004000 <state_fmt+0x1388>
    b528:	91342021 	add	x1, x1, #0xd08
    b52c:	f0ffffe0 	adrp	x0, a000 <cmd_filesystems_list_cb+0x58>
    b530:	911e8000 	add	x0, x0, #0x7a0
    b534:	a9048261 	stp	x1, x0, [x19, #72]
    b538:	91012260 	add	x0, x19, #0x48
    b53c:	a905fe7f 	stp	xzr, xzr, [x19, #88]
    b540:	97ffffb2 	bl	b408 <fs_command_register>
    b544:	b01fffc1 	adrp	x1, 40004000 <state_fmt+0x1388>
    b548:	91348021 	add	x1, x1, #0xd20
    b54c:	f0ffffe0 	adrp	x0, a000 <cmd_filesystems_list_cb+0x58>
    b550:	91286000 	add	x0, x0, #0xa18
    b554:	a9068261 	stp	x1, x0, [x19, #104]
    b558:	9101a260 	add	x0, x19, #0x68
    b55c:	a907fe7f 	stp	xzr, xzr, [x19, #120]
    b560:	97ffffaa 	bl	b408 <fs_command_register>
    b564:	b01fffc1 	adrp	x1, 40004000 <state_fmt+0x1388>
    b568:	9134e021 	add	x1, x1, #0xd38
    b56c:	f0ffffe0 	adrp	x0, a000 <cmd_filesystems_list_cb+0x58>
    b570:	9124c000 	add	x0, x0, #0x930
    b574:	a9088261 	stp	x1, x0, [x19, #136]
    b578:	91022260 	add	x0, x19, #0x88
    b57c:	a909fe7f 	stp	xzr, xzr, [x19, #152]
    b580:	97ffffa2 	bl	b408 <fs_command_register>
    b584:	b01fffc1 	adrp	x1, 40004000 <state_fmt+0x1388>
    b588:	91354021 	add	x1, x1, #0xd50
    b58c:	f0ffffe0 	adrp	x0, a000 <cmd_filesystems_list_cb+0x58>
    b590:	912f4000 	add	x0, x0, #0xbd0
    b594:	a90a8261 	stp	x1, x0, [x19, #168]
    b598:	9102a260 	add	x0, x19, #0xa8
    b59c:	a90bfe7f 	stp	xzr, xzr, [x19, #184]
    b5a0:	97ffff9a 	bl	b408 <fs_command_register>
    b5a4:	b01fffc1 	adrp	x1, 40004000 <state_fmt+0x1388>
    b5a8:	9135a021 	add	x1, x1, #0xd68
    b5ac:	f0ffffe0 	adrp	x0, a000 <cmd_filesystems_list_cb+0x58>
    b5b0:	913ae000 	add	x0, x0, #0xeb8
    b5b4:	a90c8261 	stp	x1, x0, [x19, #200]
    b5b8:	91032260 	add	x0, x19, #0xc8
    b5bc:	a90dfe7f 	stp	xzr, xzr, [x19, #216]
    b5c0:	97ffff92 	bl	b408 <fs_command_register>
    b5c4:	b01fffc1 	adrp	x1, 40004000 <state_fmt+0x1388>
    b5c8:	91360021 	add	x1, x1, #0xd80
    b5cc:	f0ffffe0 	adrp	x0, a000 <cmd_filesystems_list_cb+0x58>
    b5d0:	9132e000 	add	x0, x0, #0xcb8
    b5d4:	a90e8261 	stp	x1, x0, [x19, #232]
    b5d8:	9103a260 	add	x0, x19, #0xe8
    b5dc:	a90ffe7f 	stp	xzr, xzr, [x19, #248]
    b5e0:	97ffff8a 	bl	b408 <fs_command_register>
    b5e4:	b01fffc1 	adrp	x1, 40004000 <state_fmt+0x1388>
    b5e8:	91366021 	add	x1, x1, #0xd98
    b5ec:	d0ffffe0 	adrp	x0, 9000 <fat16_file_sync+0x90>
    b5f0:	913c4000 	add	x0, x0, #0xf10
    b5f4:	a9108261 	stp	x1, x0, [x19, #264]
    b5f8:	91042260 	add	x0, x19, #0x108
    b5fc:	a911fe7f 	stp	xzr, xzr, [x19, #280]
    b600:	97ffff82 	bl	b408 <fs_command_register>
    b604:	b01fffc1 	adrp	x1, 40004000 <state_fmt+0x1388>
    b608:	9136e021 	add	x1, x1, #0xdb8
    b60c:	d0ffffe0 	adrp	x0, 9000 <fat16_file_sync+0x90>
    b610:	91386000 	add	x0, x0, #0xe18
    b614:	a9128261 	stp	x1, x0, [x19, #296]
    b618:	9104a260 	add	x0, x19, #0x128
    b61c:	a913fe7f 	stp	xzr, xzr, [x19, #312]
    b620:	97ffff7a 	bl	b408 <fs_command_register>
    b624:	b01fffc1 	adrp	x1, 40004000 <state_fmt+0x1388>
    b628:	91376021 	add	x1, x1, #0xdd8
    b62c:	d0ffffe0 	adrp	x0, 9000 <fat16_file_sync+0x90>
    b630:	9139e000 	add	x0, x0, #0xe78
    b634:	a9148261 	stp	x1, x0, [x19, #328]
    b638:	91052260 	add	x0, x19, #0x148
    b63c:	a915fe7f 	stp	xzr, xzr, [x19, #344]
    b640:	97ffff72 	bl	b408 <fs_command_register>
    b644:	52800000 	mov	w0, #0x0                   	// #0
    b648:	a94153f3 	ldp	x19, x20, [sp, #16]
    b64c:	a8c27bfd 	ldp	x29, x30, [sp], #32
    b650:	d65f03c0 	ret
    b654:	52800000 	mov	w0, #0x0                   	// #0
    b658:	d65f03c0 	ret
    b65c:	00000000 	.inst	0x00000000 ; undefined

000000000000b660 <bus_module_init>:
    b660:	52800000 	mov	w0, #0x0                   	// #0
    b664:	d65f03c0 	ret

000000000000b668 <chan_read_null>:
    b668:	92800000 	mov	x0, #0xffffffffffffffff    	// #-1
    b66c:	d65f03c0 	ret

000000000000b670 <chan_write_null>:
    b670:	aa0203e0 	mov	x0, x2
    b674:	d65f03c0 	ret

000000000000b678 <chan_size_null>:
    b678:	d2800020 	mov	x0, #0x1                   	// #1
    b67c:	d65f03c0 	ret

000000000000b680 <chan_control_null>:
    b680:	52800000 	mov	w0, #0x0                   	// #0
    b684:	d65f03c0 	ret

000000000000b688 <chan_module_init>:
    b688:	52800000 	mov	w0, #0x0                   	// #0
    b68c:	d65f03c0 	ret

000000000000b690 <chan_init>:
    b690:	a9bd7bfd 	stp	x29, x30, [sp, #-48]!
    b694:	910003fd 	mov	x29, sp
    b698:	a90153f3 	stp	x19, x20, [sp, #16]
    b69c:	aa0003f3 	mov	x19, x0
    b6a0:	a9025bf5 	stp	x21, x22, [sp, #32]
    b6a4:	aa0303f4 	mov	x20, x3
    b6a8:	aa0103f6 	mov	x22, x1
    b6ac:	aa0203f5 	mov	x21, x2
    b6b0:	b4000440 	cbz	x0, b738 <chan_init+0xa8>
    b6b4:	b4000536 	cbz	x22, b758 <chan_init+0xc8>
    b6b8:	b4000215 	cbz	x21, b6f8 <chan_init+0x68>
    b6bc:	b40002f4 	cbz	x20, b718 <chan_init+0x88>
    b6c0:	a9005676 	stp	x22, x21, [x19]
    b6c4:	90000000 	adrp	x0, b000 <fs_list+0x110>
    b6c8:	a9037e7f 	stp	xzr, xzr, [x19, #48]
    b6cc:	9119c000 	add	x0, x0, #0x670
    b6d0:	90000004 	adrp	x4, b000 <fs_list+0x110>
    b6d4:	a902027f 	stp	xzr, x0, [x19, #32]
    b6d8:	f900227f 	str	xzr, [x19, #64]
    b6dc:	911a0084 	add	x4, x4, #0x680
    b6e0:	a9011274 	stp	x20, x4, [x19, #16]
    b6e4:	52800000 	mov	w0, #0x0                   	// #0
    b6e8:	a94153f3 	ldp	x19, x20, [sp, #16]
    b6ec:	a9425bf5 	ldp	x21, x22, [sp, #32]
    b6f0:	a8c37bfd 	ldp	x29, x30, [sp], #48
    b6f4:	d65f03c0 	ret
    b6f8:	d01fffc0 	adrp	x0, 40005000 <state_fmt+0x2388>
    b6fc:	910b8000 	add	x0, x0, #0x2e0
    b700:	9400044e 	bl	c838 <std_printf>
    b704:	b01fffa1 	adrp	x1, 40000000 <__ram_begin>
    b708:	528002c0 	mov	w0, #0x16                  	// #22
    b70c:	f9400421 	ldr	x1, [x1, #8]
    b710:	d63f0020 	blr	x1
    b714:	b5fffd74 	cbnz	x20, b6c0 <chan_init+0x30>
    b718:	d01fffc0 	adrp	x0, 40005000 <state_fmt+0x2388>
    b71c:	910ce000 	add	x0, x0, #0x338
    b720:	94000446 	bl	c838 <std_printf>
    b724:	b01fffa1 	adrp	x1, 40000000 <__ram_begin>
    b728:	528002c0 	mov	w0, #0x16                  	// #22
    b72c:	f9400421 	ldr	x1, [x1, #8]
    b730:	d63f0020 	blr	x1
    b734:	17ffffe3 	b	b6c0 <chan_init+0x30>
    b738:	d01fffc0 	adrp	x0, 40005000 <state_fmt+0x2388>
    b73c:	9108c000 	add	x0, x0, #0x230
    b740:	9400043e 	bl	c838 <std_printf>
    b744:	b01fffa1 	adrp	x1, 40000000 <__ram_begin>
    b748:	528002c0 	mov	w0, #0x16                  	// #22
    b74c:	f9400421 	ldr	x1, [x1, #8]
    b750:	d63f0020 	blr	x1
    b754:	b5fffb36 	cbnz	x22, b6b8 <chan_init+0x28>
    b758:	d01fffc0 	adrp	x0, 40005000 <state_fmt+0x2388>
    b75c:	910a2000 	add	x0, x0, #0x288
    b760:	94000436 	bl	c838 <std_printf>
    b764:	b01fffa1 	adrp	x1, 40000000 <__ram_begin>
    b768:	528002c0 	mov	w0, #0x16                  	// #22
    b76c:	f9400421 	ldr	x1, [x1, #8]
    b770:	d63f0020 	blr	x1
    b774:	b5fffa55 	cbnz	x21, b6bc <chan_init+0x2c>
    b778:	17ffffe0 	b	b6f8 <chan_init+0x68>
    b77c:	00000000 	.inst	0x00000000 ; undefined

000000000000b780 <chan_set_write_cb>:
    b780:	f9000401 	str	x1, [x0, #8]
    b784:	52800000 	mov	w0, #0x0                   	// #0
    b788:	d65f03c0 	ret
    b78c:	00000000 	.inst	0x00000000 ; undefined

000000000000b790 <chan_set_write_isr_cb>:
    b790:	f9001401 	str	x1, [x0, #40]
    b794:	52800000 	mov	w0, #0x0                   	// #0
    b798:	d65f03c0 	ret
    b79c:	00000000 	.inst	0x00000000 ; undefined

000000000000b7a0 <chan_set_control_cb>:
    b7a0:	a9bd7bfd 	stp	x29, x30, [sp, #-48]!
    b7a4:	910003fd 	mov	x29, sp
    b7a8:	f9000bf3 	str	x19, [sp, #16]
    b7ac:	aa0003f3 	mov	x19, x0
    b7b0:	b4000140 	cbz	x0, b7d8 <chan_set_control_cb+0x38>
    b7b4:	f100003f 	cmp	x1, #0x0
    b7b8:	90000002 	adrp	x2, b000 <fs_list+0x110>
    b7bc:	911a0042 	add	x2, x2, #0x680
    b7c0:	52800000 	mov	w0, #0x0                   	// #0
    b7c4:	9a810041 	csel	x1, x2, x1, eq  // eq = none
    b7c8:	f9000e61 	str	x1, [x19, #24]
    b7cc:	f9400bf3 	ldr	x19, [sp, #16]
    b7d0:	a8c37bfd 	ldp	x29, x30, [sp], #48
    b7d4:	d65f03c0 	ret
    b7d8:	f90017a1 	str	x1, [x29, #40]
    b7dc:	d01fffc0 	adrp	x0, 40005000 <state_fmt+0x2388>
    b7e0:	91140000 	add	x0, x0, #0x500
    b7e4:	94000415 	bl	c838 <std_printf>
    b7e8:	b01fffa2 	adrp	x2, 40000000 <__ram_begin>
    b7ec:	528002c0 	mov	w0, #0x16                  	// #22
    b7f0:	f9400442 	ldr	x2, [x2, #8]
    b7f4:	d63f0040 	blr	x2
    b7f8:	f94017a1 	ldr	x1, [x29, #40]
    b7fc:	17ffffee 	b	b7b4 <chan_set_control_cb+0x14>

000000000000b800 <chan_read>:
    b800:	a9bd7bfd 	stp	x29, x30, [sp, #-48]!
    b804:	910003fd 	mov	x29, sp
    b808:	a90153f3 	stp	x19, x20, [sp, #16]
    b80c:	aa0003f3 	mov	x19, x0
    b810:	f90013f5 	str	x21, [sp, #32]
    b814:	aa0103f4 	mov	x20, x1
    b818:	aa0203f5 	mov	x21, x2
    b81c:	b40004a0 	cbz	x0, b8b0 <chan_read+0xb0>
    b820:	f9400260 	ldr	x0, [x19]
    b824:	b4000340 	cbz	x0, b88c <chan_read+0x8c>
    b828:	b4000234 	cbz	x20, b86c <chan_read+0x6c>
    b82c:	b5000115 	cbnz	x21, b84c <chan_read+0x4c>
    b830:	d01fffc0 	adrp	x0, 40005000 <state_fmt+0x2388>
    b834:	9112c000 	add	x0, x0, #0x4b0
    b838:	94000400 	bl	c838 <std_printf>
    b83c:	b01fffa1 	adrp	x1, 40000000 <__ram_begin>
    b840:	528002c0 	mov	w0, #0x16                  	// #22
    b844:	f9400421 	ldr	x1, [x1, #8]
    b848:	d63f0020 	blr	x1
    b84c:	aa1503e2 	mov	x2, x21
    b850:	aa1403e1 	mov	x1, x20
    b854:	aa1303e0 	mov	x0, x19
    b858:	f9400263 	ldr	x3, [x19]
    b85c:	a94153f3 	ldp	x19, x20, [sp, #16]
    b860:	f94013f5 	ldr	x21, [sp, #32]
    b864:	a8c37bfd 	ldp	x29, x30, [sp], #48
    b868:	d61f0060 	br	x3
    b86c:	d01fffc0 	adrp	x0, 40005000 <state_fmt+0x2388>
    b870:	91116000 	add	x0, x0, #0x458
    b874:	940003f1 	bl	c838 <std_printf>
    b878:	b01fffa1 	adrp	x1, 40000000 <__ram_begin>
    b87c:	528002c0 	mov	w0, #0x16                  	// #22
    b880:	f9400421 	ldr	x1, [x1, #8]
    b884:	d63f0020 	blr	x1
    b888:	17ffffe9 	b	b82c <chan_read+0x2c>
    b88c:	d01fffc0 	adrp	x0, 40005000 <state_fmt+0x2388>
    b890:	910fa000 	add	x0, x0, #0x3e8
    b894:	940003e9 	bl	c838 <std_printf>
    b898:	b01fffa1 	adrp	x1, 40000000 <__ram_begin>
    b89c:	528002c0 	mov	w0, #0x16                  	// #22
    b8a0:	f9400421 	ldr	x1, [x1, #8]
    b8a4:	d63f0020 	blr	x1
    b8a8:	b5fffc34 	cbnz	x20, b82c <chan_read+0x2c>
    b8ac:	17fffff0 	b	b86c <chan_read+0x6c>
    b8b0:	d01fffc0 	adrp	x0, 40005000 <state_fmt+0x2388>
    b8b4:	910e4000 	add	x0, x0, #0x390
    b8b8:	940003e0 	bl	c838 <std_printf>
    b8bc:	b01fffa1 	adrp	x1, 40000000 <__ram_begin>
    b8c0:	528002c0 	mov	w0, #0x16                  	// #22
    b8c4:	f9400421 	ldr	x1, [x1, #8]
    b8c8:	d63f0020 	blr	x1
    b8cc:	17ffffd5 	b	b820 <chan_read+0x20>

000000000000b8d0 <chan_write>:
    b8d0:	a9bd7bfd 	stp	x29, x30, [sp, #-48]!
    b8d4:	910003fd 	mov	x29, sp
    b8d8:	a90153f3 	stp	x19, x20, [sp, #16]
    b8dc:	aa0003f3 	mov	x19, x0
    b8e0:	f90013f5 	str	x21, [sp, #32]
    b8e4:	aa0203f4 	mov	x20, x2
    b8e8:	aa0103f5 	mov	x21, x1
    b8ec:	b4000660 	cbz	x0, b9b8 <chan_write+0xe8>
    b8f0:	f9400660 	ldr	x0, [x19, #8]
    b8f4:	b4000500 	cbz	x0, b994 <chan_write+0xc4>
    b8f8:	b40003f5 	cbz	x21, b974 <chan_write+0xa4>
    b8fc:	b40002d4 	cbz	x20, b954 <chan_write+0x84>
    b900:	f9401263 	ldr	x3, [x19, #32]
    b904:	b40000e3 	cbz	x3, b920 <chan_write+0x50>
    b908:	aa1403e2 	mov	x2, x20
    b90c:	aa1503e1 	mov	x1, x21
    b910:	aa1303e0 	mov	x0, x19
    b914:	d63f0060 	blr	x3
    b918:	7100041f 	cmp	w0, #0x1
    b91c:	54000120 	b.eq	b940 <chan_write+0x70>  // b.none
    b920:	aa1403e2 	mov	x2, x20
    b924:	aa1503e1 	mov	x1, x21
    b928:	aa1303e0 	mov	x0, x19
    b92c:	f9400663 	ldr	x3, [x19, #8]
    b930:	a94153f3 	ldp	x19, x20, [sp, #16]
    b934:	f94013f5 	ldr	x21, [sp, #32]
    b938:	a8c37bfd 	ldp	x29, x30, [sp], #48
    b93c:	d61f0060 	br	x3
    b940:	aa1403e0 	mov	x0, x20
    b944:	f94013f5 	ldr	x21, [sp, #32]
    b948:	a94153f3 	ldp	x19, x20, [sp, #16]
    b94c:	a8c37bfd 	ldp	x29, x30, [sp], #48
    b950:	d65f03c0 	ret
    b954:	d01fffc0 	adrp	x0, 40005000 <state_fmt+0x2388>
    b958:	911a2000 	add	x0, x0, #0x688
    b95c:	940003b7 	bl	c838 <std_printf>
    b960:	b01fffa1 	adrp	x1, 40000000 <__ram_begin>
    b964:	528002c0 	mov	w0, #0x16                  	// #22
    b968:	f9400421 	ldr	x1, [x1, #8]
    b96c:	d63f0020 	blr	x1
    b970:	17ffffe4 	b	b900 <chan_write+0x30>
    b974:	d01fffc0 	adrp	x0, 40005000 <state_fmt+0x2388>
    b978:	9118c000 	add	x0, x0, #0x630
    b97c:	940003af 	bl	c838 <std_printf>
    b980:	b01fffa1 	adrp	x1, 40000000 <__ram_begin>
    b984:	528002c0 	mov	w0, #0x16                  	// #22
    b988:	f9400421 	ldr	x1, [x1, #8]
    b98c:	d63f0020 	blr	x1
    b990:	17ffffdb 	b	b8fc <chan_write+0x2c>
    b994:	d01fffc0 	adrp	x0, 40005000 <state_fmt+0x2388>
    b998:	9116e000 	add	x0, x0, #0x5b8
    b99c:	940003a7 	bl	c838 <std_printf>
    b9a0:	b01fffa1 	adrp	x1, 40000000 <__ram_begin>
    b9a4:	528002c0 	mov	w0, #0x16                  	// #22
    b9a8:	f9400421 	ldr	x1, [x1, #8]
    b9ac:	d63f0020 	blr	x1
    b9b0:	b5fffa75 	cbnz	x21, b8fc <chan_write+0x2c>
    b9b4:	17fffff0 	b	b974 <chan_write+0xa4>
    b9b8:	d01fffc0 	adrp	x0, 40005000 <state_fmt+0x2388>
    b9bc:	91156000 	add	x0, x0, #0x558
    b9c0:	9400039e 	bl	c838 <std_printf>
    b9c4:	b01fffa1 	adrp	x1, 40000000 <__ram_begin>
    b9c8:	528002c0 	mov	w0, #0x16                  	// #22
    b9cc:	f9400421 	ldr	x1, [x1, #8]
    b9d0:	d63f0020 	blr	x1
    b9d4:	17ffffc7 	b	b8f0 <chan_write+0x20>

000000000000b9d8 <chan_control>:
    b9d8:	a9bd7bfd 	stp	x29, x30, [sp, #-48]!
    b9dc:	910003fd 	mov	x29, sp
    b9e0:	f9000bf3 	str	x19, [sp, #16]
    b9e4:	aa0003f3 	mov	x19, x0
    b9e8:	b40000c0 	cbz	x0, ba00 <chan_control+0x28>
    b9ec:	f9400e62 	ldr	x2, [x19, #24]
    b9f0:	aa1303e0 	mov	x0, x19
    b9f4:	f9400bf3 	ldr	x19, [sp, #16]
    b9f8:	a8c37bfd 	ldp	x29, x30, [sp], #48
    b9fc:	d61f0040 	br	x2
    ba00:	b9002fa1 	str	w1, [x29, #44]
    ba04:	d01fffc0 	adrp	x0, 40005000 <state_fmt+0x2388>
    ba08:	91076000 	add	x0, x0, #0x1d8
    ba0c:	9400038b 	bl	c838 <std_printf>
    ba10:	b01fffa2 	adrp	x2, 40000000 <__ram_begin>
    ba14:	528002c0 	mov	w0, #0x16                  	// #22
    ba18:	f9400442 	ldr	x2, [x2, #8]
    ba1c:	d63f0040 	blr	x2
    ba20:	b9402fa1 	ldr	w1, [x29, #44]
    ba24:	aa1303e0 	mov	x0, x19
    ba28:	f9400e62 	ldr	x2, [x19, #24]
    ba2c:	f9400bf3 	ldr	x19, [sp, #16]
    ba30:	a8c37bfd 	ldp	x29, x30, [sp], #48
    ba34:	d61f0040 	br	x2

000000000000ba38 <chan_null>:
    ba38:	d01fffc0 	adrp	x0, 40005000 <state_fmt+0x2388>
    ba3c:	911b6000 	add	x0, x0, #0x6d8
    ba40:	d65f03c0 	ret
    ba44:	00000000 	.inst	0x00000000 ; undefined

000000000000ba48 <chan_is_polled_isr>:
    ba48:	f9402001 	ldr	x1, [x0, #64]
    ba4c:	b40001e1 	cbz	x1, ba88 <chan_is_polled_isr+0x40>
    ba50:	f9400823 	ldr	x3, [x1, #16]
    ba54:	b4000163 	cbz	x3, ba80 <chan_is_polled_isr+0x38>
    ba58:	f9400021 	ldr	x1, [x1]
    ba5c:	8b030c23 	add	x3, x1, x3, lsl #3
    ba60:	f9400022 	ldr	x2, [x1]
    ba64:	91002021 	add	x1, x1, #0x8
    ba68:	eb02001f 	cmp	x0, x2
    ba6c:	f900205f 	str	xzr, [x2, #64]
    ba70:	54000040 	b.eq	ba78 <chan_is_polled_isr+0x30>  // b.none
    ba74:	f9001c5f 	str	xzr, [x2, #56]
    ba78:	eb01007f 	cmp	x3, x1
    ba7c:	54ffff21 	b.ne	ba60 <chan_is_polled_isr+0x18>  // b.any
    ba80:	52800020 	mov	w0, #0x1                   	// #1
    ba84:	d65f03c0 	ret
    ba88:	52800000 	mov	w0, #0x0                   	// #0
    ba8c:	d65f03c0 	ret

000000000000ba90 <mutex_lock_isr.part.0>:
    ba90:	a9bd7bfd 	stp	x29, x30, [sp, #-48]!
    ba94:	910003fd 	mov	x29, sp
    ba98:	f9000bf3 	str	x19, [sp, #16]
    ba9c:	aa0003f3 	mov	x19, x0
    baa0:	97ffe7a8 	bl	5940 <thrd_self>
    baa4:	910083a1 	add	x1, x29, #0x20
    baa8:	f90017a0 	str	x0, [x29, #40]
    baac:	91002260 	add	x0, x19, #0x8
    bab0:	97ffe852 	bl	5bf8 <thrd_prio_list_push_isr>
    bab4:	d2800000 	mov	x0, #0x0                   	// #0
    bab8:	97ffe98c 	bl	60e8 <thrd_suspend_isr>
    babc:	f9400bf3 	ldr	x19, [sp, #16]
    bac0:	a8c37bfd 	ldp	x29, x30, [sp], #48
    bac4:	d65f03c0 	ret

000000000000bac8 <mutex_init>:
    bac8:	a9bf7bfd 	stp	x29, x30, [sp, #-16]!
    bacc:	910003fd 	mov	x29, sp
    bad0:	3800841f 	strb	wzr, [x0], #8
    bad4:	97ffe845 	bl	5be8 <thrd_prio_list_init>
    bad8:	52800000 	mov	w0, #0x0                   	// #0
    badc:	a8c17bfd 	ldp	x29, x30, [sp], #16
    bae0:	d65f03c0 	ret
    bae4:	00000000 	.inst	0x00000000 ; undefined

000000000000bae8 <mutex_lock>:
    bae8:	a9be7bfd 	stp	x29, x30, [sp, #-32]!
    baec:	910003fd 	mov	x29, sp
    baf0:	f9000bf3 	str	x19, [sp, #16]
    baf4:	aa0003f3 	mov	x19, x0
    baf8:	97ffe6e0 	bl	5678 <sys_lock>
    bafc:	39c00260 	ldrsb	w0, [x19]
    bb00:	7100041f 	cmp	w0, #0x1
    bb04:	54000100 	b.eq	bb24 <mutex_lock+0x3c>  // b.none
    bb08:	52800020 	mov	w0, #0x1                   	// #1
    bb0c:	39000260 	strb	w0, [x19]
    bb10:	97ffe6dc 	bl	5680 <sys_unlock>
    bb14:	f9400bf3 	ldr	x19, [sp, #16]
    bb18:	52800000 	mov	w0, #0x0                   	// #0
    bb1c:	a8c27bfd 	ldp	x29, x30, [sp], #32
    bb20:	d65f03c0 	ret
    bb24:	aa1303e0 	mov	x0, x19
    bb28:	97ffffda 	bl	ba90 <mutex_lock_isr.part.0>
    bb2c:	97ffe6d5 	bl	5680 <sys_unlock>
    bb30:	f9400bf3 	ldr	x19, [sp, #16]
    bb34:	52800000 	mov	w0, #0x0                   	// #0
    bb38:	a8c27bfd 	ldp	x29, x30, [sp], #32
    bb3c:	d65f03c0 	ret

000000000000bb40 <mutex_unlock_isr>:
    bb40:	a9be7bfd 	stp	x29, x30, [sp, #-32]!
    bb44:	910003fd 	mov	x29, sp
    bb48:	f9000bf3 	str	x19, [sp, #16]
    bb4c:	aa0003f3 	mov	x19, x0
    bb50:	91002000 	add	x0, x0, #0x8
    bb54:	97ffe9f5 	bl	6328 <thrd_prio_list_pop_isr>
    bb58:	b50000c0 	cbnz	x0, bb70 <mutex_unlock_isr+0x30>
    bb5c:	3900027f 	strb	wzr, [x19]
    bb60:	52800000 	mov	w0, #0x0                   	// #0
    bb64:	f9400bf3 	ldr	x19, [sp, #16]
    bb68:	a8c27bfd 	ldp	x29, x30, [sp], #32
    bb6c:	d65f03c0 	ret
    bb70:	f9400400 	ldr	x0, [x0, #8]
    bb74:	52800001 	mov	w1, #0x0                   	// #0
    bb78:	97ffe934 	bl	6048 <thrd_resume_isr>
    bb7c:	f9400bf3 	ldr	x19, [sp, #16]
    bb80:	52800000 	mov	w0, #0x0                   	// #0
    bb84:	a8c27bfd 	ldp	x29, x30, [sp], #32
    bb88:	d65f03c0 	ret
    bb8c:	00000000 	.inst	0x00000000 ; undefined

000000000000bb90 <mutex_unlock>:
    bb90:	a9be7bfd 	stp	x29, x30, [sp, #-32]!
    bb94:	910003fd 	mov	x29, sp
    bb98:	f9000bf3 	str	x19, [sp, #16]
    bb9c:	aa0003f3 	mov	x19, x0
    bba0:	97ffe6b6 	bl	5678 <sys_lock>
    bba4:	aa1303e0 	mov	x0, x19
    bba8:	97ffffe6 	bl	bb40 <mutex_unlock_isr>
    bbac:	2a0003f3 	mov	w19, w0
    bbb0:	97ffe6b4 	bl	5680 <sys_unlock>
    bbb4:	2a1303e0 	mov	w0, w19
    bbb8:	f9400bf3 	ldr	x19, [sp, #16]
    bbbc:	a8c27bfd 	ldp	x29, x30, [sp], #32
    bbc0:	d65f03c0 	ret
    bbc4:	00000000 	.inst	0x00000000 ; undefined

000000000000bbc8 <control>:
    bbc8:	7100143f 	cmp	w1, #0x5
    bbcc:	54000180 	b.eq	bbfc <control+0x34>  // b.none
    bbd0:	7100183f 	cmp	w1, #0x6
    bbd4:	54000080 	b.eq	bbe4 <control+0x1c>  // b.none
    bbd8:	128002a1 	mov	w1, #0xffffffea            	// #-22
    bbdc:	2a0103e0 	mov	w0, w1
    bbe0:	d65f03c0 	ret
    bbe4:	b9409c02 	ldr	w2, [x0, #156]
    bbe8:	52800001 	mov	w1, #0x0                   	// #0
    bbec:	121f7842 	and	w2, w2, #0xfffffffe
    bbf0:	b9009c02 	str	w2, [x0, #156]
    bbf4:	2a0103e0 	mov	w0, w1
    bbf8:	d65f03c0 	ret
    bbfc:	b9409c02 	ldr	w2, [x0, #156]
    bc00:	52800001 	mov	w1, #0x0                   	// #0
    bc04:	32000042 	orr	w2, w2, #0x1
    bc08:	b9009c02 	str	w2, [x0, #156]
    bc0c:	2a0103e0 	mov	w0, w1
    bc10:	d65f03c0 	ret
    bc14:	00000000 	.inst	0x00000000 ; undefined

000000000000bc18 <queue_read>:
    bc18:	a9bc7bfd 	stp	x29, x30, [sp, #-64]!
    bc1c:	910003fd 	mov	x29, sp
    bc20:	a90153f3 	stp	x19, x20, [sp, #16]
    bc24:	a9025bf5 	stp	x21, x22, [sp, #32]
    bc28:	aa0003f5 	mov	x21, x0
    bc2c:	a90363f7 	stp	x23, x24, [sp, #48]
    bc30:	aa0203f6 	mov	x22, x2
    bc34:	aa0103f8 	mov	x24, x1
    bc38:	b4000740 	cbz	x0, bd20 <queue_read+0x108>
    bc3c:	b4000838 	cbz	x24, bd40 <queue_read+0x128>
    bc40:	97ffe68e 	bl	5678 <sys_lock>
    bc44:	aa1603f4 	mov	x20, x22
    bc48:	f9403aa0 	ldr	x0, [x21, #112]
    bc4c:	b40000e0 	cbz	x0, bc68 <queue_read+0x50>
    bc50:	aa1803e1 	mov	x1, x24
    bc54:	aa1603e2 	mov	x2, x22
    bc58:	9101e2a0 	add	x0, x21, #0x78
    bc5c:	97ffda01 	bl	2460 <circular_buffer_read>
    bc60:	cb0002d4 	sub	x20, x22, x0
    bc64:	8b000318 	add	x24, x24, x0
    bc68:	f9402aa1 	ldr	x1, [x21, #80]
    bc6c:	910122b7 	add	x23, x21, #0x48
    bc70:	aa1803e0 	mov	x0, x24
    bc74:	b4000361 	cbz	x1, bce0 <queue_read+0xc8>
    bc78:	b4000474 	cbz	x20, bd04 <queue_read+0xec>
    bc7c:	f9401033 	ldr	x19, [x1, #32]
    bc80:	f9400821 	ldr	x1, [x1, #16]
    bc84:	eb14027f 	cmp	x19, x20
    bc88:	9a949273 	csel	x19, x19, x20, ls  // ls = plast
    bc8c:	aa1303e2 	mov	x2, x19
    bc90:	8b130318 	add	x24, x24, x19
    bc94:	97ffd7df 	bl	1c10 <memcpy>
    bc98:	cb130294 	sub	x20, x20, x19
    bc9c:	f9402aa1 	ldr	x1, [x21, #80]
    bca0:	f9400823 	ldr	x3, [x1, #16]
    bca4:	f9401022 	ldr	x2, [x1, #32]
    bca8:	8b130063 	add	x3, x3, x19
    bcac:	f9000823 	str	x3, [x1, #16]
    bcb0:	cb130053 	sub	x19, x2, x19
    bcb4:	f9001033 	str	x19, [x1, #32]
    bcb8:	b5fffdd3 	cbnz	x19, bc70 <queue_read+0x58>
    bcbc:	f9400420 	ldr	x0, [x1, #8]
    bcc0:	b9401821 	ldr	w1, [x1, #24]
    bcc4:	97ffe8e1 	bl	6048 <thrd_resume_isr>
    bcc8:	aa1703e0 	mov	x0, x23
    bccc:	97ffe997 	bl	6328 <thrd_prio_list_pop_isr>
    bcd0:	f9002aa0 	str	x0, [x21, #80]
    bcd4:	aa0003e1 	mov	x1, x0
    bcd8:	aa1803e0 	mov	x0, x24
    bcdc:	b5fffce1 	cbnz	x1, bc78 <queue_read+0x60>
    bce0:	b4000134 	cbz	x20, bd04 <queue_read+0xec>
    bce4:	b9409aa0 	ldr	w0, [x21, #152]
    bce8:	7100081f 	cmp	w0, #0x2
    bcec:	540003a0 	b.eq	bd60 <queue_read+0x148>  // b.none
    bcf0:	b9409ea0 	ldr	w0, [x21, #156]
    bcf4:	36000460 	tbz	w0, #0, bd80 <queue_read+0x168>
    bcf8:	eb1402d4 	subs	x20, x22, x20
    bcfc:	92800156 	mov	x22, #0xfffffffffffffff5    	// #-11
    bd00:	9a961296 	csel	x22, x20, x22, ne  // ne = any
    bd04:	97ffe65f 	bl	5680 <sys_unlock>
    bd08:	aa1603e0 	mov	x0, x22
    bd0c:	a94153f3 	ldp	x19, x20, [sp, #16]
    bd10:	a9425bf5 	ldp	x21, x22, [sp, #32]
    bd14:	a94363f7 	ldp	x23, x24, [sp, #48]
    bd18:	a8c47bfd 	ldp	x29, x30, [sp], #64
    bd1c:	d65f03c0 	ret
    bd20:	d01fffc0 	adrp	x0, 40005000 <state_fmt+0x2388>
    bd24:	91200000 	add	x0, x0, #0x800
    bd28:	940002c4 	bl	c838 <std_printf>
    bd2c:	b01fffa1 	adrp	x1, 40000000 <__ram_begin>
    bd30:	528002c0 	mov	w0, #0x16                  	// #22
    bd34:	f9400421 	ldr	x1, [x1, #8]
    bd38:	d63f0020 	blr	x1
    bd3c:	b5fff838 	cbnz	x24, bc40 <queue_read+0x28>
    bd40:	d01fffc0 	adrp	x0, 40005000 <state_fmt+0x2388>
    bd44:	91216000 	add	x0, x0, #0x858
    bd48:	940002bc 	bl	c838 <std_printf>
    bd4c:	b01fffa1 	adrp	x1, 40000000 <__ram_begin>
    bd50:	528002c0 	mov	w0, #0x16                  	// #22
    bd54:	f9400421 	ldr	x1, [x1, #8]
    bd58:	d63f0020 	blr	x1
    bd5c:	17ffffb9 	b	bc40 <queue_read+0x28>
    bd60:	97ffe648 	bl	5680 <sys_unlock>
    bd64:	cb1402d6 	sub	x22, x22, x20
    bd68:	aa1603e0 	mov	x0, x22
    bd6c:	a94153f3 	ldp	x19, x20, [sp, #16]
    bd70:	a9425bf5 	ldp	x21, x22, [sp, #32]
    bd74:	a94363f7 	ldp	x23, x24, [sp, #48]
    bd78:	a8c47bfd 	ldp	x29, x30, [sp], #64
    bd7c:	d65f03c0 	ret
    bd80:	97ffe6f0 	bl	5940 <thrd_self>
    bd84:	f9001ea0 	str	x0, [x21, #56]
    bd88:	a905dab8 	stp	x24, x22, [x21, #88]
    bd8c:	d2800000 	mov	x0, #0x0                   	// #0
    bd90:	f90036b4 	str	x20, [x21, #104]
    bd94:	97ffe8d5 	bl	60e8 <thrd_suspend_isr>
    bd98:	93407c16 	sxtw	x22, w0
    bd9c:	97ffe639 	bl	5680 <sys_unlock>
    bda0:	aa1603e0 	mov	x0, x22
    bda4:	a94153f3 	ldp	x19, x20, [sp, #16]
    bda8:	a9425bf5 	ldp	x21, x22, [sp, #32]
    bdac:	a94363f7 	ldp	x23, x24, [sp, #48]
    bdb0:	a8c47bfd 	ldp	x29, x30, [sp], #64
    bdb4:	d65f03c0 	ret

000000000000bdb8 <queue_write_isr>:
    bdb8:	a9bc7bfd 	stp	x29, x30, [sp, #-64]!
    bdbc:	910003fd 	mov	x29, sp
    bdc0:	a90153f3 	stp	x19, x20, [sp, #16]
    bdc4:	aa0003f3 	mov	x19, x0
    bdc8:	a902dff6 	stp	x22, x23, [sp, #40]
    bdcc:	aa0203f4 	mov	x20, x2
    bdd0:	aa0103f7 	mov	x23, x1
    bdd4:	97ffff1d 	bl	ba48 <chan_is_polled_isr>
    bdd8:	350004c0 	cbnz	w0, be70 <queue_write_isr+0xb8>
    bddc:	b9409a60 	ldr	w0, [x19, #152]
    bde0:	7100081f 	cmp	w0, #0x2
    bde4:	54000680 	b.eq	beb4 <queue_write_isr+0xfc>  // b.none
    bde8:	f9401e60 	ldr	x0, [x19, #56]
    bdec:	b4000500 	cbz	x0, be8c <queue_write_isr+0xd4>
    bdf0:	f9402e60 	ldr	x0, [x19, #88]
    bdf4:	aa1703e1 	mov	x1, x23
    bdf8:	f90013b5 	str	x21, [x29, #32]
    bdfc:	f9403675 	ldr	x21, [x19, #104]
    be00:	eb1402bf 	cmp	x21, x20
    be04:	9a9492b5 	csel	x21, x21, x20, ls  // ls = plast
    be08:	aa1503e2 	mov	x2, x21
    be0c:	8b1502f7 	add	x23, x23, x21
    be10:	97ffd780 	bl	1c10 <memcpy>
    be14:	cb150296 	sub	x22, x20, x21
    be18:	f9402e61 	ldr	x1, [x19, #88]
    be1c:	f9403660 	ldr	x0, [x19, #104]
    be20:	8b150021 	add	x1, x1, x21
    be24:	f9002e61 	str	x1, [x19, #88]
    be28:	cb150015 	sub	x21, x0, x21
    be2c:	f9003675 	str	x21, [x19, #104]
    be30:	b4000375 	cbz	x21, be9c <queue_write_isr+0xe4>
    be34:	f94013b5 	ldr	x21, [x29, #32]
    be38:	b4000136 	cbz	x22, be5c <queue_write_isr+0xa4>
    be3c:	f9403a60 	ldr	x0, [x19, #112]
    be40:	b40002a0 	cbz	x0, be94 <queue_write_isr+0xdc>
    be44:	aa1603e2 	mov	x2, x22
    be48:	aa1703e1 	mov	x1, x23
    be4c:	9101e260 	add	x0, x19, #0x78
    be50:	97ffd928 	bl	22f0 <circular_buffer_write>
    be54:	cb0002c0 	sub	x0, x22, x0
    be58:	cb000294 	sub	x20, x20, x0
    be5c:	aa1403e0 	mov	x0, x20
    be60:	a94153f3 	ldp	x19, x20, [sp, #16]
    be64:	a942dff6 	ldp	x22, x23, [sp, #40]
    be68:	a8c47bfd 	ldp	x29, x30, [sp], #64
    be6c:	d65f03c0 	ret
    be70:	f9401e60 	ldr	x0, [x19, #56]
    be74:	52800001 	mov	w1, #0x0                   	// #0
    be78:	97ffe874 	bl	6048 <thrd_resume_isr>
    be7c:	f9001e7f 	str	xzr, [x19, #56]
    be80:	b9409a60 	ldr	w0, [x19, #152]
    be84:	7100081f 	cmp	w0, #0x2
    be88:	54000160 	b.eq	beb4 <queue_write_isr+0xfc>  // b.none
    be8c:	aa1403f6 	mov	x22, x20
    be90:	17ffffea 	b	be38 <queue_write_isr+0x80>
    be94:	cb160294 	sub	x20, x20, x22
    be98:	17fffff1 	b	be5c <queue_write_isr+0xa4>
    be9c:	b9406261 	ldr	w1, [x19, #96]
    bea0:	f9401e60 	ldr	x0, [x19, #56]
    bea4:	97ffe869 	bl	6048 <thrd_resume_isr>
    bea8:	f94013b5 	ldr	x21, [x29, #32]
    beac:	f9001e7f 	str	xzr, [x19, #56]
    beb0:	17ffffe2 	b	be38 <queue_write_isr+0x80>
    beb4:	92800000 	mov	x0, #0xffffffffffffffff    	// #-1
    beb8:	17ffffea 	b	be60 <queue_write_isr+0xa8>
    bebc:	00000000 	.inst	0x00000000 ; undefined

000000000000bec0 <queue_write>:
    bec0:	a9b97bfd 	stp	x29, x30, [sp, #-112]!
    bec4:	910003fd 	mov	x29, sp
    bec8:	a90153f3 	stp	x19, x20, [sp, #16]
    becc:	aa0103f4 	mov	x20, x1
    bed0:	a9025bf5 	stp	x21, x22, [sp, #32]
    bed4:	aa0003f6 	mov	x22, x0
    bed8:	aa0203f5 	mov	x21, x2
    bedc:	b40004c0 	cbz	x0, bf74 <queue_write+0xb4>
    bee0:	b40005d4 	cbz	x20, bf98 <queue_write+0xd8>
    bee4:	97ffe5e5 	bl	5678 <sys_lock>
    bee8:	aa1503e2 	mov	x2, x21
    beec:	aa1403e1 	mov	x1, x20
    bef0:	aa1603e0 	mov	x0, x22
    bef4:	97ffffb1 	bl	bdb8 <queue_write_isr>
    bef8:	aa0003f3 	mov	x19, x0
    befc:	b7f800a0 	tbnz	x0, #63, bf10 <queue_write+0x50>
    bf00:	f9001bb7 	str	x23, [x29, #48]
    bf04:	eb0002b7 	subs	x23, x21, x0
    bf08:	54000101 	b.ne	bf28 <queue_write+0x68>  // b.any
    bf0c:	f9401bb7 	ldr	x23, [x29, #48]
    bf10:	97ffe5dc 	bl	5680 <sys_unlock>
    bf14:	aa1303e0 	mov	x0, x19
    bf18:	a94153f3 	ldp	x19, x20, [sp, #16]
    bf1c:	a9425bf5 	ldp	x21, x22, [sp, #32]
    bf20:	a8c77bfd 	ldp	x29, x30, [sp], #112
    bf24:	d65f03c0 	ret
    bf28:	97ffe686 	bl	5940 <thrd_self>
    bf2c:	8b130293 	add	x19, x20, x19
    bf30:	f9402ac1 	ldr	x1, [x22, #80]
    bf34:	a9054fa0 	stp	x0, x19, [x29, #80]
    bf38:	a9065fb5 	stp	x21, x23, [x29, #96]
    bf3c:	b40003e1 	cbz	x1, bfb8 <queue_write+0xf8>
    bf40:	910123a1 	add	x1, x29, #0x48
    bf44:	910122c0 	add	x0, x22, #0x48
    bf48:	97ffe72c 	bl	5bf8 <thrd_prio_list_push_isr>
    bf4c:	d2800000 	mov	x0, #0x0                   	// #0
    bf50:	97ffe866 	bl	60e8 <thrd_suspend_isr>
    bf54:	f9401bb7 	ldr	x23, [x29, #48]
    bf58:	93407c13 	sxtw	x19, w0
    bf5c:	97ffe5c9 	bl	5680 <sys_unlock>
    bf60:	aa1303e0 	mov	x0, x19
    bf64:	a94153f3 	ldp	x19, x20, [sp, #16]
    bf68:	a9425bf5 	ldp	x21, x22, [sp, #32]
    bf6c:	a8c77bfd 	ldp	x29, x30, [sp], #112
    bf70:	d65f03c0 	ret
    bf74:	d01fffc0 	adrp	x0, 40005000 <state_fmt+0x2388>
    bf78:	91242000 	add	x0, x0, #0x908
    bf7c:	9400022f 	bl	c838 <std_printf>
    bf80:	b01fffa1 	adrp	x1, 40000000 <__ram_begin>
    bf84:	528002c0 	mov	w0, #0x16                  	// #22
    bf88:	f9400421 	ldr	x1, [x1, #8]
    bf8c:	d63f0020 	blr	x1
    bf90:	b5fffab4 	cbnz	x20, bee4 <queue_write+0x24>
    bf94:	d503201f 	nop
    bf98:	d01fffc0 	adrp	x0, 40005000 <state_fmt+0x2388>
    bf9c:	91258000 	add	x0, x0, #0x960
    bfa0:	94000226 	bl	c838 <std_printf>
    bfa4:	b01fffa1 	adrp	x1, 40000000 <__ram_begin>
    bfa8:	528002c0 	mov	w0, #0x16                  	// #22
    bfac:	f9400421 	ldr	x1, [x1, #8]
    bfb0:	d63f0020 	blr	x1
    bfb4:	17ffffcc 	b	bee4 <queue_write+0x24>
    bfb8:	910123a0 	add	x0, x29, #0x48
    bfbc:	f9002ac0 	str	x0, [x22, #80]
    bfc0:	17ffffe3 	b	bf4c <queue_write+0x8c>
    bfc4:	00000000 	.inst	0x00000000 ; undefined

000000000000bfc8 <queue_size>:
    bfc8:	a9be7bfd 	stp	x29, x30, [sp, #-32]!
    bfcc:	910003fd 	mov	x29, sp
    bfd0:	f9000bf3 	str	x19, [sp, #16]
    bfd4:	aa0003f3 	mov	x19, x0
    bfd8:	b40001a0 	cbz	x0, c00c <queue_size+0x44>
    bfdc:	f9403a61 	ldr	x1, [x19, #112]
    bfe0:	d2800000 	mov	x0, #0x0                   	// #0
    bfe4:	b4000061 	cbz	x1, bff0 <queue_size+0x28>
    bfe8:	9101e260 	add	x0, x19, #0x78
    bfec:	97ffd901 	bl	23f0 <circular_buffer_used_size>
    bff0:	f9402a61 	ldr	x1, [x19, #80]
    bff4:	b4000061 	cbz	x1, c000 <queue_size+0x38>
    bff8:	f9401021 	ldr	x1, [x1, #32]
    bffc:	8b010000 	add	x0, x0, x1
    c000:	f9400bf3 	ldr	x19, [sp, #16]
    c004:	a8c27bfd 	ldp	x29, x30, [sp], #32
    c008:	d65f03c0 	ret
    c00c:	b01fffc0 	adrp	x0, 40005000 <state_fmt+0x2388>
    c010:	9122c000 	add	x0, x0, #0x8b0
    c014:	94000209 	bl	c838 <std_printf>
    c018:	901fffa1 	adrp	x1, 40000000 <__ram_begin>
    c01c:	528002c0 	mov	w0, #0x16                  	// #22
    c020:	f9400421 	ldr	x1, [x1, #8]
    c024:	d63f0020 	blr	x1
    c028:	17ffffed 	b	bfdc <queue_size+0x14>
    c02c:	00000000 	.inst	0x00000000 ; undefined

000000000000c030 <queue_init>:
    c030:	a9bd7bfd 	stp	x29, x30, [sp, #-48]!
    c034:	910003fd 	mov	x29, sp
    c038:	a90153f3 	stp	x19, x20, [sp, #16]
    c03c:	aa0003f3 	mov	x19, x0
    c040:	a9025bf5 	stp	x21, x22, [sp, #32]
    c044:	aa0103f4 	mov	x20, x1
    c048:	aa0203f5 	mov	x21, x2
    c04c:	b40008c0 	cbz	x0, c164 <queue_init+0x134>
    c050:	91012276 	add	x22, x19, #0x48
    c054:	b4000534 	cbz	x20, c0f8 <queue_init+0xc8>
    c058:	b4000415 	cbz	x21, c0d8 <queue_init+0xa8>
    c05c:	f0ffffe3 	adrp	x3, b000 <fs_list+0x110>
    c060:	f0ffffe2 	adrp	x2, b000 <fs_list+0x110>
    c064:	913f2063 	add	x3, x3, #0xfc8
    c068:	913b0042 	add	x2, x2, #0xec0
    c06c:	aa1303e0 	mov	x0, x19
    c070:	f0ffffe1 	adrp	x1, b000 <fs_list+0x110>
    c074:	91306021 	add	x1, x1, #0xc18
    c078:	97fffd86 	bl	b690 <chan_init>
    c07c:	aa1303e0 	mov	x0, x19
    c080:	f0ffffe1 	adrp	x1, b000 <fs_list+0x110>
    c084:	9136e021 	add	x1, x1, #0xdb8
    c088:	97fffdc2 	bl	b790 <chan_set_write_isr_cb>
    c08c:	f0ffffe1 	adrp	x1, b000 <fs_list+0x110>
    c090:	912f2021 	add	x1, x1, #0xbc8
    c094:	aa1303e0 	mov	x0, x19
    c098:	97fffdc2 	bl	b7a0 <chan_set_control_cb>
    c09c:	aa1603e0 	mov	x0, x22
    c0a0:	97ffe6d2 	bl	5be8 <thrd_prio_list_init>
    c0a4:	a9057e7f 	stp	xzr, xzr, [x19, #80]
    c0a8:	a9067e7f 	stp	xzr, xzr, [x19, #96]
    c0ac:	aa1503e2 	mov	x2, x21
    c0b0:	f9003a74 	str	x20, [x19, #112]
    c0b4:	aa1403e1 	mov	x1, x20
    c0b8:	9101e260 	add	x0, x19, #0x78
    c0bc:	97ffd84d 	bl	21f0 <circular_buffer_init>
    c0c0:	a9425bf5 	ldp	x21, x22, [sp, #32]
    c0c4:	29137e7f 	stp	wzr, wzr, [x19, #152]
    c0c8:	52800000 	mov	w0, #0x0                   	// #0
    c0cc:	a94153f3 	ldp	x19, x20, [sp, #16]
    c0d0:	a8c37bfd 	ldp	x29, x30, [sp], #48
    c0d4:	d65f03c0 	ret
    c0d8:	b01fffc0 	adrp	x0, 40005000 <state_fmt+0x2388>
    c0dc:	911de000 	add	x0, x0, #0x778
    c0e0:	940001d6 	bl	c838 <std_printf>
    c0e4:	901fffa1 	adrp	x1, 40000000 <__ram_begin>
    c0e8:	528002c0 	mov	w0, #0x16                  	// #22
    c0ec:	f9400421 	ldr	x1, [x1, #8]
    c0f0:	d63f0020 	blr	x1
    c0f4:	17ffffda 	b	c05c <queue_init+0x2c>
    c0f8:	f0ffffe3 	adrp	x3, b000 <fs_list+0x110>
    c0fc:	f0ffffe2 	adrp	x2, b000 <fs_list+0x110>
    c100:	913f2063 	add	x3, x3, #0xfc8
    c104:	913b0042 	add	x2, x2, #0xec0
    c108:	aa1303e0 	mov	x0, x19
    c10c:	f0ffffe1 	adrp	x1, b000 <fs_list+0x110>
    c110:	91306021 	add	x1, x1, #0xc18
    c114:	97fffd5f 	bl	b690 <chan_init>
    c118:	aa1303e0 	mov	x0, x19
    c11c:	f0ffffe1 	adrp	x1, b000 <fs_list+0x110>
    c120:	9136e021 	add	x1, x1, #0xdb8
    c124:	97fffd9b 	bl	b790 <chan_set_write_isr_cb>
    c128:	f0ffffe1 	adrp	x1, b000 <fs_list+0x110>
    c12c:	912f2021 	add	x1, x1, #0xbc8
    c130:	aa1303e0 	mov	x0, x19
    c134:	97fffd9b 	bl	b7a0 <chan_set_control_cb>
    c138:	aa1603e0 	mov	x0, x22
    c13c:	97ffe6ab 	bl	5be8 <thrd_prio_list_init>
    c140:	a9057e7f 	stp	xzr, xzr, [x19, #80]
    c144:	a9067e7f 	stp	xzr, xzr, [x19, #96]
    c148:	52800000 	mov	w0, #0x0                   	// #0
    c14c:	f9003a7f 	str	xzr, [x19, #112]
    c150:	a9425bf5 	ldp	x21, x22, [sp, #32]
    c154:	29137e7f 	stp	wzr, wzr, [x19, #152]
    c158:	a94153f3 	ldp	x19, x20, [sp, #16]
    c15c:	a8c37bfd 	ldp	x29, x30, [sp], #48
    c160:	d65f03c0 	ret
    c164:	b01fffc0 	adrp	x0, 40005000 <state_fmt+0x2388>
    c168:	911c8000 	add	x0, x0, #0x720
    c16c:	940001b3 	bl	c838 <std_printf>
    c170:	901fffa1 	adrp	x1, 40000000 <__ram_begin>
    c174:	528002c0 	mov	w0, #0x16                  	// #22
    c178:	f9400421 	ldr	x1, [x1, #8]
    c17c:	d63f0020 	blr	x1
    c180:	17ffffb4 	b	c050 <queue_init+0x20>
    c184:	00000000 	.inst	0x00000000 ; undefined

000000000000c188 <rwlock_module_init>:
    c188:	52800000 	mov	w0, #0x0                   	// #0
    c18c:	d65f03c0 	ret

000000000000c190 <sem_module_init>:
    c190:	52800000 	mov	w0, #0x0                   	// #0
    c194:	d65f03c0 	ret

000000000000c198 <sem_init>:
    c198:	a9bd7bfd 	stp	x29, x30, [sp, #-48]!
    c19c:	910003fd 	mov	x29, sp
    c1a0:	a90153f3 	stp	x19, x20, [sp, #16]
    c1a4:	aa0003f3 	mov	x19, x0
    c1a8:	f90013f5 	str	x21, [sp, #32]
    c1ac:	2a0203f4 	mov	w20, w2
    c1b0:	2a0103f5 	mov	w21, w1
    c1b4:	b40004c0 	cbz	x0, c24c <sem_init+0xb4>
    c1b8:	710002bf 	cmp	w21, #0x0
    c1bc:	7a54a2a0 	ccmp	w21, w20, #0x0, ge  // ge = tcont
    c1c0:	5400016c 	b.gt	c1ec <sem_init+0x54>
    c1c4:	7100029f 	cmp	w20, #0x0
    c1c8:	5400024d 	b.le	c210 <sem_init+0x78>
    c1cc:	29005275 	stp	w21, w20, [x19]
    c1d0:	91002260 	add	x0, x19, #0x8
    c1d4:	97ffe685 	bl	5be8 <thrd_prio_list_init>
    c1d8:	f94013f5 	ldr	x21, [sp, #32]
    c1dc:	52800000 	mov	w0, #0x0                   	// #0
    c1e0:	a94153f3 	ldp	x19, x20, [sp, #16]
    c1e4:	a8c37bfd 	ldp	x29, x30, [sp], #48
    c1e8:	d65f03c0 	ret
    c1ec:	b01fffc0 	adrp	x0, 40005000 <state_fmt+0x2388>
    c1f0:	91284000 	add	x0, x0, #0xa10
    c1f4:	94000191 	bl	c838 <std_printf>
    c1f8:	901fffa1 	adrp	x1, 40000000 <__ram_begin>
    c1fc:	528002c0 	mov	w0, #0x16                  	// #22
    c200:	f9400421 	ldr	x1, [x1, #8]
    c204:	d63f0020 	blr	x1
    c208:	7100029f 	cmp	w20, #0x0
    c20c:	54fffe0c 	b.gt	c1cc <sem_init+0x34>
    c210:	b01fffc0 	adrp	x0, 40005000 <state_fmt+0x2388>
    c214:	9129e000 	add	x0, x0, #0xa78
    c218:	94000188 	bl	c838 <std_printf>
    c21c:	901fffa1 	adrp	x1, 40000000 <__ram_begin>
    c220:	528002c0 	mov	w0, #0x16                  	// #22
    c224:	f9400421 	ldr	x1, [x1, #8]
    c228:	d63f0020 	blr	x1
    c22c:	29005275 	stp	w21, w20, [x19]
    c230:	91002260 	add	x0, x19, #0x8
    c234:	97ffe66d 	bl	5be8 <thrd_prio_list_init>
    c238:	f94013f5 	ldr	x21, [sp, #32]
    c23c:	52800000 	mov	w0, #0x0                   	// #0
    c240:	a94153f3 	ldp	x19, x20, [sp, #16]
    c244:	a8c37bfd 	ldp	x29, x30, [sp], #48
    c248:	d65f03c0 	ret
    c24c:	b01fffc0 	adrp	x0, 40005000 <state_fmt+0x2388>
    c250:	9126e000 	add	x0, x0, #0x9b8
    c254:	94000179 	bl	c838 <std_printf>
    c258:	901fffa1 	adrp	x1, 40000000 <__ram_begin>
    c25c:	528002c0 	mov	w0, #0x16                  	// #22
    c260:	f9400421 	ldr	x1, [x1, #8]
    c264:	d63f0020 	blr	x1
    c268:	17ffffd4 	b	c1b8 <sem_init+0x20>
    c26c:	00000000 	.inst	0x00000000 ; undefined

000000000000c270 <sem_give_isr>:
    c270:	a9be7bfd 	stp	x29, x30, [sp, #-32]!
    c274:	910003fd 	mov	x29, sp
    c278:	a90153f3 	stp	x19, x20, [sp, #16]
    c27c:	aa0003f3 	mov	x19, x0
    c280:	b9400000 	ldr	w0, [x0]
    c284:	6b010001 	subs	w1, w0, w1
    c288:	540002e4 	b.mi	c2e4 <sem_give_isr+0x74>  // b.first
    c28c:	b9000261 	str	w1, [x19]
    c290:	b9400660 	ldr	w0, [x19, #4]
    c294:	91002274 	add	x20, x19, #0x8
    c298:	6b01001f 	cmp	w0, w1
    c29c:	5400016c 	b.gt	c2c8 <sem_give_isr+0x58>
    c2a0:	1400000d 	b	c2d4 <sem_give_isr+0x64>
    c2a4:	b9400262 	ldr	w2, [x19]
    c2a8:	52800001 	mov	w1, #0x0                   	// #0
    c2ac:	f9400400 	ldr	x0, [x0, #8]
    c2b0:	11000442 	add	w2, w2, #0x1
    c2b4:	b9000262 	str	w2, [x19]
    c2b8:	97ffe764 	bl	6048 <thrd_resume_isr>
    c2bc:	29400261 	ldp	w1, w0, [x19]
    c2c0:	6b00003f 	cmp	w1, w0
    c2c4:	5400008a 	b.ge	c2d4 <sem_give_isr+0x64>  // b.tcont
    c2c8:	aa1403e0 	mov	x0, x20
    c2cc:	97ffe817 	bl	6328 <thrd_prio_list_pop_isr>
    c2d0:	b5fffea0 	cbnz	x0, c2a4 <sem_give_isr+0x34>
    c2d4:	52800000 	mov	w0, #0x0                   	// #0
    c2d8:	a94153f3 	ldp	x19, x20, [sp, #16]
    c2dc:	a8c27bfd 	ldp	x29, x30, [sp], #32
    c2e0:	d65f03c0 	ret
    c2e4:	52800001 	mov	w1, #0x0                   	// #0
    c2e8:	b900027f 	str	wzr, [x19]
    c2ec:	17ffffe9 	b	c290 <sem_give_isr+0x20>

000000000000c2f0 <sprintf_putc>:
    c2f0:	f9400022 	ldr	x2, [x1]
    c2f4:	91000443 	add	x3, x2, #0x1
    c2f8:	f9000023 	str	x3, [x1]
    c2fc:	39000040 	strb	w0, [x2]
    c300:	d65f03c0 	ret
    c304:	00000000 	.inst	0x00000000 ; undefined

000000000000c308 <snprintf_putc>:
    c308:	a9408c22 	ldp	x2, x3, [x1, #8]
    c30c:	12001c00 	and	w0, w0, #0xff
    c310:	eb03005f 	cmp	x2, x3
    c314:	54000082 	b.cs	c324 <snprintf_putc+0x1c>  // b.hs, b.nlast
    c318:	f9400023 	ldr	x3, [x1]
    c31c:	38226860 	strb	w0, [x3, x2]
    c320:	f9400422 	ldr	x2, [x1, #8]
    c324:	91000442 	add	x2, x2, #0x1
    c328:	f9000422 	str	x2, [x1, #8]
    c32c:	d65f03c0 	ret

000000000000c330 <formati>:
    c330:	72001c9f 	tst	w4, #0xff
    c334:	12001c00 	and	w0, w0, #0xff
    c338:	12001c42 	and	w2, w2, #0xff
    c33c:	b9401866 	ldr	w6, [x3, #24]
    c340:	f9400064 	ldr	x4, [x3]
    c344:	54000521 	b.ne	c3e8 <formati+0xb8>  // b.any
    c348:	37f806c6 	tbnz	w6, #31, c420 <formati+0xf0>
    c34c:	91002c86 	add	x6, x4, #0xb
    c350:	927df0c6 	and	x6, x6, #0xfffffffffffffff8
    c354:	f9000066 	str	x6, [x3]
    c358:	b9400083 	ldr	w3, [x4]
    c35c:	7101a41f 	cmp	w0, #0x69
    c360:	52800c84 	mov	w4, #0x64                  	// #100
    c364:	7a441004 	ccmp	w0, w4, #0x4, ne  // ne = any
    c368:	93407c64 	sxtw	x4, w3
    c36c:	54000041 	b.ne	c374 <formati+0x44>  // b.any
    c370:	37f80323 	tbnz	w3, #31, c3d4 <formati+0xa4>
    c374:	92407c84 	and	x4, x4, #0xffffffff
    c378:	92401c42 	and	x2, x2, #0xff
    c37c:	14000002 	b	c384 <formati+0x54>
    c380:	aa0003e1 	mov	x1, x0
    c384:	9ac20883 	udiv	x3, x4, x2
    c388:	d1000420 	sub	x0, x1, #0x1
    c38c:	9b029066 	msub	x6, x3, x2, x4
    c390:	aa0303e4 	mov	x4, x3
    c394:	12001cc3 	and	w3, w6, #0xff
    c398:	f10024df 	cmp	x6, #0x9
    c39c:	11009c66 	add	w6, w3, #0x27
    c3a0:	12001cc6 	and	w6, w6, #0xff
    c3a4:	1a8380c3 	csel	w3, w6, w3, hi  // hi = pmore
    c3a8:	1100c063 	add	w3, w3, #0x30
    c3ac:	381ff023 	sturb	w3, [x1, #-1]
    c3b0:	b5fffe84 	cbnz	x4, c380 <formati+0x50>
    c3b4:	394000a2 	ldrb	w2, [x5]
    c3b8:	7100045f 	cmp	w2, #0x1
    c3bc:	54000040 	b.eq	c3c4 <formati+0x94>  // b.none
    c3c0:	d65f03c0 	ret
    c3c4:	528005a2 	mov	w2, #0x2d                  	// #45
    c3c8:	381ff002 	sturb	w2, [x0, #-1]
    c3cc:	d1000820 	sub	x0, x1, #0x2
    c3d0:	d65f03c0 	ret
    c3d4:	cb0403e4 	neg	x4, x4
    c3d8:	52800020 	mov	w0, #0x1                   	// #1
    c3dc:	92407c84 	and	x4, x4, #0xffffffff
    c3e0:	390000a0 	strb	w0, [x5]
    c3e4:	17ffffe5 	b	c378 <formati+0x48>
    c3e8:	37f802a6 	tbnz	w6, #31, c43c <formati+0x10c>
    c3ec:	91003c86 	add	x6, x4, #0xf
    c3f0:	927df0c6 	and	x6, x6, #0xfffffffffffffff8
    c3f4:	f9000066 	str	x6, [x3]
    c3f8:	7101a41f 	cmp	w0, #0x69
    c3fc:	52800c83 	mov	w3, #0x64                  	// #100
    c400:	f9400084 	ldr	x4, [x4]
    c404:	7a431004 	ccmp	w0, w3, #0x4, ne  // ne = any
    c408:	54fffb81 	b.ne	c378 <formati+0x48>  // b.any
    c40c:	b6fffb64 	tbz	x4, #63, c378 <formati+0x48>
    c410:	52800020 	mov	w0, #0x1                   	// #1
    c414:	cb0403e4 	neg	x4, x4
    c418:	390000a0 	strb	w0, [x5]
    c41c:	17ffffd7 	b	c378 <formati+0x48>
    c420:	110020c7 	add	w7, w6, #0x8
    c424:	b9001867 	str	w7, [x3, #24]
    c428:	710000ff 	cmp	w7, #0x0
    c42c:	54fff90c 	b.gt	c34c <formati+0x1c>
    c430:	f9400464 	ldr	x4, [x3, #8]
    c434:	8b26c084 	add	x4, x4, w6, sxtw
    c438:	17ffffc8 	b	c358 <formati+0x28>
    c43c:	110020c7 	add	w7, w6, #0x8
    c440:	b9001867 	str	w7, [x3, #24]
    c444:	710000ff 	cmp	w7, #0x0
    c448:	54fffd2c 	b.gt	c3ec <formati+0xbc>
    c44c:	f9400464 	ldr	x4, [x3, #8]
    c450:	8b26c084 	add	x4, x4, w6, sxtw
    c454:	17ffffe9 	b	c3f8 <formati+0xc8>

000000000000c458 <vcprintf>:
    c458:	a9b77bfd 	stp	x29, x30, [sp, #-144]!
    c45c:	910003fd 	mov	x29, sp
    c460:	a901d7f4 	stp	x20, x21, [sp, #24]
    c464:	aa0003f5 	mov	x21, x0
    c468:	a902dff6 	stp	x22, x23, [sp, #40]
    c46c:	aa0103f4 	mov	x20, x1
    c470:	d01fffd6 	adrp	x22, 40006000 <null+0x928>
    c474:	f9001ff8 	str	x24, [sp, #56]
    c478:	f90027fa 	str	x26, [sp, #72]
    c47c:	aa0303f7 	mov	x23, x3
    c480:	39023bbf 	strb	wzr, [x29, #142]
    c484:	910a62d6 	add	x22, x22, #0x298
    c488:	aa0203fa 	mov	x26, x2
    c48c:	91023bb8 	add	x24, x29, #0x8e
    c490:	14000006 	b	c4a8 <vcprintf+0x50>
    c494:	7100941f 	cmp	w0, #0x25
    c498:	540001a0 	b.eq	c4cc <vcprintf+0x74>  // b.none
    c49c:	aa1403e1 	mov	x1, x20
    c4a0:	aa0203fa 	mov	x26, x2
    c4a4:	d63f02a0 	blr	x21
    c4a8:	39400340 	ldrb	w0, [x26]
    c4ac:	91000742 	add	x2, x26, #0x1
    c4b0:	35ffff20 	cbnz	w0, c494 <vcprintf+0x3c>
    c4b4:	a941d7f4 	ldp	x20, x21, [sp, #24]
    c4b8:	a942dff6 	ldp	x22, x23, [sp, #40]
    c4bc:	f9401ff8 	ldr	x24, [sp, #56]
    c4c0:	f94027fa 	ldr	x26, [sp, #72]
    c4c4:	a8c97bfd 	ldp	x29, x30, [sp], #144
    c4c8:	d65f03c0 	ret
    c4cc:	f9000bb3 	str	x19, [x29, #16]
    c4d0:	528005a1 	mov	w1, #0x2d                  	// #45
    c4d4:	f90023b9 	str	x25, [x29, #64]
    c4d8:	39400740 	ldrb	w0, [x26, #1]
    c4dc:	7100c01f 	cmp	w0, #0x30
    c4e0:	7a411004 	ccmp	w0, w1, #0x4, ne  // ne = any
    c4e4:	54000a00 	b.eq	c624 <vcprintf+0x1cc>  // b.none
    c4e8:	91000b5a 	add	x26, x26, #0x2
    c4ec:	52800419 	mov	w25, #0x20                  	// #32
    c4f0:	5100c001 	sub	w1, w0, #0x30
    c4f4:	52800013 	mov	w19, #0x0                   	// #0
    c4f8:	12001c22 	and	w2, w1, #0xff
    c4fc:	7100245f 	cmp	w2, #0x9
    c500:	54000128 	b.hi	c524 <vcprintf+0xcc>  // b.pmore
    c504:	d503201f 	nop
    c508:	0b130a73 	add	w19, w19, w19, lsl #2
    c50c:	38401740 	ldrb	w0, [x26], #1
    c510:	0b130433 	add	w19, w1, w19, lsl #1
    c514:	5100c001 	sub	w1, w0, #0x30
    c518:	12001c22 	and	w2, w1, #0xff
    c51c:	7100245f 	cmp	w2, #0x9
    c520:	54ffff49 	b.ls	c508 <vcprintf+0xb0>  // b.plast
    c524:	52800004 	mov	w4, #0x0                   	// #0
    c528:	7101b01f 	cmp	w0, #0x6c
    c52c:	54000840 	b.eq	c634 <vcprintf+0x1dc>  // b.none
    c530:	34000ca0 	cbz	w0, c6c4 <vcprintf+0x26c>
    c534:	f9002bbb 	str	x27, [x29, #80]
    c538:	7101a41f 	cmp	w0, #0x69
    c53c:	3901bfbf 	strb	wzr, [x29, #111]
    c540:	54000b40 	b.eq	c6a8 <vcprintf+0x250>  // b.none
    c544:	54000808 	b.hi	c644 <vcprintf+0x1ec>  // b.pmore
    c548:	71018c1f 	cmp	w0, #0x63
    c54c:	54000d20 	b.eq	c6f0 <vcprintf+0x298>  // b.none
    c550:	7101901f 	cmp	w0, #0x64
    c554:	54000aa0 	b.eq	c6a8 <vcprintf+0x250>  // b.none
    c558:	71014c1f 	cmp	w0, #0x53
    c55c:	540009a1 	b.ne	c690 <vcprintf+0x238>  // b.any
    c560:	b9401ae1 	ldr	w1, [x23, #24]
    c564:	f94002e0 	ldr	x0, [x23]
    c568:	37f80da1 	tbnz	w1, #31, c71c <vcprintf+0x2c4>
    c56c:	91003c01 	add	x1, x0, #0xf
    c570:	927df021 	and	x1, x1, #0xfffffffffffffff8
    c574:	f90002e1 	str	x1, [x23]
    c578:	f9400003 	ldr	x3, [x0]
    c57c:	b4000ae3 	cbz	x3, c6d8 <vcprintf+0x280>
    c580:	39400060 	ldrb	w0, [x3]
    c584:	52800004 	mov	w4, #0x0                   	// #0
    c588:	9100047b 	add	x27, x3, #0x1
    c58c:	34000780 	cbz	w0, c67c <vcprintf+0x224>
    c590:	aa1b03e1 	mov	x1, x27
    c594:	d503201f 	nop
    c598:	38401422 	ldrb	w2, [x1], #1
    c59c:	51000673 	sub	w19, w19, #0x1
    c5a0:	35ffffc2 	cbnz	w2, c598 <vcprintf+0x140>
    c5a4:	7100b73f 	cmp	w25, #0x2d
    c5a8:	54000880 	b.eq	c6b8 <vcprintf+0x260>  // b.none
    c5ac:	7100c33f 	cmp	w25, #0x30
    c5b0:	7a410880 	ccmp	w4, #0x1, #0x0, eq  // eq = none
    c5b4:	540008e1 	b.ne	c6d0 <vcprintf+0x278>  // b.any
    c5b8:	aa1403e1 	mov	x1, x20
    c5bc:	d63f02a0 	blr	x21
    c5c0:	7100027f 	cmp	w19, #0x0
    c5c4:	540000cd 	b.le	c5dc <vcprintf+0x184>
    c5c8:	aa1403e1 	mov	x1, x20
    c5cc:	2a1903e0 	mov	w0, w25
    c5d0:	d63f02a0 	blr	x21
    c5d4:	71000673 	subs	w19, w19, #0x1
    c5d8:	54ffff81 	b.ne	c5c8 <vcprintf+0x170>  // b.any
    c5dc:	39400360 	ldrb	w0, [x27]
    c5e0:	340001a0 	cbz	w0, c614 <vcprintf+0x1bc>
    c5e4:	d503201f 	nop
    c5e8:	aa1403e1 	mov	x1, x20
    c5ec:	d63f02a0 	blr	x21
    c5f0:	38401f60 	ldrb	w0, [x27, #1]!
    c5f4:	35ffffa0 	cbnz	w0, c5e8 <vcprintf+0x190>
    c5f8:	7100027f 	cmp	w19, #0x0
    c5fc:	540000cd 	b.le	c614 <vcprintf+0x1bc>
    c600:	aa1403e1 	mov	x1, x20
    c604:	52800400 	mov	w0, #0x20                  	// #32
    c608:	d63f02a0 	blr	x21
    c60c:	71000673 	subs	w19, w19, #0x1
    c610:	54ffff81 	b.ne	c600 <vcprintf+0x1a8>  // b.any
    c614:	f9400bb3 	ldr	x19, [x29, #16]
    c618:	f94023b9 	ldr	x25, [x29, #64]
    c61c:	f9402bbb 	ldr	x27, [x29, #80]
    c620:	17ffffa2 	b	c4a8 <vcprintf+0x50>
    c624:	91000f5a 	add	x26, x26, #0x3
    c628:	2a0003f9 	mov	w25, w0
    c62c:	385ff340 	ldurb	w0, [x26, #-1]
    c630:	17ffffb0 	b	c4f0 <vcprintf+0x98>
    c634:	39400340 	ldrb	w0, [x26]
    c638:	52800024 	mov	w4, #0x1                   	// #1
    c63c:	9100075a 	add	x26, x26, #0x1
    c640:	17ffffbc 	b	c530 <vcprintf+0xd8>
    c644:	7101d41f 	cmp	w0, #0x75
    c648:	54000300 	b.eq	c6a8 <vcprintf+0x250>  // b.none
    c64c:	7101e01f 	cmp	w0, #0x78
    c650:	540001c1 	b.ne	c688 <vcprintf+0x230>  // b.any
    c654:	9101bfa5 	add	x5, x29, #0x6f
    c658:	aa1703e3 	mov	x3, x23
    c65c:	52800202 	mov	w2, #0x10                  	// #16
    c660:	aa1803e1 	mov	x1, x24
    c664:	97ffff33 	bl	c330 <formati>
    c668:	3941bfa4 	ldrb	w4, [x29, #111]
    c66c:	aa0003e3 	mov	x3, x0
    c670:	39400000 	ldrb	w0, [x0]
    c674:	9100047b 	add	x27, x3, #0x1
    c678:	35fff8c0 	cbnz	w0, c590 <vcprintf+0x138>
    c67c:	7100b73f 	cmp	w25, #0x2d
    c680:	54fffbc0 	b.eq	c5f8 <vcprintf+0x1a0>  // b.none
    c684:	17ffffca 	b	c5ac <vcprintf+0x154>
    c688:	7101cc1f 	cmp	w0, #0x73
    c68c:	54fff6a0 	b.eq	c560 <vcprintf+0x108>  // b.none
    c690:	aa1403e1 	mov	x1, x20
    c694:	d63f02a0 	blr	x21
    c698:	f9400bb3 	ldr	x19, [x29, #16]
    c69c:	f94023b9 	ldr	x25, [x29, #64]
    c6a0:	f9402bbb 	ldr	x27, [x29, #80]
    c6a4:	17ffff81 	b	c4a8 <vcprintf+0x50>
    c6a8:	9101bfa5 	add	x5, x29, #0x6f
    c6ac:	aa1703e3 	mov	x3, x23
    c6b0:	52800142 	mov	w2, #0xa                   	// #10
    c6b4:	17ffffeb 	b	c660 <vcprintf+0x208>
    c6b8:	39400060 	ldrb	w0, [x3]
    c6bc:	aa0303fb 	mov	x27, x3
    c6c0:	17ffffca 	b	c5e8 <vcprintf+0x190>
    c6c4:	f9400bb3 	ldr	x19, [x29, #16]
    c6c8:	f94023b9 	ldr	x25, [x29, #64]
    c6cc:	17ffff7a 	b	c4b4 <vcprintf+0x5c>
    c6d0:	aa0303fb 	mov	x27, x3
    c6d4:	17ffffbb 	b	c5c0 <vcprintf+0x168>
    c6d8:	d01fffdb 	adrp	x27, 40006000 <null+0x928>
    c6dc:	aa1603e3 	mov	x3, x22
    c6e0:	910a677b 	add	x27, x27, #0x299
    c6e4:	52800500 	mov	w0, #0x28                  	// #40
    c6e8:	52800004 	mov	w4, #0x0                   	// #0
    c6ec:	17ffffa9 	b	c590 <vcprintf+0x138>
    c6f0:	b9401ae1 	ldr	w1, [x23, #24]
    c6f4:	f94002e0 	ldr	x0, [x23]
    c6f8:	37f80201 	tbnz	w1, #31, c738 <vcprintf+0x2e0>
    c6fc:	91002c01 	add	x1, x0, #0xb
    c700:	927df021 	and	x1, x1, #0xfffffffffffffff8
    c704:	f90002e1 	str	x1, [x23]
    c708:	39400000 	ldrb	w0, [x0]
    c70c:	52800004 	mov	w4, #0x0                   	// #0
    c710:	390237a0 	strb	w0, [x29, #141]
    c714:	910237a3 	add	x3, x29, #0x8d
    c718:	17ffffd7 	b	c674 <vcprintf+0x21c>
    c71c:	11002022 	add	w2, w1, #0x8
    c720:	b9001ae2 	str	w2, [x23, #24]
    c724:	7100005f 	cmp	w2, #0x0
    c728:	54fff22c 	b.gt	c56c <vcprintf+0x114>
    c72c:	f94006e0 	ldr	x0, [x23, #8]
    c730:	8b21c000 	add	x0, x0, w1, sxtw
    c734:	17ffff91 	b	c578 <vcprintf+0x120>
    c738:	11002022 	add	w2, w1, #0x8
    c73c:	b9001ae2 	str	w2, [x23, #24]
    c740:	7100005f 	cmp	w2, #0x0
    c744:	54fffdcc 	b.gt	c6fc <vcprintf+0x2a4>
    c748:	f94006e0 	ldr	x0, [x23, #8]
    c74c:	8b21c000 	add	x0, x0, w1, sxtw
    c750:	17ffffee 	b	c708 <vcprintf+0x2b0>
    c754:	00000000 	.inst	0x00000000 ; undefined

000000000000c758 <cvcprintf>:
    c758:	a9bd7bfd 	stp	x29, x30, [sp, #-48]!
    c75c:	910003fd 	mov	x29, sp
    c760:	a90153f3 	stp	x19, x20, [sp, #16]
    c764:	aa0003f3 	mov	x19, x0
    c768:	f9400000 	ldr	x0, [x0]
    c76c:	aa0103f4 	mov	x20, x1
    c770:	f90013f5 	str	x21, [sp, #32]
    c774:	52800061 	mov	w1, #0x3                   	// #3
    c778:	aa0203f5 	mov	x21, x2
    c77c:	97fffc97 	bl	b9d8 <chan_control>
    c780:	aa1403e2 	mov	x2, x20
    c784:	90000000 	adrp	x0, c000 <queue_size+0x38>
    c788:	aa1503e3 	mov	x3, x21
    c78c:	aa1303e1 	mov	x1, x19
    c790:	911f4000 	add	x0, x0, #0x7d0
    c794:	97ffff31 	bl	c458 <vcprintf>
    c798:	b9400a62 	ldr	w2, [x19, #8]
    c79c:	7100005f 	cmp	w2, #0x0
    c7a0:	540000cd 	b.le	c7b8 <cvcprintf+0x60>
    c7a4:	f9400260 	ldr	x0, [x19]
    c7a8:	93407c42 	sxtw	x2, w2
    c7ac:	91003261 	add	x1, x19, #0xc
    c7b0:	97fffc48 	bl	b8d0 <chan_write>
    c7b4:	b9000a7f 	str	wzr, [x19, #8]
    c7b8:	f9400260 	ldr	x0, [x19]
    c7bc:	52800081 	mov	w1, #0x4                   	// #4
    c7c0:	a94153f3 	ldp	x19, x20, [sp, #16]
    c7c4:	f94013f5 	ldr	x21, [sp, #32]
    c7c8:	a8c37bfd 	ldp	x29, x30, [sp], #48
    c7cc:	17fffc83 	b	b9d8 <chan_control>

000000000000c7d0 <fprintf_putc>:
    c7d0:	b9400822 	ldr	w2, [x1, #8]
    c7d4:	11000443 	add	w3, w2, #0x1
    c7d8:	b9000823 	str	w3, [x1, #8]
    c7dc:	8b22c022 	add	x2, x1, w2, sxtw
    c7e0:	7100407f 	cmp	w3, #0x10
    c7e4:	39003040 	strb	w0, [x2, #12]
    c7e8:	f9401020 	ldr	x0, [x1, #32]
    c7ec:	91000400 	add	x0, x0, #0x1
    c7f0:	f9001020 	str	x0, [x1, #32]
    c7f4:	54000040 	b.eq	c7fc <fprintf_putc+0x2c>  // b.none
    c7f8:	d65f03c0 	ret
    c7fc:	a9be7bfd 	stp	x29, x30, [sp, #-32]!
    c800:	d2800202 	mov	x2, #0x10                  	// #16
    c804:	910003fd 	mov	x29, sp
    c808:	f9000bf3 	str	x19, [sp, #16]
    c80c:	aa0103f3 	mov	x19, x1
    c810:	91003021 	add	x1, x1, #0xc
    c814:	f9400260 	ldr	x0, [x19]
    c818:	97fffc2e 	bl	b8d0 <chan_write>
    c81c:	b9000a7f 	str	wzr, [x19, #8]
    c820:	f9400bf3 	ldr	x19, [sp, #16]
    c824:	a8c27bfd 	ldp	x29, x30, [sp], #32
    c828:	d65f03c0 	ret
    c82c:	00000000 	.inst	0x00000000 ; undefined

000000000000c830 <std_module_init>:
    c830:	52800000 	mov	w0, #0x0                   	// #0
    c834:	d65f03c0 	ret

000000000000c838 <std_printf>:
    c838:	a9b57bfd 	stp	x29, x30, [sp, #-176]!
    c83c:	910003fd 	mov	x29, sp
    c840:	f9000bf3 	str	x19, [sp, #16]
    c844:	aa0003f3 	mov	x19, x0
    c848:	a9078ba1 	stp	x1, x2, [x29, #120]
    c84c:	a90893a3 	stp	x3, x4, [x29, #136]
    c850:	a9099ba5 	stp	x5, x6, [x29, #152]
    c854:	f90057a7 	str	x7, [x29, #168]
    c858:	b4000280 	cbz	x0, c8a8 <std_printf+0x70>
    c85c:	b90053bf 	str	wzr, [x29, #80]
    c860:	f90037bf 	str	xzr, [x29, #104]
    c864:	97ffe381 	bl	5668 <sys_get_stdout>
    c868:	9102c3a1 	add	x1, x29, #0xb0
    c86c:	a90287a1 	stp	x1, x1, [x29, #40]
    c870:	9101c3a1 	add	x1, x29, #0x70
    c874:	f9001fa1 	str	x1, [x29, #56]
    c878:	128006e1 	mov	w1, #0xffffffc8            	// #-56
    c87c:	9100a3a2 	add	x2, x29, #0x28
    c880:	b90043a1 	str	w1, [x29, #64]
    c884:	aa1303e1 	mov	x1, x19
    c888:	b90047bf 	str	wzr, [x29, #68]
    c88c:	f90027a0 	str	x0, [x29, #72]
    c890:	910123a0 	add	x0, x29, #0x48
    c894:	97ffffb1 	bl	c758 <cvcprintf>
    c898:	f9400bf3 	ldr	x19, [sp, #16]
    c89c:	f94037a0 	ldr	x0, [x29, #104]
    c8a0:	a8cb7bfd 	ldp	x29, x30, [sp], #176
    c8a4:	d65f03c0 	ret
    c8a8:	b01fffc0 	adrp	x0, 40005000 <state_fmt+0x2388>
    c8ac:	912de000 	add	x0, x0, #0xb78
    c8b0:	97ffffe2 	bl	c838 <std_printf>
    c8b4:	901fffa1 	adrp	x1, 40000000 <__ram_begin>
    c8b8:	528002c0 	mov	w0, #0x16                  	// #22
    c8bc:	f9400421 	ldr	x1, [x1, #8]
    c8c0:	d63f0020 	blr	x1
    c8c4:	17ffffe6 	b	c85c <std_printf+0x24>

000000000000c8c8 <std_vsprintf>:
    c8c8:	a9bc7bfd 	stp	x29, x30, [sp, #-64]!
    c8cc:	910003fd 	mov	x29, sp
    c8d0:	a90153f3 	stp	x19, x20, [sp, #16]
    c8d4:	aa0003f3 	mov	x19, x0
    c8d8:	f90013f5 	str	x21, [sp, #32]
    c8dc:	aa0103f4 	mov	x20, x1
    c8e0:	aa0203f5 	mov	x21, x2
    c8e4:	b4000280 	cbz	x0, c934 <std_vsprintf+0x6c>
    c8e8:	b4000394 	cbz	x20, c958 <std_vsprintf+0x90>
    c8ec:	910103a1 	add	x1, x29, #0x40
    c8f0:	aa1503e3 	mov	x3, x21
    c8f4:	aa1403e2 	mov	x2, x20
    c8f8:	90000000 	adrp	x0, c000 <queue_size+0x38>
    c8fc:	910bc000 	add	x0, x0, #0x2f0
    c900:	f81f8c33 	str	x19, [x1, #-8]!
    c904:	97fffed5 	bl	c458 <vcprintf>
    c908:	f9401fa0 	ldr	x0, [x29, #56]
    c90c:	91000401 	add	x1, x0, #0x1
    c910:	f9001fa1 	str	x1, [x29, #56]
    c914:	3900001f 	strb	wzr, [x0]
    c918:	f9401fa0 	ldr	x0, [x29, #56]
    c91c:	f94013f5 	ldr	x21, [sp, #32]
    c920:	cb130000 	sub	x0, x0, x19
    c924:	d1000400 	sub	x0, x0, #0x1
    c928:	a94153f3 	ldp	x19, x20, [sp, #16]
    c92c:	a8c47bfd 	ldp	x29, x30, [sp], #64
    c930:	d65f03c0 	ret
    c934:	d01fffc0 	adrp	x0, 40006000 <null+0x928>
    c938:	9107a000 	add	x0, x0, #0x1e8
    c93c:	97ffffbf 	bl	c838 <std_printf>
    c940:	901fffa1 	adrp	x1, 40000000 <__ram_begin>
    c944:	528002c0 	mov	w0, #0x16                  	// #22
    c948:	f9400421 	ldr	x1, [x1, #8]
    c94c:	d63f0020 	blr	x1
    c950:	b5fffcf4 	cbnz	x20, c8ec <std_vsprintf+0x24>
    c954:	d503201f 	nop
    c958:	d01fffc0 	adrp	x0, 40006000 <null+0x928>
    c95c:	91090000 	add	x0, x0, #0x240
    c960:	97ffffb6 	bl	c838 <std_printf>
    c964:	901fffa1 	adrp	x1, 40000000 <__ram_begin>
    c968:	528002c0 	mov	w0, #0x16                  	// #22
    c96c:	f9400421 	ldr	x1, [x1, #8]
    c970:	d63f0020 	blr	x1
    c974:	17ffffde 	b	c8ec <std_vsprintf+0x24>

000000000000c978 <std_sprintf>:
    c978:	a9ba7bfd 	stp	x29, x30, [sp, #-96]!
    c97c:	910003fd 	mov	x29, sp
    c980:	9100c3a8 	add	x8, x29, #0x30
    c984:	a9030fa2 	stp	x2, x3, [x29, #48]
    c988:	910183a3 	add	x3, x29, #0x60
    c98c:	128005e2 	mov	w2, #0xffffffd0            	// #-48
    c990:	a9010fa3 	stp	x3, x3, [x29, #16]
    c994:	f90013a8 	str	x8, [x29, #32]
    c998:	b9002ba2 	str	w2, [x29, #40]
    c99c:	910043a2 	add	x2, x29, #0x10
    c9a0:	b9002fbf 	str	wzr, [x29, #44]
    c9a4:	a90417a4 	stp	x4, x5, [x29, #64]
    c9a8:	a9051fa6 	stp	x6, x7, [x29, #80]
    c9ac:	97ffffc7 	bl	c8c8 <std_vsprintf>
    c9b0:	a8c67bfd 	ldp	x29, x30, [sp], #96
    c9b4:	d65f03c0 	ret

000000000000c9b8 <std_vsnprintf>:
    c9b8:	a9bb7bfd 	stp	x29, x30, [sp, #-80]!
    c9bc:	910003fd 	mov	x29, sp
    c9c0:	a90153f3 	stp	x19, x20, [sp, #16]
    c9c4:	aa0003f3 	mov	x19, x0
    c9c8:	aa0103f4 	mov	x20, x1
    c9cc:	b4000440 	cbz	x0, ca54 <std_vsnprintf+0x9c>
    c9d0:	b40002e2 	cbz	x2, ca2c <std_vsnprintf+0x74>
    c9d4:	b4000574 	cbz	x20, ca80 <std_vsnprintf+0xc8>
    c9d8:	9100e3a1 	add	x1, x29, #0x38
    c9dc:	90000000 	adrp	x0, c000 <queue_size+0x38>
    c9e0:	a903ffb3 	stp	x19, xzr, [x29, #56]
    c9e4:	910c2000 	add	x0, x0, #0x308
    c9e8:	f90027b4 	str	x20, [x29, #72]
    c9ec:	97fffe9b 	bl	c458 <vcprintf>
    c9f0:	a94407a0 	ldp	x0, x1, [x29, #64]
    c9f4:	eb01001f 	cmp	x0, x1
    c9f8:	54000123 	b.cc	ca1c <std_vsnprintf+0x64>  // b.lo, b.ul, b.last
    c9fc:	8b140273 	add	x19, x19, x20
    ca00:	91000401 	add	x1, x0, #0x1
    ca04:	eb01029f 	cmp	x20, x1
    ca08:	381ff27f 	sturb	wzr, [x19, #-1]
    ca0c:	540003a3 	b.cc	ca80 <std_vsnprintf+0xc8>  // b.lo, b.ul, b.last
    ca10:	a94153f3 	ldp	x19, x20, [sp, #16]
    ca14:	a8c57bfd 	ldp	x29, x30, [sp], #80
    ca18:	d65f03c0 	ret
    ca1c:	f9401fa1 	ldr	x1, [x29, #56]
    ca20:	3820683f 	strb	wzr, [x1, x0]
    ca24:	f94023a0 	ldr	x0, [x29, #64]
    ca28:	17fffff5 	b	c9fc <std_vsnprintf+0x44>
    ca2c:	a9020ba3 	stp	x3, x2, [x29, #32]
    ca30:	d01fffc0 	adrp	x0, 40006000 <null+0x928>
    ca34:	91064000 	add	x0, x0, #0x190
    ca38:	97ffff80 	bl	c838 <std_printf>
    ca3c:	901fffa1 	adrp	x1, 40000000 <__ram_begin>
    ca40:	528002c0 	mov	w0, #0x16                  	// #22
    ca44:	f9400421 	ldr	x1, [x1, #8]
    ca48:	d63f0020 	blr	x1
    ca4c:	a9420ba3 	ldp	x3, x2, [x29, #32]
    ca50:	17ffffe1 	b	c9d4 <std_vsnprintf+0x1c>
    ca54:	a9020ba3 	stp	x3, x2, [x29, #32]
    ca58:	d01fffc0 	adrp	x0, 40006000 <null+0x928>
    ca5c:	9104e000 	add	x0, x0, #0x138
    ca60:	97ffff76 	bl	c838 <std_printf>
    ca64:	901fffa1 	adrp	x1, 40000000 <__ram_begin>
    ca68:	528002c0 	mov	w0, #0x16                  	// #22
    ca6c:	f9400421 	ldr	x1, [x1, #8]
    ca70:	d63f0020 	blr	x1
    ca74:	a9420ba3 	ldp	x3, x2, [x29, #32]
    ca78:	b5fffae2 	cbnz	x2, c9d4 <std_vsnprintf+0x1c>
    ca7c:	17ffffec 	b	ca2c <std_vsnprintf+0x74>
    ca80:	92800160 	mov	x0, #0xfffffffffffffff4    	// #-12
    ca84:	17ffffe3 	b	ca10 <std_vsnprintf+0x58>

000000000000ca88 <std_snprintf>:
    ca88:	a9ba7bfd 	stp	x29, x30, [sp, #-96]!
    ca8c:	910003fd 	mov	x29, sp
    ca90:	9100c3a8 	add	x8, x29, #0x30
    ca94:	a90393a3 	stp	x3, x4, [x29, #56]
    ca98:	910183a4 	add	x4, x29, #0x60
    ca9c:	128004e3 	mov	w3, #0xffffffd8            	// #-40
    caa0:	a90113a4 	stp	x4, x4, [x29, #16]
    caa4:	f90013a8 	str	x8, [x29, #32]
    caa8:	b9002ba3 	str	w3, [x29, #40]
    caac:	910043a3 	add	x3, x29, #0x10
    cab0:	b9002fbf 	str	wzr, [x29, #44]
    cab4:	a9049ba5 	stp	x5, x6, [x29, #72]
    cab8:	f9002fa7 	str	x7, [x29, #88]
    cabc:	97ffffbf 	bl	c9b8 <std_vsnprintf>
    cac0:	a8c67bfd 	ldp	x29, x30, [sp], #96
    cac4:	d65f03c0 	ret

000000000000cac8 <std_fprintf>:
    cac8:	a9b57bfd 	stp	x29, x30, [sp, #-176]!
    cacc:	910003fd 	mov	x29, sp
    cad0:	f9000bf3 	str	x19, [sp, #16]
    cad4:	aa0003f3 	mov	x19, x0
    cad8:	a9080fa2 	stp	x2, x3, [x29, #128]
    cadc:	a90917a4 	stp	x4, x5, [x29, #144]
    cae0:	a90a1fa6 	stp	x6, x7, [x29, #160]
    cae4:	b4000260 	cbz	x0, cb30 <std_fprintf+0x68>
    cae8:	b4000381 	cbz	x1, cb58 <std_fprintf+0x90>
    caec:	910203a3 	add	x3, x29, #0x80
    caf0:	9102c3a2 	add	x2, x29, #0xb0
    caf4:	a9038ba2 	stp	x2, x2, [x29, #56]
    caf8:	128005e2 	mov	w2, #0xffffffd0            	// #-48
    cafc:	910163a0 	add	x0, x29, #0x58
    cb00:	f90027a3 	str	x3, [x29, #72]
    cb04:	b90053a2 	str	w2, [x29, #80]
    cb08:	9100e3a2 	add	x2, x29, #0x38
    cb0c:	b90057bf 	str	wzr, [x29, #84]
    cb10:	f9002fb3 	str	x19, [x29, #88]
    cb14:	b90063bf 	str	wzr, [x29, #96]
    cb18:	f9003fbf 	str	xzr, [x29, #120]
    cb1c:	97ffff0f 	bl	c758 <cvcprintf>
    cb20:	f9403fa0 	ldr	x0, [x29, #120]
    cb24:	f9400bf3 	ldr	x19, [sp, #16]
    cb28:	a8cb7bfd 	ldp	x29, x30, [sp], #176
    cb2c:	d65f03c0 	ret
    cb30:	f90017a1 	str	x1, [x29, #40]
    cb34:	b01fffc0 	adrp	x0, 40005000 <state_fmt+0x2388>
    cb38:	912b2000 	add	x0, x0, #0xac8
    cb3c:	97ffff3f 	bl	c838 <std_printf>
    cb40:	901fffa2 	adrp	x2, 40000000 <__ram_begin>
    cb44:	528002c0 	mov	w0, #0x16                  	// #22
    cb48:	f9400442 	ldr	x2, [x2, #8]
    cb4c:	d63f0040 	blr	x2
    cb50:	f94017a1 	ldr	x1, [x29, #40]
    cb54:	b5fffcc1 	cbnz	x1, caec <std_fprintf+0x24>
    cb58:	f90017a1 	str	x1, [x29, #40]
    cb5c:	b01fffc0 	adrp	x0, 40005000 <state_fmt+0x2388>
    cb60:	912c8000 	add	x0, x0, #0xb20
    cb64:	97ffff35 	bl	c838 <std_printf>
    cb68:	901fffa2 	adrp	x2, 40000000 <__ram_begin>
    cb6c:	528002c0 	mov	w0, #0x16                  	// #22
    cb70:	f9400442 	ldr	x2, [x2, #8]
    cb74:	d63f0040 	blr	x2
    cb78:	f94017a1 	ldr	x1, [x29, #40]
    cb7c:	17ffffdc 	b	caec <std_fprintf+0x24>

000000000000cb80 <std_vfprintf>:
    cb80:	a9ba7bfd 	stp	x29, x30, [sp, #-96]!
    cb84:	910003fd 	mov	x29, sp
    cb88:	a90153f3 	stp	x19, x20, [sp, #16]
    cb8c:	aa0003f3 	mov	x19, x0
    cb90:	f90013f5 	str	x21, [sp, #32]
    cb94:	aa0103f4 	mov	x20, x1
    cb98:	aa0203f5 	mov	x21, x2
    cb9c:	b40003e0 	cbz	x0, cc18 <std_vfprintf+0x98>
    cba0:	b40001d4 	cbz	x20, cbd8 <std_vfprintf+0x58>
    cba4:	b40002b5 	cbz	x21, cbf8 <std_vfprintf+0x78>
    cba8:	910183a0 	add	x0, x29, #0x60
    cbac:	aa1503e2 	mov	x2, x21
    cbb0:	aa1403e1 	mov	x1, x20
    cbb4:	b90043bf 	str	wzr, [x29, #64]
    cbb8:	f9002fbf 	str	xzr, [x29, #88]
    cbbc:	f81d8c13 	str	x19, [x0, #-40]!
    cbc0:	97fffee6 	bl	c758 <cvcprintf>
    cbc4:	f94013f5 	ldr	x21, [sp, #32]
    cbc8:	f9402fa0 	ldr	x0, [x29, #88]
    cbcc:	a94153f3 	ldp	x19, x20, [sp, #16]
    cbd0:	a8c67bfd 	ldp	x29, x30, [sp], #96
    cbd4:	d65f03c0 	ret
    cbd8:	d01fffc0 	adrp	x0, 40006000 <null+0x928>
    cbdc:	91022000 	add	x0, x0, #0x88
    cbe0:	97ffff16 	bl	c838 <std_printf>
    cbe4:	901fffa1 	adrp	x1, 40000000 <__ram_begin>
    cbe8:	528002c0 	mov	w0, #0x16                  	// #22
    cbec:	f9400421 	ldr	x1, [x1, #8]
    cbf0:	d63f0020 	blr	x1
    cbf4:	b5fffdb5 	cbnz	x21, cba8 <std_vfprintf+0x28>
    cbf8:	d01fffc0 	adrp	x0, 40006000 <null+0x928>
    cbfc:	91038000 	add	x0, x0, #0xe0
    cc00:	97ffff0e 	bl	c838 <std_printf>
    cc04:	901fffa1 	adrp	x1, 40000000 <__ram_begin>
    cc08:	528002c0 	mov	w0, #0x16                  	// #22
    cc0c:	f9400421 	ldr	x1, [x1, #8]
    cc10:	d63f0020 	blr	x1
    cc14:	17ffffe5 	b	cba8 <std_vfprintf+0x28>
    cc18:	d01fffc0 	adrp	x0, 40006000 <null+0x928>
    cc1c:	9100c000 	add	x0, x0, #0x30
    cc20:	97ffff06 	bl	c838 <std_printf>
    cc24:	901fffa1 	adrp	x1, 40000000 <__ram_begin>
    cc28:	528002c0 	mov	w0, #0x16                  	// #22
    cc2c:	f9400421 	ldr	x1, [x1, #8]
    cc30:	d63f0020 	blr	x1
    cc34:	b5fffb94 	cbnz	x20, cba4 <std_vfprintf+0x24>
    cc38:	17ffffe8 	b	cbd8 <std_vfprintf+0x58>
    cc3c:	00000000 	.inst	0x00000000 ; undefined

000000000000cc40 <std_strtolb>:
    cc40:	a9ba7bfd 	stp	x29, x30, [sp, #-96]!
    cc44:	910003fd 	mov	x29, sp
    cc48:	a90153f3 	stp	x19, x20, [sp, #16]
    cc4c:	a9025bf5 	stp	x21, x22, [sp, #32]
    cc50:	aa0003f6 	mov	x22, x0
    cc54:	a90363f7 	stp	x23, x24, [sp, #48]
    cc58:	2a0203f5 	mov	w21, w2
    cc5c:	a9046bf9 	stp	x25, x26, [sp, #64]
    cc60:	aa0103f7 	mov	x23, x1
    cc64:	f9002bfb 	str	x27, [sp, #80]
    cc68:	b4000c40 	cbz	x0, cdf0 <std_strtolb+0x1b0>
    cc6c:	b4000d37 	cbz	x23, ce10 <std_strtolb+0x1d0>
    cc70:	710042bf 	cmp	w21, #0x10
    cc74:	54000080 	b.eq	cc84 <std_strtolb+0x44>  // b.none
    cc78:	12800140 	mov	w0, #0xfffffff5            	// #-11
    cc7c:	6a0002bf 	tst	w21, w0
    cc80:	54000e81 	b.ne	ce50 <std_strtolb+0x210>  // b.any
    cc84:	394002d3 	ldrb	w19, [x22]
    cc88:	7100b67f 	cmp	w19, #0x2d
    cc8c:	54000aa0 	b.eq	cde0 <std_strtolb+0x1a0>  // b.none
    cc90:	910006d6 	add	x22, x22, #0x1
    cc94:	d2800038 	mov	x24, #0x1                   	// #1
    cc98:	350008d5 	cbnz	w21, cdb0 <std_strtolb+0x170>
    cc9c:	52800155 	mov	w21, #0xa                   	// #10
    cca0:	7100c27f 	cmp	w19, #0x30
    cca4:	54000c60 	b.eq	ce30 <std_strtolb+0x1f0>  // b.none
    cca8:	5280001a 	mov	w26, #0x0                   	// #0
    ccac:	d2800014 	mov	x20, #0x0                   	// #0
    ccb0:	93407ebb 	sxtw	x27, w21
    ccb4:	52800899 	mov	w25, #0x44                  	// #68
    ccb8:	710042bf 	cmp	w21, #0x10
    ccbc:	54000400 	b.eq	cd3c <std_strtolb+0xfc>  // b.none
    ccc0:	71002abf 	cmp	w21, #0xa
    ccc4:	54000520 	b.eq	cd68 <std_strtolb+0x128>  // b.none
    ccc8:	7100be7f 	cmp	w19, #0x2f
    cccc:	1a9f97e0 	cset	w0, hi  // hi = pmore
    ccd0:	7100001f 	cmp	w0, #0x0
    ccd4:	7a481aa0 	ccmp	w21, #0x8, #0x0, ne  // ne = any
    ccd8:	540001c1 	b.ne	cd10 <std_strtolb+0xd0>  // b.any
    ccdc:	7100de7f 	cmp	w19, #0x37
    cce0:	54000209 	b.ls	cd20 <std_strtolb+0xe0>  // b.plast
    cce4:	340004da 	cbz	w26, cd7c <std_strtolb+0x13c>
    cce8:	9b147f14 	mul	x20, x24, x20
    ccec:	d10006c0 	sub	x0, x22, #0x1
    ccf0:	f90002f4 	str	x20, [x23]
    ccf4:	a94153f3 	ldp	x19, x20, [sp, #16]
    ccf8:	a9425bf5 	ldp	x21, x22, [sp, #32]
    ccfc:	a94363f7 	ldp	x23, x24, [sp, #48]
    cd00:	a9446bf9 	ldp	x25, x26, [sp, #64]
    cd04:	f9402bfb 	ldr	x27, [sp, #80]
    cd08:	a8c67bfd 	ldp	x29, x30, [sp], #96
    cd0c:	d65f03c0 	ret
    cd10:	7100c67f 	cmp	w19, #0x31
    cd14:	7a429aa0 	ccmp	w21, #0x2, #0x0, ls  // ls = plast
    cd18:	7a400804 	ccmp	w0, #0x0, #0x4, eq  // eq = none
    cd1c:	54fffe40 	b.eq	cce4 <std_strtolb+0xa4>  // b.none
    cd20:	9b147f74 	mul	x20, x27, x20
    cd24:	5100c260 	sub	w0, w19, #0x30
    cd28:	5280003a 	mov	w26, #0x1                   	// #1
    cd2c:	384016d3 	ldrb	w19, [x22], #1
    cd30:	710042bf 	cmp	w21, #0x10
    cd34:	8b200294 	add	x20, x20, w0, uxtb
    cd38:	54fffc41 	b.ne	ccc0 <std_strtolb+0x80>  // b.any
    cd3c:	97ffd3b1 	bl	1c00 <__locale_ctype_ptr>
    cd40:	8b330000 	add	x0, x0, w19, uxtb
    cd44:	39400400 	ldrb	w0, [x0, #1]
    cd48:	6a00033f 	tst	w25, w0
    cd4c:	54fffcc0 	b.eq	cce4 <std_strtolb+0xa4>  // b.none
    cd50:	d37cee94 	lsl	x20, x20, #4
    cd54:	7101827f 	cmp	w19, #0x60
    cd58:	54000229 	b.ls	cd9c <std_strtolb+0x15c>  // b.plast
    cd5c:	51009e73 	sub	w19, w19, #0x27
    cd60:	12001e73 	and	w19, w19, #0xff
    cd64:	17fffff0 	b	cd24 <std_strtolb+0xe4>
    cd68:	97ffd3a6 	bl	1c00 <__locale_ctype_ptr>
    cd6c:	8b330000 	add	x0, x0, w19, uxtb
    cd70:	39400400 	ldrb	w0, [x0, #1]
    cd74:	3717fd60 	tbnz	w0, #2, cd20 <std_strtolb+0xe0>
    cd78:	35fffb9a 	cbnz	w26, cce8 <std_strtolb+0xa8>
    cd7c:	d2800000 	mov	x0, #0x0                   	// #0
    cd80:	f9402bfb 	ldr	x27, [sp, #80]
    cd84:	a94153f3 	ldp	x19, x20, [sp, #16]
    cd88:	a9425bf5 	ldp	x21, x22, [sp, #32]
    cd8c:	a94363f7 	ldp	x23, x24, [sp, #48]
    cd90:	a9446bf9 	ldp	x25, x26, [sp, #64]
    cd94:	a8c67bfd 	ldp	x29, x30, [sp], #96
    cd98:	d65f03c0 	ret
    cd9c:	51001e60 	sub	w0, w19, #0x7
    cda0:	7101027f 	cmp	w19, #0x40
    cda4:	12001c00 	and	w0, w0, #0xff
    cda8:	1a938013 	csel	w19, w0, w19, hi  // hi = pmore
    cdac:	17ffffde 	b	cd24 <std_strtolb+0xe4>
    cdb0:	7100c27f 	cmp	w19, #0x30
    cdb4:	54fff7a1 	b.ne	cca8 <std_strtolb+0x68>  // b.any
    cdb8:	710042bf 	cmp	w21, #0x10
    cdbc:	54000620 	b.eq	ce80 <std_strtolb+0x240>  // b.none
    cdc0:	71000abf 	cmp	w21, #0x2
    cdc4:	54fff721 	b.ne	cca8 <std_strtolb+0x68>  // b.any
    cdc8:	394002c0 	ldrb	w0, [x22]
    cdcc:	7101881f 	cmp	w0, #0x62
    cdd0:	54fff6c1 	b.ne	cca8 <std_strtolb+0x68>  // b.any
    cdd4:	394006d3 	ldrb	w19, [x22, #1]
    cdd8:	91000ad6 	add	x22, x22, #0x2
    cddc:	17ffffb3 	b	cca8 <std_strtolb+0x68>
    cde0:	394006d3 	ldrb	w19, [x22, #1]
    cde4:	92800018 	mov	x24, #0xffffffffffffffff    	// #-1
    cde8:	91000ad6 	add	x22, x22, #0x2
    cdec:	17ffffab 	b	cc98 <std_strtolb+0x58>
    cdf0:	b01fffc0 	adrp	x0, 40005000 <state_fmt+0x2388>
    cdf4:	913bc000 	add	x0, x0, #0xef0
    cdf8:	97fffe90 	bl	c838 <std_printf>
    cdfc:	901fffa1 	adrp	x1, 40000000 <__ram_begin>
    ce00:	528002c0 	mov	w0, #0x16                  	// #22
    ce04:	f9400421 	ldr	x1, [x1, #8]
    ce08:	d63f0020 	blr	x1
    ce0c:	b5fff337 	cbnz	x23, cc70 <std_strtolb+0x30>
    ce10:	b01fffc0 	adrp	x0, 40005000 <state_fmt+0x2388>
    ce14:	913d2000 	add	x0, x0, #0xf48
    ce18:	97fffe88 	bl	c838 <std_printf>
    ce1c:	901fffa1 	adrp	x1, 40000000 <__ram_begin>
    ce20:	528002c0 	mov	w0, #0x16                  	// #22
    ce24:	f9400421 	ldr	x1, [x1, #8]
    ce28:	d63f0020 	blr	x1
    ce2c:	17ffff91 	b	cc70 <std_strtolb+0x30>
    ce30:	394002c0 	ldrb	w0, [x22]
    ce34:	7101e01f 	cmp	w0, #0x78
    ce38:	540001c0 	b.eq	ce70 <std_strtolb+0x230>  // b.none
    ce3c:	7101881f 	cmp	w0, #0x62
    ce40:	54000280 	b.eq	ce90 <std_strtolb+0x250>  // b.none
    ce44:	385ff2d3 	ldurb	w19, [x22, #-1]
    ce48:	52800115 	mov	w21, #0x8                   	// #8
    ce4c:	17ffff97 	b	cca8 <std_strtolb+0x68>
    ce50:	b01fffc0 	adrp	x0, 40005000 <state_fmt+0x2388>
    ce54:	913e8000 	add	x0, x0, #0xfa0
    ce58:	97fffe78 	bl	c838 <std_printf>
    ce5c:	901fffa1 	adrp	x1, 40000000 <__ram_begin>
    ce60:	528002c0 	mov	w0, #0x16                  	// #22
    ce64:	f9400421 	ldr	x1, [x1, #8]
    ce68:	d63f0020 	blr	x1
    ce6c:	17ffff86 	b	cc84 <std_strtolb+0x44>
    ce70:	394006d3 	ldrb	w19, [x22, #1]
    ce74:	52800215 	mov	w21, #0x10                  	// #16
    ce78:	91000ad6 	add	x22, x22, #0x2
    ce7c:	17ffff8b 	b	cca8 <std_strtolb+0x68>
    ce80:	394002c0 	ldrb	w0, [x22]
    ce84:	7101e01f 	cmp	w0, #0x78
    ce88:	54fff101 	b.ne	cca8 <std_strtolb+0x68>  // b.any
    ce8c:	17ffffd2 	b	cdd4 <std_strtolb+0x194>
    ce90:	394006d3 	ldrb	w19, [x22, #1]
    ce94:	52800055 	mov	w21, #0x2                   	// #2
    ce98:	91000ad6 	add	x22, x22, #0x2
    ce9c:	17ffff83 	b	cca8 <std_strtolb+0x68>

000000000000cea0 <std_strtol>:
    cea0:	52800002 	mov	w2, #0x0                   	// #0
    cea4:	17ffff67 	b	cc40 <std_strtolb>

000000000000cea8 <std_strcpy>:
    cea8:	a9be7bfd 	stp	x29, x30, [sp, #-32]!
    ceac:	910003fd 	mov	x29, sp
    ceb0:	a90153f3 	stp	x19, x20, [sp, #16]
    ceb4:	aa0003f3 	mov	x19, x0
    ceb8:	aa0103f4 	mov	x20, x1
    cebc:	b40002c0 	cbz	x0, cf14 <std_strcpy+0x6c>
    cec0:	b4000194 	cbz	x20, cef0 <std_strcpy+0x48>
    cec4:	39400282 	ldrb	w2, [x20]
    cec8:	34000362 	cbz	w2, cf34 <std_strcpy+0x8c>
    cecc:	d2800000 	mov	x0, #0x0                   	// #0
    ced0:	91000400 	add	x0, x0, #0x1
    ced4:	38001662 	strb	w2, [x19], #1
    ced8:	38606a82 	ldrb	w2, [x20, x0]
    cedc:	35ffffa2 	cbnz	w2, ced0 <std_strcpy+0x28>
    cee0:	3900027f 	strb	wzr, [x19]
    cee4:	a94153f3 	ldp	x19, x20, [sp, #16]
    cee8:	a8c27bfd 	ldp	x29, x30, [sp], #32
    ceec:	d65f03c0 	ret
    cef0:	b01fffc0 	adrp	x0, 40005000 <state_fmt+0x2388>
    cef4:	91362000 	add	x0, x0, #0xd88
    cef8:	97fffe50 	bl	c838 <std_printf>
    cefc:	901fffa1 	adrp	x1, 40000000 <__ram_begin>
    cf00:	528002c0 	mov	w0, #0x16                  	// #22
    cf04:	f9400421 	ldr	x1, [x1, #8]
    cf08:	d63f0020 	blr	x1
    cf0c:	39400280 	ldrb	w0, [x20]
    cf10:	d4207d00 	brk	#0x3e8
    cf14:	b01fffc0 	adrp	x0, 40005000 <state_fmt+0x2388>
    cf18:	9134c000 	add	x0, x0, #0xd30
    cf1c:	97fffe47 	bl	c838 <std_printf>
    cf20:	901fffa1 	adrp	x1, 40000000 <__ram_begin>
    cf24:	528002c0 	mov	w0, #0x16                  	// #22
    cf28:	f9400421 	ldr	x1, [x1, #8]
    cf2c:	d63f0020 	blr	x1
    cf30:	17ffffe4 	b	cec0 <std_strcpy+0x18>
    cf34:	3900027f 	strb	wzr, [x19]
    cf38:	52800000 	mov	w0, #0x0                   	// #0
    cf3c:	a94153f3 	ldp	x19, x20, [sp, #16]
    cf40:	a8c27bfd 	ldp	x29, x30, [sp], #32
    cf44:	d65f03c0 	ret

000000000000cf48 <std_strcmp>:
    cf48:	a9be7bfd 	stp	x29, x30, [sp, #-32]!
    cf4c:	910003fd 	mov	x29, sp
    cf50:	a90153f3 	stp	x19, x20, [sp, #16]
    cf54:	aa0003f3 	mov	x19, x0
    cf58:	aa0103f4 	mov	x20, x1
    cf5c:	b4000340 	cbz	x0, cfc4 <std_strcmp+0x7c>
    cf60:	b4000234 	cbz	x20, cfa4 <std_strcmp+0x5c>
    cf64:	d2800002 	mov	x2, #0x0                   	// #0
    cf68:	14000002 	b	cf70 <std_strcmp+0x28>
    cf6c:	34000140 	cbz	w0, cf94 <std_strcmp+0x4c>
    cf70:	38626a60 	ldrb	w0, [x19, x2]
    cf74:	38626a83 	ldrb	w3, [x20, x2]
    cf78:	91000442 	add	x2, x2, #0x1
    cf7c:	6b03001f 	cmp	w0, w3
    cf80:	54ffff60 	b.eq	cf6c <std_strcmp+0x24>  // b.none
    cf84:	4b030000 	sub	w0, w0, w3
    cf88:	a94153f3 	ldp	x19, x20, [sp, #16]
    cf8c:	a8c27bfd 	ldp	x29, x30, [sp], #32
    cf90:	d65f03c0 	ret
    cf94:	52800000 	mov	w0, #0x0                   	// #0
    cf98:	a94153f3 	ldp	x19, x20, [sp, #16]
    cf9c:	a8c27bfd 	ldp	x29, x30, [sp], #32
    cfa0:	d65f03c0 	ret
    cfa4:	b01fffc0 	adrp	x0, 40005000 <state_fmt+0x2388>
    cfa8:	9130a000 	add	x0, x0, #0xc28
    cfac:	97fffe23 	bl	c838 <std_printf>
    cfb0:	901fffa1 	adrp	x1, 40000000 <__ram_begin>
    cfb4:	528002c0 	mov	w0, #0x16                  	// #22
    cfb8:	f9400421 	ldr	x1, [x1, #8]
    cfbc:	d63f0020 	blr	x1
    cfc0:	17ffffe9 	b	cf64 <std_strcmp+0x1c>
    cfc4:	b01fffc0 	adrp	x0, 40005000 <state_fmt+0x2388>
    cfc8:	912f4000 	add	x0, x0, #0xbd0
    cfcc:	97fffe1b 	bl	c838 <std_printf>
    cfd0:	901fffa1 	adrp	x1, 40000000 <__ram_begin>
    cfd4:	528002c0 	mov	w0, #0x16                  	// #22
    cfd8:	f9400421 	ldr	x1, [x1, #8]
    cfdc:	d63f0020 	blr	x1
    cfe0:	b5fffc34 	cbnz	x20, cf64 <std_strcmp+0x1c>
    cfe4:	17fffff0 	b	cfa4 <std_strcmp+0x5c>

000000000000cfe8 <std_strcmp_f>:
    cfe8:	a9be7bfd 	stp	x29, x30, [sp, #-32]!
    cfec:	910003fd 	mov	x29, sp
    cff0:	a90153f3 	stp	x19, x20, [sp, #16]
    cff4:	aa0003f3 	mov	x19, x0
    cff8:	aa0103f4 	mov	x20, x1
    cffc:	b4000340 	cbz	x0, d064 <std_strcmp_f+0x7c>
    d000:	b4000234 	cbz	x20, d044 <std_strcmp_f+0x5c>
    d004:	d2800002 	mov	x2, #0x0                   	// #0
    d008:	14000002 	b	d010 <std_strcmp_f+0x28>
    d00c:	34000140 	cbz	w0, d034 <std_strcmp_f+0x4c>
    d010:	38626a60 	ldrb	w0, [x19, x2]
    d014:	38626a83 	ldrb	w3, [x20, x2]
    d018:	91000442 	add	x2, x2, #0x1
    d01c:	6b03001f 	cmp	w0, w3
    d020:	54ffff60 	b.eq	d00c <std_strcmp_f+0x24>  // b.none
    d024:	4b030000 	sub	w0, w0, w3
    d028:	a94153f3 	ldp	x19, x20, [sp, #16]
    d02c:	a8c27bfd 	ldp	x29, x30, [sp], #32
    d030:	d65f03c0 	ret
    d034:	52800000 	mov	w0, #0x0                   	// #0
    d038:	a94153f3 	ldp	x19, x20, [sp, #16]
    d03c:	a8c27bfd 	ldp	x29, x30, [sp], #32
    d040:	d65f03c0 	ret
    d044:	901fffc0 	adrp	x0, 40005000 <state_fmt+0x2388>
    d048:	91336000 	add	x0, x0, #0xcd8
    d04c:	97fffdfb 	bl	c838 <std_printf>
    d050:	f01fff81 	adrp	x1, 40000000 <__ram_begin>
    d054:	528002c0 	mov	w0, #0x16                  	// #22
    d058:	f9400421 	ldr	x1, [x1, #8]
    d05c:	d63f0020 	blr	x1
    d060:	17ffffe9 	b	d004 <std_strcmp_f+0x1c>
    d064:	901fffc0 	adrp	x0, 40005000 <state_fmt+0x2388>
    d068:	91320000 	add	x0, x0, #0xc80
    d06c:	97fffdf3 	bl	c838 <std_printf>
    d070:	f01fff81 	adrp	x1, 40000000 <__ram_begin>
    d074:	528002c0 	mov	w0, #0x16                  	// #22
    d078:	f9400421 	ldr	x1, [x1, #8]
    d07c:	d63f0020 	blr	x1
    d080:	b5fffc34 	cbnz	x20, d004 <std_strcmp_f+0x1c>
    d084:	17fffff0 	b	d044 <std_strcmp_f+0x5c>

000000000000d088 <std_strncmp>:
    d088:	a9bd7bfd 	stp	x29, x30, [sp, #-48]!
    d08c:	910003fd 	mov	x29, sp
    d090:	a90153f3 	stp	x19, x20, [sp, #16]
    d094:	aa0003f3 	mov	x19, x0
    d098:	f90013f5 	str	x21, [sp, #32]
    d09c:	aa0103f4 	mov	x20, x1
    d0a0:	aa0203f5 	mov	x21, x2
    d0a4:	b4000260 	cbz	x0, d0f0 <std_strncmp+0x68>
    d0a8:	b4000354 	cbz	x20, d110 <std_strncmp+0x88>
    d0ac:	52800000 	mov	w0, #0x0                   	// #0
    d0b0:	b4000195 	cbz	x21, d0e0 <std_strncmp+0x58>
    d0b4:	aa1303e0 	mov	x0, x19
    d0b8:	8b150262 	add	x2, x19, x21
    d0bc:	d503201f 	nop
    d0c0:	38401403 	ldrb	w3, [x0], #1
    d0c4:	38401681 	ldrb	w1, [x20], #1
    d0c8:	6b01007f 	cmp	w3, w1
    d0cc:	54000321 	b.ne	d130 <std_strncmp+0xa8>  // b.any
    d0d0:	7100007f 	cmp	w3, #0x0
    d0d4:	fa401044 	ccmp	x2, x0, #0x4, ne  // ne = any
    d0d8:	54ffff41 	b.ne	d0c0 <std_strncmp+0x38>  // b.any
    d0dc:	52800000 	mov	w0, #0x0                   	// #0
    d0e0:	a94153f3 	ldp	x19, x20, [sp, #16]
    d0e4:	f94013f5 	ldr	x21, [sp, #32]
    d0e8:	a8c37bfd 	ldp	x29, x30, [sp], #48
    d0ec:	d65f03c0 	ret
    d0f0:	901fffc0 	adrp	x0, 40005000 <state_fmt+0x2388>
    d0f4:	91390000 	add	x0, x0, #0xe40
    d0f8:	97fffdd0 	bl	c838 <std_printf>
    d0fc:	f01fff81 	adrp	x1, 40000000 <__ram_begin>
    d100:	528002c0 	mov	w0, #0x16                  	// #22
    d104:	f9400421 	ldr	x1, [x1, #8]
    d108:	d63f0020 	blr	x1
    d10c:	b5fffd14 	cbnz	x20, d0ac <std_strncmp+0x24>
    d110:	901fffc0 	adrp	x0, 40005000 <state_fmt+0x2388>
    d114:	913a6000 	add	x0, x0, #0xe98
    d118:	97fffdc8 	bl	c838 <std_printf>
    d11c:	f01fff81 	adrp	x1, 40000000 <__ram_begin>
    d120:	528002c0 	mov	w0, #0x16                  	// #22
    d124:	f9400421 	ldr	x1, [x1, #8]
    d128:	d63f0020 	blr	x1
    d12c:	17ffffe0 	b	d0ac <std_strncmp+0x24>
    d130:	4b010060 	sub	w0, w3, w1
    d134:	f94013f5 	ldr	x21, [sp, #32]
    d138:	a94153f3 	ldp	x19, x20, [sp, #16]
    d13c:	a8c37bfd 	ldp	x29, x30, [sp], #48
    d140:	d65f03c0 	ret
    d144:	00000000 	.inst	0x00000000 ; undefined

000000000000d148 <std_strip>:
    d148:	a9be7bfd 	stp	x29, x30, [sp, #-32]!
    d14c:	910003fd 	mov	x29, sp
    d150:	a90153f3 	stp	x19, x20, [sp, #16]
    d154:	aa0003f3 	mov	x19, x0
    d158:	aa0103f4 	mov	x20, x1
    d15c:	b4000640 	cbz	x0, d224 <std_strip+0xdc>
    d160:	39400264 	ldrb	w4, [x19]
    d164:	901fffc0 	adrp	x0, 40005000 <state_fmt+0x2388>
    d168:	f100029f 	cmp	x20, #0x0
    d16c:	91378000 	add	x0, x0, #0xde0
    d170:	9a940014 	csel	x20, x0, x20, eq  // eq = none
    d174:	34000184 	cbz	w4, d1a4 <std_strip+0x5c>
    d178:	39400280 	ldrb	w0, [x20]
    d17c:	d503201f 	nop
    d180:	34000120 	cbz	w0, d1a4 <std_strip+0x5c>
    d184:	6b00009f 	cmp	w4, w0
    d188:	540003a0 	b.eq	d1fc <std_strip+0xb4>  // b.none
    d18c:	aa1403e3 	mov	x3, x20
    d190:	14000002 	b	d198 <std_strip+0x50>
    d194:	54000340 	b.eq	d1fc <std_strip+0xb4>  // b.none
    d198:	38401c62 	ldrb	w2, [x3, #1]!
    d19c:	6b04005f 	cmp	w2, w4
    d1a0:	35ffffa2 	cbnz	w2, d194 <std_strip+0x4c>
    d1a4:	aa1303e0 	mov	x0, x19
    d1a8:	97ffd2f6 	bl	1d80 <strlen>
    d1ac:	d1000405 	sub	x5, x0, #0x1
    d1b0:	8b050265 	add	x5, x19, x5
    d1b4:	eb1300bf 	cmp	x5, x19
    d1b8:	540001a3 	b.cc	d1ec <std_strip+0xa4>  // b.lo, b.ul, b.last
    d1bc:	d503201f 	nop
    d1c0:	39400280 	ldrb	w0, [x20]
    d1c4:	394000a4 	ldrb	w4, [x5]
    d1c8:	34000120 	cbz	w0, d1ec <std_strip+0xa4>
    d1cc:	6b00009f 	cmp	w4, w0
    d1d0:	540001c0 	b.eq	d208 <std_strip+0xc0>  // b.none
    d1d4:	aa1403e3 	mov	x3, x20
    d1d8:	14000002 	b	d1e0 <std_strip+0x98>
    d1dc:	54000160 	b.eq	d208 <std_strip+0xc0>  // b.none
    d1e0:	38401c62 	ldrb	w2, [x3, #1]!
    d1e4:	6b02009f 	cmp	w4, w2
    d1e8:	35ffffa2 	cbnz	w2, d1dc <std_strip+0x94>
    d1ec:	aa1303e0 	mov	x0, x19
    d1f0:	a94153f3 	ldp	x19, x20, [sp, #16]
    d1f4:	a8c27bfd 	ldp	x29, x30, [sp], #32
    d1f8:	d65f03c0 	ret
    d1fc:	38401e64 	ldrb	w4, [x19, #1]!
    d200:	35fffc04 	cbnz	w4, d180 <std_strip+0x38>
    d204:	17ffffe8 	b	d1a4 <std_strip+0x5c>
    d208:	381ff4bf 	strb	wzr, [x5], #-1
    d20c:	eb1300bf 	cmp	x5, x19
    d210:	54fffd82 	b.cs	d1c0 <std_strip+0x78>  // b.hs, b.nlast
    d214:	aa1303e0 	mov	x0, x19
    d218:	a94153f3 	ldp	x19, x20, [sp, #16]
    d21c:	a8c27bfd 	ldp	x29, x30, [sp], #32
    d220:	d65f03c0 	ret
    d224:	901fffc0 	adrp	x0, 40005000 <state_fmt+0x2388>
    d228:	9137a000 	add	x0, x0, #0xde8
    d22c:	97fffd83 	bl	c838 <std_printf>
    d230:	f01fff81 	adrp	x1, 40000000 <__ram_begin>
    d234:	528002c0 	mov	w0, #0x16                  	// #22
    d238:	f9400421 	ldr	x1, [x1, #8]
    d23c:	d63f0020 	blr	x1
    d240:	17ffffc8 	b	d160 <std_strip+0x18>

000000000000d244 <thrd_port_swap>:
    d244:	d10403ff 	sub	sp, sp, #0x100
    d248:	a90007e0 	stp	x0, x1, [sp]
    d24c:	a9010fe2 	stp	x2, x3, [sp, #16]
    d250:	a90217e4 	stp	x4, x5, [sp, #32]
    d254:	a9031fe6 	stp	x6, x7, [sp, #48]
    d258:	a90427e8 	stp	x8, x9, [sp, #64]
    d25c:	a9052fea 	stp	x10, x11, [sp, #80]
    d260:	a90637ec 	stp	x12, x13, [sp, #96]
    d264:	a9073fee 	stp	x14, x15, [sp, #112]
    d268:	a90847f0 	stp	x16, x17, [sp, #128]
    d26c:	a9094ff2 	stp	x18, x19, [sp, #144]
    d270:	a90a57f4 	stp	x20, x21, [sp, #160]
    d274:	a90b5ff6 	stp	x22, x23, [sp, #176]
    d278:	a90c67f8 	stp	x24, x25, [sp, #192]
    d27c:	a90d6ffa 	stp	x26, x27, [sp, #208]
    d280:	a90e77fc 	stp	x28, x29, [sp, #224]
    d284:	f9007bfe 	str	x30, [sp, #240]
    d288:	910003e2 	mov	x2, sp
    d28c:	f9001022 	str	x2, [x1, #32]
    d290:	f9401000 	ldr	x0, [x0, #32]
    d294:	9100001f 	mov	sp, x0
    d298:	f9407bfe 	ldr	x30, [sp, #240]
    d29c:	a94e77fc 	ldp	x28, x29, [sp, #224]
    d2a0:	a94d6ffa 	ldp	x26, x27, [sp, #208]
    d2a4:	a94c67f8 	ldp	x24, x25, [sp, #192]
    d2a8:	a94b5ff6 	ldp	x22, x23, [sp, #176]
    d2ac:	a94a57f4 	ldp	x20, x21, [sp, #160]
    d2b0:	a9494ff2 	ldp	x18, x19, [sp, #144]
    d2b4:	a94847f0 	ldp	x16, x17, [sp, #128]
    d2b8:	a9473fee 	ldp	x14, x15, [sp, #112]
    d2bc:	a94637ec 	ldp	x12, x13, [sp, #96]
    d2c0:	a9452fea 	ldp	x10, x11, [sp, #80]
    d2c4:	a94427e8 	ldp	x8, x9, [sp, #64]
    d2c8:	a9431fe6 	ldp	x6, x7, [sp, #48]
    d2cc:	a94217e4 	ldp	x4, x5, [sp, #32]
    d2d0:	a9410fe2 	ldp	x2, x3, [sp, #16]
    d2d4:	a94007e0 	ldp	x0, x1, [sp]
    d2d8:	910403ff 	add	sp, sp, #0x100
    d2dc:	d65f03c0 	ret

000000000000d2e0 <thrd_port_main>:
    d2e0:	d50342ff 	msr	daifclr, #0x2
    d2e4:	d63f0020 	blr	x1
    d2e8:	97ffe184 	bl	58f8 <terminate>
    d2ec:	d503201f 	nop

000000000000d2f0 <__fini_array_end>:
	...

00000000000112f0 <nvm_eeprom_soft_block_0>:
   112f0:	2d05ada8 	.word	0x2d05ada8
   112f4:	a5c30001 	.word	0xa5c30001
   112f8:	00000001 	.word	0x00000001
   112fc:	ffffffff 	.word	0xffffffff
   11300:	00005ff7 	.word	0x00005ff7
   11304:	ffffffff 	.word	0xffffffff
   11308:	bebafeca 	.word	0xbebafeca
   1130c:	ffffffff 	.word	0xffffffff
   11310:	626f6f66 	.word	0x626f6f66
   11314:	ff007261 	.word	0xff007261
   11318:	ffffffff 	.word	0xffffffff
   1131c:	ffffffff 	.word	0xffffffff
   11320:	ffffffff 	.word	0xffffffff
   11324:	ffffffff 	.word	0xffffffff
   11328:	ffffffff 	.word	0xffffffff
   1132c:	ffffffff 	.word	0xffffffff
   11330:	ffffffff 	.word	0xffffffff
   11334:	ffffffff 	.word	0xffffffff
   11338:	ffffffff 	.word	0xffffffff
   1133c:	ffffffff 	.word	0xffffffff
   11340:	ffffffff 	.word	0xffffffff
   11344:	ffffffff 	.word	0xffffffff
   11348:	ffffffff 	.word	0xffffffff
   1134c:	ffffffff 	.word	0xffffffff
   11350:	ffffffff 	.word	0xffffffff
   11354:	ffffffff 	.word	0xffffffff
   11358:	ffffffff 	.word	0xffffffff
   1135c:	ffffffff 	.word	0xffffffff
   11360:	ffffffff 	.word	0xffffffff
   11364:	ffffffff 	.word	0xffffffff
   11368:	ffffffff 	.word	0xffffffff
   1136c:	ffffffff 	.word	0xffffffff
   11370:	ffffffff 	.word	0xffffffff
   11374:	ffffffff 	.word	0xffffffff
   11378:	ffffffff 	.word	0xffffffff
   1137c:	ffffffff 	.word	0xffffffff
   11380:	ffffffff 	.word	0xffffffff
   11384:	ffffffff 	.word	0xffffffff
   11388:	ffffffff 	.word	0xffffffff
   1138c:	ffffffff 	.word	0xffffffff
   11390:	ffffffff 	.word	0xffffffff
   11394:	ffffffff 	.word	0xffffffff
   11398:	ffffffff 	.word	0xffffffff
   1139c:	ffffffff 	.word	0xffffffff
   113a0:	ffffffff 	.word	0xffffffff
   113a4:	ffffffff 	.word	0xffffffff
   113a8:	ffffffff 	.word	0xffffffff
   113ac:	ffffffff 	.word	0xffffffff
   113b0:	ffffffff 	.word	0xffffffff
   113b4:	ffffffff 	.word	0xffffffff
   113b8:	ffffffff 	.word	0xffffffff
   113bc:	ffffffff 	.word	0xffffffff
   113c0:	ffffffff 	.word	0xffffffff
   113c4:	ffffffff 	.word	0xffffffff
   113c8:	ffffffff 	.word	0xffffffff
   113cc:	ffffffff 	.word	0xffffffff
   113d0:	ffffffff 	.word	0xffffffff
   113d4:	ffffffff 	.word	0xffffffff
   113d8:	ffffffff 	.word	0xffffffff
   113dc:	ffffffff 	.word	0xffffffff
   113e0:	ffffffff 	.word	0xffffffff
   113e4:	ffffffff 	.word	0xffffffff
   113e8:	ffffffff 	.word	0xffffffff
   113ec:	ffffffff 	.word	0xffffffff
   113f0:	ffffffff 	.word	0xffffffff
   113f4:	ffffffff 	.word	0xffffffff
   113f8:	ffffffff 	.word	0xffffffff
   113fc:	ffffffff 	.word	0xffffffff
   11400:	ffffffff 	.word	0xffffffff
   11404:	ffffffff 	.word	0xffffffff
   11408:	ffffffff 	.word	0xffffffff
   1140c:	ffffffff 	.word	0xffffffff
   11410:	ffffffff 	.word	0xffffffff
   11414:	ffffffff 	.word	0xffffffff
   11418:	ffffffff 	.word	0xffffffff
   1141c:	ffffffff 	.word	0xffffffff
   11420:	ffffffff 	.word	0xffffffff
   11424:	ffffffff 	.word	0xffffffff
   11428:	ffffffff 	.word	0xffffffff
   1142c:	ffffffff 	.word	0xffffffff
   11430:	ffffffff 	.word	0xffffffff
   11434:	ffffffff 	.word	0xffffffff
   11438:	ffffffff 	.word	0xffffffff
   1143c:	ffffffff 	.word	0xffffffff
   11440:	ffffffff 	.word	0xffffffff
   11444:	ffffffff 	.word	0xffffffff
   11448:	ffffffff 	.word	0xffffffff
   1144c:	ffffffff 	.word	0xffffffff
   11450:	ffffffff 	.word	0xffffffff
   11454:	ffffffff 	.word	0xffffffff
   11458:	ffffffff 	.word	0xffffffff
   1145c:	ffffffff 	.word	0xffffffff
   11460:	ffffffff 	.word	0xffffffff
   11464:	ffffffff 	.word	0xffffffff
   11468:	ffffffff 	.word	0xffffffff
   1146c:	ffffffff 	.word	0xffffffff
   11470:	ffffffff 	.word	0xffffffff
   11474:	ffffffff 	.word	0xffffffff
   11478:	ffffffff 	.word	0xffffffff
   1147c:	ffffffff 	.word	0xffffffff
   11480:	ffffffff 	.word	0xffffffff
   11484:	ffffffff 	.word	0xffffffff
   11488:	ffffffff 	.word	0xffffffff
   1148c:	ffffffff 	.word	0xffffffff
   11490:	ffffffff 	.word	0xffffffff
   11494:	ffffffff 	.word	0xffffffff
   11498:	ffffffff 	.word	0xffffffff
   1149c:	ffffffff 	.word	0xffffffff
   114a0:	ffffffff 	.word	0xffffffff
   114a4:	ffffffff 	.word	0xffffffff
   114a8:	ffffffff 	.word	0xffffffff
   114ac:	ffffffff 	.word	0xffffffff
   114b0:	ffffffff 	.word	0xffffffff
   114b4:	ffffffff 	.word	0xffffffff
   114b8:	ffffffff 	.word	0xffffffff
   114bc:	ffffffff 	.word	0xffffffff
   114c0:	ffffffff 	.word	0xffffffff
   114c4:	ffffffff 	.word	0xffffffff
   114c8:	ffffffff 	.word	0xffffffff
   114cc:	ffffffff 	.word	0xffffffff
   114d0:	ffffffff 	.word	0xffffffff
   114d4:	ffffffff 	.word	0xffffffff
   114d8:	ffffffff 	.word	0xffffffff
   114dc:	ffffffff 	.word	0xffffffff
   114e0:	ffffffff 	.word	0xffffffff
   114e4:	ffffffff 	.word	0xffffffff
   114e8:	ffffffff 	.word	0xffffffff
   114ec:	ffffffff 	.word	0xffffffff
   114f0:	ffffffff 	.word	0xffffffff
   114f4:	ffffffff 	.word	0xffffffff
   114f8:	ffffffff 	.word	0xffffffff
   114fc:	ffffffff 	.word	0xffffffff
   11500:	ffffffff 	.word	0xffffffff
   11504:	ffffffff 	.word	0xffffffff
   11508:	ffffffff 	.word	0xffffffff
   1150c:	ffffffff 	.word	0xffffffff
   11510:	ffffffff 	.word	0xffffffff
   11514:	ffffffff 	.word	0xffffffff
   11518:	ffffffff 	.word	0xffffffff
   1151c:	ffffffff 	.word	0xffffffff
   11520:	ffffffff 	.word	0xffffffff
   11524:	ffffffff 	.word	0xffffffff
   11528:	ffffffff 	.word	0xffffffff
   1152c:	ffffffff 	.word	0xffffffff
   11530:	ffffffff 	.word	0xffffffff
   11534:	ffffffff 	.word	0xffffffff
   11538:	ffffffff 	.word	0xffffffff
   1153c:	ffffffff 	.word	0xffffffff
   11540:	ffffffff 	.word	0xffffffff
   11544:	ffffffff 	.word	0xffffffff
   11548:	ffffffff 	.word	0xffffffff
   1154c:	ffffffff 	.word	0xffffffff
   11550:	ffffffff 	.word	0xffffffff
   11554:	ffffffff 	.word	0xffffffff
   11558:	ffffffff 	.word	0xffffffff
   1155c:	ffffffff 	.word	0xffffffff
   11560:	ffffffff 	.word	0xffffffff
   11564:	ffffffff 	.word	0xffffffff
   11568:	ffffffff 	.word	0xffffffff
   1156c:	ffffffff 	.word	0xffffffff
   11570:	ffffffff 	.word	0xffffffff
   11574:	ffffffff 	.word	0xffffffff
   11578:	ffffffff 	.word	0xffffffff
   1157c:	ffffffff 	.word	0xffffffff
   11580:	ffffffff 	.word	0xffffffff
   11584:	ffffffff 	.word	0xffffffff
   11588:	ffffffff 	.word	0xffffffff
   1158c:	ffffffff 	.word	0xffffffff
   11590:	ffffffff 	.word	0xffffffff
   11594:	ffffffff 	.word	0xffffffff
   11598:	ffffffff 	.word	0xffffffff
   1159c:	ffffffff 	.word	0xffffffff
   115a0:	ffffffff 	.word	0xffffffff
   115a4:	ffffffff 	.word	0xffffffff
   115a8:	ffffffff 	.word	0xffffffff
   115ac:	ffffffff 	.word	0xffffffff
   115b0:	ffffffff 	.word	0xffffffff
   115b4:	ffffffff 	.word	0xffffffff
   115b8:	ffffffff 	.word	0xffffffff
   115bc:	ffffffff 	.word	0xffffffff
   115c0:	ffffffff 	.word	0xffffffff
   115c4:	ffffffff 	.word	0xffffffff
   115c8:	ffffffff 	.word	0xffffffff
   115cc:	ffffffff 	.word	0xffffffff
   115d0:	ffffffff 	.word	0xffffffff
   115d4:	ffffffff 	.word	0xffffffff
   115d8:	ffffffff 	.word	0xffffffff
   115dc:	ffffffff 	.word	0xffffffff
   115e0:	ffffffff 	.word	0xffffffff
   115e4:	ffffffff 	.word	0xffffffff
   115e8:	ffffffff 	.word	0xffffffff
   115ec:	ffffffff 	.word	0xffffffff
   115f0:	ffffffff 	.word	0xffffffff
   115f4:	ffffffff 	.word	0xffffffff
   115f8:	ffffffff 	.word	0xffffffff
   115fc:	ffffffff 	.word	0xffffffff
   11600:	ffffffff 	.word	0xffffffff
   11604:	ffffffff 	.word	0xffffffff
   11608:	ffffffff 	.word	0xffffffff
   1160c:	ffffffff 	.word	0xffffffff
   11610:	ffffffff 	.word	0xffffffff
   11614:	ffffffff 	.word	0xffffffff
   11618:	ffffffff 	.word	0xffffffff
   1161c:	ffffffff 	.word	0xffffffff
   11620:	ffffffff 	.word	0xffffffff
   11624:	ffffffff 	.word	0xffffffff
   11628:	ffffffff 	.word	0xffffffff
   1162c:	ffffffff 	.word	0xffffffff
   11630:	ffffffff 	.word	0xffffffff
   11634:	ffffffff 	.word	0xffffffff
   11638:	ffffffff 	.word	0xffffffff
   1163c:	ffffffff 	.word	0xffffffff
   11640:	ffffffff 	.word	0xffffffff
   11644:	ffffffff 	.word	0xffffffff
   11648:	ffffffff 	.word	0xffffffff
   1164c:	ffffffff 	.word	0xffffffff
   11650:	ffffffff 	.word	0xffffffff
   11654:	ffffffff 	.word	0xffffffff
   11658:	ffffffff 	.word	0xffffffff
   1165c:	ffffffff 	.word	0xffffffff
   11660:	ffffffff 	.word	0xffffffff
   11664:	ffffffff 	.word	0xffffffff
   11668:	ffffffff 	.word	0xffffffff
   1166c:	ffffffff 	.word	0xffffffff
   11670:	ffffffff 	.word	0xffffffff
   11674:	ffffffff 	.word	0xffffffff
   11678:	ffffffff 	.word	0xffffffff
   1167c:	ffffffff 	.word	0xffffffff
   11680:	ffffffff 	.word	0xffffffff
   11684:	ffffffff 	.word	0xffffffff
   11688:	ffffffff 	.word	0xffffffff
   1168c:	ffffffff 	.word	0xffffffff
   11690:	ffffffff 	.word	0xffffffff
   11694:	ffffffff 	.word	0xffffffff
   11698:	ffffffff 	.word	0xffffffff
   1169c:	ffffffff 	.word	0xffffffff
   116a0:	ffffffff 	.word	0xffffffff
   116a4:	ffffffff 	.word	0xffffffff
   116a8:	ffffffff 	.word	0xffffffff
   116ac:	ffffffff 	.word	0xffffffff
   116b0:	ffffffff 	.word	0xffffffff
   116b4:	ffffffff 	.word	0xffffffff
   116b8:	ffffffff 	.word	0xffffffff
   116bc:	ffffffff 	.word	0xffffffff
   116c0:	ffffffff 	.word	0xffffffff
   116c4:	ffffffff 	.word	0xffffffff
   116c8:	ffffffff 	.word	0xffffffff
   116cc:	ffffffff 	.word	0xffffffff
   116d0:	ffffffff 	.word	0xffffffff
   116d4:	ffffffff 	.word	0xffffffff
   116d8:	ffffffff 	.word	0xffffffff
   116dc:	ffffffff 	.word	0xffffffff
   116e0:	ffffffff 	.word	0xffffffff
   116e4:	ffffffff 	.word	0xffffffff
   116e8:	ffffffff 	.word	0xffffffff
   116ec:	ffffffff 	.word	0xffffffff
   116f0:	ffffffff 	.word	0xffffffff
   116f4:	ffffffff 	.word	0xffffffff
   116f8:	ffffffff 	.word	0xffffffff
   116fc:	ffffffff 	.word	0xffffffff
   11700:	ffffffff 	.word	0xffffffff
   11704:	ffffffff 	.word	0xffffffff
   11708:	ffffffff 	.word	0xffffffff
   1170c:	ffffffff 	.word	0xffffffff
   11710:	ffffffff 	.word	0xffffffff
   11714:	ffffffff 	.word	0xffffffff
   11718:	ffffffff 	.word	0xffffffff
   1171c:	ffffffff 	.word	0xffffffff
   11720:	ffffffff 	.word	0xffffffff
   11724:	ffffffff 	.word	0xffffffff
   11728:	ffffffff 	.word	0xffffffff
   1172c:	ffffffff 	.word	0xffffffff
   11730:	ffffffff 	.word	0xffffffff
   11734:	ffffffff 	.word	0xffffffff
   11738:	ffffffff 	.word	0xffffffff
   1173c:	ffffffff 	.word	0xffffffff
   11740:	ffffffff 	.word	0xffffffff
   11744:	ffffffff 	.word	0xffffffff
   11748:	ffffffff 	.word	0xffffffff
   1174c:	ffffffff 	.word	0xffffffff
   11750:	ffffffff 	.word	0xffffffff
   11754:	ffffffff 	.word	0xffffffff
   11758:	ffffffff 	.word	0xffffffff
   1175c:	ffffffff 	.word	0xffffffff
   11760:	ffffffff 	.word	0xffffffff
   11764:	ffffffff 	.word	0xffffffff
   11768:	ffffffff 	.word	0xffffffff
   1176c:	ffffffff 	.word	0xffffffff
   11770:	ffffffff 	.word	0xffffffff
   11774:	ffffffff 	.word	0xffffffff
   11778:	ffffffff 	.word	0xffffffff
   1177c:	ffffffff 	.word	0xffffffff
   11780:	ffffffff 	.word	0xffffffff
   11784:	ffffffff 	.word	0xffffffff
   11788:	ffffffff 	.word	0xffffffff
   1178c:	ffffffff 	.word	0xffffffff
   11790:	ffffffff 	.word	0xffffffff
   11794:	ffffffff 	.word	0xffffffff
   11798:	ffffffff 	.word	0xffffffff
   1179c:	ffffffff 	.word	0xffffffff
   117a0:	ffffffff 	.word	0xffffffff
   117a4:	ffffffff 	.word	0xffffffff
   117a8:	ffffffff 	.word	0xffffffff
   117ac:	ffffffff 	.word	0xffffffff
   117b0:	ffffffff 	.word	0xffffffff
   117b4:	ffffffff 	.word	0xffffffff
   117b8:	ffffffff 	.word	0xffffffff
   117bc:	ffffffff 	.word	0xffffffff
   117c0:	ffffffff 	.word	0xffffffff
   117c4:	ffffffff 	.word	0xffffffff
   117c8:	ffffffff 	.word	0xffffffff
   117cc:	ffffffff 	.word	0xffffffff
   117d0:	ffffffff 	.word	0xffffffff
   117d4:	ffffffff 	.word	0xffffffff
   117d8:	ffffffff 	.word	0xffffffff
   117dc:	ffffffff 	.word	0xffffffff
   117e0:	ffffffff 	.word	0xffffffff
   117e4:	ffffffff 	.word	0xffffffff
   117e8:	ffffffff 	.word	0xffffffff
   117ec:	ffffffff 	.word	0xffffffff
   117f0:	ffffffff 	.word	0xffffffff
   117f4:	ffffffff 	.word	0xffffffff
   117f8:	ffffffff 	.word	0xffffffff
   117fc:	ffffffff 	.word	0xffffffff
   11800:	ffffffff 	.word	0xffffffff
   11804:	ffffffff 	.word	0xffffffff
   11808:	ffffffff 	.word	0xffffffff
   1180c:	ffffffff 	.word	0xffffffff
   11810:	ffffffff 	.word	0xffffffff
   11814:	ffffffff 	.word	0xffffffff
   11818:	ffffffff 	.word	0xffffffff
   1181c:	ffffffff 	.word	0xffffffff
   11820:	ffffffff 	.word	0xffffffff
   11824:	ffffffff 	.word	0xffffffff
   11828:	ffffffff 	.word	0xffffffff
   1182c:	ffffffff 	.word	0xffffffff
   11830:	ffffffff 	.word	0xffffffff
   11834:	ffffffff 	.word	0xffffffff
   11838:	ffffffff 	.word	0xffffffff
   1183c:	ffffffff 	.word	0xffffffff
   11840:	ffffffff 	.word	0xffffffff
   11844:	ffffffff 	.word	0xffffffff
   11848:	ffffffff 	.word	0xffffffff
   1184c:	ffffffff 	.word	0xffffffff
   11850:	ffffffff 	.word	0xffffffff
   11854:	ffffffff 	.word	0xffffffff
   11858:	ffffffff 	.word	0xffffffff
   1185c:	ffffffff 	.word	0xffffffff
   11860:	ffffffff 	.word	0xffffffff
   11864:	ffffffff 	.word	0xffffffff
   11868:	ffffffff 	.word	0xffffffff
   1186c:	ffffffff 	.word	0xffffffff
   11870:	ffffffff 	.word	0xffffffff
   11874:	ffffffff 	.word	0xffffffff
   11878:	ffffffff 	.word	0xffffffff
   1187c:	ffffffff 	.word	0xffffffff
   11880:	ffffffff 	.word	0xffffffff
   11884:	ffffffff 	.word	0xffffffff
   11888:	ffffffff 	.word	0xffffffff
   1188c:	ffffffff 	.word	0xffffffff
   11890:	ffffffff 	.word	0xffffffff
   11894:	ffffffff 	.word	0xffffffff
   11898:	ffffffff 	.word	0xffffffff
   1189c:	ffffffff 	.word	0xffffffff
   118a0:	ffffffff 	.word	0xffffffff
   118a4:	ffffffff 	.word	0xffffffff
   118a8:	ffffffff 	.word	0xffffffff
   118ac:	ffffffff 	.word	0xffffffff
   118b0:	ffffffff 	.word	0xffffffff
   118b4:	ffffffff 	.word	0xffffffff
   118b8:	ffffffff 	.word	0xffffffff
   118bc:	ffffffff 	.word	0xffffffff
   118c0:	ffffffff 	.word	0xffffffff
   118c4:	ffffffff 	.word	0xffffffff
   118c8:	ffffffff 	.word	0xffffffff
   118cc:	ffffffff 	.word	0xffffffff
   118d0:	ffffffff 	.word	0xffffffff
   118d4:	ffffffff 	.word	0xffffffff
   118d8:	ffffffff 	.word	0xffffffff
   118dc:	ffffffff 	.word	0xffffffff
   118e0:	ffffffff 	.word	0xffffffff
   118e4:	ffffffff 	.word	0xffffffff
   118e8:	ffffffff 	.word	0xffffffff
   118ec:	ffffffff 	.word	0xffffffff
   118f0:	ffffffff 	.word	0xffffffff
   118f4:	ffffffff 	.word	0xffffffff
   118f8:	ffffffff 	.word	0xffffffff
   118fc:	ffffffff 	.word	0xffffffff
   11900:	ffffffff 	.word	0xffffffff
   11904:	ffffffff 	.word	0xffffffff
   11908:	ffffffff 	.word	0xffffffff
   1190c:	ffffffff 	.word	0xffffffff
   11910:	ffffffff 	.word	0xffffffff
   11914:	ffffffff 	.word	0xffffffff
   11918:	ffffffff 	.word	0xffffffff
   1191c:	ffffffff 	.word	0xffffffff
   11920:	ffffffff 	.word	0xffffffff
   11924:	ffffffff 	.word	0xffffffff
   11928:	ffffffff 	.word	0xffffffff
   1192c:	ffffffff 	.word	0xffffffff
   11930:	ffffffff 	.word	0xffffffff
   11934:	ffffffff 	.word	0xffffffff
   11938:	ffffffff 	.word	0xffffffff
   1193c:	ffffffff 	.word	0xffffffff
   11940:	ffffffff 	.word	0xffffffff
   11944:	ffffffff 	.word	0xffffffff
   11948:	ffffffff 	.word	0xffffffff
   1194c:	ffffffff 	.word	0xffffffff
   11950:	ffffffff 	.word	0xffffffff
   11954:	ffffffff 	.word	0xffffffff
   11958:	ffffffff 	.word	0xffffffff
   1195c:	ffffffff 	.word	0xffffffff
   11960:	ffffffff 	.word	0xffffffff
   11964:	ffffffff 	.word	0xffffffff
   11968:	ffffffff 	.word	0xffffffff
   1196c:	ffffffff 	.word	0xffffffff
   11970:	ffffffff 	.word	0xffffffff
   11974:	ffffffff 	.word	0xffffffff
   11978:	ffffffff 	.word	0xffffffff
   1197c:	ffffffff 	.word	0xffffffff
   11980:	ffffffff 	.word	0xffffffff
   11984:	ffffffff 	.word	0xffffffff
   11988:	ffffffff 	.word	0xffffffff
   1198c:	ffffffff 	.word	0xffffffff
   11990:	ffffffff 	.word	0xffffffff
   11994:	ffffffff 	.word	0xffffffff
   11998:	ffffffff 	.word	0xffffffff
   1199c:	ffffffff 	.word	0xffffffff
   119a0:	ffffffff 	.word	0xffffffff
   119a4:	ffffffff 	.word	0xffffffff
   119a8:	ffffffff 	.word	0xffffffff
   119ac:	ffffffff 	.word	0xffffffff
   119b0:	ffffffff 	.word	0xffffffff
   119b4:	ffffffff 	.word	0xffffffff
   119b8:	ffffffff 	.word	0xffffffff
   119bc:	ffffffff 	.word	0xffffffff
   119c0:	ffffffff 	.word	0xffffffff
   119c4:	ffffffff 	.word	0xffffffff
   119c8:	ffffffff 	.word	0xffffffff
   119cc:	ffffffff 	.word	0xffffffff
   119d0:	ffffffff 	.word	0xffffffff
   119d4:	ffffffff 	.word	0xffffffff
   119d8:	ffffffff 	.word	0xffffffff
   119dc:	ffffffff 	.word	0xffffffff
   119e0:	ffffffff 	.word	0xffffffff
   119e4:	ffffffff 	.word	0xffffffff
   119e8:	ffffffff 	.word	0xffffffff
   119ec:	ffffffff 	.word	0xffffffff
   119f0:	ffffffff 	.word	0xffffffff
   119f4:	ffffffff 	.word	0xffffffff
   119f8:	ffffffff 	.word	0xffffffff
   119fc:	ffffffff 	.word	0xffffffff
   11a00:	ffffffff 	.word	0xffffffff
   11a04:	ffffffff 	.word	0xffffffff
   11a08:	ffffffff 	.word	0xffffffff
   11a0c:	ffffffff 	.word	0xffffffff
   11a10:	ffffffff 	.word	0xffffffff
   11a14:	ffffffff 	.word	0xffffffff
   11a18:	ffffffff 	.word	0xffffffff
   11a1c:	ffffffff 	.word	0xffffffff
   11a20:	ffffffff 	.word	0xffffffff
   11a24:	ffffffff 	.word	0xffffffff
   11a28:	ffffffff 	.word	0xffffffff
   11a2c:	ffffffff 	.word	0xffffffff
   11a30:	ffffffff 	.word	0xffffffff
   11a34:	ffffffff 	.word	0xffffffff
   11a38:	ffffffff 	.word	0xffffffff
   11a3c:	ffffffff 	.word	0xffffffff
   11a40:	ffffffff 	.word	0xffffffff
   11a44:	ffffffff 	.word	0xffffffff
   11a48:	ffffffff 	.word	0xffffffff
   11a4c:	ffffffff 	.word	0xffffffff
   11a50:	ffffffff 	.word	0xffffffff
   11a54:	ffffffff 	.word	0xffffffff
   11a58:	ffffffff 	.word	0xffffffff
   11a5c:	ffffffff 	.word	0xffffffff
   11a60:	ffffffff 	.word	0xffffffff
   11a64:	ffffffff 	.word	0xffffffff
   11a68:	ffffffff 	.word	0xffffffff
   11a6c:	ffffffff 	.word	0xffffffff
   11a70:	ffffffff 	.word	0xffffffff
   11a74:	ffffffff 	.word	0xffffffff
   11a78:	ffffffff 	.word	0xffffffff
   11a7c:	ffffffff 	.word	0xffffffff
   11a80:	ffffffff 	.word	0xffffffff
   11a84:	ffffffff 	.word	0xffffffff
   11a88:	ffffffff 	.word	0xffffffff
   11a8c:	ffffffff 	.word	0xffffffff
   11a90:	ffffffff 	.word	0xffffffff
   11a94:	ffffffff 	.word	0xffffffff
   11a98:	ffffffff 	.word	0xffffffff
   11a9c:	ffffffff 	.word	0xffffffff
   11aa0:	ffffffff 	.word	0xffffffff
   11aa4:	ffffffff 	.word	0xffffffff
   11aa8:	ffffffff 	.word	0xffffffff
   11aac:	ffffffff 	.word	0xffffffff
   11ab0:	ffffffff 	.word	0xffffffff
   11ab4:	ffffffff 	.word	0xffffffff
   11ab8:	ffffffff 	.word	0xffffffff
   11abc:	ffffffff 	.word	0xffffffff
   11ac0:	ffffffff 	.word	0xffffffff
   11ac4:	ffffffff 	.word	0xffffffff
   11ac8:	ffffffff 	.word	0xffffffff
   11acc:	ffffffff 	.word	0xffffffff
   11ad0:	ffffffff 	.word	0xffffffff
   11ad4:	ffffffff 	.word	0xffffffff
   11ad8:	ffffffff 	.word	0xffffffff
   11adc:	ffffffff 	.word	0xffffffff
   11ae0:	ffffffff 	.word	0xffffffff
   11ae4:	ffffffff 	.word	0xffffffff
   11ae8:	ffffffff 	.word	0xffffffff
   11aec:	ffffffff 	.word	0xffffffff
	...

Disassembly of section .relocate:

0000000040000000 <__ctype_ptr__>:
    40000000:	40000508 	.word	0x40000508
    40000004:	00000000 	.word	0x00000000

0000000040000008 <sys>:
    40000008:	000050f0 	.word	0x000050f0
	...

0000000040000028 <monitor>:
    40000028:	001e8480 	.word	0x001e8480
	...

0000000040000038 <module>:
    40000038:	40000040 	.word	0x40000040
	...
    40000048:	ffffffff 	.word	0xffffffff
	...
    40000068:	40000070 	.word	0x40000070
	...
    40000078:	ffffffff 	.word	0xffffffff
	...
    40000098:	6c6c6548 	.word	0x6c6c6548
    4000009c:	6f57206f 	.word	0x6f57206f
    400000a0:	21646c72 	.word	0x21646c72
    400000a4:	00000a0d 	.word	0x00000a0d
    400000a8:	6c65682f 	.word	0x6c65682f
    400000ac:	775f6f6c 	.word	0x775f6f6c
    400000b0:	646c726f 	.word	0x646c726f
    400000b4:	00000000 	.word	0x00000000
    400000b8:	28525345 	.word	0x28525345
    400000bc:	29716966 	.word	0x29716966
	...
    400000c8:	28525345 	.word	0x28525345
    400000cc:	656e6f6e 	.word	0x656e6f6e
    400000d0:	00000029 	.word	0x00000029
    400000d4:	00000000 	.word	0x00000000
    400000d8:	28525345 	.word	0x28525345
    400000dc:	72726573 	.word	0x72726573
    400000e0:	0029726f 	.word	0x0029726f
    400000e4:	00000000 	.word	0x00000000
    400000e8:	28525345 	.word	0x28525345
    400000ec:	636e7973 	.word	0x636e7973
    400000f0:	00000029 	.word	0x00000029
    400000f4:	00000000 	.word	0x00000000

00000000400000f8 <irq_table>:
    400000f8:	00001b20 	.word	0x00001b20
    400000fc:	00000000 	.word	0x00000000
    40000100:	00001b20 	.word	0x00001b20
    40000104:	00000000 	.word	0x00000000
    40000108:	00001b20 	.word	0x00001b20
    4000010c:	00000000 	.word	0x00000000
    40000110:	00001b20 	.word	0x00001b20
    40000114:	00000000 	.word	0x00000000
    40000118:	00001b20 	.word	0x00001b20
    4000011c:	00000000 	.word	0x00000000
    40000120:	00001b20 	.word	0x00001b20
    40000124:	00000000 	.word	0x00000000
    40000128:	00001b20 	.word	0x00001b20
    4000012c:	00000000 	.word	0x00000000
    40000130:	00001b20 	.word	0x00001b20
    40000134:	00000000 	.word	0x00000000
    40000138:	00001b20 	.word	0x00001b20
    4000013c:	00000000 	.word	0x00000000
    40000140:	00001b20 	.word	0x00001b20
    40000144:	00000000 	.word	0x00000000
    40000148:	00001b20 	.word	0x00001b20
    4000014c:	00000000 	.word	0x00000000
    40000150:	00001b20 	.word	0x00001b20
    40000154:	00000000 	.word	0x00000000
    40000158:	00001b20 	.word	0x00001b20
    4000015c:	00000000 	.word	0x00000000
    40000160:	00001b20 	.word	0x00001b20
    40000164:	00000000 	.word	0x00000000
    40000168:	00001b20 	.word	0x00001b20
    4000016c:	00000000 	.word	0x00000000
    40000170:	00001b20 	.word	0x00001b20
    40000174:	00000000 	.word	0x00000000
    40000178:	00001b20 	.word	0x00001b20
    4000017c:	00000000 	.word	0x00000000
    40000180:	00001b20 	.word	0x00001b20
    40000184:	00000000 	.word	0x00000000
    40000188:	00001b20 	.word	0x00001b20
    4000018c:	00000000 	.word	0x00000000
    40000190:	00001b20 	.word	0x00001b20
    40000194:	00000000 	.word	0x00000000
    40000198:	00001b20 	.word	0x00001b20
    4000019c:	00000000 	.word	0x00000000
    400001a0:	00001b20 	.word	0x00001b20
    400001a4:	00000000 	.word	0x00000000
    400001a8:	00001b20 	.word	0x00001b20
    400001ac:	00000000 	.word	0x00000000
    400001b0:	00001b20 	.word	0x00001b20
    400001b4:	00000000 	.word	0x00000000
    400001b8:	00001b20 	.word	0x00001b20
    400001bc:	00000000 	.word	0x00000000
    400001c0:	00001b20 	.word	0x00001b20
    400001c4:	00000000 	.word	0x00000000
    400001c8:	00001b20 	.word	0x00001b20
    400001cc:	00000000 	.word	0x00000000
    400001d0:	00001b20 	.word	0x00001b20
    400001d4:	00000000 	.word	0x00000000
    400001d8:	00001b20 	.word	0x00001b20
    400001dc:	00000000 	.word	0x00000000
    400001e0:	00001b20 	.word	0x00001b20
    400001e4:	00000000 	.word	0x00000000
    400001e8:	00005330 	.word	0x00005330
    400001ec:	00000000 	.word	0x00000000
    400001f0:	00001b20 	.word	0x00001b20
    400001f4:	00000000 	.word	0x00000000
    400001f8:	00001b20 	.word	0x00001b20
    400001fc:	00000000 	.word	0x00000000
    40000200:	00003d20 	.word	0x00003d20
    40000204:	00000000 	.word	0x00000000
    40000208:	00001b20 	.word	0x00001b20
    4000020c:	00000000 	.word	0x00000000
    40000210:	00001b20 	.word	0x00001b20
    40000214:	00000000 	.word	0x00000000
    40000218:	00001b20 	.word	0x00001b20
    4000021c:	00000000 	.word	0x00000000
    40000220:	00001b20 	.word	0x00001b20
    40000224:	00000000 	.word	0x00000000
    40000228:	00001b20 	.word	0x00001b20
    4000022c:	00000000 	.word	0x00000000
    40000230:	00001b20 	.word	0x00001b20
    40000234:	00000000 	.word	0x00000000
    40000238:	00001b20 	.word	0x00001b20
    4000023c:	00000000 	.word	0x00000000
    40000240:	00001b20 	.word	0x00001b20
    40000244:	00000000 	.word	0x00000000
    40000248:	00001b20 	.word	0x00001b20
    4000024c:	00000000 	.word	0x00000000
    40000250:	00001b20 	.word	0x00001b20
    40000254:	00000000 	.word	0x00000000
    40000258:	00001b20 	.word	0x00001b20
    4000025c:	00000000 	.word	0x00000000
    40000260:	00001b20 	.word	0x00001b20
    40000264:	00000000 	.word	0x00000000
    40000268:	00001b20 	.word	0x00001b20
    4000026c:	00000000 	.word	0x00000000
    40000270:	00001b20 	.word	0x00001b20
    40000274:	00000000 	.word	0x00000000
    40000278:	00001b20 	.word	0x00001b20
    4000027c:	00000000 	.word	0x00000000
    40000280:	00001b20 	.word	0x00001b20
    40000284:	00000000 	.word	0x00000000
    40000288:	00001b20 	.word	0x00001b20
    4000028c:	00000000 	.word	0x00000000
    40000290:	00001b20 	.word	0x00001b20
    40000294:	00000000 	.word	0x00000000
    40000298:	00001b20 	.word	0x00001b20
    4000029c:	00000000 	.word	0x00000000
    400002a0:	00001b20 	.word	0x00001b20
    400002a4:	00000000 	.word	0x00000000
    400002a8:	00001b20 	.word	0x00001b20
    400002ac:	00000000 	.word	0x00000000
    400002b0:	00001b20 	.word	0x00001b20
    400002b4:	00000000 	.word	0x00000000
    400002b8:	00001b20 	.word	0x00001b20
    400002bc:	00000000 	.word	0x00000000
    400002c0:	00001b20 	.word	0x00001b20
    400002c4:	00000000 	.word	0x00000000
    400002c8:	00001b20 	.word	0x00001b20
    400002cc:	00000000 	.word	0x00000000
    400002d0:	00001b20 	.word	0x00001b20
    400002d4:	00000000 	.word	0x00000000
    400002d8:	00001b20 	.word	0x00001b20
    400002dc:	00000000 	.word	0x00000000
    400002e0:	00001b20 	.word	0x00001b20
    400002e4:	00000000 	.word	0x00000000
    400002e8:	00001b20 	.word	0x00001b20
    400002ec:	00000000 	.word	0x00000000
    400002f0:	00001b20 	.word	0x00001b20
    400002f4:	00000000 	.word	0x00000000
    400002f8:	00001b20 	.word	0x00001b20
    400002fc:	00000000 	.word	0x00000000
    40000300:	00001b20 	.word	0x00001b20
    40000304:	00000000 	.word	0x00000000
    40000308:	00001b20 	.word	0x00001b20
    4000030c:	00000000 	.word	0x00000000
    40000310:	00001b20 	.word	0x00001b20
    40000314:	00000000 	.word	0x00000000
    40000318:	00001b20 	.word	0x00001b20
    4000031c:	00000000 	.word	0x00000000
    40000320:	00001b20 	.word	0x00001b20
    40000324:	00000000 	.word	0x00000000
    40000328:	00001b20 	.word	0x00001b20
    4000032c:	00000000 	.word	0x00000000
    40000330:	00001b20 	.word	0x00001b20
    40000334:	00000000 	.word	0x00000000
    40000338:	00001b20 	.word	0x00001b20
    4000033c:	00000000 	.word	0x00000000
    40000340:	00001b20 	.word	0x00001b20
    40000344:	00000000 	.word	0x00000000
    40000348:	00001b20 	.word	0x00001b20
    4000034c:	00000000 	.word	0x00000000
    40000350:	00001b20 	.word	0x00001b20
    40000354:	00000000 	.word	0x00000000
    40000358:	00001b20 	.word	0x00001b20
    4000035c:	00000000 	.word	0x00000000
    40000360:	00001b20 	.word	0x00001b20
    40000364:	00000000 	.word	0x00000000
    40000368:	00001b20 	.word	0x00001b20
    4000036c:	00000000 	.word	0x00000000
    40000370:	00001b20 	.word	0x00001b20
    40000374:	00000000 	.word	0x00000000
    40000378:	00001b20 	.word	0x00001b20
    4000037c:	00000000 	.word	0x00000000
    40000380:	00001b20 	.word	0x00001b20
    40000384:	00000000 	.word	0x00000000
    40000388:	00001b20 	.word	0x00001b20
    4000038c:	00000000 	.word	0x00000000
    40000390:	00001b20 	.word	0x00001b20
    40000394:	00000000 	.word	0x00000000
    40000398:	00001b20 	.word	0x00001b20
    4000039c:	00000000 	.word	0x00000000
    400003a0:	00001b20 	.word	0x00001b20
    400003a4:	00000000 	.word	0x00000000
    400003a8:	00001b20 	.word	0x00001b20
    400003ac:	00000000 	.word	0x00000000
    400003b0:	00001b20 	.word	0x00001b20
    400003b4:	00000000 	.word	0x00000000
    400003b8:	00001b20 	.word	0x00001b20
    400003bc:	00000000 	.word	0x00000000
    400003c0:	00001b20 	.word	0x00001b20
    400003c4:	00000000 	.word	0x00000000
    400003c8:	00001b20 	.word	0x00001b20
    400003cc:	00000000 	.word	0x00000000
    400003d0:	00001b20 	.word	0x00001b20
    400003d4:	00000000 	.word	0x00000000
    400003d8:	00001b20 	.word	0x00001b20
    400003dc:	00000000 	.word	0x00000000
    400003e0:	00001b20 	.word	0x00001b20
    400003e4:	00000000 	.word	0x00000000
    400003e8:	00001b20 	.word	0x00001b20
    400003ec:	00000000 	.word	0x00000000
    400003f0:	00001b20 	.word	0x00001b20
    400003f4:	00000000 	.word	0x00000000
    400003f8:	00001b20 	.word	0x00001b20
    400003fc:	00000000 	.word	0x00000000
    40000400:	00001b20 	.word	0x00001b20
    40000404:	00000000 	.word	0x00000000
    40000408:	00001b20 	.word	0x00001b20
    4000040c:	00000000 	.word	0x00000000
    40000410:	00001b20 	.word	0x00001b20
    40000414:	00000000 	.word	0x00000000
    40000418:	00001b20 	.word	0x00001b20
    4000041c:	00000000 	.word	0x00000000
    40000420:	00001b20 	.word	0x00001b20
    40000424:	00000000 	.word	0x00000000
    40000428:	00001b20 	.word	0x00001b20
    4000042c:	00000000 	.word	0x00000000
    40000430:	00001b20 	.word	0x00001b20
    40000434:	00000000 	.word	0x00000000
    40000438:	00001b20 	.word	0x00001b20
    4000043c:	00000000 	.word	0x00000000
    40000440:	00001b20 	.word	0x00001b20
    40000444:	00000000 	.word	0x00000000
    40000448:	00001b20 	.word	0x00001b20
    4000044c:	00000000 	.word	0x00000000
    40000450:	00001b20 	.word	0x00001b20
    40000454:	00000000 	.word	0x00000000
    40000458:	00001b20 	.word	0x00001b20
    4000045c:	00000000 	.word	0x00000000
    40000460:	00001b20 	.word	0x00001b20
    40000464:	00000000 	.word	0x00000000
    40000468:	00001b20 	.word	0x00001b20
    4000046c:	00000000 	.word	0x00000000
    40000470:	00001b20 	.word	0x00001b20
    40000474:	00000000 	.word	0x00000000
    40000478:	00001b20 	.word	0x00001b20
    4000047c:	00000000 	.word	0x00000000
    40000480:	00001b20 	.word	0x00001b20
    40000484:	00000000 	.word	0x00000000
    40000488:	00001b20 	.word	0x00001b20
    4000048c:	00000000 	.word	0x00000000
    40000490:	00001b20 	.word	0x00001b20
    40000494:	00000000 	.word	0x00000000
    40000498:	00001b20 	.word	0x00001b20
    4000049c:	00000000 	.word	0x00000000
    400004a0:	00001b20 	.word	0x00001b20
    400004a4:	00000000 	.word	0x00000000
    400004a8:	00001b20 	.word	0x00001b20
    400004ac:	00000000 	.word	0x00000000
    400004b0:	00001b20 	.word	0x00001b20
    400004b4:	00000000 	.word	0x00000000
    400004b8:	00001b20 	.word	0x00001b20
    400004bc:	00000000 	.word	0x00000000
    400004c0:	00001b20 	.word	0x00001b20
    400004c4:	00000000 	.word	0x00000000
    400004c8:	00001b20 	.word	0x00001b20
    400004cc:	00000000 	.word	0x00000000
    400004d0:	00001b20 	.word	0x00001b20
    400004d4:	00000000 	.word	0x00000000
    400004d8:	00001b20 	.word	0x00001b20
    400004dc:	00000000 	.word	0x00000000
    400004e0:	00001b20 	.word	0x00001b20
    400004e4:	00000000 	.word	0x00000000
    400004e8:	00001b20 	.word	0x00001b20
    400004ec:	00000000 	.word	0x00000000
    400004f0:	00001b20 	.word	0x00001b20
    400004f4:	00000000 	.word	0x00000000
    400004f8:	28525349 	.word	0x28525349
    400004fc:	656e6f6e 	.word	0x656e6f6e
    40000500:	00000029 	.word	0x00000029
    40000504:	00000000 	.word	0x00000000

0000000040000508 <_ctype_>:
    40000508:	20202000 	.word	0x20202000
    4000050c:	20202020 	.word	0x20202020
    40000510:	28282020 	.word	0x28282020
    40000514:	20282828 	.word	0x20282828
    40000518:	20202020 	.word	0x20202020
    4000051c:	20202020 	.word	0x20202020
    40000520:	20202020 	.word	0x20202020
    40000524:	20202020 	.word	0x20202020
    40000528:	10108820 	.word	0x10108820
    4000052c:	10101010 	.word	0x10101010
    40000530:	10101010 	.word	0x10101010
    40000534:	10101010 	.word	0x10101010
    40000538:	04040410 	.word	0x04040410
    4000053c:	04040404 	.word	0x04040404
    40000540:	10040404 	.word	0x10040404
    40000544:	10101010 	.word	0x10101010
    40000548:	41411010 	.word	0x41411010
    4000054c:	41414141 	.word	0x41414141
    40000550:	01010101 	.word	0x01010101
    40000554:	01010101 	.word	0x01010101
    40000558:	01010101 	.word	0x01010101
    4000055c:	01010101 	.word	0x01010101
    40000560:	01010101 	.word	0x01010101
    40000564:	10101010 	.word	0x10101010
    40000568:	42421010 	.word	0x42421010
    4000056c:	42424242 	.word	0x42424242
    40000570:	02020202 	.word	0x02020202
    40000574:	02020202 	.word	0x02020202
    40000578:	02020202 	.word	0x02020202
    4000057c:	02020202 	.word	0x02020202
    40000580:	02020202 	.word	0x02020202
    40000584:	10101010 	.word	0x10101010
    40000588:	00000020 	.word	0x00000020
	...
    40000610:	6d6f682f 	.word	0x6d6f682f
    40000614:	72652f65 	.word	0x72652f65
    40000618:	772f6b69 	.word	0x772f6b69
    4000061c:	736b726f 	.word	0x736b726f
    40000620:	65636170 	.word	0x65636170
    40000624:	6d69732f 	.word	0x6d69732f
    40000628:	732f6162 	.word	0x732f6162
    4000062c:	612f6372 	.word	0x612f6372
    40000630:	636f6c6c 	.word	0x636f6c6c
    40000634:	7269632f 	.word	0x7269632f
    40000638:	616c7563 	.word	0x616c7563
    4000063c:	65685f72 	.word	0x65685f72
    40000640:	632e7061 	.word	0x632e7061
    40000644:	3a38353a 	.word	0x3a38353a
    40000648:	53534120 	.word	0x53534120
    4000064c:	3a545245 	.word	0x3a545245
    40000650:	65732820 	.word	0x65732820
    40000654:	705f666c 	.word	0x705f666c
    40000658:	203d2120 	.word	0x203d2120
    4000065c:	6f762828 	.word	0x6f762828
    40000660:	2a206469 	.word	0x2a206469
    40000664:	2c293029 	.word	0x2c293029
    40000668:	29323220 	.word	0x29323220
    4000066c:	000a0d20 	.word	0x000a0d20
    40000670:	6d6f682f 	.word	0x6d6f682f
    40000674:	72652f65 	.word	0x72652f65
    40000678:	772f6b69 	.word	0x772f6b69
    4000067c:	736b726f 	.word	0x736b726f
    40000680:	65636170 	.word	0x65636170
    40000684:	6d69732f 	.word	0x6d69732f
    40000688:	732f6162 	.word	0x732f6162
    4000068c:	612f6372 	.word	0x612f6372
    40000690:	636f6c6c 	.word	0x636f6c6c
    40000694:	7269632f 	.word	0x7269632f
    40000698:	616c7563 	.word	0x616c7563
    4000069c:	65685f72 	.word	0x65685f72
    400006a0:	632e7061 	.word	0x632e7061
    400006a4:	3a39353a 	.word	0x3a39353a
    400006a8:	53534120 	.word	0x53534120
    400006ac:	3a545245 	.word	0x3a545245
    400006b0:	69732820 	.word	0x69732820
    400006b4:	3e20657a 	.word	0x3e20657a
    400006b8:	202c3020 	.word	0x202c3020
    400006bc:	20293232 	.word	0x20293232
    400006c0:	00000a0d 	.word	0x00000a0d
    400006c4:	00000000 	.word	0x00000000
    400006c8:	6d6f682f 	.word	0x6d6f682f
    400006cc:	72652f65 	.word	0x72652f65
    400006d0:	772f6b69 	.word	0x772f6b69
    400006d4:	736b726f 	.word	0x736b726f
    400006d8:	65636170 	.word	0x65636170
    400006dc:	6d69732f 	.word	0x6d69732f
    400006e0:	732f6162 	.word	0x732f6162
    400006e4:	612f6372 	.word	0x612f6372
    400006e8:	636f6c6c 	.word	0x636f6c6c
    400006ec:	7269632f 	.word	0x7269632f
    400006f0:	616c7563 	.word	0x616c7563
    400006f4:	65685f72 	.word	0x65685f72
    400006f8:	632e7061 	.word	0x632e7061
    400006fc:	3530313a 	.word	0x3530313a
    40000700:	5341203a 	.word	0x5341203a
    40000704:	54524553 	.word	0x54524553
    40000708:	7328203a 	.word	0x7328203a
    4000070c:	5f666c65 	.word	0x5f666c65
    40000710:	3d212070 	.word	0x3d212070
    40000714:	76282820 	.word	0x76282820
    40000718:	2064696f 	.word	0x2064696f
    4000071c:	2930292a 	.word	0x2930292a
    40000720:	3232202c 	.word	0x3232202c
    40000724:	0a0d2029 	.word	0x0a0d2029
	...
    40000730:	6d6f682f 	.word	0x6d6f682f
    40000734:	72652f65 	.word	0x72652f65
    40000738:	772f6b69 	.word	0x772f6b69
    4000073c:	736b726f 	.word	0x736b726f
    40000740:	65636170 	.word	0x65636170
    40000744:	6d69732f 	.word	0x6d69732f
    40000748:	732f6162 	.word	0x732f6162
    4000074c:	612f6372 	.word	0x612f6372
    40000750:	636f6c6c 	.word	0x636f6c6c
    40000754:	7269632f 	.word	0x7269632f
    40000758:	616c7563 	.word	0x616c7563
    4000075c:	65685f72 	.word	0x65685f72
    40000760:	632e7061 	.word	0x632e7061
    40000764:	3630313a 	.word	0x3630313a
    40000768:	5341203a 	.word	0x5341203a
    4000076c:	54524553 	.word	0x54524553
    40000770:	6228203a 	.word	0x6228203a
    40000774:	705f6675 	.word	0x705f6675
    40000778:	203d2120 	.word	0x203d2120
    4000077c:	6f762828 	.word	0x6f762828
    40000780:	2a206469 	.word	0x2a206469
    40000784:	2c293029 	.word	0x2c293029
    40000788:	29323220 	.word	0x29323220
    4000078c:	000a0d20 	.word	0x000a0d20
    40000790:	6d6f682f 	.word	0x6d6f682f
    40000794:	72652f65 	.word	0x72652f65
    40000798:	772f6b69 	.word	0x772f6b69
    4000079c:	736b726f 	.word	0x736b726f
    400007a0:	65636170 	.word	0x65636170
    400007a4:	6d69732f 	.word	0x6d69732f
    400007a8:	732f6162 	.word	0x732f6162
    400007ac:	612f6372 	.word	0x612f6372
    400007b0:	636f6c6c 	.word	0x636f6c6c
    400007b4:	7269632f 	.word	0x7269632f
    400007b8:	616c7563 	.word	0x616c7563
    400007bc:	65685f72 	.word	0x65685f72
    400007c0:	632e7061 	.word	0x632e7061
    400007c4:	3730313a 	.word	0x3730313a
    400007c8:	5341203a 	.word	0x5341203a
    400007cc:	54524553 	.word	0x54524553
    400007d0:	6228203a 	.word	0x6228203a
    400007d4:	705f6675 	.word	0x705f6675
    400007d8:	73203e20 	.word	0x73203e20
    400007dc:	5f666c65 	.word	0x5f666c65
    400007e0:	623e2d70 	.word	0x623e2d70
    400007e4:	6e696765 	.word	0x6e696765
    400007e8:	202c705f 	.word	0x202c705f
    400007ec:	20293232 	.word	0x20293232
    400007f0:	00000a0d 	.word	0x00000a0d
    400007f4:	00000000 	.word	0x00000000
    400007f8:	6d6f682f 	.word	0x6d6f682f
    400007fc:	72652f65 	.word	0x72652f65
    40000800:	772f6b69 	.word	0x772f6b69
    40000804:	736b726f 	.word	0x736b726f
    40000808:	65636170 	.word	0x65636170
    4000080c:	6d69732f 	.word	0x6d69732f
    40000810:	732f6162 	.word	0x732f6162
    40000814:	612f6372 	.word	0x612f6372
    40000818:	636f6c6c 	.word	0x636f6c6c
    4000081c:	7269632f 	.word	0x7269632f
    40000820:	616c7563 	.word	0x616c7563
    40000824:	65685f72 	.word	0x65685f72
    40000828:	632e7061 	.word	0x632e7061
    4000082c:	3830313a 	.word	0x3830313a
    40000830:	5341203a 	.word	0x5341203a
    40000834:	54524553 	.word	0x54524553
    40000838:	6228203a 	.word	0x6228203a
    4000083c:	705f6675 	.word	0x705f6675
    40000840:	73203c20 	.word	0x73203c20
    40000844:	5f666c65 	.word	0x5f666c65
    40000848:	653e2d70 	.word	0x653e2d70
    4000084c:	705f646e 	.word	0x705f646e
    40000850:	3232202c 	.word	0x3232202c
    40000854:	0a0d2029 	.word	0x0a0d2029
	...
    40000860:	6d6f682f 	.word	0x6d6f682f
    40000864:	72652f65 	.word	0x72652f65
    40000868:	772f6b69 	.word	0x772f6b69
    4000086c:	736b726f 	.word	0x736b726f
    40000870:	65636170 	.word	0x65636170
    40000874:	6d69732f 	.word	0x6d69732f
    40000878:	732f6162 	.word	0x732f6162
    4000087c:	612f6372 	.word	0x612f6372
    40000880:	636f6c6c 	.word	0x636f6c6c
    40000884:	7269632f 	.word	0x7269632f
    40000888:	616c7563 	.word	0x616c7563
    4000088c:	65685f72 	.word	0x65685f72
    40000890:	632e7061 	.word	0x632e7061
    40000894:	3631313a 	.word	0x3631313a
    40000898:	5341203a 	.word	0x5341203a
    4000089c:	54524553 	.word	0x54524553
    400008a0:	2828203a 	.word	0x2828203a
    400008a4:	64616568 	.word	0x64616568
    400008a8:	705f7265 	.word	0x705f7265
    400008ac:	203d3d20 	.word	0x203d3d20
    400008b0:	666c6573 	.word	0x666c6573
    400008b4:	3e2d705f 	.word	0x3e2d705f
    400008b8:	65657266 	.word	0x65657266
    400008bc:	2029705f 	.word	0x2029705f
    400008c0:	28207c7c 	.word	0x28207c7c
    400008c4:	64616568 	.word	0x64616568
    400008c8:	705f7265 	.word	0x705f7265
    400008cc:	203d3d20 	.word	0x203d3d20
    400008d0:	666c6573 	.word	0x666c6573
    400008d4:	3e2d705f 	.word	0x3e2d705f
    400008d8:	69676562 	.word	0x69676562
    400008dc:	29705f6e 	.word	0x29705f6e
    400008e0:	3232202c 	.word	0x3232202c
    400008e4:	0a0d2029 	.word	0x0a0d2029
	...
    400008f0:	6d6f682f 	.word	0x6d6f682f
    400008f4:	72652f65 	.word	0x72652f65
    400008f8:	772f6b69 	.word	0x772f6b69
    400008fc:	736b726f 	.word	0x736b726f
    40000900:	65636170 	.word	0x65636170
    40000904:	6d69732f 	.word	0x6d69732f
    40000908:	732f6162 	.word	0x732f6162
    4000090c:	612f6372 	.word	0x612f6372
    40000910:	636f6c6c 	.word	0x636f6c6c
    40000914:	7269632f 	.word	0x7269632f
    40000918:	616c7563 	.word	0x616c7563
    4000091c:	65685f72 	.word	0x65685f72
    40000920:	632e7061 	.word	0x632e7061
    40000924:	3a33343a 	.word	0x3a33343a
    40000928:	53534120 	.word	0x53534120
    4000092c:	3a545245 	.word	0x3a545245
    40000930:	65732820 	.word	0x65732820
    40000934:	705f666c 	.word	0x705f666c
    40000938:	203d2120 	.word	0x203d2120
    4000093c:	6f762828 	.word	0x6f762828
    40000940:	2a206469 	.word	0x2a206469
    40000944:	2c293029 	.word	0x2c293029
    40000948:	29323220 	.word	0x29323220
    4000094c:	000a0d20 	.word	0x000a0d20
    40000950:	6d6f682f 	.word	0x6d6f682f
    40000954:	72652f65 	.word	0x72652f65
    40000958:	772f6b69 	.word	0x772f6b69
    4000095c:	736b726f 	.word	0x736b726f
    40000960:	65636170 	.word	0x65636170
    40000964:	6d69732f 	.word	0x6d69732f
    40000968:	732f6162 	.word	0x732f6162
    4000096c:	612f6372 	.word	0x612f6372
    40000970:	636f6c6c 	.word	0x636f6c6c
    40000974:	7269632f 	.word	0x7269632f
    40000978:	616c7563 	.word	0x616c7563
    4000097c:	65685f72 	.word	0x65685f72
    40000980:	632e7061 	.word	0x632e7061
    40000984:	3a34343a 	.word	0x3a34343a
    40000988:	53534120 	.word	0x53534120
    4000098c:	3a545245 	.word	0x3a545245
    40000990:	75622820 	.word	0x75622820
    40000994:	20705f66 	.word	0x20705f66
    40000998:	28203d21 	.word	0x28203d21
    4000099c:	696f7628 	.word	0x696f7628
    400009a0:	292a2064 	.word	0x292a2064
    400009a4:	202c2930 	.word	0x202c2930
    400009a8:	20293232 	.word	0x20293232
    400009ac:	00000a0d 	.word	0x00000a0d
    400009b0:	6d6f682f 	.word	0x6d6f682f
    400009b4:	72652f65 	.word	0x72652f65
    400009b8:	772f6b69 	.word	0x772f6b69
    400009bc:	736b726f 	.word	0x736b726f
    400009c0:	65636170 	.word	0x65636170
    400009c4:	6d69732f 	.word	0x6d69732f
    400009c8:	732f6162 	.word	0x732f6162
    400009cc:	612f6372 	.word	0x612f6372
    400009d0:	636f6c6c 	.word	0x636f6c6c
    400009d4:	7269632f 	.word	0x7269632f
    400009d8:	616c7563 	.word	0x616c7563
    400009dc:	65685f72 	.word	0x65685f72
    400009e0:	632e7061 	.word	0x632e7061
    400009e4:	3a35343a 	.word	0x3a35343a
    400009e8:	53534120 	.word	0x53534120
    400009ec:	3a545245 	.word	0x3a545245
    400009f0:	69732820 	.word	0x69732820
    400009f4:	3e20657a 	.word	0x3e20657a
    400009f8:	202c3020 	.word	0x202c3020
    400009fc:	20293232 	.word	0x20293232
    40000a00:	00000a0d 	.word	0x00000a0d
    40000a04:	00000000 	.word	0x00000000
    40000a08:	6d6f682f 	.word	0x6d6f682f
    40000a0c:	72652f65 	.word	0x72652f65
    40000a10:	772f6b69 	.word	0x772f6b69
    40000a14:	736b726f 	.word	0x736b726f
    40000a18:	65636170 	.word	0x65636170
    40000a1c:	6d69732f 	.word	0x6d69732f
    40000a20:	732f6162 	.word	0x732f6162
    40000a24:	632f6372 	.word	0x632f6372
    40000a28:	656c6c6f 	.word	0x656c6c6f
    40000a2c:	6f697463 	.word	0x6f697463
    40000a30:	632f736e 	.word	0x632f736e
    40000a34:	75637269 	.word	0x75637269
    40000a38:	5f72616c 	.word	0x5f72616c
    40000a3c:	66667562 	.word	0x66667562
    40000a40:	632e7265 	.word	0x632e7265
    40000a44:	3a35333a 	.word	0x3a35333a
    40000a48:	53534120 	.word	0x53534120
    40000a4c:	3a545245 	.word	0x3a545245
    40000a50:	65732820 	.word	0x65732820
    40000a54:	705f666c 	.word	0x705f666c
    40000a58:	203d2120 	.word	0x203d2120
    40000a5c:	6f762828 	.word	0x6f762828
    40000a60:	2a206469 	.word	0x2a206469
    40000a64:	2c293029 	.word	0x2c293029
    40000a68:	29323220 	.word	0x29323220
    40000a6c:	000a0d20 	.word	0x000a0d20
    40000a70:	6d6f682f 	.word	0x6d6f682f
    40000a74:	72652f65 	.word	0x72652f65
    40000a78:	772f6b69 	.word	0x772f6b69
    40000a7c:	736b726f 	.word	0x736b726f
    40000a80:	65636170 	.word	0x65636170
    40000a84:	6d69732f 	.word	0x6d69732f
    40000a88:	732f6162 	.word	0x732f6162
    40000a8c:	632f6372 	.word	0x632f6372
    40000a90:	656c6c6f 	.word	0x656c6c6f
    40000a94:	6f697463 	.word	0x6f697463
    40000a98:	632f736e 	.word	0x632f736e
    40000a9c:	75637269 	.word	0x75637269
    40000aa0:	5f72616c 	.word	0x5f72616c
    40000aa4:	66667562 	.word	0x66667562
    40000aa8:	632e7265 	.word	0x632e7265
    40000aac:	3a36333a 	.word	0x3a36333a
    40000ab0:	53534120 	.word	0x53534120
    40000ab4:	3a545245 	.word	0x3a545245
    40000ab8:	75622820 	.word	0x75622820
    40000abc:	20705f66 	.word	0x20705f66
    40000ac0:	28203d21 	.word	0x28203d21
    40000ac4:	696f7628 	.word	0x696f7628
    40000ac8:	292a2064 	.word	0x292a2064
    40000acc:	202c2930 	.word	0x202c2930
    40000ad0:	20293232 	.word	0x20293232
    40000ad4:	00000a0d 	.word	0x00000a0d
    40000ad8:	6d6f682f 	.word	0x6d6f682f
    40000adc:	72652f65 	.word	0x72652f65
    40000ae0:	772f6b69 	.word	0x772f6b69
    40000ae4:	736b726f 	.word	0x736b726f
    40000ae8:	65636170 	.word	0x65636170
    40000aec:	6d69732f 	.word	0x6d69732f
    40000af0:	732f6162 	.word	0x732f6162
    40000af4:	632f6372 	.word	0x632f6372
    40000af8:	656c6c6f 	.word	0x656c6c6f
    40000afc:	6f697463 	.word	0x6f697463
    40000b00:	632f736e 	.word	0x632f736e
    40000b04:	75637269 	.word	0x75637269
    40000b08:	5f72616c 	.word	0x5f72616c
    40000b0c:	66667562 	.word	0x66667562
    40000b10:	632e7265 	.word	0x632e7265
    40000b14:	3a37333a 	.word	0x3a37333a
    40000b18:	53534120 	.word	0x53534120
    40000b1c:	3a545245 	.word	0x3a545245
    40000b20:	69732820 	.word	0x69732820
    40000b24:	3e20657a 	.word	0x3e20657a
    40000b28:	202c3020 	.word	0x202c3020
    40000b2c:	20293232 	.word	0x20293232
    40000b30:	00000a0d 	.word	0x00000a0d
    40000b34:	00000000 	.word	0x00000000
    40000b38:	6d6f682f 	.word	0x6d6f682f
    40000b3c:	72652f65 	.word	0x72652f65
    40000b40:	772f6b69 	.word	0x772f6b69
    40000b44:	736b726f 	.word	0x736b726f
    40000b48:	65636170 	.word	0x65636170
    40000b4c:	6d69732f 	.word	0x6d69732f
    40000b50:	732f6162 	.word	0x732f6162
    40000b54:	632f6372 	.word	0x632f6372
    40000b58:	656c6c6f 	.word	0x656c6c6f
    40000b5c:	6f697463 	.word	0x6f697463
    40000b60:	632f736e 	.word	0x632f736e
    40000b64:	75637269 	.word	0x75637269
    40000b68:	5f72616c 	.word	0x5f72616c
    40000b6c:	66667562 	.word	0x66667562
    40000b70:	632e7265 	.word	0x632e7265
    40000b74:	3a33383a 	.word	0x3a33383a
    40000b78:	53534120 	.word	0x53534120
    40000b7c:	3a545245 	.word	0x3a545245
    40000b80:	65732820 	.word	0x65732820
    40000b84:	705f666c 	.word	0x705f666c
    40000b88:	203d2120 	.word	0x203d2120
    40000b8c:	6f762828 	.word	0x6f762828
    40000b90:	2a206469 	.word	0x2a206469
    40000b94:	2c293029 	.word	0x2c293029
    40000b98:	29323220 	.word	0x29323220
    40000b9c:	000a0d20 	.word	0x000a0d20
    40000ba0:	6d6f682f 	.word	0x6d6f682f
    40000ba4:	72652f65 	.word	0x72652f65
    40000ba8:	772f6b69 	.word	0x772f6b69
    40000bac:	736b726f 	.word	0x736b726f
    40000bb0:	65636170 	.word	0x65636170
    40000bb4:	6d69732f 	.word	0x6d69732f
    40000bb8:	732f6162 	.word	0x732f6162
    40000bbc:	632f6372 	.word	0x632f6372
    40000bc0:	656c6c6f 	.word	0x656c6c6f
    40000bc4:	6f697463 	.word	0x6f697463
    40000bc8:	632f736e 	.word	0x632f736e
    40000bcc:	75637269 	.word	0x75637269
    40000bd0:	5f72616c 	.word	0x5f72616c
    40000bd4:	66667562 	.word	0x66667562
    40000bd8:	632e7265 	.word	0x632e7265
    40000bdc:	3a34383a 	.word	0x3a34383a
    40000be0:	53534120 	.word	0x53534120
    40000be4:	3a545245 	.word	0x3a545245
    40000be8:	75622820 	.word	0x75622820
    40000bec:	20705f66 	.word	0x20705f66
    40000bf0:	28203d21 	.word	0x28203d21
    40000bf4:	696f7628 	.word	0x696f7628
    40000bf8:	292a2064 	.word	0x292a2064
    40000bfc:	202c2930 	.word	0x202c2930
    40000c00:	20293232 	.word	0x20293232
    40000c04:	00000a0d 	.word	0x00000a0d
    40000c08:	6d6f682f 	.word	0x6d6f682f
    40000c0c:	72652f65 	.word	0x72652f65
    40000c10:	772f6b69 	.word	0x772f6b69
    40000c14:	736b726f 	.word	0x736b726f
    40000c18:	65636170 	.word	0x65636170
    40000c1c:	6d69732f 	.word	0x6d69732f
    40000c20:	732f6162 	.word	0x732f6162
    40000c24:	632f6372 	.word	0x632f6372
    40000c28:	656c6c6f 	.word	0x656c6c6f
    40000c2c:	6f697463 	.word	0x6f697463
    40000c30:	632f736e 	.word	0x632f736e
    40000c34:	75637269 	.word	0x75637269
    40000c38:	5f72616c 	.word	0x5f72616c
    40000c3c:	66667562 	.word	0x66667562
    40000c40:	632e7265 	.word	0x632e7265
    40000c44:	3032313a 	.word	0x3032313a
    40000c48:	5341203a 	.word	0x5341203a
    40000c4c:	54524553 	.word	0x54524553
    40000c50:	7328203a 	.word	0x7328203a
    40000c54:	5f666c65 	.word	0x5f666c65
    40000c58:	3d212070 	.word	0x3d212070
    40000c5c:	76282820 	.word	0x76282820
    40000c60:	2064696f 	.word	0x2064696f
    40000c64:	2930292a 	.word	0x2930292a
    40000c68:	3232202c 	.word	0x3232202c
    40000c6c:	0a0d2029 	.word	0x0a0d2029
	...
    40000c78:	6d6f682f 	.word	0x6d6f682f
    40000c7c:	72652f65 	.word	0x72652f65
    40000c80:	772f6b69 	.word	0x772f6b69
    40000c84:	736b726f 	.word	0x736b726f
    40000c88:	65636170 	.word	0x65636170
    40000c8c:	6d69732f 	.word	0x6d69732f
    40000c90:	732f6162 	.word	0x732f6162
    40000c94:	632f6372 	.word	0x632f6372
    40000c98:	656c6c6f 	.word	0x656c6c6f
    40000c9c:	6f697463 	.word	0x6f697463
    40000ca0:	632f736e 	.word	0x632f736e
    40000ca4:	75637269 	.word	0x75637269
    40000ca8:	5f72616c 	.word	0x5f72616c
    40000cac:	66667562 	.word	0x66667562
    40000cb0:	632e7265 	.word	0x632e7265
    40000cb4:	3331313a 	.word	0x3331313a
    40000cb8:	5341203a 	.word	0x5341203a
    40000cbc:	54524553 	.word	0x54524553
    40000cc0:	7328203a 	.word	0x7328203a
    40000cc4:	5f666c65 	.word	0x5f666c65
    40000cc8:	3d212070 	.word	0x3d212070
    40000ccc:	76282820 	.word	0x76282820
    40000cd0:	2064696f 	.word	0x2064696f
    40000cd4:	2930292a 	.word	0x2930292a
    40000cd8:	3232202c 	.word	0x3232202c
    40000cdc:	0a0d2029 	.word	0x0a0d2029
	...
    40000ce8:	6d6f682f 	.word	0x6d6f682f
    40000cec:	72652f65 	.word	0x72652f65
    40000cf0:	772f6b69 	.word	0x772f6b69
    40000cf4:	736b726f 	.word	0x736b726f
    40000cf8:	65636170 	.word	0x65636170
    40000cfc:	6d69732f 	.word	0x6d69732f
    40000d00:	732f6162 	.word	0x732f6162
    40000d04:	632f6372 	.word	0x632f6372
    40000d08:	656c6c6f 	.word	0x656c6c6f
    40000d0c:	6f697463 	.word	0x6f697463
    40000d10:	632f736e 	.word	0x632f736e
    40000d14:	75637269 	.word	0x75637269
    40000d18:	5f72616c 	.word	0x5f72616c
    40000d1c:	66667562 	.word	0x66667562
    40000d20:	632e7265 	.word	0x632e7265
    40000d24:	3a31353a 	.word	0x3a31353a
    40000d28:	53534120 	.word	0x53534120
    40000d2c:	3a545245 	.word	0x3a545245
    40000d30:	65732820 	.word	0x65732820
    40000d34:	705f666c 	.word	0x705f666c
    40000d38:	203d2120 	.word	0x203d2120
    40000d3c:	6f762828 	.word	0x6f762828
    40000d40:	2a206469 	.word	0x2a206469
    40000d44:	2c293029 	.word	0x2c293029
    40000d48:	29323220 	.word	0x29323220
    40000d4c:	000a0d20 	.word	0x000a0d20
    40000d50:	6d6f682f 	.word	0x6d6f682f
    40000d54:	72652f65 	.word	0x72652f65
    40000d58:	772f6b69 	.word	0x772f6b69
    40000d5c:	736b726f 	.word	0x736b726f
    40000d60:	65636170 	.word	0x65636170
    40000d64:	6d69732f 	.word	0x6d69732f
    40000d68:	732f6162 	.word	0x732f6162
    40000d6c:	632f6372 	.word	0x632f6372
    40000d70:	656c6c6f 	.word	0x656c6c6f
    40000d74:	6f697463 	.word	0x6f697463
    40000d78:	632f736e 	.word	0x632f736e
    40000d7c:	75637269 	.word	0x75637269
    40000d80:	5f72616c 	.word	0x5f72616c
    40000d84:	66667562 	.word	0x66667562
    40000d88:	632e7265 	.word	0x632e7265
    40000d8c:	3a32353a 	.word	0x3a32353a
    40000d90:	53534120 	.word	0x53534120
    40000d94:	3a545245 	.word	0x3a545245
    40000d98:	75622820 	.word	0x75622820
    40000d9c:	20705f66 	.word	0x20705f66
    40000da0:	28203d21 	.word	0x28203d21
    40000da4:	696f7628 	.word	0x696f7628
    40000da8:	292a2064 	.word	0x292a2064
    40000dac:	202c2930 	.word	0x202c2930
    40000db0:	20293232 	.word	0x20293232
    40000db4:	00000a0d 	.word	0x00000a0d
    40000db8:	67617355 	.word	0x67617355
    40000dbc:	6c203a65 	.word	0x6c203a65
    40000dc0:	0d747369 	.word	0x0d747369
    40000dc4:	0000000a 	.word	0x0000000a
    40000dc8:	454a424f 	.word	0x454a424f
    40000dcc:	4e2d5443 	.word	0x4e2d5443
    40000dd0:	20454d41 	.word	0x20454d41
    40000dd4:	20202020 	.word	0x20202020
    40000dd8:	414d2020 	.word	0x414d2020
    40000ddc:	0a0d4b53 	.word	0x0a0d4b53
	...
    40000de8:	36312d25 	.word	0x36312d25
    40000dec:	30202073 	.word	0x30202073
    40000df0:	32302578 	.word	0x32302578
    40000df4:	000a0d78 	.word	0x000a0d78
    40000df8:	67617355 	.word	0x67617355
    40000dfc:	70203a65 	.word	0x70203a65
    40000e00:	746e6972 	.word	0x746e6972
    40000e04:	74733c20 	.word	0x74733c20
    40000e08:	676e6972 	.word	0x676e6972
    40000e0c:	000a0d3e 	.word	0x000a0d3e
    40000e10:	0a0d7325 	.word	0x0a0d7325
    40000e14:	00000000 	.word	0x00000000
    40000e18:	67617355 	.word	0x67617355
    40000e1c:	73203a65 	.word	0x73203a65
    40000e20:	6c5f7465 	.word	0x6c5f7465
    40000e24:	6d5f676f 	.word	0x6d5f676f
    40000e28:	206b7361 	.word	0x206b7361
    40000e2c:	6a626f3c 	.word	0x6a626f3c
    40000e30:	3e746365 	.word	0x3e746365
    40000e34:	616d3c20 	.word	0x616d3c20
    40000e38:	0d3e6b73 	.word	0x0d3e6b73
    40000e3c:	0000000a 	.word	0x0000000a
    40000e40:	20646142 	.word	0x20646142
    40000e44:	6b73616d 	.word	0x6b73616d
    40000e48:	73252720 	.word	0x73252720
    40000e4c:	0a0d2e27 	.word	0x0a0d2e27
	...
    40000e58:	6c206f4e 	.word	0x6c206f4e
    40000e5c:	6f20676f 	.word	0x6f20676f
    40000e60:	63656a62 	.word	0x63656a62
    40000e64:	69772074 	.word	0x69772074
    40000e68:	6e206874 	.word	0x6e206874
    40000e6c:	20656d61 	.word	0x20656d61
    40000e70:	27732527 	.word	0x27732527
    40000e74:	000a0d2e 	.word	0x000a0d2e

0000000040000e78 <level_as_string>:
    40000e78:	40000eb0 	.word	0x40000eb0
    40000e7c:	00000000 	.word	0x00000000
    40000e80:	40000ea8 	.word	0x40000ea8
    40000e84:	00000000 	.word	0x00000000
    40000e88:	40000ec0 	.word	0x40000ec0
    40000e8c:	00000000 	.word	0x00000000
    40000e90:	40000eb8 	.word	0x40000eb8
    40000e94:	00000000 	.word	0x00000000
    40000e98:	40000ea0 	.word	0x40000ea0
    40000e9c:	00000000 	.word	0x00000000

0000000040000ea0 <level_debug>:
    40000ea0:	75626564 	.word	0x75626564
    40000ea4:	00000067 	.word	0x00000067

0000000040000ea8 <level_error>:
    40000ea8:	6f727265 	.word	0x6f727265
    40000eac:	00000072 	.word	0x00000072

0000000040000eb0 <level_fatal>:
    40000eb0:	61746166 	.word	0x61746166
    40000eb4:	0000006c 	.word	0x0000006c

0000000040000eb8 <level_info>:
    40000eb8:	6f666e69 	.word	0x6f666e69
    40000ebc:	00000000 	.word	0x00000000

0000000040000ec0 <level_warning>:
    40000ec0:	6e726177 	.word	0x6e726177
    40000ec4:	00676e69 	.word	0x00676e69
    40000ec8:	00676f6c 	.word	0x00676f6c
    40000ecc:	00000000 	.word	0x00000000
    40000ed0:	6265642f 	.word	0x6265642f
    40000ed4:	6c2f6775 	.word	0x6c2f6775
    40000ed8:	702f676f 	.word	0x702f676f
    40000edc:	746e6972 	.word	0x746e6972
	...
    40000ee8:	6265642f 	.word	0x6265642f
    40000eec:	6c2f6775 	.word	0x6c2f6775
    40000ef0:	6c2f676f 	.word	0x6c2f676f
    40000ef4:	00747369 	.word	0x00747369
    40000ef8:	6265642f 	.word	0x6265642f
    40000efc:	6c2f6775 	.word	0x6c2f6775
    40000f00:	732f676f 	.word	0x732f676f
    40000f04:	6c5f7465 	.word	0x6c5f7465
    40000f08:	6d5f676f 	.word	0x6d5f676f
    40000f0c:	006b7361 	.word	0x006b7361
    40000f10:	61666564 	.word	0x61666564
    40000f14:	00746c75 	.word	0x00746c75
    40000f18:	6d6f682f 	.word	0x6d6f682f
    40000f1c:	72652f65 	.word	0x72652f65
    40000f20:	772f6b69 	.word	0x772f6b69
    40000f24:	736b726f 	.word	0x736b726f
    40000f28:	65636170 	.word	0x65636170
    40000f2c:	6d69732f 	.word	0x6d69732f
    40000f30:	732f6162 	.word	0x732f6162
    40000f34:	642f6372 	.word	0x642f6372
    40000f38:	67756265 	.word	0x67756265
    40000f3c:	676f6c2f 	.word	0x676f6c2f
    40000f40:	333a632e 	.word	0x333a632e
    40000f44:	203a3037 	.word	0x203a3037
    40000f48:	45535341 	.word	0x45535341
    40000f4c:	203a5452 	.word	0x203a5452
    40000f50:	746d6628 	.word	0x746d6628
    40000f54:	2120705f 	.word	0x2120705f
    40000f58:	2828203d 	.word	0x2828203d
    40000f5c:	64696f76 	.word	0x64696f76
    40000f60:	30292a20 	.word	0x30292a20
    40000f64:	32202c29 	.word	0x32202c29
    40000f68:	0d202932 	.word	0x0d202932
    40000f6c:	0000000a 	.word	0x0000000a
    40000f70:	2e756c25 	.word	0x2e756c25
    40000f74:	6c333025 	.word	0x6c333025
    40000f78:	53253a75 	.word	0x53253a75
    40000f7c:	3a73253a 	.word	0x3a73253a
    40000f80:	203a7325 	.word	0x203a7325
    40000f84:	00000000 	.word	0x00000000
    40000f88:	67617355 	.word	0x67617355
    40000f8c:	72203a65 	.word	0x72203a65
    40000f90:	20646165 	.word	0x20646165
    40000f94:	6e69703c 	.word	0x6e69703c
    40000f98:	000a0d3e 	.word	0x000a0d3e
    40000f9c:	00000000 	.word	0x00000000
    40000fa0:	203a7325 	.word	0x203a7325
    40000fa4:	20646162 	.word	0x20646162
    40000fa8:	0d6e6970 	.word	0x0d6e6970
    40000fac:	0000000a 	.word	0x0000000a
    40000fb0:	0d776f6c 	.word	0x0d776f6c
    40000fb4:	0000000a 	.word	0x0000000a
    40000fb8:	67617355 	.word	0x67617355
    40000fbc:	73203a65 	.word	0x73203a65
    40000fc0:	6d5f7465 	.word	0x6d5f7465
    40000fc4:	2065646f 	.word	0x2065646f
    40000fc8:	6e69703c 	.word	0x6e69703c
    40000fcc:	6d3c203e 	.word	0x6d3c203e
    40000fd0:	3e65646f 	.word	0x3e65646f
    40000fd4:	00000a0d 	.word	0x00000a0d
    40000fd8:	7074756f 	.word	0x7074756f
    40000fdc:	00007475 	.word	0x00007475
    40000fe0:	7074756f 	.word	0x7074756f
    40000fe4:	6f5f7475 	.word	0x6f5f7475
    40000fe8:	5f6e6570 	.word	0x5f6e6570
    40000fec:	69617264 	.word	0x69617264
    40000ff0:	0000006e 	.word	0x0000006e
    40000ff4:	00000000 	.word	0x00000000
    40000ff8:	7074756f 	.word	0x7074756f
    40000ffc:	6f5f7475 	.word	0x6f5f7475
    40001000:	5f6e6570 	.word	0x5f6e6570
    40001004:	69617264 	.word	0x69617264
    40001008:	75705f6e 	.word	0x75705f6e
    4000100c:	755f6c6c 	.word	0x755f6c6c
    40001010:	00000070 	.word	0x00000070
    40001014:	00000000 	.word	0x00000000
    40001018:	75706e69 	.word	0x75706e69
    4000101c:	00000074 	.word	0x00000074
    40001020:	75706e69 	.word	0x75706e69
    40001024:	75705f74 	.word	0x75705f74
    40001028:	755f6c6c 	.word	0x755f6c6c
    4000102c:	00000070 	.word	0x00000070
    40001030:	75706e69 	.word	0x75706e69
    40001034:	75705f74 	.word	0x75705f74
    40001038:	645f6c6c 	.word	0x645f6c6c
    4000103c:	006e776f 	.word	0x006e776f
    40001040:	203a7325 	.word	0x203a7325
    40001044:	20646162 	.word	0x20646162
    40001048:	65646f6d 	.word	0x65646f6d
    4000104c:	00000a0d 	.word	0x00000a0d
    40001050:	67617355 	.word	0x67617355
    40001054:	77203a65 	.word	0x77203a65
    40001058:	65746972 	.word	0x65746972
    4000105c:	69703c20 	.word	0x69703c20
    40001060:	3c203e6e 	.word	0x3c203e6e
    40001064:	756c6176 	.word	0x756c6176
    40001068:	0a0d3e65 	.word	0x0a0d3e65
    4000106c:	00000000 	.word	0x00000000
    40001070:	68676968 	.word	0x68676968
    40001074:	00000000 	.word	0x00000000
    40001078:	00776f6c 	.word	0x00776f6c
    4000107c:	00000000 	.word	0x00000000
    40001080:	203a7325 	.word	0x203a7325
    40001084:	20646162 	.word	0x20646162
    40001088:	756c6176 	.word	0x756c6176
    4000108c:	000a0d65 	.word	0x000a0d65
    40001090:	6972642f 	.word	0x6972642f
    40001094:	73726576 	.word	0x73726576
    40001098:	6e69702f 	.word	0x6e69702f
    4000109c:	7465732f 	.word	0x7465732f
    400010a0:	646f6d5f 	.word	0x646f6d5f
    400010a4:	00000065 	.word	0x00000065
    400010a8:	6972642f 	.word	0x6972642f
    400010ac:	73726576 	.word	0x73726576
    400010b0:	6e69702f 	.word	0x6e69702f
    400010b4:	6165722f 	.word	0x6165722f
    400010b8:	00000064 	.word	0x00000064
    400010bc:	00000000 	.word	0x00000000
    400010c0:	6972642f 	.word	0x6972642f
    400010c4:	73726576 	.word	0x73726576
    400010c8:	6e69702f 	.word	0x6e69702f
    400010cc:	6972772f 	.word	0x6972772f
    400010d0:	00006574 	.word	0x00006574
    400010d4:	00000000 	.word	0x00000000
    400010d8:	6d6f682f 	.word	0x6d6f682f
    400010dc:	72652f65 	.word	0x72652f65
    400010e0:	772f6b69 	.word	0x772f6b69
    400010e4:	736b726f 	.word	0x736b726f
    400010e8:	65636170 	.word	0x65636170
    400010ec:	6d69732f 	.word	0x6d69732f
    400010f0:	732f6162 	.word	0x732f6162
    400010f4:	642f6372 	.word	0x642f6372
    400010f8:	65766972 	.word	0x65766972
    400010fc:	622f7372 	.word	0x622f7372
    40001100:	63697361 	.word	0x63697361
    40001104:	6e69702f 	.word	0x6e69702f
    40001108:	323a632e 	.word	0x323a632e
    4000110c:	203a3533 	.word	0x203a3533
    40001110:	45535341 	.word	0x45535341
    40001114:	203a5452 	.word	0x203a5452
    40001118:	6c657328 	.word	0x6c657328
    4000111c:	20705f66 	.word	0x20705f66
    40001120:	28203d21 	.word	0x28203d21
    40001124:	696f7628 	.word	0x696f7628
    40001128:	292a2064 	.word	0x292a2064
    4000112c:	202c2930 	.word	0x202c2930
    40001130:	20293232 	.word	0x20293232
    40001134:	00000a0d 	.word	0x00000a0d
    40001138:	6d6f682f 	.word	0x6d6f682f
    4000113c:	72652f65 	.word	0x72652f65
    40001140:	772f6b69 	.word	0x772f6b69
    40001144:	736b726f 	.word	0x736b726f
    40001148:	65636170 	.word	0x65636170
    4000114c:	6d69732f 	.word	0x6d69732f
    40001150:	732f6162 	.word	0x732f6162
    40001154:	642f6372 	.word	0x642f6372
    40001158:	65766972 	.word	0x65766972
    4000115c:	622f7372 	.word	0x622f7372
    40001160:	63697361 	.word	0x63697361
    40001164:	6e69702f 	.word	0x6e69702f
    40001168:	323a632e 	.word	0x323a632e
    4000116c:	203a3635 	.word	0x203a3635
    40001170:	45535341 	.word	0x45535341
    40001174:	203a5452 	.word	0x203a5452
    40001178:	6c657328 	.word	0x6c657328
    4000117c:	20705f66 	.word	0x20705f66
    40001180:	28203d21 	.word	0x28203d21
    40001184:	696f7628 	.word	0x696f7628
    40001188:	292a2064 	.word	0x292a2064
    4000118c:	202c2930 	.word	0x202c2930
    40001190:	20293232 	.word	0x20293232
    40001194:	00000a0d 	.word	0x00000a0d
    40001198:	6d6f682f 	.word	0x6d6f682f
    4000119c:	72652f65 	.word	0x72652f65
    400011a0:	772f6b69 	.word	0x772f6b69
    400011a4:	736b726f 	.word	0x736b726f
    400011a8:	65636170 	.word	0x65636170
    400011ac:	6d69732f 	.word	0x6d69732f
    400011b0:	732f6162 	.word	0x732f6162
    400011b4:	642f6372 	.word	0x642f6372
    400011b8:	65766972 	.word	0x65766972
    400011bc:	622f7372 	.word	0x622f7372
    400011c0:	63697361 	.word	0x63697361
    400011c4:	6e69702f 	.word	0x6e69702f
    400011c8:	323a632e 	.word	0x323a632e
    400011cc:	203a3234 	.word	0x203a3234
    400011d0:	45535341 	.word	0x45535341
    400011d4:	203a5452 	.word	0x203a5452
    400011d8:	6c657328 	.word	0x6c657328
    400011dc:	20705f66 	.word	0x20705f66
    400011e0:	28203d21 	.word	0x28203d21
    400011e4:	696f7628 	.word	0x696f7628
    400011e8:	292a2064 	.word	0x292a2064
    400011ec:	202c2930 	.word	0x202c2930
    400011f0:	20293232 	.word	0x20293232
    400011f4:	00000a0d 	.word	0x00000a0d
    400011f8:	67617355 	.word	0x67617355
    400011fc:	72203a65 	.word	0x72203a65
    40001200:	20646165 	.word	0x20646165
    40001204:	616c733c 	.word	0x616c733c
    40001208:	61206576 	.word	0x61206576
    4000120c:	65726464 	.word	0x65726464
    40001210:	0d3e7373 	.word	0x0d3e7373
    40001214:	0000000a 	.word	0x0000000a
    40001218:	20646142 	.word	0x20646142
    4000121c:	76616c73 	.word	0x76616c73
    40001220:	64612065 	.word	0x64612065
    40001224:	73657264 	.word	0x73657264
    40001228:	0a0d2e73 	.word	0x0a0d2e73
    4000122c:	00000000 	.word	0x00000000
    40001230:	6c696146 	.word	0x6c696146
    40001234:	74206465 	.word	0x74206465
    40001238:	6572206f 	.word	0x6572206f
    4000123c:	66206461 	.word	0x66206461
    40001240:	206d6f72 	.word	0x206d6f72
    40001244:	76616c73 	.word	0x76616c73
    40001248:	65642065 	.word	0x65642065
    4000124c:	65636976 	.word	0x65636976
    40001250:	25783020 	.word	0x25783020
    40001254:	2e783230 	.word	0x2e783230
    40001258:	00000a0d 	.word	0x00000a0d
    4000125c:	00000000 	.word	0x00000000
    40001260:	6e756f46 	.word	0x6e756f46
    40001264:	6c732064 	.word	0x6c732064
    40001268:	20657661 	.word	0x20657661
    4000126c:	69766564 	.word	0x69766564
    40001270:	77206563 	.word	0x77206563
    40001274:	20687469 	.word	0x20687469
    40001278:	72646461 	.word	0x72646461
    4000127c:	20737365 	.word	0x20737365
    40001280:	78257830 	.word	0x78257830
    40001284:	000a0d2e 	.word	0x000a0d2e
    40001288:	67617355 	.word	0x67617355
    4000128c:	77203a65 	.word	0x77203a65
    40001290:	65746972 	.word	0x65746972
    40001294:	6c733c20 	.word	0x6c733c20
    40001298:	20657661 	.word	0x20657661
    4000129c:	72646461 	.word	0x72646461
    400012a0:	3e737365 	.word	0x3e737365
    400012a4:	61643c20 	.word	0x61643c20
    400012a8:	62206174 	.word	0x62206174
    400012ac:	3e657479 	.word	0x3e657479
    400012b0:	00000a0d 	.word	0x00000a0d
    400012b4:	00000000 	.word	0x00000000
    400012b8:	20646142 	.word	0x20646142
    400012bc:	61746164 	.word	0x61746164
    400012c0:	6c617620 	.word	0x6c617620
    400012c4:	0d2e6575 	.word	0x0d2e6575
    400012c8:	0000000a 	.word	0x0000000a
    400012cc:	00000000 	.word	0x00000000
    400012d0:	61746144 	.word	0x61746144
    400012d4:	74796220 	.word	0x74796220
    400012d8:	61762065 	.word	0x61762065
    400012dc:	2065756c 	.word	0x2065756c
    400012e0:	2074756f 	.word	0x2074756f
    400012e4:	7220666f 	.word	0x7220666f
    400012e8:	65676e61 	.word	0x65676e61
    400012ec:	000a0d2e 	.word	0x000a0d2e
    400012f0:	6c696146 	.word	0x6c696146
    400012f4:	74206465 	.word	0x74206465
    400012f8:	7277206f 	.word	0x7277206f
    400012fc:	20657469 	.word	0x20657469
    40001300:	61746164 	.word	0x61746164
    40001304:	25783020 	.word	0x25783020
    40001308:	20783230 	.word	0x20783230
    4000130c:	73206f74 	.word	0x73206f74
    40001310:	6576616c 	.word	0x6576616c
    40001314:	76656420 	.word	0x76656420
    40001318:	20656369 	.word	0x20656369
    4000131c:	30257830 	.word	0x30257830
    40001320:	0d2e7832 	.word	0x0d2e7832
    40001324:	0000000a 	.word	0x0000000a
    40001328:	6d6f682f 	.word	0x6d6f682f
    4000132c:	72652f65 	.word	0x72652f65
    40001330:	772f6b69 	.word	0x772f6b69
    40001334:	736b726f 	.word	0x736b726f
    40001338:	65636170 	.word	0x65636170
    4000133c:	6d69732f 	.word	0x6d69732f
    40001340:	732f6162 	.word	0x732f6162
    40001344:	642f6372 	.word	0x642f6372
    40001348:	65766972 	.word	0x65766972
    4000134c:	6e2f7372 	.word	0x6e2f7372
    40001350:	6f777465 	.word	0x6f777465
    40001354:	692f6b72 	.word	0x692f6b72
    40001358:	632e6332 	.word	0x632e6332
    4000135c:	3133323a 	.word	0x3133323a
    40001360:	5341203a 	.word	0x5341203a
    40001364:	54524553 	.word	0x54524553
    40001368:	7328203a 	.word	0x7328203a
    4000136c:	5f666c65 	.word	0x5f666c65
    40001370:	3d212070 	.word	0x3d212070
    40001374:	76282820 	.word	0x76282820
    40001378:	2064696f 	.word	0x2064696f
    4000137c:	2930292a 	.word	0x2930292a
    40001380:	3232202c 	.word	0x3232202c
    40001384:	0a0d2029 	.word	0x0a0d2029
	...
    40001390:	6d6f682f 	.word	0x6d6f682f
    40001394:	72652f65 	.word	0x72652f65
    40001398:	772f6b69 	.word	0x772f6b69
    4000139c:	736b726f 	.word	0x736b726f
    400013a0:	65636170 	.word	0x65636170
    400013a4:	6d69732f 	.word	0x6d69732f
    400013a8:	732f6162 	.word	0x732f6162
    400013ac:	642f6372 	.word	0x642f6372
    400013b0:	65766972 	.word	0x65766972
    400013b4:	6e2f7372 	.word	0x6e2f7372
    400013b8:	6f777465 	.word	0x6f777465
    400013bc:	692f6b72 	.word	0x692f6b72
    400013c0:	632e6332 	.word	0x632e6332
    400013c4:	3233323a 	.word	0x3233323a
    400013c8:	5341203a 	.word	0x5341203a
    400013cc:	54524553 	.word	0x54524553
    400013d0:	6428203a 	.word	0x6428203a
    400013d4:	705f7665 	.word	0x705f7665
    400013d8:	203d2120 	.word	0x203d2120
    400013dc:	6f762828 	.word	0x6f762828
    400013e0:	2a206469 	.word	0x2a206469
    400013e4:	2c293029 	.word	0x2c293029
    400013e8:	29323220 	.word	0x29323220
    400013ec:	000a0d20 	.word	0x000a0d20
    400013f0:	6972642f 	.word	0x6972642f
    400013f4:	73726576 	.word	0x73726576
    400013f8:	6332692f 	.word	0x6332692f
    400013fc:	6165722f 	.word	0x6165722f
    40001400:	00000064 	.word	0x00000064
    40001404:	00000000 	.word	0x00000000
    40001408:	6972642f 	.word	0x6972642f
    4000140c:	73726576 	.word	0x73726576
    40001410:	6332692f 	.word	0x6332692f
    40001414:	6972772f 	.word	0x6972772f
    40001418:	00006574 	.word	0x00006574
    4000141c:	00000000 	.word	0x00000000
    40001420:	6972642f 	.word	0x6972642f
    40001424:	73726576 	.word	0x73726576
    40001428:	6332692f 	.word	0x6332692f
    4000142c:	6163732f 	.word	0x6163732f
    40001430:	0000006e 	.word	0x0000006e
    40001434:	00000000 	.word	0x00000000
    40001438:	6d6f682f 	.word	0x6d6f682f
    4000143c:	72652f65 	.word	0x72652f65
    40001440:	772f6b69 	.word	0x772f6b69
    40001444:	736b726f 	.word	0x736b726f
    40001448:	65636170 	.word	0x65636170
    4000144c:	6d69732f 	.word	0x6d69732f
    40001450:	732f6162 	.word	0x732f6162
    40001454:	642f6372 	.word	0x642f6372
    40001458:	65766972 	.word	0x65766972
    4000145c:	6e2f7372 	.word	0x6e2f7372
    40001460:	6f777465 	.word	0x6f777465
    40001464:	692f6b72 	.word	0x692f6b72
    40001468:	632e6332 	.word	0x632e6332
    4000146c:	3635323a 	.word	0x3635323a
    40001470:	5341203a 	.word	0x5341203a
    40001474:	54524553 	.word	0x54524553
    40001478:	7328203a 	.word	0x7328203a
    4000147c:	5f666c65 	.word	0x5f666c65
    40001480:	3d212070 	.word	0x3d212070
    40001484:	76282820 	.word	0x76282820
    40001488:	2064696f 	.word	0x2064696f
    4000148c:	2930292a 	.word	0x2930292a
    40001490:	3232202c 	.word	0x3232202c
    40001494:	0a0d2029 	.word	0x0a0d2029
	...
    400014a0:	6d6f682f 	.word	0x6d6f682f
    400014a4:	72652f65 	.word	0x72652f65
    400014a8:	772f6b69 	.word	0x772f6b69
    400014ac:	736b726f 	.word	0x736b726f
    400014b0:	65636170 	.word	0x65636170
    400014b4:	6d69732f 	.word	0x6d69732f
    400014b8:	732f6162 	.word	0x732f6162
    400014bc:	642f6372 	.word	0x642f6372
    400014c0:	65766972 	.word	0x65766972
    400014c4:	6e2f7372 	.word	0x6e2f7372
    400014c8:	6f777465 	.word	0x6f777465
    400014cc:	692f6b72 	.word	0x692f6b72
    400014d0:	632e6332 	.word	0x632e6332
    400014d4:	3735323a 	.word	0x3735323a
    400014d8:	5341203a 	.word	0x5341203a
    400014dc:	54524553 	.word	0x54524553
    400014e0:	6128203a 	.word	0x6128203a
    400014e4:	65726464 	.word	0x65726464
    400014e8:	3c207373 	.word	0x3c207373
    400014ec:	38323120 	.word	0x38323120
    400014f0:	3232202c 	.word	0x3232202c
    400014f4:	0a0d2029 	.word	0x0a0d2029
	...
    40001500:	6d6f682f 	.word	0x6d6f682f
    40001504:	72652f65 	.word	0x72652f65
    40001508:	772f6b69 	.word	0x772f6b69
    4000150c:	736b726f 	.word	0x736b726f
    40001510:	65636170 	.word	0x65636170
    40001514:	6d69732f 	.word	0x6d69732f
    40001518:	732f6162 	.word	0x732f6162
    4000151c:	642f6372 	.word	0x642f6372
    40001520:	65766972 	.word	0x65766972
    40001524:	6e2f7372 	.word	0x6e2f7372
    40001528:	6f777465 	.word	0x6f777465
    4000152c:	692f6b72 	.word	0x692f6b72
    40001530:	632e6332 	.word	0x632e6332
    40001534:	3835323a 	.word	0x3835323a
    40001538:	5341203a 	.word	0x5341203a
    4000153c:	54524553 	.word	0x54524553
    40001540:	6228203a 	.word	0x6228203a
    40001544:	705f6675 	.word	0x705f6675
    40001548:	203d2120 	.word	0x203d2120
    4000154c:	6f762828 	.word	0x6f762828
    40001550:	2a206469 	.word	0x2a206469
    40001554:	2c293029 	.word	0x2c293029
    40001558:	29323220 	.word	0x29323220
    4000155c:	000a0d20 	.word	0x000a0d20
    40001560:	6d6f682f 	.word	0x6d6f682f
    40001564:	72652f65 	.word	0x72652f65
    40001568:	772f6b69 	.word	0x772f6b69
    4000156c:	736b726f 	.word	0x736b726f
    40001570:	65636170 	.word	0x65636170
    40001574:	6d69732f 	.word	0x6d69732f
    40001578:	732f6162 	.word	0x732f6162
    4000157c:	642f6372 	.word	0x642f6372
    40001580:	65766972 	.word	0x65766972
    40001584:	6e2f7372 	.word	0x6e2f7372
    40001588:	6f777465 	.word	0x6f777465
    4000158c:	692f6b72 	.word	0x692f6b72
    40001590:	632e6332 	.word	0x632e6332
    40001594:	3935323a 	.word	0x3935323a
    40001598:	5341203a 	.word	0x5341203a
    4000159c:	54524553 	.word	0x54524553
    400015a0:	7328203a 	.word	0x7328203a
    400015a4:	20657a69 	.word	0x20657a69
    400015a8:	2c30203e 	.word	0x2c30203e
    400015ac:	29323220 	.word	0x29323220
    400015b0:	000a0d20 	.word	0x000a0d20
    400015b4:	00000000 	.word	0x00000000
    400015b8:	6d6f682f 	.word	0x6d6f682f
    400015bc:	72652f65 	.word	0x72652f65
    400015c0:	772f6b69 	.word	0x772f6b69
    400015c4:	736b726f 	.word	0x736b726f
    400015c8:	65636170 	.word	0x65636170
    400015cc:	6d69732f 	.word	0x6d69732f
    400015d0:	732f6162 	.word	0x732f6162
    400015d4:	642f6372 	.word	0x642f6372
    400015d8:	65766972 	.word	0x65766972
    400015dc:	6e2f7372 	.word	0x6e2f7372
    400015e0:	6f777465 	.word	0x6f777465
    400015e4:	692f6b72 	.word	0x692f6b72
    400015e8:	632e6332 	.word	0x632e6332
    400015ec:	3937323a 	.word	0x3937323a
    400015f0:	5341203a 	.word	0x5341203a
    400015f4:	54524553 	.word	0x54524553
    400015f8:	7328203a 	.word	0x7328203a
    400015fc:	5f666c65 	.word	0x5f666c65
    40001600:	3d212070 	.word	0x3d212070
    40001604:	76282820 	.word	0x76282820
    40001608:	2064696f 	.word	0x2064696f
    4000160c:	2930292a 	.word	0x2930292a
    40001610:	3232202c 	.word	0x3232202c
    40001614:	0a0d2029 	.word	0x0a0d2029
	...
    40001620:	6d6f682f 	.word	0x6d6f682f
    40001624:	72652f65 	.word	0x72652f65
    40001628:	772f6b69 	.word	0x772f6b69
    4000162c:	736b726f 	.word	0x736b726f
    40001630:	65636170 	.word	0x65636170
    40001634:	6d69732f 	.word	0x6d69732f
    40001638:	732f6162 	.word	0x732f6162
    4000163c:	642f6372 	.word	0x642f6372
    40001640:	65766972 	.word	0x65766972
    40001644:	6e2f7372 	.word	0x6e2f7372
    40001648:	6f777465 	.word	0x6f777465
    4000164c:	692f6b72 	.word	0x692f6b72
    40001650:	632e6332 	.word	0x632e6332
    40001654:	3038323a 	.word	0x3038323a
    40001658:	5341203a 	.word	0x5341203a
    4000165c:	54524553 	.word	0x54524553
    40001660:	6128203a 	.word	0x6128203a
    40001664:	65726464 	.word	0x65726464
    40001668:	3c207373 	.word	0x3c207373
    4000166c:	38323120 	.word	0x38323120
    40001670:	3232202c 	.word	0x3232202c
    40001674:	0a0d2029 	.word	0x0a0d2029
	...
    40001680:	6d6f682f 	.word	0x6d6f682f
    40001684:	72652f65 	.word	0x72652f65
    40001688:	772f6b69 	.word	0x772f6b69
    4000168c:	736b726f 	.word	0x736b726f
    40001690:	65636170 	.word	0x65636170
    40001694:	6d69732f 	.word	0x6d69732f
    40001698:	732f6162 	.word	0x732f6162
    4000169c:	642f6372 	.word	0x642f6372
    400016a0:	65766972 	.word	0x65766972
    400016a4:	6e2f7372 	.word	0x6e2f7372
    400016a8:	6f777465 	.word	0x6f777465
    400016ac:	692f6b72 	.word	0x692f6b72
    400016b0:	632e6332 	.word	0x632e6332
    400016b4:	3936323a 	.word	0x3936323a
    400016b8:	5341203a 	.word	0x5341203a
    400016bc:	54524553 	.word	0x54524553
    400016c0:	7328203a 	.word	0x7328203a
    400016c4:	5f666c65 	.word	0x5f666c65
    400016c8:	3d212070 	.word	0x3d212070
    400016cc:	76282820 	.word	0x76282820
    400016d0:	2064696f 	.word	0x2064696f
    400016d4:	2930292a 	.word	0x2930292a
    400016d8:	3232202c 	.word	0x3232202c
    400016dc:	0a0d2029 	.word	0x0a0d2029
	...
    400016e8:	6d6f682f 	.word	0x6d6f682f
    400016ec:	72652f65 	.word	0x72652f65
    400016f0:	772f6b69 	.word	0x772f6b69
    400016f4:	736b726f 	.word	0x736b726f
    400016f8:	65636170 	.word	0x65636170
    400016fc:	6d69732f 	.word	0x6d69732f
    40001700:	732f6162 	.word	0x732f6162
    40001704:	642f6372 	.word	0x642f6372
    40001708:	65766972 	.word	0x65766972
    4000170c:	6e2f7372 	.word	0x6e2f7372
    40001710:	6f777465 	.word	0x6f777465
    40001714:	692f6b72 	.word	0x692f6b72
    40001718:	632e6332 	.word	0x632e6332
    4000171c:	3037323a 	.word	0x3037323a
    40001720:	5341203a 	.word	0x5341203a
    40001724:	54524553 	.word	0x54524553
    40001728:	6128203a 	.word	0x6128203a
    4000172c:	65726464 	.word	0x65726464
    40001730:	3c207373 	.word	0x3c207373
    40001734:	38323120 	.word	0x38323120
    40001738:	3232202c 	.word	0x3232202c
    4000173c:	0a0d2029 	.word	0x0a0d2029
	...
    40001748:	6d6f682f 	.word	0x6d6f682f
    4000174c:	72652f65 	.word	0x72652f65
    40001750:	772f6b69 	.word	0x772f6b69
    40001754:	736b726f 	.word	0x736b726f
    40001758:	65636170 	.word	0x65636170
    4000175c:	6d69732f 	.word	0x6d69732f
    40001760:	732f6162 	.word	0x732f6162
    40001764:	642f6372 	.word	0x642f6372
    40001768:	65766972 	.word	0x65766972
    4000176c:	6e2f7372 	.word	0x6e2f7372
    40001770:	6f777465 	.word	0x6f777465
    40001774:	692f6b72 	.word	0x692f6b72
    40001778:	632e6332 	.word	0x632e6332
    4000177c:	3137323a 	.word	0x3137323a
    40001780:	5341203a 	.word	0x5341203a
    40001784:	54524553 	.word	0x54524553
    40001788:	6228203a 	.word	0x6228203a
    4000178c:	705f6675 	.word	0x705f6675
    40001790:	203d2120 	.word	0x203d2120
    40001794:	6f762828 	.word	0x6f762828
    40001798:	2a206469 	.word	0x2a206469
    4000179c:	2c293029 	.word	0x2c293029
    400017a0:	29323220 	.word	0x29323220
    400017a4:	000a0d20 	.word	0x000a0d20
    400017a8:	6d6f682f 	.word	0x6d6f682f
    400017ac:	72652f65 	.word	0x72652f65
    400017b0:	772f6b69 	.word	0x772f6b69
    400017b4:	736b726f 	.word	0x736b726f
    400017b8:	65636170 	.word	0x65636170
    400017bc:	6d69732f 	.word	0x6d69732f
    400017c0:	732f6162 	.word	0x732f6162
    400017c4:	642f6372 	.word	0x642f6372
    400017c8:	65766972 	.word	0x65766972
    400017cc:	6e2f7372 	.word	0x6e2f7372
    400017d0:	6f777465 	.word	0x6f777465
    400017d4:	692f6b72 	.word	0x692f6b72
    400017d8:	632e6332 	.word	0x632e6332
    400017dc:	3237323a 	.word	0x3237323a
    400017e0:	5341203a 	.word	0x5341203a
    400017e4:	54524553 	.word	0x54524553
    400017e8:	7328203a 	.word	0x7328203a
    400017ec:	20657a69 	.word	0x20657a69
    400017f0:	2c30203e 	.word	0x2c30203e
    400017f4:	29323220 	.word	0x29323220
    400017f8:	000a0d20 	.word	0x000a0d20
    400017fc:	00000000 	.word	0x00000000
    40001800:	6d6f682f 	.word	0x6d6f682f
    40001804:	72652f65 	.word	0x72652f65
    40001808:	772f6b69 	.word	0x772f6b69
    4000180c:	736b726f 	.word	0x736b726f
    40001810:	65636170 	.word	0x65636170
    40001814:	6d69732f 	.word	0x6d69732f
    40001818:	732f6162 	.word	0x732f6162
    4000181c:	642f6372 	.word	0x642f6372
    40001820:	65766972 	.word	0x65766972
    40001824:	6e2f7372 	.word	0x6e2f7372
    40001828:	6f777465 	.word	0x6f777465
    4000182c:	6f2f6b72 	.word	0x6f2f6b72
    40001830:	632e6977 	.word	0x632e6977
    40001834:	3336313a 	.word	0x3336313a
    40001838:	5341203a 	.word	0x5341203a
    4000183c:	54524553 	.word	0x54524553
    40001840:	7328203a 	.word	0x7328203a
    40001844:	5f666c65 	.word	0x5f666c65
    40001848:	3d212070 	.word	0x3d212070
    4000184c:	76282820 	.word	0x76282820
    40001850:	2064696f 	.word	0x2064696f
    40001854:	2930292a 	.word	0x2930292a
    40001858:	3232202c 	.word	0x3232202c
    4000185c:	0a0d2029 	.word	0x0a0d2029
	...
    40001868:	6d6f682f 	.word	0x6d6f682f
    4000186c:	72652f65 	.word	0x72652f65
    40001870:	772f6b69 	.word	0x772f6b69
    40001874:	736b726f 	.word	0x736b726f
    40001878:	65636170 	.word	0x65636170
    4000187c:	6d69732f 	.word	0x6d69732f
    40001880:	732f6162 	.word	0x732f6162
    40001884:	642f6372 	.word	0x642f6372
    40001888:	65766972 	.word	0x65766972
    4000188c:	6e2f7372 	.word	0x6e2f7372
    40001890:	6f777465 	.word	0x6f777465
    40001894:	6f2f6b72 	.word	0x6f2f6b72
    40001898:	632e6977 	.word	0x632e6977
    4000189c:	3436313a 	.word	0x3436313a
    400018a0:	5341203a 	.word	0x5341203a
    400018a4:	54524553 	.word	0x54524553
    400018a8:	6228203a 	.word	0x6228203a
    400018ac:	705f6675 	.word	0x705f6675
    400018b0:	203d2120 	.word	0x203d2120
    400018b4:	6f762828 	.word	0x6f762828
    400018b8:	2a206469 	.word	0x2a206469
    400018bc:	2c293029 	.word	0x2c293029
    400018c0:	29323220 	.word	0x29323220
    400018c4:	000a0d20 	.word	0x000a0d20
    400018c8:	6d6f682f 	.word	0x6d6f682f
    400018cc:	72652f65 	.word	0x72652f65
    400018d0:	772f6b69 	.word	0x772f6b69
    400018d4:	736b726f 	.word	0x736b726f
    400018d8:	65636170 	.word	0x65636170
    400018dc:	6d69732f 	.word	0x6d69732f
    400018e0:	732f6162 	.word	0x732f6162
    400018e4:	642f6372 	.word	0x642f6372
    400018e8:	65766972 	.word	0x65766972
    400018ec:	6e2f7372 	.word	0x6e2f7372
    400018f0:	6f777465 	.word	0x6f777465
    400018f4:	6f2f6b72 	.word	0x6f2f6b72
    400018f8:	632e6977 	.word	0x632e6977
    400018fc:	3536313a 	.word	0x3536313a
    40001900:	5341203a 	.word	0x5341203a
    40001904:	54524553 	.word	0x54524553
    40001908:	7328203a 	.word	0x7328203a
    4000190c:	20657a69 	.word	0x20657a69
    40001910:	2c30203e 	.word	0x2c30203e
    40001914:	29323220 	.word	0x29323220
    40001918:	000a0d20 	.word	0x000a0d20
    4000191c:	00000000 	.word	0x00000000
    40001920:	6d6f682f 	.word	0x6d6f682f
    40001924:	72652f65 	.word	0x72652f65
    40001928:	772f6b69 	.word	0x772f6b69
    4000192c:	736b726f 	.word	0x736b726f
    40001930:	65636170 	.word	0x65636170
    40001934:	6d69732f 	.word	0x6d69732f
    40001938:	732f6162 	.word	0x732f6162
    4000193c:	642f6372 	.word	0x642f6372
    40001940:	65766972 	.word	0x65766972
    40001944:	6e2f7372 	.word	0x6e2f7372
    40001948:	6f777465 	.word	0x6f777465
    4000194c:	6f2f6b72 	.word	0x6f2f6b72
    40001950:	632e6977 	.word	0x632e6977
    40001954:	3a34353a 	.word	0x3a34353a
    40001958:	53534120 	.word	0x53534120
    4000195c:	3a545245 	.word	0x3a545245
    40001960:	65732820 	.word	0x65732820
    40001964:	705f666c 	.word	0x705f666c
    40001968:	203d2120 	.word	0x203d2120
    4000196c:	6f762828 	.word	0x6f762828
    40001970:	2a206469 	.word	0x2a206469
    40001974:	2c293029 	.word	0x2c293029
    40001978:	29323220 	.word	0x29323220
    4000197c:	000a0d20 	.word	0x000a0d20
    40001980:	6d6f682f 	.word	0x6d6f682f
    40001984:	72652f65 	.word	0x72652f65
    40001988:	772f6b69 	.word	0x772f6b69
    4000198c:	736b726f 	.word	0x736b726f
    40001990:	65636170 	.word	0x65636170
    40001994:	6d69732f 	.word	0x6d69732f
    40001998:	732f6162 	.word	0x732f6162
    4000199c:	642f6372 	.word	0x642f6372
    400019a0:	65766972 	.word	0x65766972
    400019a4:	6e2f7372 	.word	0x6e2f7372
    400019a8:	6f777465 	.word	0x6f777465
    400019ac:	6f2f6b72 	.word	0x6f2f6b72
    400019b0:	632e6977 	.word	0x632e6977
    400019b4:	3a37373a 	.word	0x3a37373a
    400019b8:	53534120 	.word	0x53534120
    400019bc:	3a545245 	.word	0x3a545245
    400019c0:	65732820 	.word	0x65732820
    400019c4:	705f666c 	.word	0x705f666c
    400019c8:	203d2120 	.word	0x203d2120
    400019cc:	6f762828 	.word	0x6f762828
    400019d0:	2a206469 	.word	0x2a206469
    400019d4:	2c293029 	.word	0x2c293029
    400019d8:	29323220 	.word	0x29323220
    400019dc:	000a0d20 	.word	0x000a0d20
    400019e0:	6d6f682f 	.word	0x6d6f682f
    400019e4:	72652f65 	.word	0x72652f65
    400019e8:	772f6b69 	.word	0x772f6b69
    400019ec:	736b726f 	.word	0x736b726f
    400019f0:	65636170 	.word	0x65636170
    400019f4:	6d69732f 	.word	0x6d69732f
    400019f8:	732f6162 	.word	0x732f6162
    400019fc:	642f6372 	.word	0x642f6372
    40001a00:	65766972 	.word	0x65766972
    40001a04:	6e2f7372 	.word	0x6e2f7372
    40001a08:	6f777465 	.word	0x6f777465
    40001a0c:	6f2f6b72 	.word	0x6f2f6b72
    40001a10:	632e6977 	.word	0x632e6977
    40001a14:	3030323a 	.word	0x3030323a
    40001a18:	5341203a 	.word	0x5341203a
    40001a1c:	54524553 	.word	0x54524553
    40001a20:	7328203a 	.word	0x7328203a
    40001a24:	5f666c65 	.word	0x5f666c65
    40001a28:	3d212070 	.word	0x3d212070
    40001a2c:	76282820 	.word	0x76282820
    40001a30:	2064696f 	.word	0x2064696f
    40001a34:	2930292a 	.word	0x2930292a
    40001a38:	3232202c 	.word	0x3232202c
    40001a3c:	0a0d2029 	.word	0x0a0d2029
	...
    40001a48:	6d6f682f 	.word	0x6d6f682f
    40001a4c:	72652f65 	.word	0x72652f65
    40001a50:	772f6b69 	.word	0x772f6b69
    40001a54:	736b726f 	.word	0x736b726f
    40001a58:	65636170 	.word	0x65636170
    40001a5c:	6d69732f 	.word	0x6d69732f
    40001a60:	732f6162 	.word	0x732f6162
    40001a64:	642f6372 	.word	0x642f6372
    40001a68:	65766972 	.word	0x65766972
    40001a6c:	6e2f7372 	.word	0x6e2f7372
    40001a70:	6f777465 	.word	0x6f777465
    40001a74:	6f2f6b72 	.word	0x6f2f6b72
    40001a78:	632e6977 	.word	0x632e6977
    40001a7c:	3130323a 	.word	0x3130323a
    40001a80:	5341203a 	.word	0x5341203a
    40001a84:	54524553 	.word	0x54524553
    40001a88:	6228203a 	.word	0x6228203a
    40001a8c:	705f6675 	.word	0x705f6675
    40001a90:	203d2120 	.word	0x203d2120
    40001a94:	6f762828 	.word	0x6f762828
    40001a98:	2a206469 	.word	0x2a206469
    40001a9c:	2c293029 	.word	0x2c293029
    40001aa0:	29323220 	.word	0x29323220
    40001aa4:	000a0d20 	.word	0x000a0d20
    40001aa8:	6d6f682f 	.word	0x6d6f682f
    40001aac:	72652f65 	.word	0x72652f65
    40001ab0:	772f6b69 	.word	0x772f6b69
    40001ab4:	736b726f 	.word	0x736b726f
    40001ab8:	65636170 	.word	0x65636170
    40001abc:	6d69732f 	.word	0x6d69732f
    40001ac0:	732f6162 	.word	0x732f6162
    40001ac4:	642f6372 	.word	0x642f6372
    40001ac8:	65766972 	.word	0x65766972
    40001acc:	6e2f7372 	.word	0x6e2f7372
    40001ad0:	6f777465 	.word	0x6f777465
    40001ad4:	6f2f6b72 	.word	0x6f2f6b72
    40001ad8:	632e6977 	.word	0x632e6977
    40001adc:	3230323a 	.word	0x3230323a
    40001ae0:	5341203a 	.word	0x5341203a
    40001ae4:	54524553 	.word	0x54524553
    40001ae8:	7328203a 	.word	0x7328203a
    40001aec:	20657a69 	.word	0x20657a69
    40001af0:	2c30203e 	.word	0x2c30203e
    40001af4:	29323220 	.word	0x29323220
    40001af8:	000a0d20 	.word	0x000a0d20
    40001afc:	00000000 	.word	0x00000000
    40001b00:	6d6f682f 	.word	0x6d6f682f
    40001b04:	72652f65 	.word	0x72652f65
    40001b08:	772f6b69 	.word	0x772f6b69
    40001b0c:	736b726f 	.word	0x736b726f
    40001b10:	65636170 	.word	0x65636170
    40001b14:	6d69732f 	.word	0x6d69732f
    40001b18:	732f6162 	.word	0x732f6162
    40001b1c:	642f6372 	.word	0x642f6372
    40001b20:	65766972 	.word	0x65766972
    40001b24:	6e2f7372 	.word	0x6e2f7372
    40001b28:	6f777465 	.word	0x6f777465
    40001b2c:	752f6b72 	.word	0x752f6b72
    40001b30:	2e747261 	.word	0x2e747261
    40001b34:	39353a63 	.word	0x39353a63
    40001b38:	5341203a 	.word	0x5341203a
    40001b3c:	54524553 	.word	0x54524553
    40001b40:	7328203a 	.word	0x7328203a
    40001b44:	5f666c65 	.word	0x5f666c65
    40001b48:	3d212070 	.word	0x3d212070
    40001b4c:	76282820 	.word	0x76282820
    40001b50:	2064696f 	.word	0x2064696f
    40001b54:	2930292a 	.word	0x2930292a
    40001b58:	3232202c 	.word	0x3232202c
    40001b5c:	0a0d2029 	.word	0x0a0d2029
	...
    40001b68:	6d6f682f 	.word	0x6d6f682f
    40001b6c:	72652f65 	.word	0x72652f65
    40001b70:	772f6b69 	.word	0x772f6b69
    40001b74:	736b726f 	.word	0x736b726f
    40001b78:	65636170 	.word	0x65636170
    40001b7c:	6d69732f 	.word	0x6d69732f
    40001b80:	732f6162 	.word	0x732f6162
    40001b84:	642f6372 	.word	0x642f6372
    40001b88:	65766972 	.word	0x65766972
    40001b8c:	6e2f7372 	.word	0x6e2f7372
    40001b90:	6f777465 	.word	0x6f777465
    40001b94:	752f6b72 	.word	0x752f6b72
    40001b98:	2e747261 	.word	0x2e747261
    40001b9c:	30363a63 	.word	0x30363a63
    40001ba0:	5341203a 	.word	0x5341203a
    40001ba4:	54524553 	.word	0x54524553
    40001ba8:	6428203a 	.word	0x6428203a
    40001bac:	705f7665 	.word	0x705f7665
    40001bb0:	203d2120 	.word	0x203d2120
    40001bb4:	6f762828 	.word	0x6f762828
    40001bb8:	2a206469 	.word	0x2a206469
    40001bbc:	2c293029 	.word	0x2c293029
    40001bc0:	29323220 	.word	0x29323220
    40001bc4:	000a0d20 	.word	0x000a0d20
    40001bc8:	6d6f682f 	.word	0x6d6f682f
    40001bcc:	72652f65 	.word	0x72652f65
    40001bd0:	772f6b69 	.word	0x772f6b69
    40001bd4:	736b726f 	.word	0x736b726f
    40001bd8:	65636170 	.word	0x65636170
    40001bdc:	6d69732f 	.word	0x6d69732f
    40001be0:	732f6162 	.word	0x732f6162
    40001be4:	642f6372 	.word	0x642f6372
    40001be8:	65766972 	.word	0x65766972
    40001bec:	6e2f7372 	.word	0x6e2f7372
    40001bf0:	6f777465 	.word	0x6f777465
    40001bf4:	752f6b72 	.word	0x752f6b72
    40001bf8:	2e747261 	.word	0x2e747261
    40001bfc:	38373a63 	.word	0x38373a63
    40001c00:	5341203a 	.word	0x5341203a
    40001c04:	54524553 	.word	0x54524553
    40001c08:	7328203a 	.word	0x7328203a
    40001c0c:	5f666c65 	.word	0x5f666c65
    40001c10:	3d212070 	.word	0x3d212070
    40001c14:	76282820 	.word	0x76282820
    40001c18:	2064696f 	.word	0x2064696f
    40001c1c:	2930292a 	.word	0x2930292a
    40001c20:	3232202c 	.word	0x3232202c
    40001c24:	0a0d2029 	.word	0x0a0d2029
	...
    40001c30:	20202020 	.word	0x20202020
    40001c34:	20202020 	.word	0x20202020
    40001c38:	20202020 	.word	0x20202020
    40001c3c:	44492020 	.word	0x44492020
    40001c40:	20202020 	.word	0x20202020
    40001c44:	45542020 	.word	0x45542020
    40001c48:	0a0d504d 	.word	0x0a0d504d
    40001c4c:	00000000 	.word	0x00000000
    40001c50:	78323025 	.word	0x78323025
    40001c54:	78323025 	.word	0x78323025
    40001c58:	78323025 	.word	0x78323025
    40001c5c:	78323025 	.word	0x78323025
    40001c60:	78323025 	.word	0x78323025
    40001c64:	78323025 	.word	0x78323025
    40001c68:	78323025 	.word	0x78323025
    40001c6c:	78323025 	.word	0x78323025
    40001c70:	73392520 	.word	0x73392520
    40001c74:	00000a0d 	.word	0x00000a0d
    40001c78:	6d6f682f 	.word	0x6d6f682f
    40001c7c:	72652f65 	.word	0x72652f65
    40001c80:	772f6b69 	.word	0x772f6b69
    40001c84:	736b726f 	.word	0x736b726f
    40001c88:	65636170 	.word	0x65636170
    40001c8c:	6d69732f 	.word	0x6d69732f
    40001c90:	732f6162 	.word	0x732f6162
    40001c94:	642f6372 	.word	0x642f6372
    40001c98:	65766972 	.word	0x65766972
    40001c9c:	732f7372 	.word	0x732f7372
    40001ca0:	6f736e65 	.word	0x6f736e65
    40001ca4:	642f7372 	.word	0x642f7372
    40001ca8:	62383173 	.word	0x62383173
    40001cac:	632e3032 	.word	0x632e3032
    40001cb0:	3537313a 	.word	0x3537313a
    40001cb4:	5341203a 	.word	0x5341203a
    40001cb8:	54524553 	.word	0x54524553
    40001cbc:	7328203a 	.word	0x7328203a
    40001cc0:	5f666c65 	.word	0x5f666c65
    40001cc4:	3d212070 	.word	0x3d212070
    40001cc8:	76282820 	.word	0x76282820
    40001ccc:	2064696f 	.word	0x2064696f
    40001cd0:	2930292a 	.word	0x2930292a
    40001cd4:	3232202c 	.word	0x3232202c
    40001cd8:	0a0d2029 	.word	0x0a0d2029
    40001cdc:	00000000 	.word	0x00000000
    40001ce0:	6972642f 	.word	0x6972642f
    40001ce4:	73726576 	.word	0x73726576
    40001ce8:	3173642f 	.word	0x3173642f
    40001cec:	30326238 	.word	0x30326238
    40001cf0:	73696c2f 	.word	0x73696c2f
    40001cf4:	00000074 	.word	0x00000074
    40001cf8:	6d6f682f 	.word	0x6d6f682f
    40001cfc:	72652f65 	.word	0x72652f65
    40001d00:	772f6b69 	.word	0x772f6b69
    40001d04:	736b726f 	.word	0x736b726f
    40001d08:	65636170 	.word	0x65636170
    40001d0c:	6d69732f 	.word	0x6d69732f
    40001d10:	732f6162 	.word	0x732f6162
    40001d14:	642f6372 	.word	0x642f6372
    40001d18:	65766972 	.word	0x65766972
    40001d1c:	732f7372 	.word	0x732f7372
    40001d20:	6f736e65 	.word	0x6f736e65
    40001d24:	642f7372 	.word	0x642f7372
    40001d28:	62383173 	.word	0x62383173
    40001d2c:	632e3032 	.word	0x632e3032
    40001d30:	3931323a 	.word	0x3931323a
    40001d34:	5341203a 	.word	0x5341203a
    40001d38:	54524553 	.word	0x54524553
    40001d3c:	7328203a 	.word	0x7328203a
    40001d40:	5f666c65 	.word	0x5f666c65
    40001d44:	3d212070 	.word	0x3d212070
    40001d48:	76282820 	.word	0x76282820
    40001d4c:	2064696f 	.word	0x2064696f
    40001d50:	2930292a 	.word	0x2930292a
    40001d54:	3232202c 	.word	0x3232202c
    40001d58:	0a0d2029 	.word	0x0a0d2029
    40001d5c:	00000000 	.word	0x00000000
    40001d60:	6d6f682f 	.word	0x6d6f682f
    40001d64:	72652f65 	.word	0x72652f65
    40001d68:	772f6b69 	.word	0x772f6b69
    40001d6c:	736b726f 	.word	0x736b726f
    40001d70:	65636170 	.word	0x65636170
    40001d74:	6d69732f 	.word	0x6d69732f
    40001d78:	732f6162 	.word	0x732f6162
    40001d7c:	642f6372 	.word	0x642f6372
    40001d80:	65766972 	.word	0x65766972
    40001d84:	732f7372 	.word	0x732f7372
    40001d88:	6f736e65 	.word	0x6f736e65
    40001d8c:	642f7372 	.word	0x642f7372
    40001d90:	62383173 	.word	0x62383173
    40001d94:	632e3032 	.word	0x632e3032
    40001d98:	3032323a 	.word	0x3032323a
    40001d9c:	5341203a 	.word	0x5341203a
    40001da0:	54524553 	.word	0x54524553
    40001da4:	6928203a 	.word	0x6928203a
    40001da8:	20705f64 	.word	0x20705f64
    40001dac:	28203d21 	.word	0x28203d21
    40001db0:	696f7628 	.word	0x696f7628
    40001db4:	292a2064 	.word	0x292a2064
    40001db8:	202c2930 	.word	0x202c2930
    40001dbc:	20293232 	.word	0x20293232
    40001dc0:	00000a0d 	.word	0x00000a0d
    40001dc4:	00000000 	.word	0x00000000
    40001dc8:	6d6f682f 	.word	0x6d6f682f
    40001dcc:	72652f65 	.word	0x72652f65
    40001dd0:	772f6b69 	.word	0x772f6b69
    40001dd4:	736b726f 	.word	0x736b726f
    40001dd8:	65636170 	.word	0x65636170
    40001ddc:	6d69732f 	.word	0x6d69732f
    40001de0:	732f6162 	.word	0x732f6162
    40001de4:	642f6372 	.word	0x642f6372
    40001de8:	65766972 	.word	0x65766972
    40001dec:	732f7372 	.word	0x732f7372
    40001df0:	6f736e65 	.word	0x6f736e65
    40001df4:	642f7372 	.word	0x642f7372
    40001df8:	62383173 	.word	0x62383173
    40001dfc:	632e3032 	.word	0x632e3032
    40001e00:	3132323a 	.word	0x3132323a
    40001e04:	5341203a 	.word	0x5341203a
    40001e08:	54524553 	.word	0x54524553
    40001e0c:	7428203a 	.word	0x7428203a
    40001e10:	65706d65 	.word	0x65706d65
    40001e14:	75746172 	.word	0x75746172
    40001e18:	705f6572 	.word	0x705f6572
    40001e1c:	203d2120 	.word	0x203d2120
    40001e20:	6f762828 	.word	0x6f762828
    40001e24:	2a206469 	.word	0x2a206469
    40001e28:	2c293029 	.word	0x2c293029
    40001e2c:	29323220 	.word	0x29323220
    40001e30:	000a0d20 	.word	0x000a0d20
    40001e34:	00000000 	.word	0x00000000
    40001e38:	6d6f682f 	.word	0x6d6f682f
    40001e3c:	72652f65 	.word	0x72652f65
    40001e40:	772f6b69 	.word	0x772f6b69
    40001e44:	736b726f 	.word	0x736b726f
    40001e48:	65636170 	.word	0x65636170
    40001e4c:	6d69732f 	.word	0x6d69732f
    40001e50:	732f6162 	.word	0x732f6162
    40001e54:	642f6372 	.word	0x642f6372
    40001e58:	65766972 	.word	0x65766972
    40001e5c:	732f7372 	.word	0x732f7372
    40001e60:	6f736e65 	.word	0x6f736e65
    40001e64:	642f7372 	.word	0x642f7372
    40001e68:	62383173 	.word	0x62383173
    40001e6c:	632e3032 	.word	0x632e3032
    40001e70:	3534323a 	.word	0x3534323a
    40001e74:	5341203a 	.word	0x5341203a
    40001e78:	54524553 	.word	0x54524553
    40001e7c:	7328203a 	.word	0x7328203a
    40001e80:	5f666c65 	.word	0x5f666c65
    40001e84:	3d212070 	.word	0x3d212070
    40001e88:	76282820 	.word	0x76282820
    40001e8c:	2064696f 	.word	0x2064696f
    40001e90:	2930292a 	.word	0x2930292a
    40001e94:	3232202c 	.word	0x3232202c
    40001e98:	0a0d2029 	.word	0x0a0d2029
    40001e9c:	00000000 	.word	0x00000000
    40001ea0:	6d6f682f 	.word	0x6d6f682f
    40001ea4:	72652f65 	.word	0x72652f65
    40001ea8:	772f6b69 	.word	0x772f6b69
    40001eac:	736b726f 	.word	0x736b726f
    40001eb0:	65636170 	.word	0x65636170
    40001eb4:	6d69732f 	.word	0x6d69732f
    40001eb8:	732f6162 	.word	0x732f6162
    40001ebc:	642f6372 	.word	0x642f6372
    40001ec0:	65766972 	.word	0x65766972
    40001ec4:	732f7372 	.word	0x732f7372
    40001ec8:	6f736e65 	.word	0x6f736e65
    40001ecc:	642f7372 	.word	0x642f7372
    40001ed0:	62383173 	.word	0x62383173
    40001ed4:	632e3032 	.word	0x632e3032
    40001ed8:	3634323a 	.word	0x3634323a
    40001edc:	5341203a 	.word	0x5341203a
    40001ee0:	54524553 	.word	0x54524553
    40001ee4:	6928203a 	.word	0x6928203a
    40001ee8:	20705f64 	.word	0x20705f64
    40001eec:	28203d21 	.word	0x28203d21
    40001ef0:	696f7628 	.word	0x696f7628
    40001ef4:	292a2064 	.word	0x292a2064
    40001ef8:	202c2930 	.word	0x202c2930
    40001efc:	20293232 	.word	0x20293232
    40001f00:	00000a0d 	.word	0x00000a0d
    40001f04:	00000000 	.word	0x00000000
    40001f08:	6d6f682f 	.word	0x6d6f682f
    40001f0c:	72652f65 	.word	0x72652f65
    40001f10:	772f6b69 	.word	0x772f6b69
    40001f14:	736b726f 	.word	0x736b726f
    40001f18:	65636170 	.word	0x65636170
    40001f1c:	6d69732f 	.word	0x6d69732f
    40001f20:	732f6162 	.word	0x732f6162
    40001f24:	642f6372 	.word	0x642f6372
    40001f28:	65766972 	.word	0x65766972
    40001f2c:	732f7372 	.word	0x732f7372
    40001f30:	6f736e65 	.word	0x6f736e65
    40001f34:	642f7372 	.word	0x642f7372
    40001f38:	62383173 	.word	0x62383173
    40001f3c:	632e3032 	.word	0x632e3032
    40001f40:	3734323a 	.word	0x3734323a
    40001f44:	5341203a 	.word	0x5341203a
    40001f48:	54524553 	.word	0x54524553
    40001f4c:	7428203a 	.word	0x7428203a
    40001f50:	65706d65 	.word	0x65706d65
    40001f54:	75746172 	.word	0x75746172
    40001f58:	705f6572 	.word	0x705f6572
    40001f5c:	203d2120 	.word	0x203d2120
    40001f60:	6f762828 	.word	0x6f762828
    40001f64:	2a206469 	.word	0x2a206469
    40001f68:	2c293029 	.word	0x2c293029
    40001f6c:	29323220 	.word	0x29323220
    40001f70:	000a0d20 	.word	0x000a0d20
    40001f74:	00000000 	.word	0x00000000
    40001f78:	252e6425 	.word	0x252e6425
    40001f7c:	00753430 	.word	0x00753430
    40001f80:	6d6f682f 	.word	0x6d6f682f
    40001f84:	72652f65 	.word	0x72652f65
    40001f88:	772f6b69 	.word	0x772f6b69
    40001f8c:	736b726f 	.word	0x736b726f
    40001f90:	65636170 	.word	0x65636170
    40001f94:	6d69732f 	.word	0x6d69732f
    40001f98:	732f6162 	.word	0x732f6162
    40001f9c:	642f6372 	.word	0x642f6372
    40001fa0:	65766972 	.word	0x65766972
    40001fa4:	732f7372 	.word	0x732f7372
    40001fa8:	61726f74 	.word	0x61726f74
    40001fac:	652f6567 	.word	0x652f6567
    40001fb0:	6f727065 	.word	0x6f727065
    40001fb4:	6f735f6d 	.word	0x6f735f6d
    40001fb8:	632e7466 	.word	0x632e7466
    40001fbc:	3435343a 	.word	0x3435343a
    40001fc0:	5341203a 	.word	0x5341203a
    40001fc4:	54524553 	.word	0x54524553
    40001fc8:	7328203a 	.word	0x7328203a
    40001fcc:	5f666c65 	.word	0x5f666c65
    40001fd0:	3d212070 	.word	0x3d212070
    40001fd4:	76282820 	.word	0x76282820
    40001fd8:	2064696f 	.word	0x2064696f
    40001fdc:	2930292a 	.word	0x2930292a
    40001fe0:	3232202c 	.word	0x3232202c
    40001fe4:	0a0d2029 	.word	0x0a0d2029
	...
    40001ff0:	6d6f682f 	.word	0x6d6f682f
    40001ff4:	72652f65 	.word	0x72652f65
    40001ff8:	772f6b69 	.word	0x772f6b69
    40001ffc:	736b726f 	.word	0x736b726f
    40002000:	65636170 	.word	0x65636170
    40002004:	6d69732f 	.word	0x6d69732f
    40002008:	732f6162 	.word	0x732f6162
    4000200c:	642f6372 	.word	0x642f6372
    40002010:	65766972 	.word	0x65766972
    40002014:	732f7372 	.word	0x732f7372
    40002018:	61726f74 	.word	0x61726f74
    4000201c:	652f6567 	.word	0x652f6567
    40002020:	6f727065 	.word	0x6f727065
    40002024:	6f735f6d 	.word	0x6f735f6d
    40002028:	632e7466 	.word	0x632e7466
    4000202c:	3535343a 	.word	0x3535343a
    40002030:	5341203a 	.word	0x5341203a
    40002034:	54524553 	.word	0x54524553
    40002038:	6628203a 	.word	0x6628203a
    4000203c:	6873616c 	.word	0x6873616c
    40002040:	2120705f 	.word	0x2120705f
    40002044:	2828203d 	.word	0x2828203d
    40002048:	64696f76 	.word	0x64696f76
    4000204c:	30292a20 	.word	0x30292a20
    40002050:	32202c29 	.word	0x32202c29
    40002054:	0d202932 	.word	0x0d202932
    40002058:	0000000a 	.word	0x0000000a
    4000205c:	00000000 	.word	0x00000000
    40002060:	6d6f682f 	.word	0x6d6f682f
    40002064:	72652f65 	.word	0x72652f65
    40002068:	772f6b69 	.word	0x772f6b69
    4000206c:	736b726f 	.word	0x736b726f
    40002070:	65636170 	.word	0x65636170
    40002074:	6d69732f 	.word	0x6d69732f
    40002078:	732f6162 	.word	0x732f6162
    4000207c:	642f6372 	.word	0x642f6372
    40002080:	65766972 	.word	0x65766972
    40002084:	732f7372 	.word	0x732f7372
    40002088:	61726f74 	.word	0x61726f74
    4000208c:	652f6567 	.word	0x652f6567
    40002090:	6f727065 	.word	0x6f727065
    40002094:	6f735f6d 	.word	0x6f735f6d
    40002098:	632e7466 	.word	0x632e7466
    4000209c:	3635343a 	.word	0x3635343a
    400020a0:	5341203a 	.word	0x5341203a
    400020a4:	54524553 	.word	0x54524553
    400020a8:	6228203a 	.word	0x6228203a
    400020ac:	6b636f6c 	.word	0x6b636f6c
    400020b0:	20705f73 	.word	0x20705f73
    400020b4:	28203d21 	.word	0x28203d21
    400020b8:	696f7628 	.word	0x696f7628
    400020bc:	292a2064 	.word	0x292a2064
    400020c0:	202c2930 	.word	0x202c2930
    400020c4:	20293232 	.word	0x20293232
    400020c8:	00000a0d 	.word	0x00000a0d
    400020cc:	00000000 	.word	0x00000000
    400020d0:	6d6f682f 	.word	0x6d6f682f
    400020d4:	72652f65 	.word	0x72652f65
    400020d8:	772f6b69 	.word	0x772f6b69
    400020dc:	736b726f 	.word	0x736b726f
    400020e0:	65636170 	.word	0x65636170
    400020e4:	6d69732f 	.word	0x6d69732f
    400020e8:	732f6162 	.word	0x732f6162
    400020ec:	642f6372 	.word	0x642f6372
    400020f0:	65766972 	.word	0x65766972
    400020f4:	732f7372 	.word	0x732f7372
    400020f8:	61726f74 	.word	0x61726f74
    400020fc:	652f6567 	.word	0x652f6567
    40002100:	6f727065 	.word	0x6f727065
    40002104:	6f735f6d 	.word	0x6f735f6d
    40002108:	632e7466 	.word	0x632e7466
    4000210c:	3735343a 	.word	0x3735343a
    40002110:	5341203a 	.word	0x5341203a
    40002114:	54524553 	.word	0x54524553
    40002118:	6e28203a 	.word	0x6e28203a
    4000211c:	65626d75 	.word	0x65626d75
    40002120:	666f5f72 	.word	0x666f5f72
    40002124:	6f6c625f 	.word	0x6f6c625f
    40002128:	20736b63 	.word	0x20736b63
    4000212c:	32203d3e 	.word	0x32203d3e
    40002130:	3232202c 	.word	0x3232202c
    40002134:	0a0d2029 	.word	0x0a0d2029
	...
    40002140:	6d6f682f 	.word	0x6d6f682f
    40002144:	72652f65 	.word	0x72652f65
    40002148:	772f6b69 	.word	0x772f6b69
    4000214c:	736b726f 	.word	0x736b726f
    40002150:	65636170 	.word	0x65636170
    40002154:	6d69732f 	.word	0x6d69732f
    40002158:	732f6162 	.word	0x732f6162
    4000215c:	642f6372 	.word	0x642f6372
    40002160:	65766972 	.word	0x65766972
    40002164:	732f7372 	.word	0x732f7372
    40002168:	61726f74 	.word	0x61726f74
    4000216c:	652f6567 	.word	0x652f6567
    40002170:	6f727065 	.word	0x6f727065
    40002174:	6f735f6d 	.word	0x6f735f6d
    40002178:	632e7466 	.word	0x632e7466
    4000217c:	3236353a 	.word	0x3236353a
    40002180:	5341203a 	.word	0x5341203a
    40002184:	54524553 	.word	0x54524553
    40002188:	7328203a 	.word	0x7328203a
    4000218c:	5f666c65 	.word	0x5f666c65
    40002190:	3d212070 	.word	0x3d212070
    40002194:	76282820 	.word	0x76282820
    40002198:	2064696f 	.word	0x2064696f
    4000219c:	2930292a 	.word	0x2930292a
    400021a0:	3232202c 	.word	0x3232202c
    400021a4:	0a0d2029 	.word	0x0a0d2029
	...
    400021b0:	6d6f682f 	.word	0x6d6f682f
    400021b4:	72652f65 	.word	0x72652f65
    400021b8:	772f6b69 	.word	0x772f6b69
    400021bc:	736b726f 	.word	0x736b726f
    400021c0:	65636170 	.word	0x65636170
    400021c4:	6d69732f 	.word	0x6d69732f
    400021c8:	732f6162 	.word	0x732f6162
    400021cc:	642f6372 	.word	0x642f6372
    400021d0:	65766972 	.word	0x65766972
    400021d4:	732f7372 	.word	0x732f7372
    400021d8:	61726f74 	.word	0x61726f74
    400021dc:	652f6567 	.word	0x652f6567
    400021e0:	6f727065 	.word	0x6f727065
    400021e4:	6f735f6d 	.word	0x6f735f6d
    400021e8:	632e7466 	.word	0x632e7466
    400021ec:	3336353a 	.word	0x3336353a
    400021f0:	5341203a 	.word	0x5341203a
    400021f4:	54524553 	.word	0x54524553
    400021f8:	6428203a 	.word	0x6428203a
    400021fc:	705f7473 	.word	0x705f7473
    40002200:	203d2120 	.word	0x203d2120
    40002204:	6f762828 	.word	0x6f762828
    40002208:	2a206469 	.word	0x2a206469
    4000220c:	2c293029 	.word	0x2c293029
    40002210:	29323220 	.word	0x29323220
    40002214:	000a0d20 	.word	0x000a0d20
    40002218:	6d6f682f 	.word	0x6d6f682f
    4000221c:	72652f65 	.word	0x72652f65
    40002220:	772f6b69 	.word	0x772f6b69
    40002224:	736b726f 	.word	0x736b726f
    40002228:	65636170 	.word	0x65636170
    4000222c:	6d69732f 	.word	0x6d69732f
    40002230:	732f6162 	.word	0x732f6162
    40002234:	642f6372 	.word	0x642f6372
    40002238:	65766972 	.word	0x65766972
    4000223c:	732f7372 	.word	0x732f7372
    40002240:	61726f74 	.word	0x61726f74
    40002244:	652f6567 	.word	0x652f6567
    40002248:	6f727065 	.word	0x6f727065
    4000224c:	6f735f6d 	.word	0x6f735f6d
    40002250:	632e7466 	.word	0x632e7466
    40002254:	3631363a 	.word	0x3631363a
    40002258:	5341203a 	.word	0x5341203a
    4000225c:	54524553 	.word	0x54524553
    40002260:	7328203a 	.word	0x7328203a
    40002264:	5f666c65 	.word	0x5f666c65
    40002268:	3d212070 	.word	0x3d212070
    4000226c:	76282820 	.word	0x76282820
    40002270:	2064696f 	.word	0x2064696f
    40002274:	2930292a 	.word	0x2930292a
    40002278:	3232202c 	.word	0x3232202c
    4000227c:	0a0d2029 	.word	0x0a0d2029
	...
    40002288:	6d6f682f 	.word	0x6d6f682f
    4000228c:	72652f65 	.word	0x72652f65
    40002290:	772f6b69 	.word	0x772f6b69
    40002294:	736b726f 	.word	0x736b726f
    40002298:	65636170 	.word	0x65636170
    4000229c:	6d69732f 	.word	0x6d69732f
    400022a0:	732f6162 	.word	0x732f6162
    400022a4:	642f6372 	.word	0x642f6372
    400022a8:	65766972 	.word	0x65766972
    400022ac:	732f7372 	.word	0x732f7372
    400022b0:	61726f74 	.word	0x61726f74
    400022b4:	652f6567 	.word	0x652f6567
    400022b8:	6f727065 	.word	0x6f727065
    400022bc:	6f735f6d 	.word	0x6f735f6d
    400022c0:	632e7466 	.word	0x632e7466
    400022c4:	3731363a 	.word	0x3731363a
    400022c8:	5341203a 	.word	0x5341203a
    400022cc:	54524553 	.word	0x54524553
    400022d0:	6428203a 	.word	0x6428203a
    400022d4:	705f7473 	.word	0x705f7473
    400022d8:	203d2120 	.word	0x203d2120
    400022dc:	6f762828 	.word	0x6f762828
    400022e0:	2a206469 	.word	0x2a206469
    400022e4:	2c293029 	.word	0x2c293029
    400022e8:	29323220 	.word	0x29323220
    400022ec:	000a0d20 	.word	0x000a0d20
    400022f0:	6d6f682f 	.word	0x6d6f682f
    400022f4:	72652f65 	.word	0x72652f65
    400022f8:	772f6b69 	.word	0x772f6b69
    400022fc:	736b726f 	.word	0x736b726f
    40002300:	65636170 	.word	0x65636170
    40002304:	6d69732f 	.word	0x6d69732f
    40002308:	732f6162 	.word	0x732f6162
    4000230c:	642f6372 	.word	0x642f6372
    40002310:	65766972 	.word	0x65766972
    40002314:	732f7372 	.word	0x732f7372
    40002318:	61726f74 	.word	0x61726f74
    4000231c:	652f6567 	.word	0x652f6567
    40002320:	6f727065 	.word	0x6f727065
    40002324:	6f735f6d 	.word	0x6f735f6d
    40002328:	632e7466 	.word	0x632e7466
    4000232c:	3831363a 	.word	0x3831363a
    40002330:	5341203a 	.word	0x5341203a
    40002334:	54524553 	.word	0x54524553
    40002338:	7328203a 	.word	0x7328203a
    4000233c:	705f6372 	.word	0x705f6372
    40002340:	203d2120 	.word	0x203d2120
    40002344:	6f762828 	.word	0x6f762828
    40002348:	2a206469 	.word	0x2a206469
    4000234c:	2c293029 	.word	0x2c293029
    40002350:	29323220 	.word	0x29323220
    40002354:	000a0d20 	.word	0x000a0d20
    40002358:	6d6f682f 	.word	0x6d6f682f
    4000235c:	72652f65 	.word	0x72652f65
    40002360:	772f6b69 	.word	0x772f6b69
    40002364:	736b726f 	.word	0x736b726f
    40002368:	65636170 	.word	0x65636170
    4000236c:	6d69732f 	.word	0x6d69732f
    40002370:	732f6162 	.word	0x732f6162
    40002374:	642f6372 	.word	0x642f6372
    40002378:	65766972 	.word	0x65766972
    4000237c:	732f7372 	.word	0x732f7372
    40002380:	61726f74 	.word	0x61726f74
    40002384:	652f6567 	.word	0x652f6567
    40002388:	6f727065 	.word	0x6f727065
    4000238c:	6f735f6d 	.word	0x6f735f6d
    40002390:	632e7466 	.word	0x632e7466
    40002394:	3839353a 	.word	0x3839353a
    40002398:	5341203a 	.word	0x5341203a
    4000239c:	54524553 	.word	0x54524553
    400023a0:	7328203a 	.word	0x7328203a
    400023a4:	5f666c65 	.word	0x5f666c65
    400023a8:	3d212070 	.word	0x3d212070
    400023ac:	76282820 	.word	0x76282820
    400023b0:	2064696f 	.word	0x2064696f
    400023b4:	2930292a 	.word	0x2930292a
    400023b8:	3232202c 	.word	0x3232202c
    400023bc:	0a0d2029 	.word	0x0a0d2029
	...
    400023c8:	6d6f682f 	.word	0x6d6f682f
    400023cc:	72652f65 	.word	0x72652f65
    400023d0:	772f6b69 	.word	0x772f6b69
    400023d4:	736b726f 	.word	0x736b726f
    400023d8:	65636170 	.word	0x65636170
    400023dc:	6d69732f 	.word	0x6d69732f
    400023e0:	732f6162 	.word	0x732f6162
    400023e4:	642f6372 	.word	0x642f6372
    400023e8:	65766972 	.word	0x65766972
    400023ec:	732f7372 	.word	0x732f7372
    400023f0:	61726f74 	.word	0x61726f74
    400023f4:	652f6567 	.word	0x652f6567
    400023f8:	6f727065 	.word	0x6f727065
    400023fc:	6f735f6d 	.word	0x6f735f6d
    40002400:	632e7466 	.word	0x632e7466
    40002404:	3939353a 	.word	0x3939353a
    40002408:	5341203a 	.word	0x5341203a
    4000240c:	54524553 	.word	0x54524553
    40002410:	7328203a 	.word	0x7328203a
    40002414:	705f6372 	.word	0x705f6372
    40002418:	203d2120 	.word	0x203d2120
    4000241c:	6f762828 	.word	0x6f762828
    40002420:	2a206469 	.word	0x2a206469
    40002424:	2c293029 	.word	0x2c293029
    40002428:	29323220 	.word	0x29323220
    4000242c:	000a0d20 	.word	0x000a0d20
    40002430:	6d6f682f 	.word	0x6d6f682f
    40002434:	72652f65 	.word	0x72652f65
    40002438:	772f6b69 	.word	0x772f6b69
    4000243c:	736b726f 	.word	0x736b726f
    40002440:	65636170 	.word	0x65636170
    40002444:	6d69732f 	.word	0x6d69732f
    40002448:	732f6162 	.word	0x732f6162
    4000244c:	642f6372 	.word	0x642f6372
    40002450:	65766972 	.word	0x65766972
    40002454:	732f7372 	.word	0x732f7372
    40002458:	61726f74 	.word	0x61726f74
    4000245c:	662f6567 	.word	0x662f6567
    40002460:	6873616c 	.word	0x6873616c
    40002464:	313a632e 	.word	0x313a632e
    40002468:	203a3631 	.word	0x203a3631
    4000246c:	45535341 	.word	0x45535341
    40002470:	203a5452 	.word	0x203a5452
    40002474:	6c657328 	.word	0x6c657328
    40002478:	20705f66 	.word	0x20705f66
    4000247c:	28203d21 	.word	0x28203d21
    40002480:	696f7628 	.word	0x696f7628
    40002484:	292a2064 	.word	0x292a2064
    40002488:	202c2930 	.word	0x202c2930
    4000248c:	20293232 	.word	0x20293232
    40002490:	00000a0d 	.word	0x00000a0d
    40002494:	00000000 	.word	0x00000000
    40002498:	6d6f682f 	.word	0x6d6f682f
    4000249c:	72652f65 	.word	0x72652f65
    400024a0:	772f6b69 	.word	0x772f6b69
    400024a4:	736b726f 	.word	0x736b726f
    400024a8:	65636170 	.word	0x65636170
    400024ac:	6d69732f 	.word	0x6d69732f
    400024b0:	732f6162 	.word	0x732f6162
    400024b4:	642f6372 	.word	0x642f6372
    400024b8:	65766972 	.word	0x65766972
    400024bc:	732f7372 	.word	0x732f7372
    400024c0:	61726f74 	.word	0x61726f74
    400024c4:	662f6567 	.word	0x662f6567
    400024c8:	6873616c 	.word	0x6873616c
    400024cc:	313a632e 	.word	0x313a632e
    400024d0:	203a3731 	.word	0x203a3731
    400024d4:	45535341 	.word	0x45535341
    400024d8:	203a5452 	.word	0x203a5452
    400024dc:	7a697328 	.word	0x7a697328
    400024e0:	203e2065 	.word	0x203e2065
    400024e4:	32202c30 	.word	0x32202c30
    400024e8:	0d202932 	.word	0x0d202932
    400024ec:	0000000a 	.word	0x0000000a
    400024f0:	6d6f682f 	.word	0x6d6f682f
    400024f4:	72652f65 	.word	0x72652f65
    400024f8:	772f6b69 	.word	0x772f6b69
    400024fc:	736b726f 	.word	0x736b726f
    40002500:	65636170 	.word	0x65636170
    40002504:	6d69732f 	.word	0x6d69732f
    40002508:	732f6162 	.word	0x732f6162
    4000250c:	642f6372 	.word	0x642f6372
    40002510:	65766972 	.word	0x65766972
    40002514:	732f7372 	.word	0x732f7372
    40002518:	61726f74 	.word	0x61726f74
    4000251c:	662f6567 	.word	0x662f6567
    40002520:	6873616c 	.word	0x6873616c
    40002524:	353a632e 	.word	0x353a632e
    40002528:	41203a36 	.word	0x41203a36
    4000252c:	52455353 	.word	0x52455353
    40002530:	28203a54 	.word	0x28203a54
    40002534:	666c6573 	.word	0x666c6573
    40002538:	2120705f 	.word	0x2120705f
    4000253c:	2828203d 	.word	0x2828203d
    40002540:	64696f76 	.word	0x64696f76
    40002544:	30292a20 	.word	0x30292a20
    40002548:	32202c29 	.word	0x32202c29
    4000254c:	0d202932 	.word	0x0d202932
    40002550:	0000000a 	.word	0x0000000a
    40002554:	00000000 	.word	0x00000000
    40002558:	6d6f682f 	.word	0x6d6f682f
    4000255c:	72652f65 	.word	0x72652f65
    40002560:	772f6b69 	.word	0x772f6b69
    40002564:	736b726f 	.word	0x736b726f
    40002568:	65636170 	.word	0x65636170
    4000256c:	6d69732f 	.word	0x6d69732f
    40002570:	732f6162 	.word	0x732f6162
    40002574:	642f6372 	.word	0x642f6372
    40002578:	65766972 	.word	0x65766972
    4000257c:	732f7372 	.word	0x732f7372
    40002580:	61726f74 	.word	0x61726f74
    40002584:	662f6567 	.word	0x662f6567
    40002588:	6873616c 	.word	0x6873616c
    4000258c:	353a632e 	.word	0x353a632e
    40002590:	41203a37 	.word	0x41203a37
    40002594:	52455353 	.word	0x52455353
    40002598:	28203a54 	.word	0x28203a54
    4000259c:	5f766564 	.word	0x5f766564
    400025a0:	3d212070 	.word	0x3d212070
    400025a4:	76282820 	.word	0x76282820
    400025a8:	2064696f 	.word	0x2064696f
    400025ac:	2930292a 	.word	0x2930292a
    400025b0:	3232202c 	.word	0x3232202c
    400025b4:	0a0d2029 	.word	0x0a0d2029
	...
    400025c0:	6d6f682f 	.word	0x6d6f682f
    400025c4:	72652f65 	.word	0x72652f65
    400025c8:	772f6b69 	.word	0x772f6b69
    400025cc:	736b726f 	.word	0x736b726f
    400025d0:	65636170 	.word	0x65636170
    400025d4:	6d69732f 	.word	0x6d69732f
    400025d8:	732f6162 	.word	0x732f6162
    400025dc:	642f6372 	.word	0x642f6372
    400025e0:	65766972 	.word	0x65766972
    400025e4:	732f7372 	.word	0x732f7372
    400025e8:	61726f74 	.word	0x61726f74
    400025ec:	662f6567 	.word	0x662f6567
    400025f0:	6873616c 	.word	0x6873616c
    400025f4:	363a632e 	.word	0x363a632e
    400025f8:	41203a39 	.word	0x41203a39
    400025fc:	52455353 	.word	0x52455353
    40002600:	28203a54 	.word	0x28203a54
    40002604:	666c6573 	.word	0x666c6573
    40002608:	2120705f 	.word	0x2120705f
    4000260c:	2828203d 	.word	0x2828203d
    40002610:	64696f76 	.word	0x64696f76
    40002614:	30292a20 	.word	0x30292a20
    40002618:	32202c29 	.word	0x32202c29
    4000261c:	0d202932 	.word	0x0d202932
    40002620:	0000000a 	.word	0x0000000a
    40002624:	00000000 	.word	0x00000000
    40002628:	6d6f682f 	.word	0x6d6f682f
    4000262c:	72652f65 	.word	0x72652f65
    40002630:	772f6b69 	.word	0x772f6b69
    40002634:	736b726f 	.word	0x736b726f
    40002638:	65636170 	.word	0x65636170
    4000263c:	6d69732f 	.word	0x6d69732f
    40002640:	732f6162 	.word	0x732f6162
    40002644:	642f6372 	.word	0x642f6372
    40002648:	65766972 	.word	0x65766972
    4000264c:	732f7372 	.word	0x732f7372
    40002650:	61726f74 	.word	0x61726f74
    40002654:	662f6567 	.word	0x662f6567
    40002658:	6873616c 	.word	0x6873616c
    4000265c:	373a632e 	.word	0x373a632e
    40002660:	41203a30 	.word	0x41203a30
    40002664:	52455353 	.word	0x52455353
    40002668:	28203a54 	.word	0x28203a54
    4000266c:	5f747364 	.word	0x5f747364
    40002670:	3d212070 	.word	0x3d212070
    40002674:	76282820 	.word	0x76282820
    40002678:	2064696f 	.word	0x2064696f
    4000267c:	2930292a 	.word	0x2930292a
    40002680:	3232202c 	.word	0x3232202c
    40002684:	0a0d2029 	.word	0x0a0d2029
	...
    40002690:	6d6f682f 	.word	0x6d6f682f
    40002694:	72652f65 	.word	0x72652f65
    40002698:	772f6b69 	.word	0x772f6b69
    4000269c:	736b726f 	.word	0x736b726f
    400026a0:	65636170 	.word	0x65636170
    400026a4:	6d69732f 	.word	0x6d69732f
    400026a8:	732f6162 	.word	0x732f6162
    400026ac:	642f6372 	.word	0x642f6372
    400026b0:	65766972 	.word	0x65766972
    400026b4:	732f7372 	.word	0x732f7372
    400026b8:	61726f74 	.word	0x61726f74
    400026bc:	662f6567 	.word	0x662f6567
    400026c0:	6873616c 	.word	0x6873616c
    400026c4:	373a632e 	.word	0x373a632e
    400026c8:	41203a31 	.word	0x41203a31
    400026cc:	52455353 	.word	0x52455353
    400026d0:	28203a54 	.word	0x28203a54
    400026d4:	657a6973 	.word	0x657a6973
    400026d8:	30203e20 	.word	0x30203e20
    400026dc:	3232202c 	.word	0x3232202c
    400026e0:	0a0d2029 	.word	0x0a0d2029
    400026e4:	00000000 	.word	0x00000000
    400026e8:	6d6f682f 	.word	0x6d6f682f
    400026ec:	72652f65 	.word	0x72652f65
    400026f0:	772f6b69 	.word	0x772f6b69
    400026f4:	736b726f 	.word	0x736b726f
    400026f8:	65636170 	.word	0x65636170
    400026fc:	6d69732f 	.word	0x6d69732f
    40002700:	732f6162 	.word	0x732f6162
    40002704:	642f6372 	.word	0x642f6372
    40002708:	65766972 	.word	0x65766972
    4000270c:	732f7372 	.word	0x732f7372
    40002710:	61726f74 	.word	0x61726f74
    40002714:	662f6567 	.word	0x662f6567
    40002718:	6873616c 	.word	0x6873616c
    4000271c:	393a632e 	.word	0x393a632e
    40002720:	41203a33 	.word	0x41203a33
    40002724:	52455353 	.word	0x52455353
    40002728:	28203a54 	.word	0x28203a54
    4000272c:	666c6573 	.word	0x666c6573
    40002730:	2120705f 	.word	0x2120705f
    40002734:	2828203d 	.word	0x2828203d
    40002738:	64696f76 	.word	0x64696f76
    4000273c:	30292a20 	.word	0x30292a20
    40002740:	32202c29 	.word	0x32202c29
    40002744:	0d202932 	.word	0x0d202932
    40002748:	0000000a 	.word	0x0000000a
    4000274c:	00000000 	.word	0x00000000
    40002750:	6d6f682f 	.word	0x6d6f682f
    40002754:	72652f65 	.word	0x72652f65
    40002758:	772f6b69 	.word	0x772f6b69
    4000275c:	736b726f 	.word	0x736b726f
    40002760:	65636170 	.word	0x65636170
    40002764:	6d69732f 	.word	0x6d69732f
    40002768:	732f6162 	.word	0x732f6162
    4000276c:	642f6372 	.word	0x642f6372
    40002770:	65766972 	.word	0x65766972
    40002774:	732f7372 	.word	0x732f7372
    40002778:	61726f74 	.word	0x61726f74
    4000277c:	662f6567 	.word	0x662f6567
    40002780:	6873616c 	.word	0x6873616c
    40002784:	393a632e 	.word	0x393a632e
    40002788:	41203a34 	.word	0x41203a34
    4000278c:	52455353 	.word	0x52455353
    40002790:	28203a54 	.word	0x28203a54
    40002794:	5f637273 	.word	0x5f637273
    40002798:	3d212070 	.word	0x3d212070
    4000279c:	76282820 	.word	0x76282820
    400027a0:	2064696f 	.word	0x2064696f
    400027a4:	2930292a 	.word	0x2930292a
    400027a8:	3232202c 	.word	0x3232202c
    400027ac:	0a0d2029 	.word	0x0a0d2029
	...
    400027b8:	6d6f682f 	.word	0x6d6f682f
    400027bc:	72652f65 	.word	0x72652f65
    400027c0:	772f6b69 	.word	0x772f6b69
    400027c4:	736b726f 	.word	0x736b726f
    400027c8:	65636170 	.word	0x65636170
    400027cc:	6d69732f 	.word	0x6d69732f
    400027d0:	732f6162 	.word	0x732f6162
    400027d4:	642f6372 	.word	0x642f6372
    400027d8:	65766972 	.word	0x65766972
    400027dc:	732f7372 	.word	0x732f7372
    400027e0:	61726f74 	.word	0x61726f74
    400027e4:	662f6567 	.word	0x662f6567
    400027e8:	6873616c 	.word	0x6873616c
    400027ec:	393a632e 	.word	0x393a632e
    400027f0:	41203a35 	.word	0x41203a35
    400027f4:	52455353 	.word	0x52455353
    400027f8:	28203a54 	.word	0x28203a54
    400027fc:	657a6973 	.word	0x657a6973
    40002800:	30203e20 	.word	0x30203e20
    40002804:	3232202c 	.word	0x3232202c
    40002808:	0a0d2029 	.word	0x0a0d2029
    4000280c:	00000000 	.word	0x00000000
    40002810:	6d6f682f 	.word	0x6d6f682f
    40002814:	72652f65 	.word	0x72652f65
    40002818:	772f6b69 	.word	0x772f6b69
    4000281c:	736b726f 	.word	0x736b726f
    40002820:	65636170 	.word	0x65636170
    40002824:	6d69732f 	.word	0x6d69732f
    40002828:	732f6162 	.word	0x732f6162
    4000282c:	682f6372 	.word	0x682f6372
    40002830:	2f687361 	.word	0x2f687361
    40002834:	2e637263 	.word	0x2e637263
    40002838:	35313a63 	.word	0x35313a63
    4000283c:	41203a30 	.word	0x41203a30
    40002840:	52455353 	.word	0x52455353
    40002844:	28203a54 	.word	0x28203a54
    40002848:	5f667562 	.word	0x5f667562
    4000284c:	3d212070 	.word	0x3d212070
    40002850:	76282820 	.word	0x76282820
    40002854:	2064696f 	.word	0x2064696f
    40002858:	2930292a 	.word	0x2930292a
    4000285c:	3232202c 	.word	0x3232202c
    40002860:	0a0d2029 	.word	0x0a0d2029
    40002864:	00000000 	.word	0x00000000
    40002868:	6b636142 	.word	0x6b636142
    4000286c:	63617274 	.word	0x63617274
    40002870:	00203a65 	.word	0x00203a65
    40002874:	00000000 	.word	0x00000000
    40002878:	696e6150 	.word	0x696e6150
    4000287c:	0a0d2163 	.word	0x0a0d2163
	...
    40002888:	0a0d5325 	.word	0x0a0d5325
    4000288c:	00000000 	.word	0x00000000
    40002890:	2e756c25 	.word	0x2e756c25
    40002894:	6c333025 	.word	0x6c333025
    40002898:	65732075 	.word	0x65732075
    4000289c:	646e6f63 	.word	0x646e6f63
    400028a0:	000a0d73 	.word	0x000a0d73
    400028a4:	00000000 	.word	0x00000000

00000000400028a8 <config>:
    400028a8:	666e6f63 	.word	0x666e6f63
    400028ac:	203a6769 	.word	0x203a6769
    400028b0:	2d737973 	.word	0x2d737973
    400028b4:	666e6f63 	.word	0x666e6f63
    400028b8:	732d6769 	.word	0x732d6769
    400028bc:	6e697274 	.word	0x6e697274
    400028c0:	0d313d67 	.word	0x0d313d67
    400028c4:	2020200a 	.word	0x2020200a
    400028c8:	20202020 	.word	0x20202020
    400028cc:	74616620 	.word	0x74616620
    400028d0:	612d6c61 	.word	0x612d6c61
    400028d4:	72657373 	.word	0x72657373
    400028d8:	0d313d74 	.word	0x0d313d74
    400028dc:	2020200a 	.word	0x2020200a
    400028e0:	20202020 	.word	0x20202020
    400028e4:	73736120 	.word	0x73736120
    400028e8:	3d747265 	.word	0x3d747265
    400028ec:	200a0d31 	.word	0x200a0d31
    400028f0:	20202020 	.word	0x20202020
    400028f4:	64202020 	.word	0x64202020
    400028f8:	67756265 	.word	0x67756265
    400028fc:	0a0d313d 	.word	0x0a0d313d
    40002900:	20202020 	.word	0x20202020
    40002904:	20202020 	.word	0x20202020
    40002908:	65657270 	.word	0x65657270
    4000290c:	6974706d 	.word	0x6974706d
    40002910:	732d6576 	.word	0x732d6576
    40002914:	64656863 	.word	0x64656863
    40002918:	72656c75 	.word	0x72656c75
    4000291c:	0a0d303d 	.word	0x0a0d303d
    40002920:	20202020 	.word	0x20202020
    40002924:	20202020 	.word	0x20202020
    40002928:	666f7270 	.word	0x666f7270
    4000292c:	2d656c69 	.word	0x2d656c69
    40002930:	63617473 	.word	0x63617473
    40002934:	0d313d6b 	.word	0x0d313d6b
    40002938:	2020200a 	.word	0x2020200a
    4000293c:	20202020 	.word	0x20202020
    40002940:	73797320 	.word	0x73797320
    40002944:	2d6d6574 	.word	0x2d6d6574
    40002948:	6b636974 	.word	0x6b636974
    4000294c:	6572662d 	.word	0x6572662d
    40002950:	6e657571 	.word	0x6e657571
    40002954:	313d7963 	.word	0x313d7963
    40002958:	0a0d3030 	.word	0x0a0d3030
    4000295c:	00000000 	.word	0x00000000

0000000040002960 <reset_cause_external>:
    40002960:	65747865 	.word	0x65747865
    40002964:	6c616e72 	.word	0x6c616e72
	...

0000000040002970 <reset_cause_jtag>:
    40002970:	6761746a 	.word	0x6761746a
    40002974:	00000000 	.word	0x00000000

0000000040002978 <reset_cause_power_on>:
    40002978:	65776f70 	.word	0x65776f70
    4000297c:	6e6f5f72 	.word	0x6e6f5f72
	...

0000000040002988 <reset_cause_software>:
    40002988:	74666f73 	.word	0x74666f73
    4000298c:	65726177 	.word	0x65726177
	...

0000000040002998 <reset_cause_string_map>:
    40002998:	400029c8 	.word	0x400029c8
    4000299c:	00000000 	.word	0x00000000
    400029a0:	40002978 	.word	0x40002978
    400029a4:	00000000 	.word	0x00000000
    400029a8:	400029d0 	.word	0x400029d0
    400029ac:	00000000 	.word	0x00000000
    400029b0:	40002988 	.word	0x40002988
    400029b4:	00000000 	.word	0x00000000
    400029b8:	40002960 	.word	0x40002960
    400029bc:	00000000 	.word	0x00000000
    400029c0:	40002970 	.word	0x40002970
    400029c4:	00000000 	.word	0x00000000

00000000400029c8 <reset_cause_unknown>:
    400029c8:	6e6b6e75 	.word	0x6e6b6e75
    400029cc:	006e776f 	.word	0x006e776f

00000000400029d0 <reset_cause_watchdog_timeout>:
    400029d0:	63746177 	.word	0x63746177
    400029d4:	676f6468 	.word	0x676f6468
    400029d8:	6d69745f 	.word	0x6d69745f
    400029dc:	74756f65 	.word	0x74756f65
	...
    400029e8:	72656b2f 	.word	0x72656b2f
    400029ec:	2f6c656e 	.word	0x2f6c656e
    400029f0:	2f737973 	.word	0x2f737973
    400029f4:	6f666e69 	.word	0x6f666e69
	...
    40002a00:	72656b2f 	.word	0x72656b2f
    40002a04:	2f6c656e 	.word	0x2f6c656e
    40002a08:	2f737973 	.word	0x2f737973
    40002a0c:	666e6f63 	.word	0x666e6f63
    40002a10:	00006769 	.word	0x00006769
    40002a14:	00000000 	.word	0x00000000
    40002a18:	72656b2f 	.word	0x72656b2f
    40002a1c:	2f6c656e 	.word	0x2f6c656e
    40002a20:	2f737973 	.word	0x2f737973
    40002a24:	69747075 	.word	0x69747075
    40002a28:	0000656d 	.word	0x0000656d
    40002a2c:	00000000 	.word	0x00000000
    40002a30:	72656b2f 	.word	0x72656b2f
    40002a34:	2f6c656e 	.word	0x2f6c656e
    40002a38:	2f737973 	.word	0x2f737973
    40002a3c:	696e6170 	.word	0x696e6170
    40002a40:	00000063 	.word	0x00000063
    40002a44:	00000000 	.word	0x00000000
    40002a48:	72656b2f 	.word	0x72656b2f
    40002a4c:	2f6c656e 	.word	0x2f6c656e
    40002a50:	2f737973 	.word	0x2f737973
    40002a54:	6f626572 	.word	0x6f626572
    40002a58:	0000746f 	.word	0x0000746f
    40002a5c:	00000000 	.word	0x00000000
    40002a60:	72656b2f 	.word	0x72656b2f
    40002a64:	2f6c656e 	.word	0x2f6c656e
    40002a68:	2f737973 	.word	0x2f737973
    40002a6c:	6b636162 	.word	0x6b636162
    40002a70:	63617274 	.word	0x63617274
    40002a74:	00000065 	.word	0x00000065
    40002a78:	72656b2f 	.word	0x72656b2f
    40002a7c:	2f6c656e 	.word	0x2f6c656e
    40002a80:	2f737973 	.word	0x2f737973
    40002a84:	65736572 	.word	0x65736572
    40002a88:	61635f74 	.word	0x61635f74
    40002a8c:	00657375 	.word	0x00657375
    40002a90:	6f626552 	.word	0x6f626552
    40002a94:	6e69746f 	.word	0x6e69746f
    40002a98:	2e2e2e67 	.word	0x2e2e2e67
    40002a9c:	00000000 	.word	0x00000000
    40002aa0:	6d6f682f 	.word	0x6d6f682f
    40002aa4:	72652f65 	.word	0x72652f65
    40002aa8:	772f6b69 	.word	0x772f6b69
    40002aac:	736b726f 	.word	0x736b726f
    40002ab0:	65636170 	.word	0x65636170
    40002ab4:	6d69732f 	.word	0x6d69732f
    40002ab8:	732f6162 	.word	0x732f6162
    40002abc:	6b2f6372 	.word	0x6b2f6372
    40002ac0:	656e7265 	.word	0x656e7265
    40002ac4:	79732f6c 	.word	0x79732f6c
    40002ac8:	3a632e73 	.word	0x3a632e73
    40002acc:	3a313436 	.word	0x3a313436
    40002ad0:	53534120 	.word	0x53534120
    40002ad4:	3a545245 	.word	0x3a545245
    40002ad8:	70752820 	.word	0x70752820
    40002adc:	656d6974 	.word	0x656d6974
    40002ae0:	2120705f 	.word	0x2120705f
    40002ae4:	2828203d 	.word	0x2828203d
    40002ae8:	64696f76 	.word	0x64696f76
    40002aec:	30292a20 	.word	0x30292a20
    40002af0:	32202c29 	.word	0x32202c29
    40002af4:	0d202932 	.word	0x0d202932
    40002af8:	0000000a 	.word	0x0000000a
    40002afc:	00000000 	.word	0x00000000
    40002b00:	20202020 	.word	0x20202020
    40002b04:	20202020 	.word	0x20202020
    40002b08:	20202020 	.word	0x20202020
    40002b0c:	20202020 	.word	0x20202020
    40002b10:	454d414e 	.word	0x454d414e
    40002b14:	20202020 	.word	0x20202020
    40002b18:	20202020 	.word	0x20202020
    40002b1c:	54415453 	.word	0x54415453
    40002b20:	50202045 	.word	0x50202045
    40002b24:	204f4952 	.word	0x204f4952
    40002b28:	50432020 	.word	0x50432020
    40002b2c:	20202055 	.word	0x20202055
    40002b30:	45484353 	.word	0x45484353
    40002b34:	454c5544 	.word	0x454c5544
    40002b38:	4d202044 	.word	0x4d202044
    40002b3c:	532d5841 	.word	0x532d5841
    40002b40:	4b434154 	.word	0x4b434154
    40002b44:	4153552d 	.word	0x4153552d
    40002b48:	20204547 	.word	0x20204547
    40002b4c:	4d474f4c 	.word	0x4d474f4c
    40002b50:	0d4b5341 	.word	0x0d4b5341
    40002b54:	0000000a 	.word	0x0000000a
    40002b58:	73303225 	.word	0x73303225
    40002b5c:	32312520 	.word	0x32312520
    40002b60:	35252073 	.word	0x35252073
    40002b64:	34252064 	.word	0x34252064
    40002b68:	20252575 	.word	0x20252575
    40002b6c:	75313125 	.word	0x75313125
    40002b70:	20202020 	.word	0x20202020
    40002b74:	2f643625 	.word	0x2f643625
    40002b78:	20643625 	.word	0x20643625
    40002b7c:	20202020 	.word	0x20202020
    40002b80:	30257830 	.word	0x30257830
    40002b84:	0a0d7832 	.word	0x0a0d7832
	...
    40002b90:	67617355 	.word	0x67617355
    40002b94:	73203a65 	.word	0x73203a65
    40002b98:	705f7465 	.word	0x705f7465
    40002b9c:	6f697265 	.word	0x6f697265
    40002ba0:	736d5f64 	.word	0x736d5f64
    40002ba4:	696d3c20 	.word	0x696d3c20
    40002ba8:	73696c6c 	.word	0x73696c6c
    40002bac:	6e6f6365 	.word	0x6e6f6365
    40002bb0:	0d3e7364 	.word	0x0d3e7364
    40002bb4:	0000000a 	.word	0x0000000a
    40002bb8:	67617355 	.word	0x67617355
    40002bbc:	73203a65 	.word	0x73203a65
    40002bc0:	705f7465 	.word	0x705f7465
    40002bc4:	746e6972 	.word	0x746e6972
    40002bc8:	2f313c20 	.word	0x2f313c20
    40002bcc:	0a0d3e30 	.word	0x0a0d3e30
	...
    40002bd8:	67617355 	.word	0x67617355
    40002bdc:	73203a65 	.word	0x73203a65
    40002be0:	6c5f7465 	.word	0x6c5f7465
    40002be4:	6d5f676f 	.word	0x6d5f676f
    40002be8:	206b7361 	.word	0x206b7361
    40002bec:	7268743c 	.word	0x7268743c
    40002bf0:	20646165 	.word	0x20646165
    40002bf4:	656d616e 	.word	0x656d616e
    40002bf8:	6c3c203e 	.word	0x6c3c203e
    40002bfc:	6d20676f 	.word	0x6d20676f
    40002c00:	3e6b7361 	.word	0x3e6b7361
    40002c04:	00000a0d 	.word	0x00000a0d
    40002c08:	656c6469 	.word	0x656c6469
    40002c0c:	00000000 	.word	0x00000000
    40002c10:	70706f68 	.word	0x70706f68
    40002c14:	00000a0d 	.word	0x00000a0d
    40002c18:	696e6f6d 	.word	0x696e6f6d
    40002c1c:	00726f74 	.word	0x00726f74
    40002c20:	20200a0d 	.word	0x20200a0d
    40002c24:	20202020 	.word	0x20202020
    40002c28:	20202020 	.word	0x20202020
    40002c2c:	20202020 	.word	0x20202020
    40002c30:	414e2020 	.word	0x414e2020
    40002c34:	2020454d 	.word	0x2020454d
    40002c38:	20202020 	.word	0x20202020
    40002c3c:	43202020 	.word	0x43202020
    40002c40:	0a0d5550 	.word	0x0a0d5550
    40002c44:	20202020 	.word	0x20202020
    40002c48:	20202020 	.word	0x20202020
    40002c4c:	20202020 	.word	0x20202020
    40002c50:	20202020 	.word	0x20202020
    40002c54:	71726920 	.word	0x71726920
    40002c58:	30312520 	.word	0x30312520
    40002c5c:	0d252564 	.word	0x0d252564
    40002c60:	0000000a 	.word	0x0000000a
    40002c64:	00000000 	.word	0x00000000
    40002c68:	73303225 	.word	0x73303225
    40002c6c:	30312520 	.word	0x30312520
    40002c70:	0d252564 	.word	0x0d252564
    40002c74:	0000000a 	.word	0x0000000a

0000000040002c78 <state_fmt>:
    40002c78:	40002ca0 	.word	0x40002ca0
    40002c7c:	00000000 	.word	0x00000000
    40002c80:	40002ca8 	.word	0x40002ca8
    40002c84:	00000000 	.word	0x00000000
    40002c88:	40002cb0 	.word	0x40002cb0
    40002c8c:	00000000 	.word	0x00000000
    40002c90:	40002cc0 	.word	0x40002cc0
    40002c94:	00000000 	.word	0x00000000
    40002c98:	40002cc8 	.word	0x40002cc8
    40002c9c:	00000000 	.word	0x00000000
    40002ca0:	72727563 	.word	0x72727563
    40002ca4:	00746e65 	.word	0x00746e65
    40002ca8:	64616572 	.word	0x64616572
    40002cac:	00000079 	.word	0x00000079
    40002cb0:	70737573 	.word	0x70737573
    40002cb4:	65646e65 	.word	0x65646e65
    40002cb8:	00000064 	.word	0x00000064
    40002cbc:	00000000 	.word	0x00000000
    40002cc0:	75736572 	.word	0x75736572
    40002cc4:	0064656d 	.word	0x0064656d
    40002cc8:	6d726574 	.word	0x6d726574
    40002ccc:	74616e69 	.word	0x74616e69
    40002cd0:	00006465 	.word	0x00006465
    40002cd4:	00000000 	.word	0x00000000
    40002cd8:	6d6f682f 	.word	0x6d6f682f
    40002cdc:	72652f65 	.word	0x72652f65
    40002ce0:	772f6b69 	.word	0x772f6b69
    40002ce4:	736b726f 	.word	0x736b726f
    40002ce8:	65636170 	.word	0x65636170
    40002cec:	6d69732f 	.word	0x6d69732f
    40002cf0:	732f6162 	.word	0x732f6162
    40002cf4:	6b2f6372 	.word	0x6b2f6372
    40002cf8:	656e7265 	.word	0x656e7265
    40002cfc:	68742f6c 	.word	0x68742f6c
    40002d00:	632e6472 	.word	0x632e6472
    40002d04:	3531383a 	.word	0x3531383a
    40002d08:	5341203a 	.word	0x5341203a
    40002d0c:	54524553 	.word	0x54524553
    40002d10:	6e28203a 	.word	0x6e28203a
    40002d14:	5f656d61 	.word	0x5f656d61
    40002d18:	3d212070 	.word	0x3d212070
    40002d1c:	76282820 	.word	0x76282820
    40002d20:	2064696f 	.word	0x2064696f
    40002d24:	2930292a 	.word	0x2930292a
    40002d28:	3232202c 	.word	0x3232202c
    40002d2c:	0a0d2029 	.word	0x0a0d2029
	...
    40002d38:	6d6f682f 	.word	0x6d6f682f
    40002d3c:	72652f65 	.word	0x72652f65
    40002d40:	772f6b69 	.word	0x772f6b69
    40002d44:	736b726f 	.word	0x736b726f
    40002d48:	65636170 	.word	0x65636170
    40002d4c:	6d69732f 	.word	0x6d69732f
    40002d50:	732f6162 	.word	0x732f6162
    40002d54:	6b2f6372 	.word	0x6b2f6372
    40002d58:	656e7265 	.word	0x656e7265
    40002d5c:	68742f6c 	.word	0x68742f6c
    40002d60:	632e6472 	.word	0x632e6472
    40002d64:	3337373a 	.word	0x3337373a
    40002d68:	5341203a 	.word	0x5341203a
    40002d6c:	54524553 	.word	0x54524553
    40002d70:	6e28203a 	.word	0x6e28203a
    40002d74:	5f656d61 	.word	0x5f656d61
    40002d78:	3d212070 	.word	0x3d212070
    40002d7c:	76282820 	.word	0x76282820
    40002d80:	2064696f 	.word	0x2064696f
    40002d84:	2930292a 	.word	0x2930292a
    40002d88:	3232202c 	.word	0x3232202c
    40002d8c:	0a0d2029 	.word	0x0a0d2029
	...
    40002d98:	6e69616d 	.word	0x6e69616d
    40002d9c:	00000000 	.word	0x00000000
    40002da0:	72656b2f 	.word	0x72656b2f
    40002da4:	2f6c656e 	.word	0x2f6c656e
    40002da8:	64726874 	.word	0x64726874
    40002dac:	73696c2f 	.word	0x73696c2f
    40002db0:	00000074 	.word	0x00000074
    40002db4:	00000000 	.word	0x00000000
    40002db8:	72656b2f 	.word	0x72656b2f
    40002dbc:	2f6c656e 	.word	0x2f6c656e
    40002dc0:	64726874 	.word	0x64726874
    40002dc4:	7465732f 	.word	0x7465732f
    40002dc8:	676f6c5f 	.word	0x676f6c5f
    40002dcc:	73616d5f 	.word	0x73616d5f
    40002dd0:	0000006b 	.word	0x0000006b
    40002dd4:	00000000 	.word	0x00000000
    40002dd8:	72656b2f 	.word	0x72656b2f
    40002ddc:	2f6c656e 	.word	0x2f6c656e
    40002de0:	64726874 	.word	0x64726874
    40002de4:	6e6f6d2f 	.word	0x6e6f6d2f
    40002de8:	726f7469 	.word	0x726f7469
    40002dec:	7465732f 	.word	0x7465732f
    40002df0:	7265705f 	.word	0x7265705f
    40002df4:	5f646f69 	.word	0x5f646f69
    40002df8:	0000736d 	.word	0x0000736d
    40002dfc:	00000000 	.word	0x00000000
    40002e00:	72656b2f 	.word	0x72656b2f
    40002e04:	2f6c656e 	.word	0x2f6c656e
    40002e08:	64726874 	.word	0x64726874
    40002e0c:	6e6f6d2f 	.word	0x6e6f6d2f
    40002e10:	726f7469 	.word	0x726f7469
    40002e14:	7465732f 	.word	0x7465732f
    40002e18:	6972705f 	.word	0x6972705f
    40002e1c:	0000746e 	.word	0x0000746e
    40002e20:	41545345 	.word	0x41545345
    40002e24:	2f3a4b43 	.word	0x2f3a4b43
    40002e28:	656d6f68 	.word	0x656d6f68
    40002e2c:	6972652f 	.word	0x6972652f
    40002e30:	6f772f6b 	.word	0x6f772f6b
    40002e34:	70736b72 	.word	0x70736b72
    40002e38:	2f656361 	.word	0x2f656361
    40002e3c:	626d6973 	.word	0x626d6973
    40002e40:	72732f61 	.word	0x72732f61
    40002e44:	656b2f63 	.word	0x656b2f63
    40002e48:	6c656e72 	.word	0x6c656e72
    40002e4c:	7268742f 	.word	0x7268742f
    40002e50:	3a632e64 	.word	0x3a632e64
    40002e54:	3a393232 	.word	0x3a393232
    40002e58:	53534120 	.word	0x53534120
    40002e5c:	3a545245 	.word	0x3a545245
    40002e60:	756f2820 	.word	0x756f2820
    40002e64:	2d705f74 	.word	0x2d705f74
    40002e68:	6174733e 	.word	0x6174733e
    40002e6c:	6c5f6b63 	.word	0x6c5f6b63
    40002e70:	6d5f776f 	.word	0x6d5f776f
    40002e74:	63696761 	.word	0x63696761
    40002e78:	203d3d20 	.word	0x203d3d20
    40002e7c:	44524854 	.word	0x44524854
    40002e80:	4154535f 	.word	0x4154535f
    40002e84:	4c5f4b43 	.word	0x4c5f4b43
    40002e88:	4d5f574f 	.word	0x4d5f574f
    40002e8c:	43494741 	.word	0x43494741
    40002e90:	00002029 	.word	0x00002029
    40002e94:	00000000 	.word	0x00000000
    40002e98:	53534145 	.word	0x53534145
    40002e9c:	3a545245 	.word	0x3a545245
    40002ea0:	6d6f682f 	.word	0x6d6f682f
    40002ea4:	72652f65 	.word	0x72652f65
    40002ea8:	772f6b69 	.word	0x772f6b69
    40002eac:	736b726f 	.word	0x736b726f
    40002eb0:	65636170 	.word	0x65636170
    40002eb4:	6d69732f 	.word	0x6d69732f
    40002eb8:	732f6162 	.word	0x732f6162
    40002ebc:	6b2f6372 	.word	0x6b2f6372
    40002ec0:	656e7265 	.word	0x656e7265
    40002ec4:	68742f6c 	.word	0x68742f6c
    40002ec8:	632e6472 	.word	0x632e6472
    40002ecc:	3838383a 	.word	0x3838383a
    40002ed0:	5341203a 	.word	0x5341203a
    40002ed4:	54524553 	.word	0x54524553
    40002ed8:	6528203a 	.word	0x6528203a
    40002edc:	3d207272 	.word	0x3d207272
    40002ee0:	2931203d 	.word	0x2931203d
    40002ee4:	00000020 	.word	0x00000020
    40002ee8:	53534145 	.word	0x53534145
    40002eec:	3a545245 	.word	0x3a545245
    40002ef0:	6d6f682f 	.word	0x6d6f682f
    40002ef4:	72652f65 	.word	0x72652f65
    40002ef8:	772f6b69 	.word	0x772f6b69
    40002efc:	736b726f 	.word	0x736b726f
    40002f00:	65636170 	.word	0x65636170
    40002f04:	6d69732f 	.word	0x6d69732f
    40002f08:	732f6162 	.word	0x732f6162
    40002f0c:	6b2f6372 	.word	0x6b2f6372
    40002f10:	656e7265 	.word	0x656e7265
    40002f14:	68742f6c 	.word	0x68742f6c
    40002f18:	632e6472 	.word	0x632e6472
    40002f1c:	3736363a 	.word	0x3736363a
    40002f20:	5341203a 	.word	0x5341203a
    40002f24:	54524553 	.word	0x54524553
    40002f28:	7228203a 	.word	0x7228203a
    40002f2c:	3d207365 	.word	0x3d207365
    40002f30:	312d203d 	.word	0x312d203d
    40002f34:	20293031 	.word	0x20293031
	...
    40002f40:	6d6f682f 	.word	0x6d6f682f
    40002f44:	72652f65 	.word	0x72652f65
    40002f48:	772f6b69 	.word	0x772f6b69
    40002f4c:	736b726f 	.word	0x736b726f
    40002f50:	65636170 	.word	0x65636170
    40002f54:	6d69732f 	.word	0x6d69732f
    40002f58:	732f6162 	.word	0x732f6162
    40002f5c:	6b2f6372 	.word	0x6b2f6372
    40002f60:	656e7265 	.word	0x656e7265
    40002f64:	68742f6c 	.word	0x68742f6c
    40002f68:	632e6472 	.word	0x632e6472
    40002f6c:	3232353a 	.word	0x3232353a
    40002f70:	5341203a 	.word	0x5341203a
    40002f74:	54524553 	.word	0x54524553
    40002f78:	6d28203a 	.word	0x6d28203a
    40002f7c:	206e6961 	.word	0x206e6961
    40002f80:	28203d21 	.word	0x28203d21
    40002f84:	696f7628 	.word	0x696f7628
    40002f88:	292a2064 	.word	0x292a2064
    40002f8c:	202c2930 	.word	0x202c2930
    40002f90:	20293232 	.word	0x20293232
    40002f94:	00000a0d 	.word	0x00000a0d
    40002f98:	6d6f682f 	.word	0x6d6f682f
    40002f9c:	72652f65 	.word	0x72652f65
    40002fa0:	772f6b69 	.word	0x772f6b69
    40002fa4:	736b726f 	.word	0x736b726f
    40002fa8:	65636170 	.word	0x65636170
    40002fac:	6d69732f 	.word	0x6d69732f
    40002fb0:	732f6162 	.word	0x732f6162
    40002fb4:	6b2f6372 	.word	0x6b2f6372
    40002fb8:	656e7265 	.word	0x656e7265
    40002fbc:	68742f6c 	.word	0x68742f6c
    40002fc0:	632e6472 	.word	0x632e6472
    40002fc4:	3332353a 	.word	0x3332353a
    40002fc8:	5341203a 	.word	0x5341203a
    40002fcc:	54524553 	.word	0x54524553
    40002fd0:	7328203a 	.word	0x7328203a
    40002fd4:	6b636174 	.word	0x6b636174
    40002fd8:	2120705f 	.word	0x2120705f
    40002fdc:	2828203d 	.word	0x2828203d
    40002fe0:	64696f76 	.word	0x64696f76
    40002fe4:	30292a20 	.word	0x30292a20
    40002fe8:	32202c29 	.word	0x32202c29
    40002fec:	0d202932 	.word	0x0d202932
    40002ff0:	0000000a 	.word	0x0000000a
    40002ff4:	00000000 	.word	0x00000000
    40002ff8:	6d6f682f 	.word	0x6d6f682f
    40002ffc:	72652f65 	.word	0x72652f65
    40003000:	772f6b69 	.word	0x772f6b69
    40003004:	736b726f 	.word	0x736b726f
    40003008:	65636170 	.word	0x65636170
    4000300c:	6d69732f 	.word	0x6d69732f
    40003010:	732f6162 	.word	0x732f6162
    40003014:	6b2f6372 	.word	0x6b2f6372
    40003018:	656e7265 	.word	0x656e7265
    4000301c:	68742f6c 	.word	0x68742f6c
    40003020:	632e6472 	.word	0x632e6472
    40003024:	3432353a 	.word	0x3432353a
    40003028:	5341203a 	.word	0x5341203a
    4000302c:	54524553 	.word	0x54524553
    40003030:	7328203a 	.word	0x7328203a
    40003034:	6b636174 	.word	0x6b636174
    40003038:	7a69735f 	.word	0x7a69735f
    4000303c:	203e2065 	.word	0x203e2065
    40003040:	657a6973 	.word	0x657a6973
    40003044:	7328666f 	.word	0x7328666f
    40003048:	63757274 	.word	0x63757274
    4000304c:	68742074 	.word	0x68742074
    40003050:	745f6472 	.word	0x745f6472
    40003054:	202b2029 	.word	0x202b2029
    40003058:	32202c31 	.word	0x32202c31
    4000305c:	0d202932 	.word	0x0d202932
    40003060:	0000000a 	.word	0x0000000a
    40003064:	00000000 	.word	0x00000000
    40003068:	53534145 	.word	0x53534145
    4000306c:	3a545245 	.word	0x3a545245
    40003070:	6d6f682f 	.word	0x6d6f682f
    40003074:	72652f65 	.word	0x72652f65
    40003078:	772f6b69 	.word	0x772f6b69
    4000307c:	736b726f 	.word	0x736b726f
    40003080:	65636170 	.word	0x65636170
    40003084:	6d69732f 	.word	0x6d69732f
    40003088:	732f6162 	.word	0x732f6162
    4000308c:	6b2f6372 	.word	0x6b2f6372
    40003090:	656e7265 	.word	0x656e7265
    40003094:	68742f6c 	.word	0x68742f6c
    40003098:	632e6472 	.word	0x632e6472
    4000309c:	3935383a 	.word	0x3935383a
    400030a0:	5341203a 	.word	0x5341203a
    400030a4:	54524553 	.word	0x54524553
    400030a8:	7428203a 	.word	0x7428203a
    400030ac:	5f647268 	.word	0x5f647268
    400030b0:	743e2d70 	.word	0x743e2d70
    400030b4:	72656d69 	.word	0x72656d69
    400030b8:	3d20705f 	.word	0x3d20705f
    400030bc:	2828203d 	.word	0x2828203d
    400030c0:	64696f76 	.word	0x64696f76
    400030c4:	30292a20 	.word	0x30292a20
    400030c8:	00202929 	.word	0x00202929
    400030cc:	00000000 	.word	0x00000000
    400030d0:	6d6f682f 	.word	0x6d6f682f
    400030d4:	72652f65 	.word	0x72652f65
    400030d8:	772f6b69 	.word	0x772f6b69
    400030dc:	736b726f 	.word	0x736b726f
    400030e0:	65636170 	.word	0x65636170
    400030e4:	6d69732f 	.word	0x6d69732f
    400030e8:	732f6162 	.word	0x732f6162
    400030ec:	6b2f6372 	.word	0x6b2f6372
    400030f0:	656e7265 	.word	0x656e7265
    400030f4:	69742f6c 	.word	0x69742f6c
    400030f8:	632e656d 	.word	0x632e656d
    400030fc:	3a37383a 	.word	0x3a37383a
    40003100:	53534120 	.word	0x53534120
    40003104:	3a545245 	.word	0x3a545245
    40003108:	65722820 	.word	0x65722820
    4000310c:	20705f73 	.word	0x20705f73
    40003110:	28203d21 	.word	0x28203d21
    40003114:	696f7628 	.word	0x696f7628
    40003118:	292a2064 	.word	0x292a2064
    4000311c:	202c2930 	.word	0x202c2930
    40003120:	20293232 	.word	0x20293232
    40003124:	00000a0d 	.word	0x00000a0d
    40003128:	6d6f682f 	.word	0x6d6f682f
    4000312c:	72652f65 	.word	0x72652f65
    40003130:	772f6b69 	.word	0x772f6b69
    40003134:	736b726f 	.word	0x736b726f
    40003138:	65636170 	.word	0x65636170
    4000313c:	6d69732f 	.word	0x6d69732f
    40003140:	732f6162 	.word	0x732f6162
    40003144:	6b2f6372 	.word	0x6b2f6372
    40003148:	656e7265 	.word	0x656e7265
    4000314c:	69742f6c 	.word	0x69742f6c
    40003150:	632e656d 	.word	0x632e656d
    40003154:	3a38383a 	.word	0x3a38383a
    40003158:	53534120 	.word	0x53534120
    4000315c:	3a545245 	.word	0x3a545245
    40003160:	656c2820 	.word	0x656c2820
    40003164:	705f7466 	.word	0x705f7466
    40003168:	203d2120 	.word	0x203d2120
    4000316c:	6f762828 	.word	0x6f762828
    40003170:	2a206469 	.word	0x2a206469
    40003174:	2c293029 	.word	0x2c293029
    40003178:	29323220 	.word	0x29323220
    4000317c:	000a0d20 	.word	0x000a0d20
    40003180:	6d6f682f 	.word	0x6d6f682f
    40003184:	72652f65 	.word	0x72652f65
    40003188:	772f6b69 	.word	0x772f6b69
    4000318c:	736b726f 	.word	0x736b726f
    40003190:	65636170 	.word	0x65636170
    40003194:	6d69732f 	.word	0x6d69732f
    40003198:	732f6162 	.word	0x732f6162
    4000319c:	6b2f6372 	.word	0x6b2f6372
    400031a0:	656e7265 	.word	0x656e7265
    400031a4:	69742f6c 	.word	0x69742f6c
    400031a8:	632e656d 	.word	0x632e656d
    400031ac:	3a39383a 	.word	0x3a39383a
    400031b0:	53534120 	.word	0x53534120
    400031b4:	3a545245 	.word	0x3a545245
    400031b8:	69722820 	.word	0x69722820
    400031bc:	5f746867 	.word	0x5f746867
    400031c0:	3d212070 	.word	0x3d212070
    400031c4:	76282820 	.word	0x76282820
    400031c8:	2064696f 	.word	0x2064696f
    400031cc:	2930292a 	.word	0x2930292a
    400031d0:	3232202c 	.word	0x3232202c
    400031d4:	0a0d2029 	.word	0x0a0d2029
	...
    400031e0:	6d6f682f 	.word	0x6d6f682f
    400031e4:	72652f65 	.word	0x72652f65
    400031e8:	772f6b69 	.word	0x772f6b69
    400031ec:	736b726f 	.word	0x736b726f
    400031f0:	65636170 	.word	0x65636170
    400031f4:	6d69732f 	.word	0x6d69732f
    400031f8:	732f6162 	.word	0x732f6162
    400031fc:	6b2f6372 	.word	0x6b2f6372
    40003200:	656e7265 	.word	0x656e7265
    40003204:	69742f6c 	.word	0x69742f6c
    40003208:	632e656d 	.word	0x632e656d
    4000320c:	3a31363a 	.word	0x3a31363a
    40003210:	53534120 	.word	0x53534120
    40003214:	3a545245 	.word	0x3a545245
    40003218:	6f6e2820 	.word	0x6f6e2820
    4000321c:	20705f77 	.word	0x20705f77
    40003220:	28203d21 	.word	0x28203d21
    40003224:	696f7628 	.word	0x696f7628
    40003228:	292a2064 	.word	0x292a2064
    4000322c:	202c2930 	.word	0x202c2930
    40003230:	20293232 	.word	0x20293232
    40003234:	00000a0d 	.word	0x00000a0d
    40003238:	6d6f682f 	.word	0x6d6f682f
    4000323c:	72652f65 	.word	0x72652f65
    40003240:	772f6b69 	.word	0x772f6b69
    40003244:	736b726f 	.word	0x736b726f
    40003248:	65636170 	.word	0x65636170
    4000324c:	6d69732f 	.word	0x6d69732f
    40003250:	732f6162 	.word	0x732f6162
    40003254:	6b2f6372 	.word	0x6b2f6372
    40003258:	656e7265 	.word	0x656e7265
    4000325c:	69742f6c 	.word	0x69742f6c
    40003260:	2e72656d 	.word	0x2e72656d
    40003264:	31323a63 	.word	0x31323a63
    40003268:	41203a35 	.word	0x41203a35
    4000326c:	52455353 	.word	0x52455353
    40003270:	28203a54 	.word	0x28203a54
    40003274:	666c6573 	.word	0x666c6573
    40003278:	2120705f 	.word	0x2120705f
    4000327c:	2828203d 	.word	0x2828203d
    40003280:	64696f76 	.word	0x64696f76
    40003284:	30292a20 	.word	0x30292a20
    40003288:	32202c29 	.word	0x32202c29
    4000328c:	0d202932 	.word	0x0d202932
    40003290:	0000000a 	.word	0x0000000a
    40003294:	00000000 	.word	0x00000000
    40003298:	6d6f682f 	.word	0x6d6f682f
    4000329c:	72652f65 	.word	0x72652f65
    400032a0:	772f6b69 	.word	0x772f6b69
    400032a4:	736b726f 	.word	0x736b726f
    400032a8:	65636170 	.word	0x65636170
    400032ac:	6d69732f 	.word	0x6d69732f
    400032b0:	732f6162 	.word	0x732f6162
    400032b4:	6b2f6372 	.word	0x6b2f6372
    400032b8:	656e7265 	.word	0x656e7265
    400032bc:	69742f6c 	.word	0x69742f6c
    400032c0:	2e72656d 	.word	0x2e72656d
    400032c4:	31323a63 	.word	0x31323a63
    400032c8:	41203a36 	.word	0x41203a36
    400032cc:	52455353 	.word	0x52455353
    400032d0:	28203a54 	.word	0x28203a54
    400032d4:	656d6974 	.word	0x656d6974
    400032d8:	5f74756f 	.word	0x5f74756f
    400032dc:	3d212070 	.word	0x3d212070
    400032e0:	76282820 	.word	0x76282820
    400032e4:	2064696f 	.word	0x2064696f
    400032e8:	2930292a 	.word	0x2930292a
    400032ec:	3232202c 	.word	0x3232202c
    400032f0:	0a0d2029 	.word	0x0a0d2029
    400032f4:	00000000 	.word	0x00000000
    400032f8:	6d6f682f 	.word	0x6d6f682f
    400032fc:	72652f65 	.word	0x72652f65
    40003300:	772f6b69 	.word	0x772f6b69
    40003304:	736b726f 	.word	0x736b726f
    40003308:	65636170 	.word	0x65636170
    4000330c:	6d69732f 	.word	0x6d69732f
    40003310:	732f6162 	.word	0x732f6162
    40003314:	6b2f6372 	.word	0x6b2f6372
    40003318:	656e7265 	.word	0x656e7265
    4000331c:	69742f6c 	.word	0x69742f6c
    40003320:	2e72656d 	.word	0x2e72656d
    40003324:	31323a63 	.word	0x31323a63
    40003328:	41203a37 	.word	0x41203a37
    4000332c:	52455353 	.word	0x52455353
    40003330:	28203a54 	.word	0x28203a54
    40003334:	6c6c6163 	.word	0x6c6c6163
    40003338:	6b636162 	.word	0x6b636162
    4000333c:	203d2120 	.word	0x203d2120
    40003340:	6f762828 	.word	0x6f762828
    40003344:	2a206469 	.word	0x2a206469
    40003348:	2c293029 	.word	0x2c293029
    4000334c:	29323220 	.word	0x29323220
    40003350:	000a0d20 	.word	0x000a0d20
    40003354:	00000000 	.word	0x00000000
    40003358:	67617355 	.word	0x67617355
    4000335c:	72203a65 	.word	0x72203a65
    40003360:	20646165 	.word	0x20646165
    40003364:	6464613c 	.word	0x6464613c
    40003368:	73736572 	.word	0x73736572
    4000336c:	000a0d3e 	.word	0x000a0d3e
    40003370:	203a7325 	.word	0x203a7325
    40003374:	20646162 	.word	0x20646162
    40003378:	72646461 	.word	0x72646461
    4000337c:	0d737365 	.word	0x0d737365
    40003380:	0000000a 	.word	0x0000000a
    40003384:	00000000 	.word	0x00000000
    40003388:	67617355 	.word	0x67617355
    4000338c:	77203a65 	.word	0x77203a65
    40003390:	65746972 	.word	0x65746972
    40003394:	64613c20 	.word	0x64613c20
    40003398:	73657264 	.word	0x73657264
    4000339c:	3c203e73 	.word	0x3c203e73
    400033a0:	61746164 	.word	0x61746164
    400033a4:	000a0d3e 	.word	0x000a0d3e
    400033a8:	203a7325 	.word	0x203a7325
    400033ac:	20646162 	.word	0x20646162
    400033b0:	61746164 	.word	0x61746164
    400033b4:	00000a0d 	.word	0x00000a0d
    400033b8:	203a7325 	.word	0x203a7325
    400033bc:	61746164 	.word	0x61746164
    400033c0:	74756f20 	.word	0x74756f20
    400033c4:	20666f20 	.word	0x20666f20
    400033c8:	676e6172 	.word	0x676e6172
    400033cc:	000a0d65 	.word	0x000a0d65
    400033d0:	6d616f2f 	.word	0x6d616f2f
    400033d4:	6d766e2f 	.word	0x6d766e2f
    400033d8:	6165722f 	.word	0x6165722f
    400033dc:	00000064 	.word	0x00000064
    400033e0:	6d616f2f 	.word	0x6d616f2f
    400033e4:	6d766e2f 	.word	0x6d766e2f
    400033e8:	6972772f 	.word	0x6972772f
    400033ec:	00006574 	.word	0x00006574
    400033f0:	6d6f682f 	.word	0x6d6f682f
    400033f4:	72652f65 	.word	0x72652f65
    400033f8:	772f6b69 	.word	0x772f6b69
    400033fc:	736b726f 	.word	0x736b726f
    40003400:	65636170 	.word	0x65636170
    40003404:	6d69732f 	.word	0x6d69732f
    40003408:	732f6162 	.word	0x732f6162
    4000340c:	6f2f6372 	.word	0x6f2f6372
    40003410:	6e2f6d61 	.word	0x6e2f6d61
    40003414:	632e6d76 	.word	0x632e6d76
    40003418:	3538313a 	.word	0x3538313a
    4000341c:	5341203a 	.word	0x5341203a
    40003420:	54524553 	.word	0x54524553
    40003424:	6d28203a 	.word	0x6d28203a
    40003428:	6c75646f 	.word	0x6c75646f
    4000342c:	6e692e65 	.word	0x6e692e65
    40003430:	61697469 	.word	0x61697469
    40003434:	657a696c 	.word	0x657a696c
    40003438:	3d3d2064 	.word	0x3d3d2064
    4000343c:	202c3120 	.word	0x202c3120
    40003440:	20293232 	.word	0x20293232
    40003444:	00000a0d 	.word	0x00000a0d
    40003448:	6d6f682f 	.word	0x6d6f682f
    4000344c:	72652f65 	.word	0x72652f65
    40003450:	772f6b69 	.word	0x772f6b69
    40003454:	736b726f 	.word	0x736b726f
    40003458:	65636170 	.word	0x65636170
    4000345c:	6d69732f 	.word	0x6d69732f
    40003460:	732f6162 	.word	0x732f6162
    40003464:	6f2f6372 	.word	0x6f2f6372
    40003468:	6e2f6d61 	.word	0x6e2f6d61
    4000346c:	632e6d76 	.word	0x632e6d76
    40003470:	3638313a 	.word	0x3638313a
    40003474:	5341203a 	.word	0x5341203a
    40003478:	54524553 	.word	0x54524553
    4000347c:	6428203a 	.word	0x6428203a
    40003480:	705f7473 	.word	0x705f7473
    40003484:	203d2120 	.word	0x203d2120
    40003488:	6f762828 	.word	0x6f762828
    4000348c:	2a206469 	.word	0x2a206469
    40003490:	2c293029 	.word	0x2c293029
    40003494:	29323220 	.word	0x29323220
    40003498:	000a0d20 	.word	0x000a0d20
    4000349c:	00000000 	.word	0x00000000
    400034a0:	6d6f682f 	.word	0x6d6f682f
    400034a4:	72652f65 	.word	0x72652f65
    400034a8:	772f6b69 	.word	0x772f6b69
    400034ac:	736b726f 	.word	0x736b726f
    400034b0:	65636170 	.word	0x65636170
    400034b4:	6d69732f 	.word	0x6d69732f
    400034b8:	732f6162 	.word	0x732f6162
    400034bc:	6f2f6372 	.word	0x6f2f6372
    400034c0:	6e2f6d61 	.word	0x6e2f6d61
    400034c4:	632e6d76 	.word	0x632e6d76
    400034c8:	3738313a 	.word	0x3738313a
    400034cc:	5341203a 	.word	0x5341203a
    400034d0:	54524553 	.word	0x54524553
    400034d4:	7328203a 	.word	0x7328203a
    400034d8:	20657a69 	.word	0x20657a69
    400034dc:	2c30203e 	.word	0x2c30203e
    400034e0:	29323220 	.word	0x29323220
    400034e4:	000a0d20 	.word	0x000a0d20
    400034e8:	6d6f682f 	.word	0x6d6f682f
    400034ec:	72652f65 	.word	0x72652f65
    400034f0:	772f6b69 	.word	0x772f6b69
    400034f4:	736b726f 	.word	0x736b726f
    400034f8:	65636170 	.word	0x65636170
    400034fc:	6d69732f 	.word	0x6d69732f
    40003500:	732f6162 	.word	0x732f6162
    40003504:	6f2f6372 	.word	0x6f2f6372
    40003508:	6e2f6d61 	.word	0x6e2f6d61
    4000350c:	632e6d76 	.word	0x632e6d76
    40003510:	3439313a 	.word	0x3439313a
    40003514:	5341203a 	.word	0x5341203a
    40003518:	54524553 	.word	0x54524553
    4000351c:	6d28203a 	.word	0x6d28203a
    40003520:	6c75646f 	.word	0x6c75646f
    40003524:	6e692e65 	.word	0x6e692e65
    40003528:	61697469 	.word	0x61697469
    4000352c:	657a696c 	.word	0x657a696c
    40003530:	3d3d2064 	.word	0x3d3d2064
    40003534:	202c3120 	.word	0x202c3120
    40003538:	20293232 	.word	0x20293232
    4000353c:	00000a0d 	.word	0x00000a0d
    40003540:	6d6f682f 	.word	0x6d6f682f
    40003544:	72652f65 	.word	0x72652f65
    40003548:	772f6b69 	.word	0x772f6b69
    4000354c:	736b726f 	.word	0x736b726f
    40003550:	65636170 	.word	0x65636170
    40003554:	6d69732f 	.word	0x6d69732f
    40003558:	732f6162 	.word	0x732f6162
    4000355c:	6f2f6372 	.word	0x6f2f6372
    40003560:	6e2f6d61 	.word	0x6e2f6d61
    40003564:	632e6d76 	.word	0x632e6d76
    40003568:	3539313a 	.word	0x3539313a
    4000356c:	5341203a 	.word	0x5341203a
    40003570:	54524553 	.word	0x54524553
    40003574:	7328203a 	.word	0x7328203a
    40003578:	705f6372 	.word	0x705f6372
    4000357c:	203d2120 	.word	0x203d2120
    40003580:	6f762828 	.word	0x6f762828
    40003584:	2a206469 	.word	0x2a206469
    40003588:	2c293029 	.word	0x2c293029
    4000358c:	29323220 	.word	0x29323220
    40003590:	000a0d20 	.word	0x000a0d20
    40003594:	00000000 	.word	0x00000000
    40003598:	6d6f682f 	.word	0x6d6f682f
    4000359c:	72652f65 	.word	0x72652f65
    400035a0:	772f6b69 	.word	0x772f6b69
    400035a4:	736b726f 	.word	0x736b726f
    400035a8:	65636170 	.word	0x65636170
    400035ac:	6d69732f 	.word	0x6d69732f
    400035b0:	732f6162 	.word	0x732f6162
    400035b4:	6f2f6372 	.word	0x6f2f6372
    400035b8:	6e2f6d61 	.word	0x6e2f6d61
    400035bc:	632e6d76 	.word	0x632e6d76
    400035c0:	3639313a 	.word	0x3639313a
    400035c4:	5341203a 	.word	0x5341203a
    400035c8:	54524553 	.word	0x54524553
    400035cc:	7328203a 	.word	0x7328203a
    400035d0:	20657a69 	.word	0x20657a69
    400035d4:	2c30203e 	.word	0x2c30203e
    400035d8:	29323220 	.word	0x29323220
    400035dc:	000a0d20 	.word	0x000a0d20
    400035e0:	454d414e 	.word	0x454d414e
    400035e4:	20202020 	.word	0x20202020
    400035e8:	20202020 	.word	0x20202020
    400035ec:	20202020 	.word	0x20202020
    400035f0:	20202020 	.word	0x20202020
    400035f4:	20202020 	.word	0x20202020
    400035f8:	20202020 	.word	0x20202020
    400035fc:	20202020 	.word	0x20202020
    40003600:	20202020 	.word	0x20202020
    40003604:	20202020 	.word	0x20202020
    40003608:	59542020 	.word	0x59542020
    4000360c:	20204550 	.word	0x20204550
    40003610:	20202020 	.word	0x20202020
    40003614:	455a4953 	.word	0x455a4953
    40003618:	41562020 	.word	0x41562020
    4000361c:	0d45554c 	.word	0x0d45554c
    40003620:	0000000a 	.word	0x0000000a
    40003624:	00000000 	.word	0x00000000
    40003628:	30342d25 	.word	0x30342d25
    4000362c:	00202073 	.word	0x00202073
    40003630:	33746e69 	.word	0x33746e69
    40003634:	20745f32 	.word	0x20745f32
    40003638:	20202020 	.word	0x20202020
    4000363c:	20203420 	.word	0x20203420
    40003640:	0d646c25 	.word	0x0d646c25
    40003644:	0000000a 	.word	0x0000000a
    40003648:	69727473 	.word	0x69727473
    4000364c:	745f676e 	.word	0x745f676e
    40003650:	34252020 	.word	0x34252020
    40003654:	00202075 	.word	0x00202075
    40003658:	626f6c62 	.word	0x626f6c62
    4000365c:	2020745f 	.word	0x2020745f
    40003660:	34252020 	.word	0x34252020
    40003664:	00202075 	.word	0x00202075
    40003668:	67617355 	.word	0x67617355
    4000366c:	72203a65 	.word	0x72203a65
    40003670:	20646165 	.word	0x20646165
    40003674:	6d616e3c 	.word	0x6d616e3c
    40003678:	0a0d3e65 	.word	0x0a0d3e65
    4000367c:	00000000 	.word	0x00000000
    40003680:	00006325 	.word	0x00006325
    40003684:	00000000 	.word	0x00000000
    40003688:	78323025 	.word	0x78323025
    4000368c:	00000000 	.word	0x00000000
    40003690:	20646162 	.word	0x20646162
    40003694:	74746573 	.word	0x74746573
    40003698:	20676e69 	.word	0x20676e69
    4000369c:	65707974 	.word	0x65707974
    400036a0:	0d642520 	.word	0x0d642520
    400036a4:	0000000a 	.word	0x0000000a
    400036a8:	203a7325 	.word	0x203a7325
    400036ac:	74746573 	.word	0x74746573
    400036b0:	20676e69 	.word	0x20676e69
    400036b4:	20746f6e 	.word	0x20746f6e
    400036b8:	6e756f66 	.word	0x6e756f66
    400036bc:	000a0d64 	.word	0x000a0d64
    400036c0:	67617355 	.word	0x67617355
    400036c4:	72203a65 	.word	0x72203a65
    400036c8:	74657365 	.word	0x74657365
    400036cc:	6e3c5b20 	.word	0x6e3c5b20
    400036d0:	3e656d61 	.word	0x3e656d61
    400036d4:	000a0d5d 	.word	0x000a0d5d
    400036d8:	67617355 	.word	0x67617355
    400036dc:	77203a65 	.word	0x77203a65
    400036e0:	65746972 	.word	0x65746972
    400036e4:	616e3c20 	.word	0x616e3c20
    400036e8:	203e656d 	.word	0x203e656d
    400036ec:	6c61763c 	.word	0x6c61763c
    400036f0:	0d3e6575 	.word	0x0d3e6575
    400036f4:	0000000a 	.word	0x0000000a
    400036f8:	3a646c25 	.word	0x3a646c25
    400036fc:	6c617620 	.word	0x6c617620
    40003700:	6f206575 	.word	0x6f206575
    40003704:	6f207475 	.word	0x6f207475
    40003708:	61722066 	.word	0x61722066
    4000370c:	0d65676e 	.word	0x0d65676e
    40003710:	0000000a 	.word	0x0000000a
    40003714:	00000000 	.word	0x00000000
    40003718:	203a7325 	.word	0x203a7325
    4000371c:	69727473 	.word	0x69727473
    40003720:	7420676e 	.word	0x7420676e
    40003724:	6c206f6f 	.word	0x6c206f6f
    40003728:	0d676e6f 	.word	0x0d676e6f
    4000372c:	0000000a 	.word	0x0000000a
    40003730:	203a7525 	.word	0x203a7525
    40003734:	20646162 	.word	0x20646162
    40003738:	626f6c62 	.word	0x626f6c62
    4000373c:	74616420 	.word	0x74616420
    40003740:	656c2061 	.word	0x656c2061
    40003744:	6874676e 	.word	0x6874676e
    40003748:	00000a0d 	.word	0x00000a0d
    4000374c:	00000000 	.word	0x00000000
    40003750:	203a7325 	.word	0x203a7325
    40003754:	20646162 	.word	0x20646162
    40003758:	626f6c62 	.word	0x626f6c62
    4000375c:	74616420 	.word	0x74616420
    40003760:	000a0d61 	.word	0x000a0d61
    40003764:	00000000 	.word	0x00000000
    40003768:	6d616f2f 	.word	0x6d616f2f
    4000376c:	7465732f 	.word	0x7465732f
    40003770:	676e6974 	.word	0x676e6974
    40003774:	696c2f73 	.word	0x696c2f73
    40003778:	00007473 	.word	0x00007473
    4000377c:	00000000 	.word	0x00000000
    40003780:	6d616f2f 	.word	0x6d616f2f
    40003784:	7465732f 	.word	0x7465732f
    40003788:	676e6974 	.word	0x676e6974
    4000378c:	65722f73 	.word	0x65722f73
    40003790:	00746573 	.word	0x00746573
    40003794:	00000000 	.word	0x00000000
    40003798:	6d616f2f 	.word	0x6d616f2f
    4000379c:	7465732f 	.word	0x7465732f
    400037a0:	676e6974 	.word	0x676e6974
    400037a4:	65722f73 	.word	0x65722f73
    400037a8:	00006461 	.word	0x00006461
    400037ac:	00000000 	.word	0x00000000
    400037b0:	6d616f2f 	.word	0x6d616f2f
    400037b4:	7465732f 	.word	0x7465732f
    400037b8:	676e6974 	.word	0x676e6974
    400037bc:	72772f73 	.word	0x72772f73
    400037c0:	00657469 	.word	0x00657469
    400037c4:	00000000 	.word	0x00000000
    400037c8:	6d6f682f 	.word	0x6d6f682f
    400037cc:	72652f65 	.word	0x72652f65
    400037d0:	772f6b69 	.word	0x772f6b69
    400037d4:	736b726f 	.word	0x736b726f
    400037d8:	65636170 	.word	0x65636170
    400037dc:	6d69732f 	.word	0x6d69732f
    400037e0:	732f6162 	.word	0x732f6162
    400037e4:	6f2f6372 	.word	0x6f2f6372
    400037e8:	732f6d61 	.word	0x732f6d61
    400037ec:	69747465 	.word	0x69747465
    400037f0:	2e73676e 	.word	0x2e73676e
    400037f4:	35343a63 	.word	0x35343a63
    400037f8:	41203a39 	.word	0x41203a39
    400037fc:	52455353 	.word	0x52455353
    40003800:	28203a54 	.word	0x28203a54
    40003804:	5f747364 	.word	0x5f747364
    40003808:	3d212070 	.word	0x3d212070
    4000380c:	76282820 	.word	0x76282820
    40003810:	2064696f 	.word	0x2064696f
    40003814:	2930292a 	.word	0x2930292a
    40003818:	3232202c 	.word	0x3232202c
    4000381c:	0a0d2029 	.word	0x0a0d2029
	...
    40003828:	6d6f682f 	.word	0x6d6f682f
    4000382c:	72652f65 	.word	0x72652f65
    40003830:	772f6b69 	.word	0x772f6b69
    40003834:	736b726f 	.word	0x736b726f
    40003838:	65636170 	.word	0x65636170
    4000383c:	6d69732f 	.word	0x6d69732f
    40003840:	732f6162 	.word	0x732f6162
    40003844:	6f2f6372 	.word	0x6f2f6372
    40003848:	732f6d61 	.word	0x732f6d61
    4000384c:	69747465 	.word	0x69747465
    40003850:	2e73676e 	.word	0x2e73676e
    40003854:	36343a63 	.word	0x36343a63
    40003858:	41203a30 	.word	0x41203a30
    4000385c:	52455353 	.word	0x52455353
    40003860:	28203a54 	.word	0x28203a54
    40003864:	657a6973 	.word	0x657a6973
    40003868:	30203e20 	.word	0x30203e20
    4000386c:	3232202c 	.word	0x3232202c
    40003870:	0a0d2029 	.word	0x0a0d2029
    40003874:	00000000 	.word	0x00000000
    40003878:	6d6f682f 	.word	0x6d6f682f
    4000387c:	72652f65 	.word	0x72652f65
    40003880:	772f6b69 	.word	0x772f6b69
    40003884:	736b726f 	.word	0x736b726f
    40003888:	65636170 	.word	0x65636170
    4000388c:	6d69732f 	.word	0x6d69732f
    40003890:	732f6162 	.word	0x732f6162
    40003894:	6f2f6372 	.word	0x6f2f6372
    40003898:	732f6d61 	.word	0x732f6d61
    4000389c:	69747465 	.word	0x69747465
    400038a0:	2e73676e 	.word	0x2e73676e
    400038a4:	37343a63 	.word	0x37343a63
    400038a8:	41203a35 	.word	0x41203a35
    400038ac:	52455353 	.word	0x52455353
    400038b0:	28203a54 	.word	0x28203a54
    400038b4:	72646461 	.word	0x72646461
    400038b8:	20737365 	.word	0x20737365
    400038bc:	6973203c 	.word	0x6973203c
    400038c0:	666f657a 	.word	0x666f657a
    400038c4:	74657328 	.word	0x74657328
    400038c8:	676e6974 	.word	0x676e6974
    400038cc:	65645f73 	.word	0x65645f73
    400038d0:	6c756166 	.word	0x6c756166
    400038d4:	202c2974 	.word	0x202c2974
    400038d8:	20293232 	.word	0x20293232
    400038dc:	00000a0d 	.word	0x00000a0d
    400038e0:	6d6f682f 	.word	0x6d6f682f
    400038e4:	72652f65 	.word	0x72652f65
    400038e8:	772f6b69 	.word	0x772f6b69
    400038ec:	736b726f 	.word	0x736b726f
    400038f0:	65636170 	.word	0x65636170
    400038f4:	6d69732f 	.word	0x6d69732f
    400038f8:	732f6162 	.word	0x732f6162
    400038fc:	6f2f6372 	.word	0x6f2f6372
    40003900:	732f6d61 	.word	0x732f6d61
    40003904:	69747465 	.word	0x69747465
    40003908:	2e73676e 	.word	0x2e73676e
    4000390c:	37343a63 	.word	0x37343a63
    40003910:	41203a36 	.word	0x41203a36
    40003914:	52455353 	.word	0x52455353
    40003918:	28203a54 	.word	0x28203a54
    4000391c:	64646128 	.word	0x64646128
    40003920:	73736572 	.word	0x73736572
    40003924:	73202b20 	.word	0x73202b20
    40003928:	29657a69 	.word	0x29657a69
    4000392c:	203d3c20 	.word	0x203d3c20
    40003930:	657a6973 	.word	0x657a6973
    40003934:	7328666f 	.word	0x7328666f
    40003938:	69747465 	.word	0x69747465
    4000393c:	5f73676e 	.word	0x5f73676e
    40003940:	61666564 	.word	0x61666564
    40003944:	29746c75 	.word	0x29746c75
    40003948:	3232202c 	.word	0x3232202c
    4000394c:	0a0d2029 	.word	0x0a0d2029
	...
    40003958:	6d6f682f 	.word	0x6d6f682f
    4000395c:	72652f65 	.word	0x72652f65
    40003960:	772f6b69 	.word	0x772f6b69
    40003964:	736b726f 	.word	0x736b726f
    40003968:	65636170 	.word	0x65636170
    4000396c:	6d69732f 	.word	0x6d69732f
    40003970:	732f6162 	.word	0x732f6162
    40003974:	6f2f6372 	.word	0x6f2f6372
    40003978:	732f6d61 	.word	0x732f6d61
    4000397c:	69747465 	.word	0x69747465
    40003980:	2e73676e 	.word	0x2e73676e
    40003984:	36343a63 	.word	0x36343a63
    40003988:	41203a37 	.word	0x41203a37
    4000398c:	52455353 	.word	0x52455353
    40003990:	28203a54 	.word	0x28203a54
    40003994:	5f637273 	.word	0x5f637273
    40003998:	3d212070 	.word	0x3d212070
    4000399c:	76282820 	.word	0x76282820
    400039a0:	2064696f 	.word	0x2064696f
    400039a4:	2930292a 	.word	0x2930292a
    400039a8:	3232202c 	.word	0x3232202c
    400039ac:	0a0d2029 	.word	0x0a0d2029
	...
    400039b8:	6d6f682f 	.word	0x6d6f682f
    400039bc:	72652f65 	.word	0x72652f65
    400039c0:	772f6b69 	.word	0x772f6b69
    400039c4:	736b726f 	.word	0x736b726f
    400039c8:	65636170 	.word	0x65636170
    400039cc:	6d69732f 	.word	0x6d69732f
    400039d0:	732f6162 	.word	0x732f6162
    400039d4:	6f2f6372 	.word	0x6f2f6372
    400039d8:	732f6d61 	.word	0x732f6d61
    400039dc:	69747465 	.word	0x69747465
    400039e0:	2e73676e 	.word	0x2e73676e
    400039e4:	36343a63 	.word	0x36343a63
    400039e8:	41203a38 	.word	0x41203a38
    400039ec:	52455353 	.word	0x52455353
    400039f0:	28203a54 	.word	0x28203a54
    400039f4:	657a6973 	.word	0x657a6973
    400039f8:	30203e20 	.word	0x30203e20
    400039fc:	3232202c 	.word	0x3232202c
    40003a00:	0a0d2029 	.word	0x0a0d2029
    40003a04:	00000000 	.word	0x00000000
    40003a08:	75437325 	.word	0x75437325
    40003a0c:	726f7372 	.word	0x726f7372
    40003a10:	766f6d20 	.word	0x766f6d20
    40003a14:	6e656d65 	.word	0x6e656d65
    40003a18:	0d732574 	.word	0x0d732574
    40003a1c:	200a0d0a 	.word	0x200a0d0a
    40003a20:	20202020 	.word	0x20202020
    40003a24:	20202020 	.word	0x20202020
    40003a28:	5446454c 	.word	0x5446454c
    40003a2c:	47202020 	.word	0x47202020
    40003a30:	656c206f 	.word	0x656c206f
    40003a34:	6f207466 	.word	0x6f207466
    40003a38:	6320656e 	.word	0x6320656e
    40003a3c:	61726168 	.word	0x61726168
    40003a40:	72657463 	.word	0x72657463
    40003a44:	200a0d2e 	.word	0x200a0d2e
    40003a48:	20202020 	.word	0x20202020
    40003a4c:	52202020 	.word	0x52202020
    40003a50:	54484749 	.word	0x54484749
    40003a54:	47202020 	.word	0x47202020
    40003a58:	6972206f 	.word	0x6972206f
    40003a5c:	20746867 	.word	0x20746867
    40003a60:	63206e6f 	.word	0x63206e6f
    40003a64:	61726168 	.word	0x61726168
    40003a68:	72657463 	.word	0x72657463
    40003a6c:	200a0d2e 	.word	0x200a0d2e
    40003a70:	4d4f4820 	.word	0x4d4f4820
    40003a74:	74432f45 	.word	0x74432f45
    40003a78:	412b6c72 	.word	0x412b6c72
    40003a7c:	47202020 	.word	0x47202020
    40003a80:	6f74206f 	.word	0x6f74206f
    40003a84:	65687420 	.word	0x65687420
    40003a88:	67656220 	.word	0x67656220
    40003a8c:	696e6e69 	.word	0x696e6e69
    40003a90:	6f20676e 	.word	0x6f20676e
    40003a94:	68742066 	.word	0x68742066
    40003a98:	696c2065 	.word	0x696c2065
    40003a9c:	0d2e656e 	.word	0x0d2e656e
    40003aa0:	2020200a 	.word	0x2020200a
    40003aa4:	2f444e45 	.word	0x2f444e45
    40003aa8:	6c727443 	.word	0x6c727443
    40003aac:	2020452b 	.word	0x2020452b
    40003ab0:	206f4720 	.word	0x206f4720
    40003ab4:	74206f74 	.word	0x74206f74
    40003ab8:	65206568 	.word	0x65206568
    40003abc:	6f20646e 	.word	0x6f20646e
    40003ac0:	68742066 	.word	0x68742066
    40003ac4:	696c2065 	.word	0x696c2065
    40003ac8:	0d2e656e 	.word	0x0d2e656e
    40003acc:	250a0d0a 	.word	0x250a0d0a
    40003ad0:	69644573 	.word	0x69644573
    40003ad4:	0d732574 	.word	0x0d732574
    40003ad8:	200a0d0a 	.word	0x200a0d0a
    40003adc:	20202020 	.word	0x20202020
    40003ae0:	41202020 	.word	0x41202020
    40003ae4:	442b746c 	.word	0x442b746c
    40003ae8:	44202020 	.word	0x44202020
    40003aec:	74656c65 	.word	0x74656c65
    40003af0:	68742065 	.word	0x68742065
    40003af4:	6f772065 	.word	0x6f772065
    40003af8:	61206472 	.word	0x61206472
    40003afc:	68742074 	.word	0x68742074
    40003b00:	75632065 	.word	0x75632065
    40003b04:	726f7372 	.word	0x726f7372
    40003b08:	200a0d2e 	.word	0x200a0d2e
    40003b0c:	20202020 	.word	0x20202020
    40003b10:	74432020 	.word	0x74432020
    40003b14:	442b6c72 	.word	0x442b6c72
    40003b18:	44202020 	.word	0x44202020
    40003b1c:	74656c65 	.word	0x74656c65
    40003b20:	68742065 	.word	0x68742065
    40003b24:	68632065 	.word	0x68632065
    40003b28:	74636172 	.word	0x74636172
    40003b2c:	61207265 	.word	0x61207265
    40003b30:	68742074 	.word	0x68742074
    40003b34:	75632065 	.word	0x75632065
    40003b38:	726f7372 	.word	0x726f7372
    40003b3c:	200a0d2e 	.word	0x200a0d2e
    40003b40:	20202020 	.word	0x20202020
    40003b44:	74432020 	.word	0x74432020
    40003b48:	4b2b6c72 	.word	0x4b2b6c72
    40003b4c:	43202020 	.word	0x43202020
    40003b50:	74207475 	.word	0x74207475
    40003b54:	6c206568 	.word	0x6c206568
    40003b58:	20656e69 	.word	0x20656e69
    40003b5c:	6d6f7266 	.word	0x6d6f7266
    40003b60:	72756320 	.word	0x72756320
    40003b64:	20726f73 	.word	0x20726f73
    40003b68:	65206f74 	.word	0x65206f74
    40003b6c:	0d2e646e 	.word	0x0d2e646e
    40003b70:	2020200a 	.word	0x2020200a
    40003b74:	20202020 	.word	0x20202020
    40003b78:	6c727443 	.word	0x6c727443
    40003b7c:	2020542b 	.word	0x2020542b
    40003b80:	61775320 	.word	0x61775320
    40003b84:	68742070 	.word	0x68742070
    40003b88:	616c2065 	.word	0x616c2065
    40003b8c:	74207473 	.word	0x74207473
    40003b90:	63206f77 	.word	0x63206f77
    40003b94:	61726168 	.word	0x61726168
    40003b98:	72657463 	.word	0x72657463
    40003b9c:	65622073 	.word	0x65622073
    40003ba0:	65726f66 	.word	0x65726f66
    40003ba4:	65687420 	.word	0x65687420
    40003ba8:	72756320 	.word	0x72756320
    40003bac:	20726f73 	.word	0x20726f73
    40003bb0:	70797428 	.word	0x70797428
    40003bb4:	0d2e296f 	.word	0x0d2e296f
    40003bb8:	2020200a 	.word	0x2020200a
    40003bbc:	20202020 	.word	0x20202020
    40003bc0:	54202020 	.word	0x54202020
    40003bc4:	20204241 	.word	0x20204241
    40003bc8:	62615420 	.word	0x62615420
    40003bcc:	6d6f6320 	.word	0x6d6f6320
    40003bd0:	74656c70 	.word	0x74656c70
    40003bd4:	206e6f69 	.word	0x206e6f69
    40003bd8:	20726f66 	.word	0x20726f66
    40003bdc:	656c6966 	.word	0x656c6966
    40003be0:	7269642f 	.word	0x7269642f
    40003be4:	6f746365 	.word	0x6f746365
    40003be8:	6e207972 	.word	0x6e207972
    40003bec:	73656d61 	.word	0x73656d61
    40003bf0:	200a0d2e 	.word	0x200a0d2e
    40003bf4:	42202020 	.word	0x42202020
    40003bf8:	534b4341 	.word	0x534b4341
    40003bfc:	45434150 	.word	0x45434150
    40003c00:	44202020 	.word	0x44202020
    40003c04:	74656c65 	.word	0x74656c65
    40003c08:	68742065 	.word	0x68742065
    40003c0c:	68632065 	.word	0x68632065
    40003c10:	63617261 	.word	0x63617261
    40003c14:	20726574 	.word	0x20726574
    40003c18:	6f666562 	.word	0x6f666562
    40003c1c:	74206572 	.word	0x74206572
    40003c20:	63206568 	.word	0x63206568
    40003c24:	6f737275 	.word	0x6f737275
    40003c28:	0a0d2e72 	.word	0x0a0d2e72
    40003c2c:	73250a0d 	.word	0x73250a0d
    40003c30:	74736948 	.word	0x74736948
    40003c34:	2579726f 	.word	0x2579726f
    40003c38:	0d0a0d73 	.word	0x0d0a0d73
    40003c3c:	2020200a 	.word	0x2020200a
    40003c40:	20202020 	.word	0x20202020
    40003c44:	20202020 	.word	0x20202020
    40003c48:	20205055 	.word	0x20205055
    40003c4c:	65725020 	.word	0x65725020
    40003c50:	756f6976 	.word	0x756f6976
    40003c54:	6f632073 	.word	0x6f632073
    40003c58:	6e616d6d 	.word	0x6e616d6d
    40003c5c:	0a0d2e64 	.word	0x0a0d2e64
    40003c60:	20202020 	.word	0x20202020
    40003c64:	20202020 	.word	0x20202020
    40003c68:	574f4420 	.word	0x574f4420
    40003c6c:	2020204e 	.word	0x2020204e
    40003c70:	7478654e 	.word	0x7478654e
    40003c74:	6d6f6320 	.word	0x6d6f6320
    40003c78:	646e616d 	.word	0x646e616d
    40003c7c:	200a0d2e 	.word	0x200a0d2e
    40003c80:	20202020 	.word	0x20202020
    40003c84:	74432020 	.word	0x74432020
    40003c88:	522b6c72 	.word	0x522b6c72
    40003c8c:	52202020 	.word	0x52202020
    40003c90:	6c616365 	.word	0x6c616365
    40003c94:	6874206c 	.word	0x6874206c
    40003c98:	616c2065 	.word	0x616c2065
    40003c9c:	63207473 	.word	0x63207473
    40003ca0:	616d6d6f 	.word	0x616d6d6f
    40003ca4:	6920646e 	.word	0x6920646e
    40003ca8:	756c636e 	.word	0x756c636e
    40003cac:	676e6964 	.word	0x676e6964
    40003cb0:	65687420 	.word	0x65687420
    40003cb4:	65707320 	.word	0x65707320
    40003cb8:	69666963 	.word	0x69666963
    40003cbc:	63206465 	.word	0x63206465
    40003cc0:	61726168 	.word	0x61726168
    40003cc4:	72657463 	.word	0x72657463
    40003cc8:	0d297328 	.word	0x0d297328
    40003ccc:	2020200a 	.word	0x2020200a
    40003cd0:	20202020 	.word	0x20202020
    40003cd4:	20202020 	.word	0x20202020
    40003cd8:	20202020 	.word	0x20202020
    40003cdc:	61657320 	.word	0x61657320
    40003ce0:	65686372 	.word	0x65686372
    40003ce4:	68742073 	.word	0x68742073
    40003ce8:	6f632065 	.word	0x6f632065
    40003cec:	6e616d6d 	.word	0x6e616d6d
    40003cf0:	69682064 	.word	0x69682064
    40003cf4:	726f7473 	.word	0x726f7473
    40003cf8:	73612079 	.word	0x73612079
    40003cfc:	756f7920 	.word	0x756f7920
    40003d00:	70797420 	.word	0x70797420
    40003d04:	0a0d2e65 	.word	0x0a0d2e65
    40003d08:	20202020 	.word	0x20202020
    40003d0c:	43202020 	.word	0x43202020
    40003d10:	2b6c7274 	.word	0x2b6c7274
    40003d14:	20202047 	.word	0x20202047
    40003d18:	61637345 	.word	0x61637345
    40003d1c:	66206570 	.word	0x66206570
    40003d20:	206d6f72 	.word	0x206d6f72
    40003d24:	74736968 	.word	0x74736968
    40003d28:	2079726f 	.word	0x2079726f
    40003d2c:	72616573 	.word	0x72616573
    40003d30:	6e696863 	.word	0x6e696863
    40003d34:	6f6d2067 	.word	0x6f6d2067
    40003d38:	0d2e6564 	.word	0x0d2e6564
    40003d3c:	0000000a 	.word	0x0000000a
    40003d40:	00002024 	.word	0x00002024
    40003d44:	00000000 	.word	0x00000000
    40003d48:	6d315b1b 	.word	0x6d315b1b
    40003d4c:	00000000 	.word	0x00000000
    40003d50:	6d305b1b 	.word	0x6d305b1b
    40003d54:	00000000 	.word	0x00000000
    40003d58:	00082008 	.word	0x00082008
    40003d5c:	00000000 	.word	0x00000000
    40003d60:	64255b1b 	.word	0x64255b1b
    40003d64:	4b5b1b44 	.word	0x4b5b1b44
    40003d68:	00007325 	.word	0x00007325
    40003d6c:	00000000 	.word	0x00000000
    40003d70:	64255b1b 	.word	0x64255b1b
    40003d74:	00000044 	.word	0x00000044
    40003d78:	6c656873 	.word	0x6c656873
    40003d7c:	0000006c 	.word	0x0000006c
    40003d80:	6d6f682f 	.word	0x6d6f682f
    40003d84:	72652f65 	.word	0x72652f65
    40003d88:	772f6b69 	.word	0x772f6b69
    40003d8c:	736b726f 	.word	0x736b726f
    40003d90:	65636170 	.word	0x65636170
    40003d94:	6d69732f 	.word	0x6d69732f
    40003d98:	732f6162 	.word	0x732f6162
    40003d9c:	6f2f6372 	.word	0x6f2f6372
    40003da0:	732f6d61 	.word	0x732f6d61
    40003da4:	6c6c6568 	.word	0x6c6c6568
    40003da8:	313a632e 	.word	0x313a632e
    40003dac:	3a343232 	.word	0x3a343232
    40003db0:	53534120 	.word	0x53534120
    40003db4:	3a545245 	.word	0x3a545245
    40003db8:	72612820 	.word	0x72612820
    40003dbc:	20705f67 	.word	0x20705f67
    40003dc0:	28203d21 	.word	0x28203d21
    40003dc4:	696f7628 	.word	0x696f7628
    40003dc8:	292a2064 	.word	0x292a2064
    40003dcc:	202c2930 	.word	0x202c2930
    40003dd0:	20293232 	.word	0x20293232
    40003dd4:	00000a0d 	.word	0x00000a0d
    40003dd8:	72657375 	.word	0x72657375
    40003ddc:	656d616e 	.word	0x656d616e
    40003de0:	0000203a 	.word	0x0000203a
    40003de4:	00000000 	.word	0x00000000
    40003de8:	73736170 	.word	0x73736170
    40003dec:	64726f77 	.word	0x64726f77
    40003df0:	0000203a 	.word	0x0000203a
    40003df4:	00000000 	.word	0x00000000
    40003df8:	68747561 	.word	0x68747561
    40003dfc:	69746e65 	.word	0x69746e65
    40003e00:	69746163 	.word	0x69746163
    40003e04:	66206e6f 	.word	0x66206e6f
    40003e08:	756c6961 	.word	0x756c6961
    40003e0c:	0a0d6572 	.word	0x0a0d6572
	...
    40003e18:	73252024 	.word	0x73252024
    40003e1c:	00000000 	.word	0x00000000
    40003e20:	284b5b1b 	.word	0x284b5b1b
    40003e24:	74736968 	.word	0x74736968
    40003e28:	2d79726f 	.word	0x2d79726f
    40003e2c:	72616573 	.word	0x72616573
    40003e30:	60296863 	.word	0x60296863
    40003e34:	1b203a27 	.word	0x1b203a27
    40003e38:	0044335b 	.word	0x0044335b
    40003e3c:	00000000 	.word	0x00000000
    40003e40:	44315b1b 	.word	0x44315b1b
    40003e44:	274b5b1b 	.word	0x274b5b1b
    40003e48:	0000203a 	.word	0x0000203a
    40003e4c:	00000000 	.word	0x00000000
    40003e50:	5b1b7325 	.word	0x5b1b7325
    40003e54:	00446425 	.word	0x00446425
    40003e58:	254b5b1b 	.word	0x254b5b1b
    40003e5c:	203a2763 	.word	0x203a2763
	...
    40003e68:	254b5b1b 	.word	0x254b5b1b
    40003e6c:	00000073 	.word	0x00000073
    40003e70:	64255b1b 	.word	0x64255b1b
    40003e74:	00000043 	.word	0x00000043
    40003e78:	0000000d 	.word	0x0000000d
    40003e7c:	00000000 	.word	0x00000000
    40003e80:	6f676f6c 	.word	0x6f676f6c
    40003e84:	00007475 	.word	0x00007475
    40003e88:	74736968 	.word	0x74736968
    40003e8c:	0079726f 	.word	0x0079726f
    40003e90:	706c6568 	.word	0x706c6568
    40003e94:	00000000 	.word	0x00000000
    40003e98:	0a0d4b4f 	.word	0x0a0d4b4f
    40003e9c:	00000000 	.word	0x00000000
    40003ea0:	4f525245 	.word	0x4f525245
    40003ea4:	64252852 	.word	0x64252852
    40003ea8:	000a0d29 	.word	0x000a0d29
    40003eac:	00000000 	.word	0x00000000
    40003eb0:	6d6f682f 	.word	0x6d6f682f
    40003eb4:	72652f65 	.word	0x72652f65
    40003eb8:	772f6b69 	.word	0x772f6b69
    40003ebc:	736b726f 	.word	0x736b726f
    40003ec0:	65636170 	.word	0x65636170
    40003ec4:	6d69732f 	.word	0x6d69732f
    40003ec8:	732f6162 	.word	0x732f6162
    40003ecc:	662f6372 	.word	0x662f6372
    40003ed0:	73656c69 	.word	0x73656c69
    40003ed4:	65747379 	.word	0x65747379
    40003ed8:	662f736d 	.word	0x662f736d
    40003edc:	36317461 	.word	0x36317461
    40003ee0:	313a632e 	.word	0x313a632e
    40003ee4:	3a313535 	.word	0x3a313535
    40003ee8:	53534120 	.word	0x53534120
    40003eec:	3a545245 	.word	0x3a545245
    40003ef0:	69642820 	.word	0x69642820
    40003ef4:	20705f72 	.word	0x20705f72
    40003ef8:	28203d21 	.word	0x28203d21
    40003efc:	696f7628 	.word	0x696f7628
    40003f00:	292a2064 	.word	0x292a2064
    40003f04:	202c2930 	.word	0x202c2930
    40003f08:	20293232 	.word	0x20293232
    40003f0c:	00000a0d 	.word	0x00000a0d
    40003f10:	6d6f682f 	.word	0x6d6f682f
    40003f14:	72652f65 	.word	0x72652f65
    40003f18:	772f6b69 	.word	0x772f6b69
    40003f1c:	736b726f 	.word	0x736b726f
    40003f20:	65636170 	.word	0x65636170
    40003f24:	6d69732f 	.word	0x6d69732f
    40003f28:	732f6162 	.word	0x732f6162
    40003f2c:	662f6372 	.word	0x662f6372
    40003f30:	73656c69 	.word	0x73656c69
    40003f34:	65747379 	.word	0x65747379
    40003f38:	662f736d 	.word	0x662f736d
    40003f3c:	36317461 	.word	0x36317461
    40003f40:	313a632e 	.word	0x313a632e
    40003f44:	3a363035 	.word	0x3a363035
    40003f48:	53534120 	.word	0x53534120
    40003f4c:	3a545245 	.word	0x3a545245
    40003f50:	69642820 	.word	0x69642820
    40003f54:	20705f72 	.word	0x20705f72
    40003f58:	28203d21 	.word	0x28203d21
    40003f5c:	696f7628 	.word	0x696f7628
    40003f60:	292a2064 	.word	0x292a2064
    40003f64:	202c2930 	.word	0x202c2930
    40003f68:	20293232 	.word	0x20293232
    40003f6c:	00000a0d 	.word	0x00000a0d
    40003f70:	6d6f682f 	.word	0x6d6f682f
    40003f74:	72652f65 	.word	0x72652f65
    40003f78:	772f6b69 	.word	0x772f6b69
    40003f7c:	736b726f 	.word	0x736b726f
    40003f80:	65636170 	.word	0x65636170
    40003f84:	6d69732f 	.word	0x6d69732f
    40003f88:	732f6162 	.word	0x732f6162
    40003f8c:	662f6372 	.word	0x662f6372
    40003f90:	73656c69 	.word	0x73656c69
    40003f94:	65747379 	.word	0x65747379
    40003f98:	662f736d 	.word	0x662f736d
    40003f9c:	36317461 	.word	0x36317461
    40003fa0:	313a632e 	.word	0x313a632e
    40003fa4:	3a373035 	.word	0x3a373035
    40003fa8:	53534120 	.word	0x53534120
    40003fac:	3a545245 	.word	0x3a545245
    40003fb0:	61702820 	.word	0x61702820
    40003fb4:	705f6874 	.word	0x705f6874
    40003fb8:	203d2120 	.word	0x203d2120
    40003fbc:	6f762828 	.word	0x6f762828
    40003fc0:	2a206469 	.word	0x2a206469
    40003fc4:	2c293029 	.word	0x2c293029
    40003fc8:	29323220 	.word	0x29323220
    40003fcc:	000a0d20 	.word	0x000a0d20
    40003fd0:	0000002e 	.word	0x0000002e
    40003fd4:	00000000 	.word	0x00000000
    40003fd8:	6d6f682f 	.word	0x6d6f682f
    40003fdc:	72652f65 	.word	0x72652f65
    40003fe0:	772f6b69 	.word	0x772f6b69
    40003fe4:	736b726f 	.word	0x736b726f
    40003fe8:	65636170 	.word	0x65636170
    40003fec:	6d69732f 	.word	0x6d69732f
    40003ff0:	732f6162 	.word	0x732f6162
    40003ff4:	662f6372 	.word	0x662f6372
    40003ff8:	73656c69 	.word	0x73656c69
    40003ffc:	65747379 	.word	0x65747379
    40004000:	662f736d 	.word	0x662f736d
    40004004:	36317461 	.word	0x36317461
    40004008:	313a632e 	.word	0x313a632e
    4000400c:	3a353635 	.word	0x3a353635
    40004010:	53534120 	.word	0x53534120
    40004014:	3a545245 	.word	0x3a545245
    40004018:	69642820 	.word	0x69642820
    4000401c:	20705f72 	.word	0x20705f72
    40004020:	28203d21 	.word	0x28203d21
    40004024:	696f7628 	.word	0x696f7628
    40004028:	292a2064 	.word	0x292a2064
    4000402c:	202c2930 	.word	0x202c2930
    40004030:	20293232 	.word	0x20293232
    40004034:	00000a0d 	.word	0x00000a0d
    40004038:	6d6f682f 	.word	0x6d6f682f
    4000403c:	72652f65 	.word	0x72652f65
    40004040:	772f6b69 	.word	0x772f6b69
    40004044:	736b726f 	.word	0x736b726f
    40004048:	65636170 	.word	0x65636170
    4000404c:	6d69732f 	.word	0x6d69732f
    40004050:	732f6162 	.word	0x732f6162
    40004054:	662f6372 	.word	0x662f6372
    40004058:	73656c69 	.word	0x73656c69
    4000405c:	65747379 	.word	0x65747379
    40004060:	662f736d 	.word	0x662f736d
    40004064:	36317461 	.word	0x36317461
    40004068:	313a632e 	.word	0x313a632e
    4000406c:	3a363635 	.word	0x3a363635
    40004070:	53534120 	.word	0x53534120
    40004074:	3a545245 	.word	0x3a545245
    40004078:	6e652820 	.word	0x6e652820
    4000407c:	5f797274 	.word	0x5f797274
    40004080:	3d212070 	.word	0x3d212070
    40004084:	76282820 	.word	0x76282820
    40004088:	2064696f 	.word	0x2064696f
    4000408c:	2930292a 	.word	0x2930292a
    40004090:	3232202c 	.word	0x3232202c
    40004094:	0a0d2029 	.word	0x0a0d2029
	...
    400040a0:	6d6f682f 	.word	0x6d6f682f
    400040a4:	72652f65 	.word	0x72652f65
    400040a8:	772f6b69 	.word	0x772f6b69
    400040ac:	736b726f 	.word	0x736b726f
    400040b0:	65636170 	.word	0x65636170
    400040b4:	6d69732f 	.word	0x6d69732f
    400040b8:	732f6162 	.word	0x732f6162
    400040bc:	662f6372 	.word	0x662f6372
    400040c0:	73656c69 	.word	0x73656c69
    400040c4:	65747379 	.word	0x65747379
    400040c8:	662f736d 	.word	0x662f736d
    400040cc:	36317461 	.word	0x36317461
    400040d0:	313a632e 	.word	0x313a632e
    400040d4:	3a343631 	.word	0x3a343631
    400040d8:	53534120 	.word	0x53534120
    400040dc:	3a545245 	.word	0x3a545245
    400040e0:	69662820 	.word	0x69662820
    400040e4:	705f656c 	.word	0x705f656c
    400040e8:	203d2120 	.word	0x203d2120
    400040ec:	6f762828 	.word	0x6f762828
    400040f0:	2a206469 	.word	0x2a206469
    400040f4:	2c293029 	.word	0x2c293029
    400040f8:	29323220 	.word	0x29323220
    400040fc:	000a0d20 	.word	0x000a0d20
    40004100:	6d6f682f 	.word	0x6d6f682f
    40004104:	72652f65 	.word	0x72652f65
    40004108:	772f6b69 	.word	0x772f6b69
    4000410c:	736b726f 	.word	0x736b726f
    40004110:	65636170 	.word	0x65636170
    40004114:	6d69732f 	.word	0x6d69732f
    40004118:	732f6162 	.word	0x732f6162
    4000411c:	662f6372 	.word	0x662f6372
    40004120:	73656c69 	.word	0x73656c69
    40004124:	65747379 	.word	0x65747379
    40004128:	662f736d 	.word	0x662f736d
    4000412c:	36317461 	.word	0x36317461
    40004130:	313a632e 	.word	0x313a632e
    40004134:	3a353531 	.word	0x3a353531
    40004138:	53534120 	.word	0x53534120
    4000413c:	3a545245 	.word	0x3a545245
    40004140:	65732820 	.word	0x65732820
    40004144:	705f666c 	.word	0x705f666c
    40004148:	203d2120 	.word	0x203d2120
    4000414c:	6f762828 	.word	0x6f762828
    40004150:	2a206469 	.word	0x2a206469
    40004154:	2c293029 	.word	0x2c293029
    40004158:	29323220 	.word	0x29323220
    4000415c:	000a0d20 	.word	0x000a0d20
    40004160:	6d6f682f 	.word	0x6d6f682f
    40004164:	72652f65 	.word	0x72652f65
    40004168:	772f6b69 	.word	0x772f6b69
    4000416c:	736b726f 	.word	0x736b726f
    40004170:	65636170 	.word	0x65636170
    40004174:	6d69732f 	.word	0x6d69732f
    40004178:	732f6162 	.word	0x732f6162
    4000417c:	662f6372 	.word	0x662f6372
    40004180:	73656c69 	.word	0x73656c69
    40004184:	65747379 	.word	0x65747379
    40004188:	662f736d 	.word	0x662f736d
    4000418c:	36317461 	.word	0x36317461
    40004190:	313a632e 	.word	0x313a632e
    40004194:	3a363531 	.word	0x3a363531
    40004198:	53534120 	.word	0x53534120
    4000419c:	3a545245 	.word	0x3a545245
    400041a0:	69662820 	.word	0x69662820
    400041a4:	705f656c 	.word	0x705f656c
    400041a8:	203d2120 	.word	0x203d2120
    400041ac:	6f762828 	.word	0x6f762828
    400041b0:	2a206469 	.word	0x2a206469
    400041b4:	2c293029 	.word	0x2c293029
    400041b8:	29323220 	.word	0x29323220
    400041bc:	000a0d20 	.word	0x000a0d20
    400041c0:	6d6f682f 	.word	0x6d6f682f
    400041c4:	72652f65 	.word	0x72652f65
    400041c8:	772f6b69 	.word	0x772f6b69
    400041cc:	736b726f 	.word	0x736b726f
    400041d0:	65636170 	.word	0x65636170
    400041d4:	6d69732f 	.word	0x6d69732f
    400041d8:	732f6162 	.word	0x732f6162
    400041dc:	662f6372 	.word	0x662f6372
    400041e0:	73656c69 	.word	0x73656c69
    400041e4:	65747379 	.word	0x65747379
    400041e8:	662f736d 	.word	0x662f736d
    400041ec:	36317461 	.word	0x36317461
    400041f0:	313a632e 	.word	0x313a632e
    400041f4:	3a373531 	.word	0x3a373531
    400041f8:	53534120 	.word	0x53534120
    400041fc:	3a545245 	.word	0x3a545245
    40004200:	61702820 	.word	0x61702820
    40004204:	705f6874 	.word	0x705f6874
    40004208:	203d2120 	.word	0x203d2120
    4000420c:	6f762828 	.word	0x6f762828
    40004210:	2a206469 	.word	0x2a206469
    40004214:	2c293029 	.word	0x2c293029
    40004218:	29323220 	.word	0x29323220
    4000421c:	000a0d20 	.word	0x000a0d20
    40004220:	6d6f682f 	.word	0x6d6f682f
    40004224:	72652f65 	.word	0x72652f65
    40004228:	772f6b69 	.word	0x772f6b69
    4000422c:	736b726f 	.word	0x736b726f
    40004230:	65636170 	.word	0x65636170
    40004234:	6d69732f 	.word	0x6d69732f
    40004238:	732f6162 	.word	0x732f6162
    4000423c:	662f6372 	.word	0x662f6372
    40004240:	73656c69 	.word	0x73656c69
    40004244:	65747379 	.word	0x65747379
    40004248:	662f736d 	.word	0x662f736d
    4000424c:	36317461 	.word	0x36317461
    40004250:	313a632e 	.word	0x313a632e
    40004254:	3a373731 	.word	0x3a373731
    40004258:	53534120 	.word	0x53534120
    4000425c:	3a545245 	.word	0x3a545245
    40004260:	69662820 	.word	0x69662820
    40004264:	705f656c 	.word	0x705f656c
    40004268:	203d2120 	.word	0x203d2120
    4000426c:	6f762828 	.word	0x6f762828
    40004270:	2a206469 	.word	0x2a206469
    40004274:	2c293029 	.word	0x2c293029
    40004278:	29323220 	.word	0x29323220
    4000427c:	000a0d20 	.word	0x000a0d20
    40004280:	6d6f682f 	.word	0x6d6f682f
    40004284:	72652f65 	.word	0x72652f65
    40004288:	772f6b69 	.word	0x772f6b69
    4000428c:	736b726f 	.word	0x736b726f
    40004290:	65636170 	.word	0x65636170
    40004294:	6d69732f 	.word	0x6d69732f
    40004298:	732f6162 	.word	0x732f6162
    4000429c:	662f6372 	.word	0x662f6372
    400042a0:	73656c69 	.word	0x73656c69
    400042a4:	65747379 	.word	0x65747379
    400042a8:	662f736d 	.word	0x662f736d
    400042ac:	36317461 	.word	0x36317461
    400042b0:	313a632e 	.word	0x313a632e
    400042b4:	3a383731 	.word	0x3a383731
    400042b8:	53534120 	.word	0x53534120
    400042bc:	3a545245 	.word	0x3a545245
    400042c0:	62282820 	.word	0x62282820
    400042c4:	705f6675 	.word	0x705f6675
    400042c8:	203d2120 	.word	0x203d2120
    400042cc:	6f762828 	.word	0x6f762828
    400042d0:	2a206469 	.word	0x2a206469
    400042d4:	29293029 	.word	0x29293029
    400042d8:	207c7c20 	.word	0x207c7c20
    400042dc:	7a697328 	.word	0x7a697328
    400042e0:	3d3d2065 	.word	0x3d3d2065
    400042e4:	2c293020 	.word	0x2c293020
    400042e8:	29323220 	.word	0x29323220
    400042ec:	000a0d20 	.word	0x000a0d20
    400042f0:	6d6f682f 	.word	0x6d6f682f
    400042f4:	72652f65 	.word	0x72652f65
    400042f8:	772f6b69 	.word	0x772f6b69
    400042fc:	736b726f 	.word	0x736b726f
    40004300:	65636170 	.word	0x65636170
    40004304:	6d69732f 	.word	0x6d69732f
    40004308:	732f6162 	.word	0x732f6162
    4000430c:	662f6372 	.word	0x662f6372
    40004310:	73656c69 	.word	0x73656c69
    40004314:	65747379 	.word	0x65747379
    40004318:	662f736d 	.word	0x662f736d
    4000431c:	36317461 	.word	0x36317461
    40004320:	313a632e 	.word	0x313a632e
    40004324:	3a303233 	.word	0x3a303233
    40004328:	53534120 	.word	0x53534120
    4000432c:	3a545245 	.word	0x3a545245
    40004330:	69662820 	.word	0x69662820
    40004334:	705f656c 	.word	0x705f656c
    40004338:	203d2120 	.word	0x203d2120
    4000433c:	6f762828 	.word	0x6f762828
    40004340:	2a206469 	.word	0x2a206469
    40004344:	2c293029 	.word	0x2c293029
    40004348:	29323220 	.word	0x29323220
    4000434c:	000a0d20 	.word	0x000a0d20
    40004350:	6d6f682f 	.word	0x6d6f682f
    40004354:	72652f65 	.word	0x72652f65
    40004358:	772f6b69 	.word	0x772f6b69
    4000435c:	736b726f 	.word	0x736b726f
    40004360:	65636170 	.word	0x65636170
    40004364:	6d69732f 	.word	0x6d69732f
    40004368:	732f6162 	.word	0x732f6162
    4000436c:	662f6372 	.word	0x662f6372
    40004370:	73656c69 	.word	0x73656c69
    40004374:	65747379 	.word	0x65747379
    40004378:	662f736d 	.word	0x662f736d
    4000437c:	36317461 	.word	0x36317461
    40004380:	313a632e 	.word	0x313a632e
    40004384:	3a303734 	.word	0x3a303734
    40004388:	53534120 	.word	0x53534120
    4000438c:	3a545245 	.word	0x3a545245
    40004390:	69662820 	.word	0x69662820
    40004394:	705f656c 	.word	0x705f656c
    40004398:	203d2120 	.word	0x203d2120
    4000439c:	6f762828 	.word	0x6f762828
    400043a0:	2a206469 	.word	0x2a206469
    400043a4:	2c293029 	.word	0x2c293029
    400043a8:	29323220 	.word	0x29323220
    400043ac:	000a0d20 	.word	0x000a0d20
    400043b0:	6d6f682f 	.word	0x6d6f682f
    400043b4:	72652f65 	.word	0x72652f65
    400043b8:	772f6b69 	.word	0x772f6b69
    400043bc:	736b726f 	.word	0x736b726f
    400043c0:	65636170 	.word	0x65636170
    400043c4:	6d69732f 	.word	0x6d69732f
    400043c8:	732f6162 	.word	0x732f6162
    400043cc:	662f6372 	.word	0x662f6372
    400043d0:	73656c69 	.word	0x73656c69
    400043d4:	65747379 	.word	0x65747379
    400043d8:	662f736d 	.word	0x662f736d
    400043dc:	36317461 	.word	0x36317461
    400043e0:	313a632e 	.word	0x313a632e
    400043e4:	3a343833 	.word	0x3a343833
    400043e8:	53534120 	.word	0x53534120
    400043ec:	3a545245 	.word	0x3a545245
    400043f0:	69662820 	.word	0x69662820
    400043f4:	705f656c 	.word	0x705f656c
    400043f8:	203d2120 	.word	0x203d2120
    400043fc:	6f762828 	.word	0x6f762828
    40004400:	2a206469 	.word	0x2a206469
    40004404:	2c293029 	.word	0x2c293029
    40004408:	29323220 	.word	0x29323220
    4000440c:	000a0d20 	.word	0x000a0d20
    40004410:	6d6f682f 	.word	0x6d6f682f
    40004414:	72652f65 	.word	0x72652f65
    40004418:	772f6b69 	.word	0x772f6b69
    4000441c:	736b726f 	.word	0x736b726f
    40004420:	65636170 	.word	0x65636170
    40004424:	6d69732f 	.word	0x6d69732f
    40004428:	732f6162 	.word	0x732f6162
    4000442c:	662f6372 	.word	0x662f6372
    40004430:	73656c69 	.word	0x73656c69
    40004434:	65747379 	.word	0x65747379
    40004438:	662f736d 	.word	0x662f736d
    4000443c:	36317461 	.word	0x36317461
    40004440:	313a632e 	.word	0x313a632e
    40004444:	3a343532 	.word	0x3a343532
    40004448:	53534120 	.word	0x53534120
    4000444c:	3a545245 	.word	0x3a545245
    40004450:	69662820 	.word	0x69662820
    40004454:	705f656c 	.word	0x705f656c
    40004458:	203d2120 	.word	0x203d2120
    4000445c:	6f762828 	.word	0x6f762828
    40004460:	2a206469 	.word	0x2a206469
    40004464:	2c293029 	.word	0x2c293029
    40004468:	29323220 	.word	0x29323220
    4000446c:	000a0d20 	.word	0x000a0d20
    40004470:	6d6f682f 	.word	0x6d6f682f
    40004474:	72652f65 	.word	0x72652f65
    40004478:	772f6b69 	.word	0x772f6b69
    4000447c:	736b726f 	.word	0x736b726f
    40004480:	65636170 	.word	0x65636170
    40004484:	6d69732f 	.word	0x6d69732f
    40004488:	732f6162 	.word	0x732f6162
    4000448c:	662f6372 	.word	0x662f6372
    40004490:	73656c69 	.word	0x73656c69
    40004494:	65747379 	.word	0x65747379
    40004498:	662f736d 	.word	0x662f736d
    4000449c:	36317461 	.word	0x36317461
    400044a0:	313a632e 	.word	0x313a632e
    400044a4:	3a353532 	.word	0x3a353532
    400044a8:	53534120 	.word	0x53534120
    400044ac:	3a545245 	.word	0x3a545245
    400044b0:	73282820 	.word	0x73282820
    400044b4:	705f6372 	.word	0x705f6372
    400044b8:	203d2120 	.word	0x203d2120
    400044bc:	6f762828 	.word	0x6f762828
    400044c0:	2a206469 	.word	0x2a206469
    400044c4:	29293029 	.word	0x29293029
    400044c8:	207c7c20 	.word	0x207c7c20
    400044cc:	7a697328 	.word	0x7a697328
    400044d0:	3d3d2065 	.word	0x3d3d2065
    400044d4:	2c293020 	.word	0x2c293020
    400044d8:	29323220 	.word	0x29323220
    400044dc:	000a0d20 	.word	0x000a0d20
    400044e0:	5e3e3c7c 	.word	0x5e3e3c7c
    400044e4:	2f3f3d2b 	.word	0x2f3f3d2b
    400044e8:	2c3b5d5b 	.word	0x2c3b5d5b
    400044ec:	005c222a 	.word	0x005c222a
    400044f0:	67617355 	.word	0x67617355
    400044f4:	61203a65 	.word	0x61203a65
    400044f8:	6e657070 	.word	0x6e657070
    400044fc:	663c2064 	.word	0x663c2064
    40004500:	3e656c69 	.word	0x3e656c69
    40004504:	61643c20 	.word	0x61643c20
    40004508:	0d3e6174 	.word	0x0d3e6174
    4000450c:	0000000a 	.word	0x0000000a
    40004510:	6c696146 	.word	0x6c696146
    40004514:	74206465 	.word	0x74206465
    40004518:	7061206f 	.word	0x7061206f
    4000451c:	646e6570 	.word	0x646e6570
    40004520:	20732520 	.word	0x20732520
    40004524:	74206f74 	.word	0x74206f74
    40004528:	66206568 	.word	0x66206568
    4000452c:	2e656c69 	.word	0x2e656c69
    40004530:	00000a0d 	.word	0x00000a0d
    40004534:	00000000 	.word	0x00000000
    40004538:	31746166 	.word	0x31746166
    4000453c:	00000036 	.word	0x00000036
    40004540:	656e6567 	.word	0x656e6567
    40004544:	00636972 	.word	0x00636972
    40004548:	0000002d 	.word	0x0000002d
    4000454c:	00000000 	.word	0x00000000
    40004550:	4e554f4d 	.word	0x4e554f4d
    40004554:	4f502d54 	.word	0x4f502d54
    40004558:	20544e49 	.word	0x20544e49
    4000455c:	20202020 	.word	0x20202020
    40004560:	20202020 	.word	0x20202020
    40004564:	20202020 	.word	0x20202020
    40004568:	20202020 	.word	0x20202020
    4000456c:	4d202020 	.word	0x4d202020
    40004570:	55494445 	.word	0x55494445
    40004574:	2020204d 	.word	0x2020204d
    40004578:	45505954 	.word	0x45505954
    4000457c:	20202020 	.word	0x20202020
    40004580:	41564120 	.word	0x41564120
    40004584:	42414c49 	.word	0x42414c49
    40004588:	2020454c 	.word	0x2020454c
    4000458c:	455a4953 	.word	0x455a4953
    40004590:	53552020 	.word	0x53552020
    40004594:	0d454741 	.word	0x0d454741
    40004598:	0000000a 	.word	0x0000000a
    4000459c:	00000000 	.word	0x00000000
    400045a0:	0000252d 	.word	0x0000252d
    400045a4:	00000000 	.word	0x00000000
    400045a8:	39322d25 	.word	0x39322d25
    400045ac:	25202073 	.word	0x25202073
    400045b0:	2073372d 	.word	0x2073372d
    400045b4:	372d2520 	.word	0x372d2520
    400045b8:	25202073 	.word	0x25202073
    400045bc:	20207339 	.word	0x20207339
    400045c0:	20733425 	.word	0x20733425
    400045c4:	73352520 	.word	0x73352520
    400045c8:	00000a0d 	.word	0x00000a0d
    400045cc:	00000000 	.word	0x00000000
    400045d0:	67617355 	.word	0x67617355
    400045d4:	66203a65 	.word	0x66203a65
    400045d8:	616d726f 	.word	0x616d726f
    400045dc:	703c2074 	.word	0x703c2074
    400045e0:	3e687461 	.word	0x3e687461
    400045e4:	00000a0d 	.word	0x00000a0d
    400045e8:	67617355 	.word	0x67617355
    400045ec:	6c203a65 	.word	0x6c203a65
    400045f0:	20747369 	.word	0x20747369
    400045f4:	7461703c 	.word	0x7461703c
    400045f8:	0a0d3e68 	.word	0x0a0d3e68
    400045fc:	00000000 	.word	0x00000000
    40004600:	454d414e 	.word	0x454d414e
    40004604:	20202020 	.word	0x20202020
    40004608:	20202020 	.word	0x20202020
    4000460c:	20202020 	.word	0x20202020
    40004610:	20202020 	.word	0x20202020
    40004614:	20202020 	.word	0x20202020
    40004618:	20202020 	.word	0x20202020
    4000461c:	20202020 	.word	0x20202020
    40004620:	20202020 	.word	0x20202020
    40004624:	20202020 	.word	0x20202020
    40004628:	20202020 	.word	0x20202020
    4000462c:	20202020 	.word	0x20202020
    40004630:	20202020 	.word	0x20202020
    40004634:	4c415620 	.word	0x4c415620
    40004638:	0a0d4555 	.word	0x0a0d4555
    4000463c:	00000000 	.word	0x00000000
    40004640:	33352d25 	.word	0x33352d25
    40004644:	00000073 	.word	0x00000073
    40004648:	67617355 	.word	0x67617355
    4000464c:	72203a65 	.word	0x72203a65
    40004650:	20646165 	.word	0x20646165
    40004654:	6c69663c 	.word	0x6c69663c
    40004658:	0a0d3e65 	.word	0x0a0d3e65
    4000465c:	00000000 	.word	0x00000000
    40004660:	6c696146 	.word	0x6c696146
    40004664:	74206465 	.word	0x74206465
    40004668:	706f206f 	.word	0x706f206f
    4000466c:	25206e65 	.word	0x25206e65
    40004670:	0a0d2e73 	.word	0x0a0d2e73
    40004674:	00000000 	.word	0x00000000
    40004678:	67617355 	.word	0x67617355
    4000467c:	72203a65 	.word	0x72203a65
    40004680:	766f6d65 	.word	0x766f6d65
    40004684:	663c2065 	.word	0x663c2065
    40004688:	3e656c69 	.word	0x3e656c69
    4000468c:	00000a0d 	.word	0x00000a0d
    40004690:	6c696146 	.word	0x6c696146
    40004694:	74206465 	.word	0x74206465
    40004698:	6572206f 	.word	0x6572206f
    4000469c:	65766f6d 	.word	0x65766f6d
    400046a0:	2e732520 	.word	0x2e732520
    400046a4:	00000a0d 	.word	0x00000a0d
    400046a8:	67617355 	.word	0x67617355
    400046ac:	77203a65 	.word	0x77203a65
    400046b0:	65746972 	.word	0x65746972
    400046b4:	69663c20 	.word	0x69663c20
    400046b8:	203e656c 	.word	0x203e656c
    400046bc:	61643c5b 	.word	0x61643c5b
    400046c0:	5d3e6174 	.word	0x5d3e6174
    400046c4:	00000a0d 	.word	0x00000a0d
    400046c8:	6c696146 	.word	0x6c696146
    400046cc:	74206465 	.word	0x74206465
    400046d0:	7277206f 	.word	0x7277206f
    400046d4:	20657469 	.word	0x20657469
    400046d8:	25206f74 	.word	0x25206f74
    400046dc:	0a0d2e73 	.word	0x0a0d2e73
	...
    400046e8:	64616552 	.word	0x64616552
    400046ec:	2c676e69 	.word	0x2c676e69
    400046f0:	65727020 	.word	0x65727020
    400046f4:	43207373 	.word	0x43207373
    400046f8:	2d6c7274 	.word	0x2d6c7274
    400046fc:	68772044 	.word	0x68772044
    40004700:	64206e65 	.word	0x64206e65
    40004704:	2e656e6f 	.word	0x2e656e6f
    40004708:	00000a0d 	.word	0x00000a0d
    4000470c:	00000000 	.word	0x00000000
    40004710:	746f7257 	.word	0x746f7257
    40004714:	75252065 	.word	0x75252065
    40004718:	74796220 	.word	0x74796220
    4000471c:	74207365 	.word	0x74207365
    40004720:	7325206f 	.word	0x7325206f
    40004724:	000a0d2e 	.word	0x000a0d2e
    40004728:	0000002f 	.word	0x0000002f
    4000472c:	00000000 	.word	0x00000000
    40004730:	00445743 	.word	0x00445743
    40004734:	00000000 	.word	0x00000000
    40004738:	73257325 	.word	0x73257325
    4000473c:	00007325 	.word	0x00007325
    40004740:	6d6f682f 	.word	0x6d6f682f
    40004744:	72652f65 	.word	0x72652f65
    40004748:	772f6b69 	.word	0x772f6b69
    4000474c:	736b726f 	.word	0x736b726f
    40004750:	65636170 	.word	0x65636170
    40004754:	6d69732f 	.word	0x6d69732f
    40004758:	732f6162 	.word	0x732f6162
    4000475c:	662f6372 	.word	0x662f6372
    40004760:	73656c69 	.word	0x73656c69
    40004764:	65747379 	.word	0x65747379
    40004768:	662f736d 	.word	0x662f736d
    4000476c:	3a632e73 	.word	0x3a632e73
    40004770:	35303631 	.word	0x35303631
    40004774:	5341203a 	.word	0x5341203a
    40004778:	54524553 	.word	0x54524553
    4000477c:	7028203a 	.word	0x7028203a
    40004780:	5f687461 	.word	0x5f687461
    40004784:	3d212070 	.word	0x3d212070
    40004788:	76282820 	.word	0x76282820
    4000478c:	2064696f 	.word	0x2064696f
    40004790:	2930292a 	.word	0x2930292a
    40004794:	3232202c 	.word	0x3232202c
    40004798:	0a0d2029 	.word	0x0a0d2029
    4000479c:	00000000 	.word	0x00000000
    400047a0:	6d6f682f 	.word	0x6d6f682f
    400047a4:	72652f65 	.word	0x72652f65
    400047a8:	772f6b69 	.word	0x772f6b69
    400047ac:	736b726f 	.word	0x736b726f
    400047b0:	65636170 	.word	0x65636170
    400047b4:	6d69732f 	.word	0x6d69732f
    400047b8:	732f6162 	.word	0x732f6162
    400047bc:	662f6372 	.word	0x662f6372
    400047c0:	73656c69 	.word	0x73656c69
    400047c4:	65747379 	.word	0x65747379
    400047c8:	662f736d 	.word	0x662f736d
    400047cc:	3a632e73 	.word	0x3a632e73
    400047d0:	3a383536 	.word	0x3a383536
    400047d4:	53534120 	.word	0x53534120
    400047d8:	3a545245 	.word	0x3a545245
    400047dc:	6f632820 	.word	0x6f632820
    400047e0:	6e616d6d 	.word	0x6e616d6d
    400047e4:	20705f64 	.word	0x20705f64
    400047e8:	28203d21 	.word	0x28203d21
    400047ec:	696f7628 	.word	0x696f7628
    400047f0:	292a2064 	.word	0x292a2064
    400047f4:	202c2930 	.word	0x202c2930
    400047f8:	20293232 	.word	0x20293232
    400047fc:	00000a0d 	.word	0x00000a0d
    40004800:	203a7325 	.word	0x203a7325
    40004804:	6d6d6f63 	.word	0x6d6d6f63
    40004808:	20646e61 	.word	0x20646e61
    4000480c:	20746f6e 	.word	0x20746f6e
    40004810:	6e756f66 	.word	0x6e756f66
    40004814:	000a0d64 	.word	0x000a0d64
    40004818:	6d6f682f 	.word	0x6d6f682f
    4000481c:	72652f65 	.word	0x72652f65
    40004820:	772f6b69 	.word	0x772f6b69
    40004824:	736b726f 	.word	0x736b726f
    40004828:	65636170 	.word	0x65636170
    4000482c:	6d69732f 	.word	0x6d69732f
    40004830:	732f6162 	.word	0x732f6162
    40004834:	662f6372 	.word	0x662f6372
    40004838:	73656c69 	.word	0x73656c69
    4000483c:	65747379 	.word	0x65747379
    40004840:	662f736d 	.word	0x662f736d
    40004844:	3a632e73 	.word	0x3a632e73
    40004848:	3a393539 	.word	0x3a393539
    4000484c:	53534120 	.word	0x53534120
    40004850:	3a545245 	.word	0x3a545245
    40004854:	65732820 	.word	0x65732820
    40004858:	705f666c 	.word	0x705f666c
    4000485c:	203d2120 	.word	0x203d2120
    40004860:	6f762828 	.word	0x6f762828
    40004864:	2a206469 	.word	0x2a206469
    40004868:	2c293029 	.word	0x2c293029
    4000486c:	29323220 	.word	0x29323220
    40004870:	000a0d20 	.word	0x000a0d20
    40004874:	00000000 	.word	0x00000000
    40004878:	6d6f682f 	.word	0x6d6f682f
    4000487c:	72652f65 	.word	0x72652f65
    40004880:	772f6b69 	.word	0x772f6b69
    40004884:	736b726f 	.word	0x736b726f
    40004888:	65636170 	.word	0x65636170
    4000488c:	6d69732f 	.word	0x6d69732f
    40004890:	732f6162 	.word	0x732f6162
    40004894:	662f6372 	.word	0x662f6372
    40004898:	73656c69 	.word	0x73656c69
    4000489c:	65747379 	.word	0x65747379
    400048a0:	662f736d 	.word	0x662f736d
    400048a4:	3a632e73 	.word	0x3a632e73
    400048a8:	31333831 	.word	0x31333831
    400048ac:	5341203a 	.word	0x5341203a
    400048b0:	54524553 	.word	0x54524553
    400048b4:	7328203a 	.word	0x7328203a
    400048b8:	5f666c65 	.word	0x5f666c65
    400048bc:	3d212070 	.word	0x3d212070
    400048c0:	76282820 	.word	0x76282820
    400048c4:	2064696f 	.word	0x2064696f
    400048c8:	2930292a 	.word	0x2930292a
    400048cc:	3232202c 	.word	0x3232202c
    400048d0:	0a0d2029 	.word	0x0a0d2029
    400048d4:	00000000 	.word	0x00000000
    400048d8:	6d6f682f 	.word	0x6d6f682f
    400048dc:	72652f65 	.word	0x72652f65
    400048e0:	772f6b69 	.word	0x772f6b69
    400048e4:	736b726f 	.word	0x736b726f
    400048e8:	65636170 	.word	0x65636170
    400048ec:	6d69732f 	.word	0x6d69732f
    400048f0:	732f6162 	.word	0x732f6162
    400048f4:	662f6372 	.word	0x662f6372
    400048f8:	73656c69 	.word	0x73656c69
    400048fc:	65747379 	.word	0x65747379
    40004900:	662f736d 	.word	0x662f736d
    40004904:	3a632e73 	.word	0x3a632e73
    40004908:	32333831 	.word	0x32333831
    4000490c:	5341203a 	.word	0x5341203a
    40004910:	54524553 	.word	0x54524553
    40004914:	7028203a 	.word	0x7028203a
    40004918:	5f687461 	.word	0x5f687461
    4000491c:	3d212070 	.word	0x3d212070
    40004920:	76282820 	.word	0x76282820
    40004924:	2064696f 	.word	0x2064696f
    40004928:	2930292a 	.word	0x2930292a
    4000492c:	3232202c 	.word	0x3232202c
    40004930:	0a0d2029 	.word	0x0a0d2029
    40004934:	00000000 	.word	0x00000000
    40004938:	6d6f682f 	.word	0x6d6f682f
    4000493c:	72652f65 	.word	0x72652f65
    40004940:	772f6b69 	.word	0x772f6b69
    40004944:	736b726f 	.word	0x736b726f
    40004948:	65636170 	.word	0x65636170
    4000494c:	6d69732f 	.word	0x6d69732f
    40004950:	732f6162 	.word	0x732f6162
    40004954:	662f6372 	.word	0x662f6372
    40004958:	73656c69 	.word	0x73656c69
    4000495c:	65747379 	.word	0x65747379
    40004960:	662f736d 	.word	0x662f736d
    40004964:	3a632e73 	.word	0x3a632e73
    40004968:	33333831 	.word	0x33333831
    4000496c:	5341203a 	.word	0x5341203a
    40004970:	54524553 	.word	0x54524553
    40004974:	6328203a 	.word	0x6328203a
    40004978:	626c6c61 	.word	0x626c6c61
    4000497c:	206b6361 	.word	0x206b6361
    40004980:	28203d21 	.word	0x28203d21
    40004984:	696f7628 	.word	0x696f7628
    40004988:	292a2064 	.word	0x292a2064
    4000498c:	202c2930 	.word	0x202c2930
    40004990:	20293232 	.word	0x20293232
    40004994:	00000a0d 	.word	0x00000a0d
    40004998:	6d6f682f 	.word	0x6d6f682f
    4000499c:	72652f65 	.word	0x72652f65
    400049a0:	772f6b69 	.word	0x772f6b69
    400049a4:	736b726f 	.word	0x736b726f
    400049a8:	65636170 	.word	0x65636170
    400049ac:	6d69732f 	.word	0x6d69732f
    400049b0:	732f6162 	.word	0x732f6162
    400049b4:	662f6372 	.word	0x662f6372
    400049b8:	73656c69 	.word	0x73656c69
    400049bc:	65747379 	.word	0x65747379
    400049c0:	662f736d 	.word	0x662f736d
    400049c4:	3a632e73 	.word	0x3a632e73
    400049c8:	35343831 	.word	0x35343831
    400049cc:	5341203a 	.word	0x5341203a
    400049d0:	54524553 	.word	0x54524553
    400049d4:	6328203a 	.word	0x6328203a
    400049d8:	616d6d6f 	.word	0x616d6d6f
    400049dc:	705f646e 	.word	0x705f646e
    400049e0:	203d2120 	.word	0x203d2120
    400049e4:	6f762828 	.word	0x6f762828
    400049e8:	2a206469 	.word	0x2a206469
    400049ec:	2c293029 	.word	0x2c293029
    400049f0:	29323220 	.word	0x29323220
    400049f4:	000a0d20 	.word	0x000a0d20
    400049f8:	6d6f682f 	.word	0x6d6f682f
    400049fc:	72652f65 	.word	0x72652f65
    40004a00:	772f6b69 	.word	0x772f6b69
    40004a04:	736b726f 	.word	0x736b726f
    40004a08:	65636170 	.word	0x65636170
    40004a0c:	6d69732f 	.word	0x6d69732f
    40004a10:	732f6162 	.word	0x732f6162
    40004a14:	662f6372 	.word	0x662f6372
    40004a18:	73656c69 	.word	0x73656c69
    40004a1c:	65747379 	.word	0x65747379
    40004a20:	662f736d 	.word	0x662f736d
    40004a24:	3a632e73 	.word	0x3a632e73
    40004a28:	37313231 	.word	0x37313231
    40004a2c:	5341203a 	.word	0x5341203a
    40004a30:	54524553 	.word	0x54524553
    40004a34:	6428203a 	.word	0x6428203a
    40004a38:	705f7269 	.word	0x705f7269
    40004a3c:	203d2120 	.word	0x203d2120
    40004a40:	6f762828 	.word	0x6f762828
    40004a44:	2a206469 	.word	0x2a206469
    40004a48:	2c293029 	.word	0x2c293029
    40004a4c:	29323220 	.word	0x29323220
    40004a50:	000a0d20 	.word	0x000a0d20
    40004a54:	00000000 	.word	0x00000000
    40004a58:	6d6f682f 	.word	0x6d6f682f
    40004a5c:	72652f65 	.word	0x72652f65
    40004a60:	772f6b69 	.word	0x772f6b69
    40004a64:	736b726f 	.word	0x736b726f
    40004a68:	65636170 	.word	0x65636170
    40004a6c:	6d69732f 	.word	0x6d69732f
    40004a70:	732f6162 	.word	0x732f6162
    40004a74:	662f6372 	.word	0x662f6372
    40004a78:	73656c69 	.word	0x73656c69
    40004a7c:	65747379 	.word	0x65747379
    40004a80:	662f736d 	.word	0x662f736d
    40004a84:	3a632e73 	.word	0x3a632e73
    40004a88:	38313231 	.word	0x38313231
    40004a8c:	5341203a 	.word	0x5341203a
    40004a90:	54524553 	.word	0x54524553
    40004a94:	7028203a 	.word	0x7028203a
    40004a98:	5f687461 	.word	0x5f687461
    40004a9c:	3d212070 	.word	0x3d212070
    40004aa0:	76282820 	.word	0x76282820
    40004aa4:	2064696f 	.word	0x2064696f
    40004aa8:	2930292a 	.word	0x2930292a
    40004aac:	3232202c 	.word	0x3232202c
    40004ab0:	0a0d2029 	.word	0x0a0d2029
    40004ab4:	00000000 	.word	0x00000000
    40004ab8:	6d6f682f 	.word	0x6d6f682f
    40004abc:	72652f65 	.word	0x72652f65
    40004ac0:	772f6b69 	.word	0x772f6b69
    40004ac4:	736b726f 	.word	0x736b726f
    40004ac8:	65636170 	.word	0x65636170
    40004acc:	6d69732f 	.word	0x6d69732f
    40004ad0:	732f6162 	.word	0x732f6162
    40004ad4:	662f6372 	.word	0x662f6372
    40004ad8:	73656c69 	.word	0x73656c69
    40004adc:	65747379 	.word	0x65747379
    40004ae0:	662f736d 	.word	0x662f736d
    40004ae4:	3a632e73 	.word	0x3a632e73
    40004ae8:	37333431 	.word	0x37333431
    40004aec:	5341203a 	.word	0x5341203a
    40004af0:	54524553 	.word	0x54524553
    40004af4:	7028203a 	.word	0x7028203a
    40004af8:	5f687461 	.word	0x5f687461
    40004afc:	3d212070 	.word	0x3d212070
    40004b00:	76282820 	.word	0x76282820
    40004b04:	2064696f 	.word	0x2064696f
    40004b08:	2930292a 	.word	0x2930292a
    40004b0c:	3232202c 	.word	0x3232202c
    40004b10:	0a0d2029 	.word	0x0a0d2029
    40004b14:	00000000 	.word	0x00000000
    40004b18:	6d6f682f 	.word	0x6d6f682f
    40004b1c:	72652f65 	.word	0x72652f65
    40004b20:	772f6b69 	.word	0x772f6b69
    40004b24:	736b726f 	.word	0x736b726f
    40004b28:	65636170 	.word	0x65636170
    40004b2c:	6d69732f 	.word	0x6d69732f
    40004b30:	732f6162 	.word	0x732f6162
    40004b34:	662f6372 	.word	0x662f6372
    40004b38:	73656c69 	.word	0x73656c69
    40004b3c:	65747379 	.word	0x65747379
    40004b40:	662f736d 	.word	0x662f736d
    40004b44:	3a632e73 	.word	0x3a632e73
    40004b48:	36333531 	.word	0x36333531
    40004b4c:	5341203a 	.word	0x5341203a
    40004b50:	54524553 	.word	0x54524553
    40004b54:	7028203a 	.word	0x7028203a
    40004b58:	5f687461 	.word	0x5f687461
    40004b5c:	3d212070 	.word	0x3d212070
    40004b60:	76282820 	.word	0x76282820
    40004b64:	2064696f 	.word	0x2064696f
    40004b68:	2930292a 	.word	0x2930292a
    40004b6c:	3232202c 	.word	0x3232202c
    40004b70:	0a0d2029 	.word	0x0a0d2029
    40004b74:	00000000 	.word	0x00000000
    40004b78:	6d6f682f 	.word	0x6d6f682f
    40004b7c:	72652f65 	.word	0x72652f65
    40004b80:	772f6b69 	.word	0x772f6b69
    40004b84:	736b726f 	.word	0x736b726f
    40004b88:	65636170 	.word	0x65636170
    40004b8c:	6d69732f 	.word	0x6d69732f
    40004b90:	732f6162 	.word	0x732f6162
    40004b94:	662f6372 	.word	0x662f6372
    40004b98:	73656c69 	.word	0x73656c69
    40004b9c:	65747379 	.word	0x65747379
    40004ba0:	662f736d 	.word	0x662f736d
    40004ba4:	3a632e73 	.word	0x3a632e73
    40004ba8:	37333531 	.word	0x37333531
    40004bac:	5341203a 	.word	0x5341203a
    40004bb0:	54524553 	.word	0x54524553
    40004bb4:	6328203a 	.word	0x6328203a
    40004bb8:	74756f68 	.word	0x74756f68
    40004bbc:	2120705f 	.word	0x2120705f
    40004bc0:	2828203d 	.word	0x2828203d
    40004bc4:	64696f76 	.word	0x64696f76
    40004bc8:	30292a20 	.word	0x30292a20
    40004bcc:	32202c29 	.word	0x32202c29
    40004bd0:	0d202932 	.word	0x0d202932
    40004bd4:	0000000a 	.word	0x0000000a
    40004bd8:	6d6f682f 	.word	0x6d6f682f
    40004bdc:	72652f65 	.word	0x72652f65
    40004be0:	772f6b69 	.word	0x772f6b69
    40004be4:	736b726f 	.word	0x736b726f
    40004be8:	65636170 	.word	0x65636170
    40004bec:	6d69732f 	.word	0x6d69732f
    40004bf0:	732f6162 	.word	0x732f6162
    40004bf4:	662f6372 	.word	0x662f6372
    40004bf8:	73656c69 	.word	0x73656c69
    40004bfc:	65747379 	.word	0x65747379
    40004c00:	662f736d 	.word	0x662f736d
    40004c04:	3a632e73 	.word	0x3a632e73
    40004c08:	33393431 	.word	0x33393431
    40004c0c:	5341203a 	.word	0x5341203a
    40004c10:	54524553 	.word	0x54524553
    40004c14:	7028203a 	.word	0x7028203a
    40004c18:	5f687461 	.word	0x5f687461
    40004c1c:	3d212070 	.word	0x3d212070
    40004c20:	76282820 	.word	0x76282820
    40004c24:	2064696f 	.word	0x2064696f
    40004c28:	2930292a 	.word	0x2930292a
    40004c2c:	3232202c 	.word	0x3232202c
    40004c30:	0a0d2029 	.word	0x0a0d2029
    40004c34:	00000000 	.word	0x00000000
    40004c38:	6d6f682f 	.word	0x6d6f682f
    40004c3c:	72652f65 	.word	0x72652f65
    40004c40:	772f6b69 	.word	0x772f6b69
    40004c44:	736b726f 	.word	0x736b726f
    40004c48:	65636170 	.word	0x65636170
    40004c4c:	6d69732f 	.word	0x6d69732f
    40004c50:	732f6162 	.word	0x732f6162
    40004c54:	662f6372 	.word	0x662f6372
    40004c58:	73656c69 	.word	0x73656c69
    40004c5c:	65747379 	.word	0x65747379
    40004c60:	662f736d 	.word	0x662f736d
    40004c64:	3a632e73 	.word	0x3a632e73
    40004c68:	34393431 	.word	0x34393431
    40004c6c:	5341203a 	.word	0x5341203a
    40004c70:	54524553 	.word	0x54524553
    40004c74:	6328203a 	.word	0x6328203a
    40004c78:	74756f68 	.word	0x74756f68
    40004c7c:	2120705f 	.word	0x2120705f
    40004c80:	2828203d 	.word	0x2828203d
    40004c84:	64696f76 	.word	0x64696f76
    40004c88:	30292a20 	.word	0x30292a20
    40004c8c:	32202c29 	.word	0x32202c29
    40004c90:	0d202932 	.word	0x0d202932
    40004c94:	0000000a 	.word	0x0000000a
    40004c98:	203a7325 	.word	0x203a7325
    40004c9c:	65726964 	.word	0x65726964
    40004ca0:	726f7463 	.word	0x726f7463
    40004ca4:	6f6e2079 	.word	0x6f6e2079
    40004ca8:	6f662074 	.word	0x6f662074
    40004cac:	0d646e75 	.word	0x0d646e75
    40004cb0:	0000000a 	.word	0x0000000a
    40004cb4:	00000000 	.word	0x00000000
    40004cb8:	75343025 	.word	0x75343025
    40004cbc:	3230252d 	.word	0x3230252d
    40004cc0:	30252d75 	.word	0x30252d75
    40004cc4:	25207532 	.word	0x25207532
    40004cc8:	3a753230 	.word	0x3a753230
    40004ccc:	75323025 	.word	0x75323025
    40004cd0:	00000020 	.word	0x00000020
    40004cd4:	00000000 	.word	0x00000000
    40004cd8:	756c3825 	.word	0x756c3825
    40004cdc:	00000020 	.word	0x00000020
    40004ce0:	6c69662f 	.word	0x6c69662f
    40004ce4:	73797365 	.word	0x73797365
    40004ce8:	736d6574 	.word	0x736d6574
    40004cec:	2f73662f 	.word	0x2f73662f
    40004cf0:	656c6966 	.word	0x656c6966
    40004cf4:	74737973 	.word	0x74737973
    40004cf8:	2f736d65 	.word	0x2f736d65
    40004cfc:	7473696c 	.word	0x7473696c
	...
    40004d08:	6c69662f 	.word	0x6c69662f
    40004d0c:	73797365 	.word	0x73797365
    40004d10:	736d6574 	.word	0x736d6574
    40004d14:	2f73662f 	.word	0x2f73662f
    40004d18:	64616572 	.word	0x64616572
    40004d1c:	00000000 	.word	0x00000000
    40004d20:	6c69662f 	.word	0x6c69662f
    40004d24:	73797365 	.word	0x73797365
    40004d28:	736d6574 	.word	0x736d6574
    40004d2c:	2f73662f 	.word	0x2f73662f
    40004d30:	74697277 	.word	0x74697277
    40004d34:	00000065 	.word	0x00000065
    40004d38:	6c69662f 	.word	0x6c69662f
    40004d3c:	73797365 	.word	0x73797365
    40004d40:	736d6574 	.word	0x736d6574
    40004d44:	2f73662f 	.word	0x2f73662f
    40004d48:	65707061 	.word	0x65707061
    40004d4c:	0000646e 	.word	0x0000646e
    40004d50:	6c69662f 	.word	0x6c69662f
    40004d54:	73797365 	.word	0x73797365
    40004d58:	736d6574 	.word	0x736d6574
    40004d5c:	2f73662f 	.word	0x2f73662f
    40004d60:	6f6d6572 	.word	0x6f6d6572
    40004d64:	00006576 	.word	0x00006576
    40004d68:	6c69662f 	.word	0x6c69662f
    40004d6c:	73797365 	.word	0x73797365
    40004d70:	736d6574 	.word	0x736d6574
    40004d74:	2f73662f 	.word	0x2f73662f
    40004d78:	7473696c 	.word	0x7473696c
    40004d7c:	00000000 	.word	0x00000000
    40004d80:	6c69662f 	.word	0x6c69662f
    40004d84:	73797365 	.word	0x73797365
    40004d88:	736d6574 	.word	0x736d6574
    40004d8c:	2f73662f 	.word	0x2f73662f
    40004d90:	6d726f66 	.word	0x6d726f66
    40004d94:	00007461 	.word	0x00007461
    40004d98:	6c69662f 	.word	0x6c69662f
    40004d9c:	73797365 	.word	0x73797365
    40004da0:	736d6574 	.word	0x736d6574
    40004da4:	2f73662f 	.word	0x2f73662f
    40004da8:	6e756f63 	.word	0x6e756f63
    40004dac:	73726574 	.word	0x73726574
    40004db0:	73696c2f 	.word	0x73696c2f
    40004db4:	00000074 	.word	0x00000074
    40004db8:	6c69662f 	.word	0x6c69662f
    40004dbc:	73797365 	.word	0x73797365
    40004dc0:	736d6574 	.word	0x736d6574
    40004dc4:	2f73662f 	.word	0x2f73662f
    40004dc8:	6e756f63 	.word	0x6e756f63
    40004dcc:	73726574 	.word	0x73726574
    40004dd0:	7365722f 	.word	0x7365722f
    40004dd4:	00007465 	.word	0x00007465
    40004dd8:	6c69662f 	.word	0x6c69662f
    40004ddc:	73797365 	.word	0x73797365
    40004de0:	736d6574 	.word	0x736d6574
    40004de4:	2f73662f 	.word	0x2f73662f
    40004de8:	61726170 	.word	0x61726170
    40004dec:	6574656d 	.word	0x6574656d
    40004df0:	6c2f7372 	.word	0x6c2f7372
    40004df4:	00747369 	.word	0x00747369
    40004df8:	6d6f682f 	.word	0x6d6f682f
    40004dfc:	72652f65 	.word	0x72652f65
    40004e00:	772f6b69 	.word	0x772f6b69
    40004e04:	736b726f 	.word	0x736b726f
    40004e08:	65636170 	.word	0x65636170
    40004e0c:	6d69732f 	.word	0x6d69732f
    40004e10:	732f6162 	.word	0x732f6162
    40004e14:	662f6372 	.word	0x662f6372
    40004e18:	73656c69 	.word	0x73656c69
    40004e1c:	65747379 	.word	0x65747379
    40004e20:	662f736d 	.word	0x662f736d
    40004e24:	3a632e73 	.word	0x3a632e73
    40004e28:	3a333039 	.word	0x3a333039
    40004e2c:	53534120 	.word	0x53534120
    40004e30:	3a545245 	.word	0x3a545245
    40004e34:	65732820 	.word	0x65732820
    40004e38:	705f666c 	.word	0x705f666c
    40004e3c:	203d2120 	.word	0x203d2120
    40004e40:	6f762828 	.word	0x6f762828
    40004e44:	2a206469 	.word	0x2a206469
    40004e48:	2c293029 	.word	0x2c293029
    40004e4c:	29323220 	.word	0x29323220
    40004e50:	000a0d20 	.word	0x000a0d20
    40004e54:	00000000 	.word	0x00000000
    40004e58:	6d6f682f 	.word	0x6d6f682f
    40004e5c:	72652f65 	.word	0x72652f65
    40004e60:	772f6b69 	.word	0x772f6b69
    40004e64:	736b726f 	.word	0x736b726f
    40004e68:	65636170 	.word	0x65636170
    40004e6c:	6d69732f 	.word	0x6d69732f
    40004e70:	732f6162 	.word	0x732f6162
    40004e74:	662f6372 	.word	0x662f6372
    40004e78:	73656c69 	.word	0x73656c69
    40004e7c:	65747379 	.word	0x65747379
    40004e80:	662f736d 	.word	0x662f736d
    40004e84:	3a632e73 	.word	0x3a632e73
    40004e88:	3a343039 	.word	0x3a343039
    40004e8c:	53534120 	.word	0x53534120
    40004e90:	3a545245 	.word	0x3a545245
    40004e94:	61702820 	.word	0x61702820
    40004e98:	705f6874 	.word	0x705f6874
    40004e9c:	203d2120 	.word	0x203d2120
    40004ea0:	6f762828 	.word	0x6f762828
    40004ea4:	2a206469 	.word	0x2a206469
    40004ea8:	2c293029 	.word	0x2c293029
    40004eac:	29323220 	.word	0x29323220
    40004eb0:	000a0d20 	.word	0x000a0d20
    40004eb4:	00000000 	.word	0x00000000
    40004eb8:	6d6f682f 	.word	0x6d6f682f
    40004ebc:	72652f65 	.word	0x72652f65
    40004ec0:	772f6b69 	.word	0x772f6b69
    40004ec4:	736b726f 	.word	0x736b726f
    40004ec8:	65636170 	.word	0x65636170
    40004ecc:	6d69732f 	.word	0x6d69732f
    40004ed0:	732f6162 	.word	0x732f6162
    40004ed4:	662f6372 	.word	0x662f6372
    40004ed8:	73656c69 	.word	0x73656c69
    40004edc:	65747379 	.word	0x65747379
    40004ee0:	662f736d 	.word	0x662f736d
    40004ee4:	3a632e73 	.word	0x3a632e73
    40004ee8:	3a323939 	.word	0x3a323939
    40004eec:	53534120 	.word	0x53534120
    40004ef0:	3a545245 	.word	0x3a545245
    40004ef4:	65732820 	.word	0x65732820
    40004ef8:	705f666c 	.word	0x705f666c
    40004efc:	203d2120 	.word	0x203d2120
    40004f00:	6f762828 	.word	0x6f762828
    40004f04:	2a206469 	.word	0x2a206469
    40004f08:	2c293029 	.word	0x2c293029
    40004f0c:	29323220 	.word	0x29323220
    40004f10:	000a0d20 	.word	0x000a0d20
    40004f14:	00000000 	.word	0x00000000
    40004f18:	6d6f682f 	.word	0x6d6f682f
    40004f1c:	72652f65 	.word	0x72652f65
    40004f20:	772f6b69 	.word	0x772f6b69
    40004f24:	736b726f 	.word	0x736b726f
    40004f28:	65636170 	.word	0x65636170
    40004f2c:	6d69732f 	.word	0x6d69732f
    40004f30:	732f6162 	.word	0x732f6162
    40004f34:	662f6372 	.word	0x662f6372
    40004f38:	73656c69 	.word	0x73656c69
    40004f3c:	65747379 	.word	0x65747379
    40004f40:	662f736d 	.word	0x662f736d
    40004f44:	3a632e73 	.word	0x3a632e73
    40004f48:	3a333939 	.word	0x3a333939
    40004f4c:	53534120 	.word	0x53534120
    40004f50:	3a545245 	.word	0x3a545245
    40004f54:	64282820 	.word	0x64282820
    40004f58:	705f7473 	.word	0x705f7473
    40004f5c:	203d2120 	.word	0x203d2120
    40004f60:	6f762828 	.word	0x6f762828
    40004f64:	2a206469 	.word	0x2a206469
    40004f68:	29293029 	.word	0x29293029
    40004f6c:	207c7c20 	.word	0x207c7c20
    40004f70:	7a697328 	.word	0x7a697328
    40004f74:	3d3d2065 	.word	0x3d3d2065
    40004f78:	2c293020 	.word	0x2c293020
    40004f7c:	29323220 	.word	0x29323220
    40004f80:	000a0d20 	.word	0x000a0d20
    40004f84:	00000000 	.word	0x00000000
    40004f88:	6d6f682f 	.word	0x6d6f682f
    40004f8c:	72652f65 	.word	0x72652f65
    40004f90:	772f6b69 	.word	0x772f6b69
    40004f94:	736b726f 	.word	0x736b726f
    40004f98:	65636170 	.word	0x65636170
    40004f9c:	6d69732f 	.word	0x6d69732f
    40004fa0:	732f6162 	.word	0x732f6162
    40004fa4:	662f6372 	.word	0x662f6372
    40004fa8:	73656c69 	.word	0x73656c69
    40004fac:	65747379 	.word	0x65747379
    40004fb0:	662f736d 	.word	0x662f736d
    40004fb4:	3a632e73 	.word	0x3a632e73
    40004fb8:	30353331 	.word	0x30353331
    40004fbc:	5341203a 	.word	0x5341203a
    40004fc0:	54524553 	.word	0x54524553
    40004fc4:	7028203a 	.word	0x7028203a
    40004fc8:	5f687461 	.word	0x5f687461
    40004fcc:	3d212070 	.word	0x3d212070
    40004fd0:	76282820 	.word	0x76282820
    40004fd4:	2064696f 	.word	0x2064696f
    40004fd8:	2930292a 	.word	0x2930292a
    40004fdc:	3232202c 	.word	0x3232202c
    40004fe0:	0a0d2029 	.word	0x0a0d2029
    40004fe4:	00000000 	.word	0x00000000
    40004fe8:	6d6f682f 	.word	0x6d6f682f
    40004fec:	72652f65 	.word	0x72652f65
    40004ff0:	772f6b69 	.word	0x772f6b69
    40004ff4:	736b726f 	.word	0x736b726f
    40004ff8:	65636170 	.word	0x65636170
    40004ffc:	6d69732f 	.word	0x6d69732f
    40005000:	732f6162 	.word	0x732f6162
    40005004:	662f6372 	.word	0x662f6372
    40005008:	73656c69 	.word	0x73656c69
    4000500c:	65747379 	.word	0x65747379
    40005010:	662f736d 	.word	0x662f736d
    40005014:	3a632e73 	.word	0x3a632e73
    40005018:	31393631 	.word	0x31393631
    4000501c:	5341203a 	.word	0x5341203a
    40005020:	54524553 	.word	0x54524553
    40005024:	6228203a 	.word	0x6228203a
    40005028:	705f6675 	.word	0x705f6675
    4000502c:	203d2120 	.word	0x203d2120
    40005030:	4c4c554e 	.word	0x4c4c554e
    40005034:	4945202c 	.word	0x4945202c
    40005038:	4c41564e 	.word	0x4c41564e
    4000503c:	0a0d2029 	.word	0x0a0d2029
	...
    40005048:	6d6f682f 	.word	0x6d6f682f
    4000504c:	72652f65 	.word	0x72652f65
    40005050:	772f6b69 	.word	0x772f6b69
    40005054:	736b726f 	.word	0x736b726f
    40005058:	65636170 	.word	0x65636170
    4000505c:	6d69732f 	.word	0x6d69732f
    40005060:	732f6162 	.word	0x732f6162
    40005064:	662f6372 	.word	0x662f6372
    40005068:	73656c69 	.word	0x73656c69
    4000506c:	65747379 	.word	0x65747379
    40005070:	662f736d 	.word	0x662f736d
    40005074:	3a632e73 	.word	0x3a632e73
    40005078:	32393631 	.word	0x32393631
    4000507c:	5341203a 	.word	0x5341203a
    40005080:	54524553 	.word	0x54524553
    40005084:	7028203a 	.word	0x7028203a
    40005088:	5f687461 	.word	0x5f687461
    4000508c:	21207070 	.word	0x21207070
    40005090:	554e203d 	.word	0x554e203d
    40005094:	202c4c4c 	.word	0x202c4c4c
    40005098:	564e4945 	.word	0x564e4945
    4000509c:	20294c41 	.word	0x20294c41
    400050a0:	00000a0d 	.word	0x00000a0d
    400050a4:	00000000 	.word	0x00000000
    400050a8:	6d6f682f 	.word	0x6d6f682f
    400050ac:	72652f65 	.word	0x72652f65
    400050b0:	772f6b69 	.word	0x772f6b69
    400050b4:	736b726f 	.word	0x736b726f
    400050b8:	65636170 	.word	0x65636170
    400050bc:	6d69732f 	.word	0x6d69732f
    400050c0:	732f6162 	.word	0x732f6162
    400050c4:	662f6372 	.word	0x662f6372
    400050c8:	73656c69 	.word	0x73656c69
    400050cc:	65747379 	.word	0x65747379
    400050d0:	662f736d 	.word	0x662f736d
    400050d4:	3a632e73 	.word	0x3a632e73
    400050d8:	33393631 	.word	0x33393631
    400050dc:	5341203a 	.word	0x5341203a
    400050e0:	54524553 	.word	0x54524553
    400050e4:	6328203a 	.word	0x6328203a
    400050e8:	705f646d 	.word	0x705f646d
    400050ec:	3d212070 	.word	0x3d212070
    400050f0:	4c554e20 	.word	0x4c554e20
    400050f4:	45202c4c 	.word	0x45202c4c
    400050f8:	41564e49 	.word	0x41564e49
    400050fc:	0d20294c 	.word	0x0d20294c
    40005100:	0000000a 	.word	0x0000000a
    40005104:	00000000 	.word	0x00000000
    40005108:	6d6f682f 	.word	0x6d6f682f
    4000510c:	72652f65 	.word	0x72652f65
    40005110:	772f6b69 	.word	0x772f6b69
    40005114:	736b726f 	.word	0x736b726f
    40005118:	65636170 	.word	0x65636170
    4000511c:	6d69732f 	.word	0x6d69732f
    40005120:	732f6162 	.word	0x732f6162
    40005124:	662f6372 	.word	0x662f6372
    40005128:	73656c69 	.word	0x73656c69
    4000512c:	65747379 	.word	0x65747379
    40005130:	662f736d 	.word	0x662f736d
    40005134:	3a632e73 	.word	0x3a632e73
    40005138:	39363031 	.word	0x39363031
    4000513c:	5341203a 	.word	0x5341203a
    40005140:	54524553 	.word	0x54524553
    40005144:	7328203a 	.word	0x7328203a
    40005148:	5f666c65 	.word	0x5f666c65
    4000514c:	3d212070 	.word	0x3d212070
    40005150:	76282820 	.word	0x76282820
    40005154:	2064696f 	.word	0x2064696f
    40005158:	2930292a 	.word	0x2930292a
    4000515c:	3232202c 	.word	0x3232202c
    40005160:	0a0d2029 	.word	0x0a0d2029
    40005164:	00000000 	.word	0x00000000
    40005168:	6d6f682f 	.word	0x6d6f682f
    4000516c:	72652f65 	.word	0x72652f65
    40005170:	772f6b69 	.word	0x772f6b69
    40005174:	736b726f 	.word	0x736b726f
    40005178:	65636170 	.word	0x65636170
    4000517c:	6d69732f 	.word	0x6d69732f
    40005180:	732f6162 	.word	0x732f6162
    40005184:	662f6372 	.word	0x662f6372
    40005188:	73656c69 	.word	0x73656c69
    4000518c:	65747379 	.word	0x65747379
    40005190:	662f736d 	.word	0x662f736d
    40005194:	3a632e73 	.word	0x3a632e73
    40005198:	30373031 	.word	0x30373031
    4000519c:	5341203a 	.word	0x5341203a
    400051a0:	54524553 	.word	0x54524553
    400051a4:	2828203a 	.word	0x2828203a
    400051a8:	5f637273 	.word	0x5f637273
    400051ac:	3d212070 	.word	0x3d212070
    400051b0:	76282820 	.word	0x76282820
    400051b4:	2064696f 	.word	0x2064696f
    400051b8:	2930292a 	.word	0x2930292a
    400051bc:	7c7c2029 	.word	0x7c7c2029
    400051c0:	69732820 	.word	0x69732820
    400051c4:	3d20657a 	.word	0x3d20657a
    400051c8:	2930203d 	.word	0x2930203d
    400051cc:	3232202c 	.word	0x3232202c
    400051d0:	0a0d2029 	.word	0x0a0d2029
    400051d4:	00000000 	.word	0x00000000
    400051d8:	6d6f682f 	.word	0x6d6f682f
    400051dc:	72652f65 	.word	0x72652f65
    400051e0:	772f6b69 	.word	0x772f6b69
    400051e4:	736b726f 	.word	0x736b726f
    400051e8:	65636170 	.word	0x65636170
    400051ec:	6d69732f 	.word	0x6d69732f
    400051f0:	732f6162 	.word	0x732f6162
    400051f4:	732f6372 	.word	0x732f6372
    400051f8:	2f636e79 	.word	0x2f636e79
    400051fc:	6e616863 	.word	0x6e616863
    40005200:	323a632e 	.word	0x323a632e
    40005204:	203a3331 	.word	0x203a3331
    40005208:	45535341 	.word	0x45535341
    4000520c:	203a5452 	.word	0x203a5452
    40005210:	6c657328 	.word	0x6c657328
    40005214:	20705f66 	.word	0x20705f66
    40005218:	28203d21 	.word	0x28203d21
    4000521c:	696f7628 	.word	0x696f7628
    40005220:	292a2064 	.word	0x292a2064
    40005224:	202c2930 	.word	0x202c2930
    40005228:	20293232 	.word	0x20293232
    4000522c:	00000a0d 	.word	0x00000a0d
    40005230:	6d6f682f 	.word	0x6d6f682f
    40005234:	72652f65 	.word	0x72652f65
    40005238:	772f6b69 	.word	0x772f6b69
    4000523c:	736b726f 	.word	0x736b726f
    40005240:	65636170 	.word	0x65636170
    40005244:	6d69732f 	.word	0x6d69732f
    40005248:	732f6162 	.word	0x732f6162
    4000524c:	732f6372 	.word	0x732f6372
    40005250:	2f636e79 	.word	0x2f636e79
    40005254:	6e616863 	.word	0x6e616863
    40005258:	343a632e 	.word	0x343a632e
    4000525c:	41203a39 	.word	0x41203a39
    40005260:	52455353 	.word	0x52455353
    40005264:	28203a54 	.word	0x28203a54
    40005268:	666c6573 	.word	0x666c6573
    4000526c:	2120705f 	.word	0x2120705f
    40005270:	2828203d 	.word	0x2828203d
    40005274:	64696f76 	.word	0x64696f76
    40005278:	30292a20 	.word	0x30292a20
    4000527c:	32202c29 	.word	0x32202c29
    40005280:	0d202932 	.word	0x0d202932
    40005284:	0000000a 	.word	0x0000000a
    40005288:	6d6f682f 	.word	0x6d6f682f
    4000528c:	72652f65 	.word	0x72652f65
    40005290:	772f6b69 	.word	0x772f6b69
    40005294:	736b726f 	.word	0x736b726f
    40005298:	65636170 	.word	0x65636170
    4000529c:	6d69732f 	.word	0x6d69732f
    400052a0:	732f6162 	.word	0x732f6162
    400052a4:	732f6372 	.word	0x732f6372
    400052a8:	2f636e79 	.word	0x2f636e79
    400052ac:	6e616863 	.word	0x6e616863
    400052b0:	353a632e 	.word	0x353a632e
    400052b4:	41203a30 	.word	0x41203a30
    400052b8:	52455353 	.word	0x52455353
    400052bc:	28203a54 	.word	0x28203a54
    400052c0:	64616572 	.word	0x64616572
    400052c4:	203d2120 	.word	0x203d2120
    400052c8:	6f762828 	.word	0x6f762828
    400052cc:	2a206469 	.word	0x2a206469
    400052d0:	2c293029 	.word	0x2c293029
    400052d4:	29323220 	.word	0x29323220
    400052d8:	000a0d20 	.word	0x000a0d20
    400052dc:	00000000 	.word	0x00000000
    400052e0:	6d6f682f 	.word	0x6d6f682f
    400052e4:	72652f65 	.word	0x72652f65
    400052e8:	772f6b69 	.word	0x772f6b69
    400052ec:	736b726f 	.word	0x736b726f
    400052f0:	65636170 	.word	0x65636170
    400052f4:	6d69732f 	.word	0x6d69732f
    400052f8:	732f6162 	.word	0x732f6162
    400052fc:	732f6372 	.word	0x732f6372
    40005300:	2f636e79 	.word	0x2f636e79
    40005304:	6e616863 	.word	0x6e616863
    40005308:	353a632e 	.word	0x353a632e
    4000530c:	41203a31 	.word	0x41203a31
    40005310:	52455353 	.word	0x52455353
    40005314:	28203a54 	.word	0x28203a54
    40005318:	74697277 	.word	0x74697277
    4000531c:	3d212065 	.word	0x3d212065
    40005320:	76282820 	.word	0x76282820
    40005324:	2064696f 	.word	0x2064696f
    40005328:	2930292a 	.word	0x2930292a
    4000532c:	3232202c 	.word	0x3232202c
    40005330:	0a0d2029 	.word	0x0a0d2029
    40005334:	00000000 	.word	0x00000000
    40005338:	6d6f682f 	.word	0x6d6f682f
    4000533c:	72652f65 	.word	0x72652f65
    40005340:	772f6b69 	.word	0x772f6b69
    40005344:	736b726f 	.word	0x736b726f
    40005348:	65636170 	.word	0x65636170
    4000534c:	6d69732f 	.word	0x6d69732f
    40005350:	732f6162 	.word	0x732f6162
    40005354:	732f6372 	.word	0x732f6372
    40005358:	2f636e79 	.word	0x2f636e79
    4000535c:	6e616863 	.word	0x6e616863
    40005360:	353a632e 	.word	0x353a632e
    40005364:	41203a32 	.word	0x41203a32
    40005368:	52455353 	.word	0x52455353
    4000536c:	28203a54 	.word	0x28203a54
    40005370:	657a6973 	.word	0x657a6973
    40005374:	203d2120 	.word	0x203d2120
    40005378:	6f762828 	.word	0x6f762828
    4000537c:	2a206469 	.word	0x2a206469
    40005380:	2c293029 	.word	0x2c293029
    40005384:	29323220 	.word	0x29323220
    40005388:	000a0d20 	.word	0x000a0d20
    4000538c:	00000000 	.word	0x00000000
    40005390:	6d6f682f 	.word	0x6d6f682f
    40005394:	72652f65 	.word	0x72652f65
    40005398:	772f6b69 	.word	0x772f6b69
    4000539c:	736b726f 	.word	0x736b726f
    400053a0:	65636170 	.word	0x65636170
    400053a4:	6d69732f 	.word	0x6d69732f
    400053a8:	732f6162 	.word	0x732f6162
    400053ac:	732f6372 	.word	0x732f6372
    400053b0:	2f636e79 	.word	0x2f636e79
    400053b4:	6e616863 	.word	0x6e616863
    400053b8:	313a632e 	.word	0x313a632e
    400053bc:	203a3135 	.word	0x203a3135
    400053c0:	45535341 	.word	0x45535341
    400053c4:	203a5452 	.word	0x203a5452
    400053c8:	6c657328 	.word	0x6c657328
    400053cc:	20705f66 	.word	0x20705f66
    400053d0:	28203d21 	.word	0x28203d21
    400053d4:	696f7628 	.word	0x696f7628
    400053d8:	292a2064 	.word	0x292a2064
    400053dc:	202c2930 	.word	0x202c2930
    400053e0:	20293232 	.word	0x20293232
    400053e4:	00000a0d 	.word	0x00000a0d
    400053e8:	6d6f682f 	.word	0x6d6f682f
    400053ec:	72652f65 	.word	0x72652f65
    400053f0:	772f6b69 	.word	0x772f6b69
    400053f4:	736b726f 	.word	0x736b726f
    400053f8:	65636170 	.word	0x65636170
    400053fc:	6d69732f 	.word	0x6d69732f
    40005400:	732f6162 	.word	0x732f6162
    40005404:	732f6372 	.word	0x732f6372
    40005408:	2f636e79 	.word	0x2f636e79
    4000540c:	6e616863 	.word	0x6e616863
    40005410:	313a632e 	.word	0x313a632e
    40005414:	203a3235 	.word	0x203a3235
    40005418:	45535341 	.word	0x45535341
    4000541c:	203a5452 	.word	0x203a5452
    40005420:	73282828 	.word	0x73282828
    40005424:	63757274 	.word	0x63757274
    40005428:	68632074 	.word	0x68632074
    4000542c:	745f6e61 	.word	0x745f6e61
    40005430:	73292a20 	.word	0x73292a20
    40005434:	5f666c65 	.word	0x5f666c65
    40005438:	3e2d2970 	.word	0x3e2d2970
    4000543c:	64616572 	.word	0x64616572
    40005440:	203d2120 	.word	0x203d2120
    40005444:	6f762828 	.word	0x6f762828
    40005448:	2a206469 	.word	0x2a206469
    4000544c:	2c293029 	.word	0x2c293029
    40005450:	29323220 	.word	0x29323220
    40005454:	000a0d20 	.word	0x000a0d20
    40005458:	6d6f682f 	.word	0x6d6f682f
    4000545c:	72652f65 	.word	0x72652f65
    40005460:	772f6b69 	.word	0x772f6b69
    40005464:	736b726f 	.word	0x736b726f
    40005468:	65636170 	.word	0x65636170
    4000546c:	6d69732f 	.word	0x6d69732f
    40005470:	732f6162 	.word	0x732f6162
    40005474:	732f6372 	.word	0x732f6372
    40005478:	2f636e79 	.word	0x2f636e79
    4000547c:	6e616863 	.word	0x6e616863
    40005480:	313a632e 	.word	0x313a632e
    40005484:	203a3335 	.word	0x203a3335
    40005488:	45535341 	.word	0x45535341
    4000548c:	203a5452 	.word	0x203a5452
    40005490:	66756228 	.word	0x66756228
    40005494:	2120705f 	.word	0x2120705f
    40005498:	2828203d 	.word	0x2828203d
    4000549c:	64696f76 	.word	0x64696f76
    400054a0:	30292a20 	.word	0x30292a20
    400054a4:	32202c29 	.word	0x32202c29
    400054a8:	0d202932 	.word	0x0d202932
    400054ac:	0000000a 	.word	0x0000000a
    400054b0:	6d6f682f 	.word	0x6d6f682f
    400054b4:	72652f65 	.word	0x72652f65
    400054b8:	772f6b69 	.word	0x772f6b69
    400054bc:	736b726f 	.word	0x736b726f
    400054c0:	65636170 	.word	0x65636170
    400054c4:	6d69732f 	.word	0x6d69732f
    400054c8:	732f6162 	.word	0x732f6162
    400054cc:	732f6372 	.word	0x732f6372
    400054d0:	2f636e79 	.word	0x2f636e79
    400054d4:	6e616863 	.word	0x6e616863
    400054d8:	313a632e 	.word	0x313a632e
    400054dc:	203a3435 	.word	0x203a3435
    400054e0:	45535341 	.word	0x45535341
    400054e4:	203a5452 	.word	0x203a5452
    400054e8:	7a697328 	.word	0x7a697328
    400054ec:	203e2065 	.word	0x203e2065
    400054f0:	32202c30 	.word	0x32202c30
    400054f4:	0d202932 	.word	0x0d202932
    400054f8:	0000000a 	.word	0x0000000a
    400054fc:	00000000 	.word	0x00000000
    40005500:	6d6f682f 	.word	0x6d6f682f
    40005504:	72652f65 	.word	0x72652f65
    40005508:	772f6b69 	.word	0x772f6b69
    4000550c:	736b726f 	.word	0x736b726f
    40005510:	65636170 	.word	0x65636170
    40005514:	6d69732f 	.word	0x6d69732f
    40005518:	732f6162 	.word	0x732f6162
    4000551c:	732f6372 	.word	0x732f6372
    40005520:	2f636e79 	.word	0x2f636e79
    40005524:	6e616863 	.word	0x6e616863
    40005528:	313a632e 	.word	0x313a632e
    4000552c:	203a3633 	.word	0x203a3633
    40005530:	45535341 	.word	0x45535341
    40005534:	203a5452 	.word	0x203a5452
    40005538:	6c657328 	.word	0x6c657328
    4000553c:	20705f66 	.word	0x20705f66
    40005540:	28203d21 	.word	0x28203d21
    40005544:	696f7628 	.word	0x696f7628
    40005548:	292a2064 	.word	0x292a2064
    4000554c:	202c2930 	.word	0x202c2930
    40005550:	20293232 	.word	0x20293232
    40005554:	00000a0d 	.word	0x00000a0d
    40005558:	6d6f682f 	.word	0x6d6f682f
    4000555c:	72652f65 	.word	0x72652f65
    40005560:	772f6b69 	.word	0x772f6b69
    40005564:	736b726f 	.word	0x736b726f
    40005568:	65636170 	.word	0x65636170
    4000556c:	6d69732f 	.word	0x6d69732f
    40005570:	732f6162 	.word	0x732f6162
    40005574:	732f6372 	.word	0x732f6372
    40005578:	2f636e79 	.word	0x2f636e79
    4000557c:	6e616863 	.word	0x6e616863
    40005580:	313a632e 	.word	0x313a632e
    40005584:	203a3336 	.word	0x203a3336
    40005588:	45535341 	.word	0x45535341
    4000558c:	203a5452 	.word	0x203a5452
    40005590:	735f7628 	.word	0x735f7628
    40005594:	5f666c65 	.word	0x5f666c65
    40005598:	3d212070 	.word	0x3d212070
    4000559c:	76282820 	.word	0x76282820
    400055a0:	2064696f 	.word	0x2064696f
    400055a4:	2930292a 	.word	0x2930292a
    400055a8:	3232202c 	.word	0x3232202c
    400055ac:	0a0d2029 	.word	0x0a0d2029
	...
    400055b8:	6d6f682f 	.word	0x6d6f682f
    400055bc:	72652f65 	.word	0x72652f65
    400055c0:	772f6b69 	.word	0x772f6b69
    400055c4:	736b726f 	.word	0x736b726f
    400055c8:	65636170 	.word	0x65636170
    400055cc:	6d69732f 	.word	0x6d69732f
    400055d0:	732f6162 	.word	0x732f6162
    400055d4:	732f6372 	.word	0x732f6372
    400055d8:	2f636e79 	.word	0x2f636e79
    400055dc:	6e616863 	.word	0x6e616863
    400055e0:	313a632e 	.word	0x313a632e
    400055e4:	203a3436 	.word	0x203a3436
    400055e8:	45535341 	.word	0x45535341
    400055ec:	203a5452 	.word	0x203a5452
    400055f0:	73282828 	.word	0x73282828
    400055f4:	63757274 	.word	0x63757274
    400055f8:	68632074 	.word	0x68632074
    400055fc:	745f6e61 	.word	0x745f6e61
    40005600:	76292a20 	.word	0x76292a20
    40005604:	6c65735f 	.word	0x6c65735f
    40005608:	29705f66 	.word	0x29705f66
    4000560c:	72773e2d 	.word	0x72773e2d
    40005610:	20657469 	.word	0x20657469
    40005614:	28203d21 	.word	0x28203d21
    40005618:	696f7628 	.word	0x696f7628
    4000561c:	292a2064 	.word	0x292a2064
    40005620:	202c2930 	.word	0x202c2930
    40005624:	20293232 	.word	0x20293232
    40005628:	00000a0d 	.word	0x00000a0d
    4000562c:	00000000 	.word	0x00000000
    40005630:	6d6f682f 	.word	0x6d6f682f
    40005634:	72652f65 	.word	0x72652f65
    40005638:	772f6b69 	.word	0x772f6b69
    4000563c:	736b726f 	.word	0x736b726f
    40005640:	65636170 	.word	0x65636170
    40005644:	6d69732f 	.word	0x6d69732f
    40005648:	732f6162 	.word	0x732f6162
    4000564c:	732f6372 	.word	0x732f6372
    40005650:	2f636e79 	.word	0x2f636e79
    40005654:	6e616863 	.word	0x6e616863
    40005658:	313a632e 	.word	0x313a632e
    4000565c:	203a3536 	.word	0x203a3536
    40005660:	45535341 	.word	0x45535341
    40005664:	203a5452 	.word	0x203a5452
    40005668:	66756228 	.word	0x66756228
    4000566c:	2120705f 	.word	0x2120705f
    40005670:	2828203d 	.word	0x2828203d
    40005674:	64696f76 	.word	0x64696f76
    40005678:	30292a20 	.word	0x30292a20
    4000567c:	32202c29 	.word	0x32202c29
    40005680:	0d202932 	.word	0x0d202932
    40005684:	0000000a 	.word	0x0000000a
    40005688:	6d6f682f 	.word	0x6d6f682f
    4000568c:	72652f65 	.word	0x72652f65
    40005690:	772f6b69 	.word	0x772f6b69
    40005694:	736b726f 	.word	0x736b726f
    40005698:	65636170 	.word	0x65636170
    4000569c:	6d69732f 	.word	0x6d69732f
    400056a0:	732f6162 	.word	0x732f6162
    400056a4:	732f6372 	.word	0x732f6372
    400056a8:	2f636e79 	.word	0x2f636e79
    400056ac:	6e616863 	.word	0x6e616863
    400056b0:	313a632e 	.word	0x313a632e
    400056b4:	203a3636 	.word	0x203a3636
    400056b8:	45535341 	.word	0x45535341
    400056bc:	203a5452 	.word	0x203a5452
    400056c0:	7a697328 	.word	0x7a697328
    400056c4:	203e2065 	.word	0x203e2065
    400056c8:	32202c30 	.word	0x32202c30
    400056cc:	0d202932 	.word	0x0d202932
    400056d0:	0000000a 	.word	0x0000000a
    400056d4:	00000000 	.word	0x00000000

00000000400056d8 <null>:
    400056d8:	0000b668 	.word	0x0000b668
    400056dc:	00000000 	.word	0x00000000
    400056e0:	0000b670 	.word	0x0000b670
    400056e4:	00000000 	.word	0x00000000
    400056e8:	0000b678 	.word	0x0000b678
    400056ec:	00000000 	.word	0x00000000
    400056f0:	0000b680 	.word	0x0000b680
	...
    40005700:	0000b670 	.word	0x0000b670
	...
    40005720:	6d6f682f 	.word	0x6d6f682f
    40005724:	72652f65 	.word	0x72652f65
    40005728:	772f6b69 	.word	0x772f6b69
    4000572c:	736b726f 	.word	0x736b726f
    40005730:	65636170 	.word	0x65636170
    40005734:	6d69732f 	.word	0x6d69732f
    40005738:	732f6162 	.word	0x732f6162
    4000573c:	732f6372 	.word	0x732f6372
    40005740:	2f636e79 	.word	0x2f636e79
    40005744:	75657571 	.word	0x75657571
    40005748:	3a632e65 	.word	0x3a632e65
    4000574c:	203a3237 	.word	0x203a3237
    40005750:	45535341 	.word	0x45535341
    40005754:	203a5452 	.word	0x203a5452
    40005758:	6c657328 	.word	0x6c657328
    4000575c:	20705f66 	.word	0x20705f66
    40005760:	28203d21 	.word	0x28203d21
    40005764:	696f7628 	.word	0x696f7628
    40005768:	292a2064 	.word	0x292a2064
    4000576c:	202c2930 	.word	0x202c2930
    40005770:	20293232 	.word	0x20293232
    40005774:	00000a0d 	.word	0x00000a0d
    40005778:	6d6f682f 	.word	0x6d6f682f
    4000577c:	72652f65 	.word	0x72652f65
    40005780:	772f6b69 	.word	0x772f6b69
    40005784:	736b726f 	.word	0x736b726f
    40005788:	65636170 	.word	0x65636170
    4000578c:	6d69732f 	.word	0x6d69732f
    40005790:	732f6162 	.word	0x732f6162
    40005794:	732f6372 	.word	0x732f6372
    40005798:	2f636e79 	.word	0x2f636e79
    4000579c:	75657571 	.word	0x75657571
    400057a0:	3a632e65 	.word	0x3a632e65
    400057a4:	203a3437 	.word	0x203a3437
    400057a8:	45535341 	.word	0x45535341
    400057ac:	203a5452 	.word	0x203a5452
    400057b0:	75622828 	.word	0x75622828
    400057b4:	20705f66 	.word	0x20705f66
    400057b8:	28203d3d 	.word	0x28203d3d
    400057bc:	696f7628 	.word	0x696f7628
    400057c0:	292a2064 	.word	0x292a2064
    400057c4:	20292930 	.word	0x20292930
    400057c8:	28207c7c 	.word	0x28207c7c
    400057cc:	66756228 	.word	0x66756228
    400057d0:	2120705f 	.word	0x2120705f
    400057d4:	2828203d 	.word	0x2828203d
    400057d8:	64696f76 	.word	0x64696f76
    400057dc:	30292a20 	.word	0x30292a20
    400057e0:	26202929 	.word	0x26202929
    400057e4:	73282026 	.word	0x73282026
    400057e8:	20657a69 	.word	0x20657a69
    400057ec:	2930203e 	.word	0x2930203e
    400057f0:	32202c29 	.word	0x32202c29
    400057f4:	0d202932 	.word	0x0d202932
    400057f8:	0000000a 	.word	0x0000000a
    400057fc:	00000000 	.word	0x00000000
    40005800:	6d6f682f 	.word	0x6d6f682f
    40005804:	72652f65 	.word	0x72652f65
    40005808:	772f6b69 	.word	0x772f6b69
    4000580c:	736b726f 	.word	0x736b726f
    40005810:	65636170 	.word	0x65636170
    40005814:	6d69732f 	.word	0x6d69732f
    40005818:	732f6162 	.word	0x732f6162
    4000581c:	732f6372 	.word	0x732f6372
    40005820:	2f636e79 	.word	0x2f636e79
    40005824:	75657571 	.word	0x75657571
    40005828:	3a632e65 	.word	0x3a632e65
    4000582c:	3a343531 	.word	0x3a343531
    40005830:	53534120 	.word	0x53534120
    40005834:	3a545245 	.word	0x3a545245
    40005838:	65732820 	.word	0x65732820
    4000583c:	705f666c 	.word	0x705f666c
    40005840:	203d2120 	.word	0x203d2120
    40005844:	6f762828 	.word	0x6f762828
    40005848:	2a206469 	.word	0x2a206469
    4000584c:	2c293029 	.word	0x2c293029
    40005850:	29323220 	.word	0x29323220
    40005854:	000a0d20 	.word	0x000a0d20
    40005858:	6d6f682f 	.word	0x6d6f682f
    4000585c:	72652f65 	.word	0x72652f65
    40005860:	772f6b69 	.word	0x772f6b69
    40005864:	736b726f 	.word	0x736b726f
    40005868:	65636170 	.word	0x65636170
    4000586c:	6d69732f 	.word	0x6d69732f
    40005870:	732f6162 	.word	0x732f6162
    40005874:	732f6372 	.word	0x732f6372
    40005878:	2f636e79 	.word	0x2f636e79
    4000587c:	75657571 	.word	0x75657571
    40005880:	3a632e65 	.word	0x3a632e65
    40005884:	3a353531 	.word	0x3a353531
    40005888:	53534120 	.word	0x53534120
    4000588c:	3a545245 	.word	0x3a545245
    40005890:	75622820 	.word	0x75622820
    40005894:	20705f66 	.word	0x20705f66
    40005898:	28203d21 	.word	0x28203d21
    4000589c:	696f7628 	.word	0x696f7628
    400058a0:	292a2064 	.word	0x292a2064
    400058a4:	202c2930 	.word	0x202c2930
    400058a8:	20293232 	.word	0x20293232
    400058ac:	00000a0d 	.word	0x00000a0d
    400058b0:	6d6f682f 	.word	0x6d6f682f
    400058b4:	72652f65 	.word	0x72652f65
    400058b8:	772f6b69 	.word	0x772f6b69
    400058bc:	736b726f 	.word	0x736b726f
    400058c0:	65636170 	.word	0x65636170
    400058c4:	6d69732f 	.word	0x6d69732f
    400058c8:	732f6162 	.word	0x732f6162
    400058cc:	732f6372 	.word	0x732f6372
    400058d0:	2f636e79 	.word	0x2f636e79
    400058d4:	75657571 	.word	0x75657571
    400058d8:	3a632e65 	.word	0x3a632e65
    400058dc:	3a343133 	.word	0x3a343133
    400058e0:	53534120 	.word	0x53534120
    400058e4:	3a545245 	.word	0x3a545245
    400058e8:	65732820 	.word	0x65732820
    400058ec:	705f666c 	.word	0x705f666c
    400058f0:	203d2120 	.word	0x203d2120
    400058f4:	6f762828 	.word	0x6f762828
    400058f8:	2a206469 	.word	0x2a206469
    400058fc:	2c293029 	.word	0x2c293029
    40005900:	29323220 	.word	0x29323220
    40005904:	000a0d20 	.word	0x000a0d20
    40005908:	6d6f682f 	.word	0x6d6f682f
    4000590c:	72652f65 	.word	0x72652f65
    40005910:	772f6b69 	.word	0x772f6b69
    40005914:	736b726f 	.word	0x736b726f
    40005918:	65636170 	.word	0x65636170
    4000591c:	6d69732f 	.word	0x6d69732f
    40005920:	732f6162 	.word	0x732f6162
    40005924:	732f6372 	.word	0x732f6372
    40005928:	2f636e79 	.word	0x2f636e79
    4000592c:	75657571 	.word	0x75657571
    40005930:	3a632e65 	.word	0x3a632e65
    40005934:	3a353232 	.word	0x3a353232
    40005938:	53534120 	.word	0x53534120
    4000593c:	3a545245 	.word	0x3a545245
    40005940:	65732820 	.word	0x65732820
    40005944:	705f666c 	.word	0x705f666c
    40005948:	203d2120 	.word	0x203d2120
    4000594c:	6f762828 	.word	0x6f762828
    40005950:	2a206469 	.word	0x2a206469
    40005954:	2c293029 	.word	0x2c293029
    40005958:	29323220 	.word	0x29323220
    4000595c:	000a0d20 	.word	0x000a0d20
    40005960:	6d6f682f 	.word	0x6d6f682f
    40005964:	72652f65 	.word	0x72652f65
    40005968:	772f6b69 	.word	0x772f6b69
    4000596c:	736b726f 	.word	0x736b726f
    40005970:	65636170 	.word	0x65636170
    40005974:	6d69732f 	.word	0x6d69732f
    40005978:	732f6162 	.word	0x732f6162
    4000597c:	732f6372 	.word	0x732f6372
    40005980:	2f636e79 	.word	0x2f636e79
    40005984:	75657571 	.word	0x75657571
    40005988:	3a632e65 	.word	0x3a632e65
    4000598c:	3a363232 	.word	0x3a363232
    40005990:	53534120 	.word	0x53534120
    40005994:	3a545245 	.word	0x3a545245
    40005998:	75622820 	.word	0x75622820
    4000599c:	20705f66 	.word	0x20705f66
    400059a0:	28203d21 	.word	0x28203d21
    400059a4:	696f7628 	.word	0x696f7628
    400059a8:	292a2064 	.word	0x292a2064
    400059ac:	202c2930 	.word	0x202c2930
    400059b0:	20293232 	.word	0x20293232
    400059b4:	00000a0d 	.word	0x00000a0d
    400059b8:	6d6f682f 	.word	0x6d6f682f
    400059bc:	72652f65 	.word	0x72652f65
    400059c0:	772f6b69 	.word	0x772f6b69
    400059c4:	736b726f 	.word	0x736b726f
    400059c8:	65636170 	.word	0x65636170
    400059cc:	6d69732f 	.word	0x6d69732f
    400059d0:	732f6162 	.word	0x732f6162
    400059d4:	732f6372 	.word	0x732f6372
    400059d8:	2f636e79 	.word	0x2f636e79
    400059dc:	2e6d6573 	.word	0x2e6d6573
    400059e0:	30343a63 	.word	0x30343a63
    400059e4:	5341203a 	.word	0x5341203a
    400059e8:	54524553 	.word	0x54524553
    400059ec:	7328203a 	.word	0x7328203a
    400059f0:	5f666c65 	.word	0x5f666c65
    400059f4:	3d212070 	.word	0x3d212070
    400059f8:	76282820 	.word	0x76282820
    400059fc:	2064696f 	.word	0x2064696f
    40005a00:	2930292a 	.word	0x2930292a
    40005a04:	3232202c 	.word	0x3232202c
    40005a08:	0a0d2029 	.word	0x0a0d2029
    40005a0c:	00000000 	.word	0x00000000
    40005a10:	6d6f682f 	.word	0x6d6f682f
    40005a14:	72652f65 	.word	0x72652f65
    40005a18:	772f6b69 	.word	0x772f6b69
    40005a1c:	736b726f 	.word	0x736b726f
    40005a20:	65636170 	.word	0x65636170
    40005a24:	6d69732f 	.word	0x6d69732f
    40005a28:	732f6162 	.word	0x732f6162
    40005a2c:	732f6372 	.word	0x732f6372
    40005a30:	2f636e79 	.word	0x2f636e79
    40005a34:	2e6d6573 	.word	0x2e6d6573
    40005a38:	31343a63 	.word	0x31343a63
    40005a3c:	5341203a 	.word	0x5341203a
    40005a40:	54524553 	.word	0x54524553
    40005a44:	2828203a 	.word	0x2828203a
    40005a48:	6e756f63 	.word	0x6e756f63
    40005a4c:	3d3e2074 	.word	0x3d3e2074
    40005a50:	20293020 	.word	0x20293020
    40005a54:	28202626 	.word	0x28202626
    40005a58:	6e756f63 	.word	0x6e756f63
    40005a5c:	3d3c2074 	.word	0x3d3c2074
    40005a60:	756f6320 	.word	0x756f6320
    40005a64:	6d5f746e 	.word	0x6d5f746e
    40005a68:	2c297861 	.word	0x2c297861
    40005a6c:	29323220 	.word	0x29323220
    40005a70:	000a0d20 	.word	0x000a0d20
    40005a74:	00000000 	.word	0x00000000
    40005a78:	6d6f682f 	.word	0x6d6f682f
    40005a7c:	72652f65 	.word	0x72652f65
    40005a80:	772f6b69 	.word	0x772f6b69
    40005a84:	736b726f 	.word	0x736b726f
    40005a88:	65636170 	.word	0x65636170
    40005a8c:	6d69732f 	.word	0x6d69732f
    40005a90:	732f6162 	.word	0x732f6162
    40005a94:	732f6372 	.word	0x732f6372
    40005a98:	2f636e79 	.word	0x2f636e79
    40005a9c:	2e6d6573 	.word	0x2e6d6573
    40005aa0:	32343a63 	.word	0x32343a63
    40005aa4:	5341203a 	.word	0x5341203a
    40005aa8:	54524553 	.word	0x54524553
    40005aac:	6328203a 	.word	0x6328203a
    40005ab0:	746e756f 	.word	0x746e756f
    40005ab4:	78616d5f 	.word	0x78616d5f
    40005ab8:	30203e20 	.word	0x30203e20
    40005abc:	3232202c 	.word	0x3232202c
    40005ac0:	0a0d2029 	.word	0x0a0d2029
    40005ac4:	00000000 	.word	0x00000000
    40005ac8:	6d6f682f 	.word	0x6d6f682f
    40005acc:	72652f65 	.word	0x72652f65
    40005ad0:	772f6b69 	.word	0x772f6b69
    40005ad4:	736b726f 	.word	0x736b726f
    40005ad8:	65636170 	.word	0x65636170
    40005adc:	6d69732f 	.word	0x6d69732f
    40005ae0:	732f6162 	.word	0x732f6162
    40005ae4:	742f6372 	.word	0x742f6372
    40005ae8:	2f747865 	.word	0x2f747865
    40005aec:	2e647473 	.word	0x2e647473
    40005af0:	35353a63 	.word	0x35353a63
    40005af4:	41203a36 	.word	0x41203a36
    40005af8:	52455353 	.word	0x52455353
    40005afc:	28203a54 	.word	0x28203a54
    40005b00:	6e616863 	.word	0x6e616863
    40005b04:	2120705f 	.word	0x2120705f
    40005b08:	2828203d 	.word	0x2828203d
    40005b0c:	64696f76 	.word	0x64696f76
    40005b10:	30292a20 	.word	0x30292a20
    40005b14:	32202c29 	.word	0x32202c29
    40005b18:	0d202932 	.word	0x0d202932
    40005b1c:	0000000a 	.word	0x0000000a
    40005b20:	6d6f682f 	.word	0x6d6f682f
    40005b24:	72652f65 	.word	0x72652f65
    40005b28:	772f6b69 	.word	0x772f6b69
    40005b2c:	736b726f 	.word	0x736b726f
    40005b30:	65636170 	.word	0x65636170
    40005b34:	6d69732f 	.word	0x6d69732f
    40005b38:	732f6162 	.word	0x732f6162
    40005b3c:	742f6372 	.word	0x742f6372
    40005b40:	2f747865 	.word	0x2f747865
    40005b44:	2e647473 	.word	0x2e647473
    40005b48:	35353a63 	.word	0x35353a63
    40005b4c:	41203a37 	.word	0x41203a37
    40005b50:	52455353 	.word	0x52455353
    40005b54:	28203a54 	.word	0x28203a54
    40005b58:	5f746d66 	.word	0x5f746d66
    40005b5c:	3d212070 	.word	0x3d212070
    40005b60:	76282820 	.word	0x76282820
    40005b64:	2064696f 	.word	0x2064696f
    40005b68:	2930292a 	.word	0x2930292a
    40005b6c:	3232202c 	.word	0x3232202c
    40005b70:	0a0d2029 	.word	0x0a0d2029
    40005b74:	00000000 	.word	0x00000000
    40005b78:	6d6f682f 	.word	0x6d6f682f
    40005b7c:	72652f65 	.word	0x72652f65
    40005b80:	772f6b69 	.word	0x772f6b69
    40005b84:	736b726f 	.word	0x736b726f
    40005b88:	65636170 	.word	0x65636170
    40005b8c:	6d69732f 	.word	0x6d69732f
    40005b90:	732f6162 	.word	0x732f6162
    40005b94:	742f6372 	.word	0x742f6372
    40005b98:	2f747865 	.word	0x2f747865
    40005b9c:	2e647473 	.word	0x2e647473
    40005ba0:	32353a63 	.word	0x32353a63
    40005ba4:	41203a32 	.word	0x41203a32
    40005ba8:	52455353 	.word	0x52455353
    40005bac:	28203a54 	.word	0x28203a54
    40005bb0:	5f746d66 	.word	0x5f746d66
    40005bb4:	3d212070 	.word	0x3d212070
    40005bb8:	76282820 	.word	0x76282820
    40005bbc:	2064696f 	.word	0x2064696f
    40005bc0:	2930292a 	.word	0x2930292a
    40005bc4:	3232202c 	.word	0x3232202c
    40005bc8:	0a0d2029 	.word	0x0a0d2029
    40005bcc:	00000000 	.word	0x00000000
    40005bd0:	6d6f682f 	.word	0x6d6f682f
    40005bd4:	72652f65 	.word	0x72652f65
    40005bd8:	772f6b69 	.word	0x772f6b69
    40005bdc:	736b726f 	.word	0x736b726f
    40005be0:	65636170 	.word	0x65636170
    40005be4:	6d69732f 	.word	0x6d69732f
    40005be8:	732f6162 	.word	0x732f6162
    40005bec:	742f6372 	.word	0x742f6372
    40005bf0:	2f747865 	.word	0x2f747865
    40005bf4:	2e647473 	.word	0x2e647473
    40005bf8:	33393a63 	.word	0x33393a63
    40005bfc:	41203a30 	.word	0x41203a30
    40005c00:	52455353 	.word	0x52455353
    40005c04:	28203a54 	.word	0x28203a54
    40005c08:	5f727473 	.word	0x5f727473
    40005c0c:	3d212070 	.word	0x3d212070
    40005c10:	76282820 	.word	0x76282820
    40005c14:	2064696f 	.word	0x2064696f
    40005c18:	2930292a 	.word	0x2930292a
    40005c1c:	3232202c 	.word	0x3232202c
    40005c20:	0a0d2029 	.word	0x0a0d2029
    40005c24:	00000000 	.word	0x00000000
    40005c28:	6d6f682f 	.word	0x6d6f682f
    40005c2c:	72652f65 	.word	0x72652f65
    40005c30:	772f6b69 	.word	0x772f6b69
    40005c34:	736b726f 	.word	0x736b726f
    40005c38:	65636170 	.word	0x65636170
    40005c3c:	6d69732f 	.word	0x6d69732f
    40005c40:	732f6162 	.word	0x732f6162
    40005c44:	742f6372 	.word	0x742f6372
    40005c48:	2f747865 	.word	0x2f747865
    40005c4c:	2e647473 	.word	0x2e647473
    40005c50:	33393a63 	.word	0x33393a63
    40005c54:	41203a31 	.word	0x41203a31
    40005c58:	52455353 	.word	0x52455353
    40005c5c:	28203a54 	.word	0x28203a54
    40005c60:	72747366 	.word	0x72747366
    40005c64:	2120705f 	.word	0x2120705f
    40005c68:	2828203d 	.word	0x2828203d
    40005c6c:	64696f76 	.word	0x64696f76
    40005c70:	30292a20 	.word	0x30292a20
    40005c74:	32202c29 	.word	0x32202c29
    40005c78:	0d202932 	.word	0x0d202932
    40005c7c:	0000000a 	.word	0x0000000a
    40005c80:	6d6f682f 	.word	0x6d6f682f
    40005c84:	72652f65 	.word	0x72652f65
    40005c88:	772f6b69 	.word	0x772f6b69
    40005c8c:	736b726f 	.word	0x736b726f
    40005c90:	65636170 	.word	0x65636170
    40005c94:	6d69732f 	.word	0x6d69732f
    40005c98:	732f6162 	.word	0x732f6162
    40005c9c:	742f6372 	.word	0x742f6372
    40005ca0:	2f747865 	.word	0x2f747865
    40005ca4:	2e647473 	.word	0x2e647473
    40005ca8:	34393a63 	.word	0x34393a63
    40005cac:	41203a35 	.word	0x41203a35
    40005cb0:	52455353 	.word	0x52455353
    40005cb4:	28203a54 	.word	0x28203a54
    40005cb8:	72747366 	.word	0x72747366
    40005cbc:	20705f30 	.word	0x20705f30
    40005cc0:	28203d21 	.word	0x28203d21
    40005cc4:	696f7628 	.word	0x696f7628
    40005cc8:	292a2064 	.word	0x292a2064
    40005ccc:	202c2930 	.word	0x202c2930
    40005cd0:	20293232 	.word	0x20293232
    40005cd4:	00000a0d 	.word	0x00000a0d
    40005cd8:	6d6f682f 	.word	0x6d6f682f
    40005cdc:	72652f65 	.word	0x72652f65
    40005ce0:	772f6b69 	.word	0x772f6b69
    40005ce4:	736b726f 	.word	0x736b726f
    40005ce8:	65636170 	.word	0x65636170
    40005cec:	6d69732f 	.word	0x6d69732f
    40005cf0:	732f6162 	.word	0x732f6162
    40005cf4:	742f6372 	.word	0x742f6372
    40005cf8:	2f747865 	.word	0x2f747865
    40005cfc:	2e647473 	.word	0x2e647473
    40005d00:	34393a63 	.word	0x34393a63
    40005d04:	41203a36 	.word	0x41203a36
    40005d08:	52455353 	.word	0x52455353
    40005d0c:	28203a54 	.word	0x28203a54
    40005d10:	72747366 	.word	0x72747366
    40005d14:	20705f31 	.word	0x20705f31
    40005d18:	28203d21 	.word	0x28203d21
    40005d1c:	696f7628 	.word	0x696f7628
    40005d20:	292a2064 	.word	0x292a2064
    40005d24:	202c2930 	.word	0x202c2930
    40005d28:	20293232 	.word	0x20293232
    40005d2c:	00000a0d 	.word	0x00000a0d
    40005d30:	6d6f682f 	.word	0x6d6f682f
    40005d34:	72652f65 	.word	0x72652f65
    40005d38:	772f6b69 	.word	0x772f6b69
    40005d3c:	736b726f 	.word	0x736b726f
    40005d40:	65636170 	.word	0x65636170
    40005d44:	6d69732f 	.word	0x6d69732f
    40005d48:	732f6162 	.word	0x732f6162
    40005d4c:	742f6372 	.word	0x742f6372
    40005d50:	2f747865 	.word	0x2f747865
    40005d54:	2e647473 	.word	0x2e647473
    40005d58:	31393a63 	.word	0x31393a63
    40005d5c:	41203a33 	.word	0x41203a33
    40005d60:	52455353 	.word	0x52455353
    40005d64:	28203a54 	.word	0x28203a54
    40005d68:	5f747364 	.word	0x5f747364
    40005d6c:	3d212070 	.word	0x3d212070
    40005d70:	76282820 	.word	0x76282820
    40005d74:	2064696f 	.word	0x2064696f
    40005d78:	2930292a 	.word	0x2930292a
    40005d7c:	3232202c 	.word	0x3232202c
    40005d80:	0a0d2029 	.word	0x0a0d2029
    40005d84:	00000000 	.word	0x00000000
    40005d88:	6d6f682f 	.word	0x6d6f682f
    40005d8c:	72652f65 	.word	0x72652f65
    40005d90:	772f6b69 	.word	0x772f6b69
    40005d94:	736b726f 	.word	0x736b726f
    40005d98:	65636170 	.word	0x65636170
    40005d9c:	6d69732f 	.word	0x6d69732f
    40005da0:	732f6162 	.word	0x732f6162
    40005da4:	742f6372 	.word	0x742f6372
    40005da8:	2f747865 	.word	0x2f747865
    40005dac:	2e647473 	.word	0x2e647473
    40005db0:	31393a63 	.word	0x31393a63
    40005db4:	41203a34 	.word	0x41203a34
    40005db8:	52455353 	.word	0x52455353
    40005dbc:	28203a54 	.word	0x28203a54
    40005dc0:	63727366 	.word	0x63727366
    40005dc4:	2120705f 	.word	0x2120705f
    40005dc8:	2828203d 	.word	0x2828203d
    40005dcc:	64696f76 	.word	0x64696f76
    40005dd0:	30292a20 	.word	0x30292a20
    40005dd4:	32202c29 	.word	0x32202c29
    40005dd8:	0d202932 	.word	0x0d202932
    40005ddc:	0000000a 	.word	0x0000000a
    40005de0:	0c0b0a09 	.word	0x0c0b0a09
    40005de4:	0000200d 	.word	0x0000200d
    40005de8:	6d6f682f 	.word	0x6d6f682f
    40005dec:	72652f65 	.word	0x72652f65
    40005df0:	772f6b69 	.word	0x772f6b69
    40005df4:	736b726f 	.word	0x736b726f
    40005df8:	65636170 	.word	0x65636170
    40005dfc:	6d69732f 	.word	0x6d69732f
    40005e00:	732f6162 	.word	0x732f6162
    40005e04:	742f6372 	.word	0x742f6372
    40005e08:	2f747865 	.word	0x2f747865
    40005e0c:	2e647473 	.word	0x2e647473
    40005e10:	30313a63 	.word	0x30313a63
    40005e14:	203a3731 	.word	0x203a3731
    40005e18:	45535341 	.word	0x45535341
    40005e1c:	203a5452 	.word	0x203a5452
    40005e20:	72747328 	.word	0x72747328
    40005e24:	2120705f 	.word	0x2120705f
    40005e28:	2828203d 	.word	0x2828203d
    40005e2c:	64696f76 	.word	0x64696f76
    40005e30:	30292a20 	.word	0x30292a20
    40005e34:	32202c29 	.word	0x32202c29
    40005e38:	0d202932 	.word	0x0d202932
    40005e3c:	0000000a 	.word	0x0000000a
    40005e40:	6d6f682f 	.word	0x6d6f682f
    40005e44:	72652f65 	.word	0x72652f65
    40005e48:	772f6b69 	.word	0x772f6b69
    40005e4c:	736b726f 	.word	0x736b726f
    40005e50:	65636170 	.word	0x65636170
    40005e54:	6d69732f 	.word	0x6d69732f
    40005e58:	732f6162 	.word	0x732f6162
    40005e5c:	742f6372 	.word	0x742f6372
    40005e60:	2f747865 	.word	0x2f747865
    40005e64:	2e647473 	.word	0x2e647473
    40005e68:	36393a63 	.word	0x36393a63
    40005e6c:	41203a31 	.word	0x41203a31
    40005e70:	52455353 	.word	0x52455353
    40005e74:	28203a54 	.word	0x28203a54
    40005e78:	72747366 	.word	0x72747366
    40005e7c:	2120705f 	.word	0x2120705f
    40005e80:	2828203d 	.word	0x2828203d
    40005e84:	64696f76 	.word	0x64696f76
    40005e88:	30292a20 	.word	0x30292a20
    40005e8c:	32202c29 	.word	0x32202c29
    40005e90:	0d202932 	.word	0x0d202932
    40005e94:	0000000a 	.word	0x0000000a
    40005e98:	6d6f682f 	.word	0x6d6f682f
    40005e9c:	72652f65 	.word	0x72652f65
    40005ea0:	772f6b69 	.word	0x772f6b69
    40005ea4:	736b726f 	.word	0x736b726f
    40005ea8:	65636170 	.word	0x65636170
    40005eac:	6d69732f 	.word	0x6d69732f
    40005eb0:	732f6162 	.word	0x732f6162
    40005eb4:	742f6372 	.word	0x742f6372
    40005eb8:	2f747865 	.word	0x2f747865
    40005ebc:	2e647473 	.word	0x2e647473
    40005ec0:	36393a63 	.word	0x36393a63
    40005ec4:	41203a32 	.word	0x41203a32
    40005ec8:	52455353 	.word	0x52455353
    40005ecc:	28203a54 	.word	0x28203a54
    40005ed0:	5f727473 	.word	0x5f727473
    40005ed4:	3d212070 	.word	0x3d212070
    40005ed8:	76282820 	.word	0x76282820
    40005edc:	2064696f 	.word	0x2064696f
    40005ee0:	2930292a 	.word	0x2930292a
    40005ee4:	3232202c 	.word	0x3232202c
    40005ee8:	0a0d2029 	.word	0x0a0d2029
    40005eec:	00000000 	.word	0x00000000
    40005ef0:	6d6f682f 	.word	0x6d6f682f
    40005ef4:	72652f65 	.word	0x72652f65
    40005ef8:	772f6b69 	.word	0x772f6b69
    40005efc:	736b726f 	.word	0x736b726f
    40005f00:	65636170 	.word	0x65636170
    40005f04:	6d69732f 	.word	0x6d69732f
    40005f08:	732f6162 	.word	0x732f6162
    40005f0c:	742f6372 	.word	0x742f6372
    40005f10:	2f747865 	.word	0x2f747865
    40005f14:	2e647473 	.word	0x2e647473
    40005f18:	32363a63 	.word	0x32363a63
    40005f1c:	41203a38 	.word	0x41203a38
    40005f20:	52455353 	.word	0x52455353
    40005f24:	28203a54 	.word	0x28203a54
    40005f28:	5f727473 	.word	0x5f727473
    40005f2c:	3d212070 	.word	0x3d212070
    40005f30:	76282820 	.word	0x76282820
    40005f34:	2064696f 	.word	0x2064696f
    40005f38:	2930292a 	.word	0x2930292a
    40005f3c:	3232202c 	.word	0x3232202c
    40005f40:	0a0d2029 	.word	0x0a0d2029
    40005f44:	00000000 	.word	0x00000000
    40005f48:	6d6f682f 	.word	0x6d6f682f
    40005f4c:	72652f65 	.word	0x72652f65
    40005f50:	772f6b69 	.word	0x772f6b69
    40005f54:	736b726f 	.word	0x736b726f
    40005f58:	65636170 	.word	0x65636170
    40005f5c:	6d69732f 	.word	0x6d69732f
    40005f60:	732f6162 	.word	0x732f6162
    40005f64:	742f6372 	.word	0x742f6372
    40005f68:	2f747865 	.word	0x2f747865
    40005f6c:	2e647473 	.word	0x2e647473
    40005f70:	32363a63 	.word	0x32363a63
    40005f74:	41203a39 	.word	0x41203a39
    40005f78:	52455353 	.word	0x52455353
    40005f7c:	28203a54 	.word	0x28203a54
    40005f80:	756c6176 	.word	0x756c6176
    40005f84:	20705f65 	.word	0x20705f65
    40005f88:	28203d21 	.word	0x28203d21
    40005f8c:	696f7628 	.word	0x696f7628
    40005f90:	292a2064 	.word	0x292a2064
    40005f94:	202c2930 	.word	0x202c2930
    40005f98:	20293232 	.word	0x20293232
    40005f9c:	00000a0d 	.word	0x00000a0d
    40005fa0:	6d6f682f 	.word	0x6d6f682f
    40005fa4:	72652f65 	.word	0x72652f65
    40005fa8:	772f6b69 	.word	0x772f6b69
    40005fac:	736b726f 	.word	0x736b726f
    40005fb0:	65636170 	.word	0x65636170
    40005fb4:	6d69732f 	.word	0x6d69732f
    40005fb8:	732f6162 	.word	0x732f6162
    40005fbc:	742f6372 	.word	0x742f6372
    40005fc0:	2f747865 	.word	0x2f747865
    40005fc4:	2e647473 	.word	0x2e647473
    40005fc8:	33363a63 	.word	0x33363a63
    40005fcc:	41203a34 	.word	0x41203a34
    40005fd0:	52455353 	.word	0x52455353
    40005fd4:	28203a54 	.word	0x28203a54
    40005fd8:	73616228 	.word	0x73616228
    40005fdc:	3d3d2065 	.word	0x3d3d2065
    40005fe0:	29363120 	.word	0x29363120
    40005fe4:	207c7c20 	.word	0x207c7c20
    40005fe8:	73616228 	.word	0x73616228
    40005fec:	3d3d2065 	.word	0x3d3d2065
    40005ff0:	29303120 	.word	0x29303120
    40005ff4:	207c7c20 	.word	0x207c7c20
    40005ff8:	73616228 	.word	0x73616228
    40005ffc:	3d3d2065 	.word	0x3d3d2065
    40006000:	20293820 	.word	0x20293820
    40006004:	28207c7c 	.word	0x28207c7c
    40006008:	65736162 	.word	0x65736162
    4000600c:	203d3d20 	.word	0x203d3d20
    40006010:	7c202932 	.word	0x7c202932
    40006014:	6228207c 	.word	0x6228207c
    40006018:	20657361 	.word	0x20657361
    4000601c:	30203d3d 	.word	0x30203d3d
    40006020:	32202c29 	.word	0x32202c29
    40006024:	0d202932 	.word	0x0d202932
    40006028:	0000000a 	.word	0x0000000a
    4000602c:	00000000 	.word	0x00000000
    40006030:	6d6f682f 	.word	0x6d6f682f
    40006034:	72652f65 	.word	0x72652f65
    40006038:	772f6b69 	.word	0x772f6b69
    4000603c:	736b726f 	.word	0x736b726f
    40006040:	65636170 	.word	0x65636170
    40006044:	6d69732f 	.word	0x6d69732f
    40006048:	732f6162 	.word	0x732f6162
    4000604c:	742f6372 	.word	0x742f6372
    40006050:	2f747865 	.word	0x2f747865
    40006054:	2e647473 	.word	0x2e647473
    40006058:	37353a63 	.word	0x37353a63
    4000605c:	41203a35 	.word	0x41203a35
    40006060:	52455353 	.word	0x52455353
    40006064:	28203a54 	.word	0x28203a54
    40006068:	6e616863 	.word	0x6e616863
    4000606c:	2120705f 	.word	0x2120705f
    40006070:	2828203d 	.word	0x2828203d
    40006074:	64696f76 	.word	0x64696f76
    40006078:	30292a20 	.word	0x30292a20
    4000607c:	32202c29 	.word	0x32202c29
    40006080:	0d202932 	.word	0x0d202932
    40006084:	0000000a 	.word	0x0000000a
    40006088:	6d6f682f 	.word	0x6d6f682f
    4000608c:	72652f65 	.word	0x72652f65
    40006090:	772f6b69 	.word	0x772f6b69
    40006094:	736b726f 	.word	0x736b726f
    40006098:	65636170 	.word	0x65636170
    4000609c:	6d69732f 	.word	0x6d69732f
    400060a0:	732f6162 	.word	0x732f6162
    400060a4:	742f6372 	.word	0x742f6372
    400060a8:	2f747865 	.word	0x2f747865
    400060ac:	2e647473 	.word	0x2e647473
    400060b0:	37353a63 	.word	0x37353a63
    400060b4:	41203a36 	.word	0x41203a36
    400060b8:	52455353 	.word	0x52455353
    400060bc:	28203a54 	.word	0x28203a54
    400060c0:	5f746d66 	.word	0x5f746d66
    400060c4:	3d212070 	.word	0x3d212070
    400060c8:	76282820 	.word	0x76282820
    400060cc:	2064696f 	.word	0x2064696f
    400060d0:	2930292a 	.word	0x2930292a
    400060d4:	3232202c 	.word	0x3232202c
    400060d8:	0a0d2029 	.word	0x0a0d2029
    400060dc:	00000000 	.word	0x00000000
    400060e0:	6d6f682f 	.word	0x6d6f682f
    400060e4:	72652f65 	.word	0x72652f65
    400060e8:	772f6b69 	.word	0x772f6b69
    400060ec:	736b726f 	.word	0x736b726f
    400060f0:	65636170 	.word	0x65636170
    400060f4:	6d69732f 	.word	0x6d69732f
    400060f8:	732f6162 	.word	0x732f6162
    400060fc:	742f6372 	.word	0x742f6372
    40006100:	2f747865 	.word	0x2f747865
    40006104:	2e647473 	.word	0x2e647473
    40006108:	37353a63 	.word	0x37353a63
    4000610c:	41203a37 	.word	0x41203a37
    40006110:	52455353 	.word	0x52455353
    40006114:	28203a54 	.word	0x28203a54
    40006118:	705f7061 	.word	0x705f7061
    4000611c:	203d2120 	.word	0x203d2120
    40006120:	6f762828 	.word	0x6f762828
    40006124:	2a206469 	.word	0x2a206469
    40006128:	2c293029 	.word	0x2c293029
    4000612c:	29323220 	.word	0x29323220
    40006130:	000a0d20 	.word	0x000a0d20
    40006134:	00000000 	.word	0x00000000
    40006138:	6d6f682f 	.word	0x6d6f682f
    4000613c:	72652f65 	.word	0x72652f65
    40006140:	772f6b69 	.word	0x772f6b69
    40006144:	736b726f 	.word	0x736b726f
    40006148:	65636170 	.word	0x65636170
    4000614c:	6d69732f 	.word	0x6d69732f
    40006150:	732f6162 	.word	0x732f6162
    40006154:	742f6372 	.word	0x742f6372
    40006158:	2f747865 	.word	0x2f747865
    4000615c:	2e647473 	.word	0x2e647473
    40006160:	39343a63 	.word	0x39343a63
    40006164:	41203a34 	.word	0x41203a34
    40006168:	52455353 	.word	0x52455353
    4000616c:	28203a54 	.word	0x28203a54
    40006170:	5f747364 	.word	0x5f747364
    40006174:	3d212070 	.word	0x3d212070
    40006178:	76282820 	.word	0x76282820
    4000617c:	2064696f 	.word	0x2064696f
    40006180:	2930292a 	.word	0x2930292a
    40006184:	3232202c 	.word	0x3232202c
    40006188:	0a0d2029 	.word	0x0a0d2029
    4000618c:	00000000 	.word	0x00000000
    40006190:	6d6f682f 	.word	0x6d6f682f
    40006194:	72652f65 	.word	0x72652f65
    40006198:	772f6b69 	.word	0x772f6b69
    4000619c:	736b726f 	.word	0x736b726f
    400061a0:	65636170 	.word	0x65636170
    400061a4:	6d69732f 	.word	0x6d69732f
    400061a8:	732f6162 	.word	0x732f6162
    400061ac:	742f6372 	.word	0x742f6372
    400061b0:	2f747865 	.word	0x2f747865
    400061b4:	2e647473 	.word	0x2e647473
    400061b8:	39343a63 	.word	0x39343a63
    400061bc:	41203a35 	.word	0x41203a35
    400061c0:	52455353 	.word	0x52455353
    400061c4:	28203a54 	.word	0x28203a54
    400061c8:	5f746d66 	.word	0x5f746d66
    400061cc:	3d212070 	.word	0x3d212070
    400061d0:	76282820 	.word	0x76282820
    400061d4:	2064696f 	.word	0x2064696f
    400061d8:	2930292a 	.word	0x2930292a
    400061dc:	3232202c 	.word	0x3232202c
    400061e0:	0a0d2029 	.word	0x0a0d2029
    400061e4:	00000000 	.word	0x00000000
    400061e8:	6d6f682f 	.word	0x6d6f682f
    400061ec:	72652f65 	.word	0x72652f65
    400061f0:	772f6b69 	.word	0x772f6b69
    400061f4:	736b726f 	.word	0x736b726f
    400061f8:	65636170 	.word	0x65636170
    400061fc:	6d69732f 	.word	0x6d69732f
    40006200:	732f6162 	.word	0x732f6162
    40006204:	742f6372 	.word	0x742f6372
    40006208:	2f747865 	.word	0x2f747865
    4000620c:	2e647473 	.word	0x2e647473
    40006210:	37343a63 	.word	0x37343a63
    40006214:	41203a38 	.word	0x41203a38
    40006218:	52455353 	.word	0x52455353
    4000621c:	28203a54 	.word	0x28203a54
    40006220:	5f747364 	.word	0x5f747364
    40006224:	3d212070 	.word	0x3d212070
    40006228:	76282820 	.word	0x76282820
    4000622c:	2064696f 	.word	0x2064696f
    40006230:	2930292a 	.word	0x2930292a
    40006234:	3232202c 	.word	0x3232202c
    40006238:	0a0d2029 	.word	0x0a0d2029
    4000623c:	00000000 	.word	0x00000000
    40006240:	6d6f682f 	.word	0x6d6f682f
    40006244:	72652f65 	.word	0x72652f65
    40006248:	772f6b69 	.word	0x772f6b69
    4000624c:	736b726f 	.word	0x736b726f
    40006250:	65636170 	.word	0x65636170
    40006254:	6d69732f 	.word	0x6d69732f
    40006258:	732f6162 	.word	0x732f6162
    4000625c:	742f6372 	.word	0x742f6372
    40006260:	2f747865 	.word	0x2f747865
    40006264:	2e647473 	.word	0x2e647473
    40006268:	37343a63 	.word	0x37343a63
    4000626c:	41203a39 	.word	0x41203a39
    40006270:	52455353 	.word	0x52455353
    40006274:	28203a54 	.word	0x28203a54
    40006278:	5f746d66 	.word	0x5f746d66
    4000627c:	3d212070 	.word	0x3d212070
    40006280:	76282820 	.word	0x76282820
    40006284:	2064696f 	.word	0x2064696f
    40006288:	2930292a 	.word	0x2930292a
    4000628c:	3232202c 	.word	0x3232202c
    40006290:	0a0d2029 	.word	0x0a0d2029
    40006294:	00000000 	.word	0x00000000
    40006298:	6c756e28 	.word	0x6c756e28
    4000629c:	0000296c 	.word	0x0000296c

00000000400062a0 <settings>:
    400062a0:	400064b8 	.word	0x400064b8
	...
    400062b0:	00000004 	.word	0x00000004
    400062b4:	00000000 	.word	0x00000000
    400062b8:	400064a0 	.word	0x400064a0
	...
    400062c4:	00000008 	.word	0x00000008
    400062c8:	00000004 	.word	0x00000004
    400062cc:	00000000 	.word	0x00000000
    400062d0:	400064a8 	.word	0x400064a8
    400062d4:	00000000 	.word	0x00000000
    400062d8:	00000002 	.word	0x00000002
    400062dc:	00000010 	.word	0x00000010
    400062e0:	00000004 	.word	0x00000004
    400062e4:	00000000 	.word	0x00000000
    400062e8:	400064b0 	.word	0x400064b0
    400062ec:	00000000 	.word	0x00000000
    400062f0:	00000001 	.word	0x00000001
    400062f4:	00000018 	.word	0x00000018
    400062f8:	00000010 	.word	0x00000010
	...

0000000040006318 <settings_default>:
    40006318:	00000001 	.word	0x00000001
    4000631c:	ffffffff 	.word	0xffffffff
    40006320:	00005ff7 	.word	0x00005ff7
    40006324:	ffffffff 	.word	0xffffffff
    40006328:	bebafeca 	.word	0xbebafeca
    4000632c:	ffffffff 	.word	0xffffffff
    40006330:	626f6f66 	.word	0x626f6f66
    40006334:	00007261 	.word	0x00007261
	...

0000000040006418 <sysinfo>:
    40006418:	3a707061 	.word	0x3a707061
    4000641c:	20202020 	.word	0x20202020
    40006420:	6c656873 	.word	0x6c656873
    40006424:	616d2d6c 	.word	0x616d2d6c
    40006428:	72657473 	.word	0x72657473
    4000642c:	69756220 	.word	0x69756220
    40006430:	3220746c 	.word	0x3220746c
    40006434:	2d393130 	.word	0x2d393130
    40006438:	302d3430 	.word	0x302d3430
    4000643c:	33322034 	.word	0x33322034
    40006440:	2032343a 	.word	0x2032343a
    40006444:	54534543 	.word	0x54534543
    40006448:	20796220 	.word	0x20796220
    4000644c:	6b697265 	.word	0x6b697265
    40006450:	620a0d2e 	.word	0x620a0d2e
    40006454:	6472616f 	.word	0x6472616f
    40006458:	5820203a 	.word	0x5820203a
    4000645c:	6f736976 	.word	0x6f736976
    40006460:	61522072 	.word	0x61522072
    40006464:	65627073 	.word	0x65627073
    40006468:	20797272 	.word	0x20797272
    4000646c:	33206950 	.word	0x33206950
    40006470:	636d0a0d 	.word	0x636d0a0d
    40006474:	20203a75 	.word	0x20203a75
    40006478:	76582020 	.word	0x76582020
    4000647c:	726f7369 	.word	0x726f7369
    40006480:	72695620 	.word	0x72695620
    40006484:	38762d74 	.word	0x38762d74
    40006488:	4d524120 	.word	0x4d524120
    4000648c:	412d3876 	.word	0x412d3876
    40006490:	34362820 	.word	0x34362820
    40006494:	74696220 	.word	0x74696220
    40006498:	000a0d29 	.word	0x000a0d29
    4000649c:	00000000 	.word	0x00000000

00000000400064a0 <value_1_name>:
    400064a0:	756c6176 	.word	0x756c6176
    400064a4:	00315f65 	.word	0x00315f65

00000000400064a8 <value_2_name>:
    400064a8:	756c6176 	.word	0x756c6176
    400064ac:	00325f65 	.word	0x00325f65

00000000400064b0 <value_3_name>:
    400064b0:	756c6176 	.word	0x756c6176
    400064b4:	00335f65 	.word	0x00335f65

00000000400064b8 <version_name>:
    400064b8:	73726576 	.word	0x73726576
    400064bc:	006e6f69 	.word	0x006e6f69

Disassembly of section .bss:

00000000400064c0 <__bss_start__>:
	...

00000000400064e0 <shell>:
	...

00000000400069c8 <module>:
	...

0000000040006a68 <module>:
	...

0000000040006ad0 <module>:
	...

0000000040006ad8 <module>:
	...

0000000040006b08 <module>:
	...

0000000040006b10 <module>:
	...

0000000040006c00 <idle_thrd_stack>:
	...

0000000040007490 <module>:
	...

00000000400075a0 <monitor_thrd_stack>:
	...

0000000040007e30 <module>:
	...

0000000040007e38 <module>:
	...

0000000040007f40 <module>:
	...

0000000040008000 <module>:
	...

0000000040008088 <empty_path>:
	...

0000000040008090 <module>:
	...

00000000400081f8 <uart_device>:
	...

0000000040008200 <pin_device>:
	...

0000000040008240 <i2c_device>:
	...

0000000040008260 <flash_device>:
	...

0000000040008270 <module>:
	...

Disassembly of section .main_stack:

00000000400082d8 <main_thrd>:
	...

Disassembly of section .comment:

0000000000000000 <.comment>:
   0:	3a434347 	ccmn	w26, w3, #0x7, mi  // mi = first
   4:	694c2820 	ldpsw	x0, x10, [x1, #96]
   8:	6f72616e 	umlsl2	v14.4s, v11.8h, v2.h[3]
   c:	43434720 	.inst	0x43434720 ; undefined
  10:	322e3720 	orr	w0, w25, #0xfffc0000
  14:	3130322d 	adds	w13, w17, #0xc0c
  18:	31312e37 	adds	w23, w17, #0xc4b
  1c:	2e372029 	usubl	v9.8h, v1.8b, v23.8b
  20:	20312e32 	.inst	0x20312e32 ; undefined
  24:	37313032 	tbnz	w18, #6, 2628 <cmd_set_log_mask_cb+0xc0>
  28:	31313031 	adds	w17, w1, #0xc4c
	...
