
shell-2.out:     file format elf64-littleaarch64


Disassembly of section .text:

0000000000000000 <app_entry>:
       0:	58000400 	ldr	x0, 80 <main_stack_end>
       4:	9100001f 	mov	sp, x0
       8:	58000441 	ldr	x1, 90 <relocate_start>
       c:	58000462 	ldr	x2, 98 <relocate_end>
      10:	eb02003f 	cmp	x1, x2
      14:	54000182 	b.cs	44 <.app_entry_zero>  // b.hs, b.nlast
      18:	aa2103e0 	mvn	x0, x1
      1c:	8b020000 	add	x0, x0, x2
      20:	91001000 	add	x0, x0, #0x4
      24:	927ef400 	and	x0, x0, #0xfffffffffffffffc
      28:	58000303 	ldr	x3, 88 <text_end>
      2c:	d2800002 	mov	x2, #0x0                   	// #0

0000000000000030 <.app_entry_relocate_loop>:
      30:	b8636844 	ldr	w4, [x2, x3]
      34:	b8216844 	str	w4, [x2, x1]
      38:	91001042 	add	x2, x2, #0x4
      3c:	eb00005f 	cmp	x2, x0
      40:	54ffff81 	b.ne	30 <.app_entry_relocate_loop>  // b.any

0000000000000044 <.app_entry_zero>:
      44:	580002e1 	ldr	x1, a0 <zero_start>
      48:	58000302 	ldr	x2, a8 <zero_end>
      4c:	eb02003f 	cmp	x1, x2
      50:	540000c2 	b.cs	68 <.app_entry_main>  // b.hs, b.nlast
      54:	91001042 	add	x2, x2, #0x4

0000000000000058 <.app_entry_zero_loop>:
      58:	b900003f 	str	wzr, [x1]
      5c:	91001021 	add	x1, x1, #0x4
      60:	eb02003f 	cmp	x1, x2
      64:	54ffffa1 	b.ne	58 <.app_entry_zero_loop>  // b.any

0000000000000068 <.app_entry_main>:
      68:	10007cc0 	adr	x0, 1000 <vector_table>
      6c:	d518c000 	msr	vbar_el1, x0
      70:	940006ce 	bl	1ba8 <xvisor_virt_v8_init>
      74:	94000685 	bl	1a88 <main>

0000000000000078 <.app_entry_end_loop>:
      78:	14000000 	b	78 <.app_entry_end_loop>
      7c:	d503201f 	nop

0000000000000080 <main_stack_end>:
      80:	4007fff8 	.word	0x4007fff8
      84:	00000000 	.word	0x00000000

0000000000000088 <text_end>:
      88:	00015300 	.word	0x00015300
      8c:	00000000 	.word	0x00000000

0000000000000090 <relocate_start>:
      90:	40000000 	.word	0x40000000
      94:	00000000 	.word	0x00000000

0000000000000098 <relocate_end>:
      98:	400064c0 	.word	0x400064c0
      9c:	00000000 	.word	0x00000000

00000000000000a0 <zero_start>:
      a0:	400064c0 	.word	0x400064c0
      a4:	00000000 	.word	0x00000000

00000000000000a8 <zero_end>:
      a8:	400082d8 	.word	0x400082d8
	...

0000000000001000 <vector_table>:
    1000:	14000274 	b	19d0 <esr_none>
	...
    1080:	14000254 	b	19d0 <esr_none>
	...
    1100:	14000234 	b	19d0 <esr_none>
	...
    1180:	14000214 	b	19d0 <esr_none>
	...
    1200:	14000164 	b	1790 <esr_sync>
	...
    1280:	14000168 	b	1820 <esr_irq>
	...
    1300:	1400016c 	b	18b0 <esr_fiq>
	...
    1380:	14000170 	b	1940 <esr_serror>
	...
    1400:	14000174 	b	19d0 <esr_none>
	...
    1480:	14000154 	b	19d0 <esr_none>
	...
    1500:	14000134 	b	19d0 <esr_none>
	...
    1580:	14000114 	b	19d0 <esr_none>
	...
    1600:	140000f4 	b	19d0 <esr_none>
	...
    1680:	140000d4 	b	19d0 <esr_none>
	...
    1700:	140000b4 	b	19d0 <esr_none>
	...
    1780:	14000094 	b	19d0 <esr_none>
	...

0000000000001790 <esr_sync>:
    1790:	d10403ff 	sub	sp, sp, #0x100
    1794:	a90007e0 	stp	x0, x1, [sp]
    1798:	a9010fe2 	stp	x2, x3, [sp, #16]
    179c:	a90217e4 	stp	x4, x5, [sp, #32]
    17a0:	a9031fe6 	stp	x6, x7, [sp, #48]
    17a4:	a90427e8 	stp	x8, x9, [sp, #64]
    17a8:	a9052fea 	stp	x10, x11, [sp, #80]
    17ac:	a90637ec 	stp	x12, x13, [sp, #96]
    17b0:	a9073fee 	stp	x14, x15, [sp, #112]
    17b4:	a90847f0 	stp	x16, x17, [sp, #128]
    17b8:	a9094ff2 	stp	x18, x19, [sp, #144]
    17bc:	a90a57f4 	stp	x20, x21, [sp, #160]
    17c0:	a90b5ff6 	stp	x22, x23, [sp, #176]
    17c4:	a90c67f8 	stp	x24, x25, [sp, #192]
    17c8:	a90d6ffa 	stp	x26, x27, [sp, #208]
    17cc:	a90e77fc 	stp	x28, x29, [sp, #224]
    17d0:	f9007bfe 	str	x30, [sp, #240]
    17d4:	940000db 	bl	1b40 <c_esr_sync>
    17d8:	f9407bfe 	ldr	x30, [sp, #240]
    17dc:	a94e77fc 	ldp	x28, x29, [sp, #224]
    17e0:	a94d6ffa 	ldp	x26, x27, [sp, #208]
    17e4:	a94c67f8 	ldp	x24, x25, [sp, #192]
    17e8:	a94b5ff6 	ldp	x22, x23, [sp, #176]
    17ec:	a94a57f4 	ldp	x20, x21, [sp, #160]
    17f0:	a9494ff2 	ldp	x18, x19, [sp, #144]
    17f4:	a94847f0 	ldp	x16, x17, [sp, #128]
    17f8:	a9473fee 	ldp	x14, x15, [sp, #112]
    17fc:	a94637ec 	ldp	x12, x13, [sp, #96]
    1800:	a9452fea 	ldp	x10, x11, [sp, #80]
    1804:	a94427e8 	ldp	x8, x9, [sp, #64]
    1808:	a9431fe6 	ldp	x6, x7, [sp, #48]
    180c:	a94217e4 	ldp	x4, x5, [sp, #32]
    1810:	a9410fe2 	ldp	x2, x3, [sp, #16]
    1814:	a94007e0 	ldp	x0, x1, [sp]
    1818:	910403ff 	add	sp, sp, #0x100
    181c:	d69f03e0 	eret

0000000000001820 <esr_irq>:
    1820:	d10403ff 	sub	sp, sp, #0x100
    1824:	a90007e0 	stp	x0, x1, [sp]
    1828:	a9010fe2 	stp	x2, x3, [sp, #16]
    182c:	a90217e4 	stp	x4, x5, [sp, #32]
    1830:	a9031fe6 	stp	x6, x7, [sp, #48]
    1834:	a90427e8 	stp	x8, x9, [sp, #64]
    1838:	a9052fea 	stp	x10, x11, [sp, #80]
    183c:	a90637ec 	stp	x12, x13, [sp, #96]
    1840:	a9073fee 	stp	x14, x15, [sp, #112]
    1844:	a90847f0 	stp	x16, x17, [sp, #128]
    1848:	a9094ff2 	stp	x18, x19, [sp, #144]
    184c:	a90a57f4 	stp	x20, x21, [sp, #160]
    1850:	a90b5ff6 	stp	x22, x23, [sp, #176]
    1854:	a90c67f8 	stp	x24, x25, [sp, #192]
    1858:	a90d6ffa 	stp	x26, x27, [sp, #208]
    185c:	a90e77fc 	stp	x28, x29, [sp, #224]
    1860:	f9007bfe 	str	x30, [sp, #240]
    1864:	940000bb 	bl	1b50 <c_esr_irq>
    1868:	f9407bfe 	ldr	x30, [sp, #240]
    186c:	a94e77fc 	ldp	x28, x29, [sp, #224]
    1870:	a94d6ffa 	ldp	x26, x27, [sp, #208]
    1874:	a94c67f8 	ldp	x24, x25, [sp, #192]
    1878:	a94b5ff6 	ldp	x22, x23, [sp, #176]
    187c:	a94a57f4 	ldp	x20, x21, [sp, #160]
    1880:	a9494ff2 	ldp	x18, x19, [sp, #144]
    1884:	a94847f0 	ldp	x16, x17, [sp, #128]
    1888:	a9473fee 	ldp	x14, x15, [sp, #112]
    188c:	a94637ec 	ldp	x12, x13, [sp, #96]
    1890:	a9452fea 	ldp	x10, x11, [sp, #80]
    1894:	a94427e8 	ldp	x8, x9, [sp, #64]
    1898:	a9431fe6 	ldp	x6, x7, [sp, #48]
    189c:	a94217e4 	ldp	x4, x5, [sp, #32]
    18a0:	a9410fe2 	ldp	x2, x3, [sp, #16]
    18a4:	a94007e0 	ldp	x0, x1, [sp]
    18a8:	910403ff 	add	sp, sp, #0x100
    18ac:	d69f03e0 	eret

00000000000018b0 <esr_fiq>:
    18b0:	d10403ff 	sub	sp, sp, #0x100
    18b4:	a90007e0 	stp	x0, x1, [sp]
    18b8:	a9010fe2 	stp	x2, x3, [sp, #16]
    18bc:	a90217e4 	stp	x4, x5, [sp, #32]
    18c0:	a9031fe6 	stp	x6, x7, [sp, #48]
    18c4:	a90427e8 	stp	x8, x9, [sp, #64]
    18c8:	a9052fea 	stp	x10, x11, [sp, #80]
    18cc:	a90637ec 	stp	x12, x13, [sp, #96]
    18d0:	a9073fee 	stp	x14, x15, [sp, #112]
    18d4:	a90847f0 	stp	x16, x17, [sp, #128]
    18d8:	a9094ff2 	stp	x18, x19, [sp, #144]
    18dc:	a90a57f4 	stp	x20, x21, [sp, #160]
    18e0:	a90b5ff6 	stp	x22, x23, [sp, #176]
    18e4:	a90c67f8 	stp	x24, x25, [sp, #192]
    18e8:	a90d6ffa 	stp	x26, x27, [sp, #208]
    18ec:	a90e77fc 	stp	x28, x29, [sp, #224]
    18f0:	f9007bfe 	str	x30, [sp, #240]
    18f4:	940000a5 	bl	1b88 <c_esr_fiq>
    18f8:	f9407bfe 	ldr	x30, [sp, #240]
    18fc:	a94e77fc 	ldp	x28, x29, [sp, #224]
    1900:	a94d6ffa 	ldp	x26, x27, [sp, #208]
    1904:	a94c67f8 	ldp	x24, x25, [sp, #192]
    1908:	a94b5ff6 	ldp	x22, x23, [sp, #176]
    190c:	a94a57f4 	ldp	x20, x21, [sp, #160]
    1910:	a9494ff2 	ldp	x18, x19, [sp, #144]
    1914:	a94847f0 	ldp	x16, x17, [sp, #128]
    1918:	a9473fee 	ldp	x14, x15, [sp, #112]
    191c:	a94637ec 	ldp	x12, x13, [sp, #96]
    1920:	a9452fea 	ldp	x10, x11, [sp, #80]
    1924:	a94427e8 	ldp	x8, x9, [sp, #64]
    1928:	a9431fe6 	ldp	x6, x7, [sp, #48]
    192c:	a94217e4 	ldp	x4, x5, [sp, #32]
    1930:	a9410fe2 	ldp	x2, x3, [sp, #16]
    1934:	a94007e0 	ldp	x0, x1, [sp]
    1938:	910403ff 	add	sp, sp, #0x100
    193c:	d69f03e0 	eret

0000000000001940 <esr_serror>:
    1940:	d10403ff 	sub	sp, sp, #0x100
    1944:	a90007e0 	stp	x0, x1, [sp]
    1948:	a9010fe2 	stp	x2, x3, [sp, #16]
    194c:	a90217e4 	stp	x4, x5, [sp, #32]
    1950:	a9031fe6 	stp	x6, x7, [sp, #48]
    1954:	a90427e8 	stp	x8, x9, [sp, #64]
    1958:	a9052fea 	stp	x10, x11, [sp, #80]
    195c:	a90637ec 	stp	x12, x13, [sp, #96]
    1960:	a9073fee 	stp	x14, x15, [sp, #112]
    1964:	a90847f0 	stp	x16, x17, [sp, #128]
    1968:	a9094ff2 	stp	x18, x19, [sp, #144]
    196c:	a90a57f4 	stp	x20, x21, [sp, #160]
    1970:	a90b5ff6 	stp	x22, x23, [sp, #176]
    1974:	a90c67f8 	stp	x24, x25, [sp, #192]
    1978:	a90d6ffa 	stp	x26, x27, [sp, #208]
    197c:	a90e77fc 	stp	x28, x29, [sp, #224]
    1980:	f9007bfe 	str	x30, [sp, #240]
    1984:	94000085 	bl	1b98 <c_esr_serror>
    1988:	f9407bfe 	ldr	x30, [sp, #240]
    198c:	a94e77fc 	ldp	x28, x29, [sp, #224]
    1990:	a94d6ffa 	ldp	x26, x27, [sp, #208]
    1994:	a94c67f8 	ldp	x24, x25, [sp, #192]
    1998:	a94b5ff6 	ldp	x22, x23, [sp, #176]
    199c:	a94a57f4 	ldp	x20, x21, [sp, #160]
    19a0:	a9494ff2 	ldp	x18, x19, [sp, #144]
    19a4:	a94847f0 	ldp	x16, x17, [sp, #128]
    19a8:	a9473fee 	ldp	x14, x15, [sp, #112]
    19ac:	a94637ec 	ldp	x12, x13, [sp, #96]
    19b0:	a9452fea 	ldp	x10, x11, [sp, #80]
    19b4:	a94427e8 	ldp	x8, x9, [sp, #64]
    19b8:	a9431fe6 	ldp	x6, x7, [sp, #48]
    19bc:	a94217e4 	ldp	x4, x5, [sp, #32]
    19c0:	a9410fe2 	ldp	x2, x3, [sp, #16]
    19c4:	a94007e0 	ldp	x0, x1, [sp]
    19c8:	910403ff 	add	sp, sp, #0x100
    19cc:	d69f03e0 	eret

00000000000019d0 <esr_none>:
    19d0:	d10403ff 	sub	sp, sp, #0x100
    19d4:	a90007e0 	stp	x0, x1, [sp]
    19d8:	a9010fe2 	stp	x2, x3, [sp, #16]
    19dc:	a90217e4 	stp	x4, x5, [sp, #32]
    19e0:	a9031fe6 	stp	x6, x7, [sp, #48]
    19e4:	a90427e8 	stp	x8, x9, [sp, #64]
    19e8:	a9052fea 	stp	x10, x11, [sp, #80]
    19ec:	a90637ec 	stp	x12, x13, [sp, #96]
    19f0:	a9073fee 	stp	x14, x15, [sp, #112]
    19f4:	a90847f0 	stp	x16, x17, [sp, #128]
    19f8:	a9094ff2 	stp	x18, x19, [sp, #144]
    19fc:	a90a57f4 	stp	x20, x21, [sp, #160]
    1a00:	a90b5ff6 	stp	x22, x23, [sp, #176]
    1a04:	a90c67f8 	stp	x24, x25, [sp, #192]
    1a08:	a90d6ffa 	stp	x26, x27, [sp, #208]
    1a0c:	a90e77fc 	stp	x28, x29, [sp, #224]
    1a10:	f9007bfe 	str	x30, [sp, #240]
    1a14:	94000047 	bl	1b30 <c_esr_none>
    1a18:	f9407bfe 	ldr	x30, [sp, #240]
    1a1c:	a94e77fc 	ldp	x28, x29, [sp, #224]
    1a20:	a94d6ffa 	ldp	x26, x27, [sp, #208]
    1a24:	a94c67f8 	ldp	x24, x25, [sp, #192]
    1a28:	a94b5ff6 	ldp	x22, x23, [sp, #176]
    1a2c:	a94a57f4 	ldp	x20, x21, [sp, #160]
    1a30:	a9494ff2 	ldp	x18, x19, [sp, #144]
    1a34:	a94847f0 	ldp	x16, x17, [sp, #128]
    1a38:	a9473fee 	ldp	x14, x15, [sp, #112]
    1a3c:	a94637ec 	ldp	x12, x13, [sp, #96]
    1a40:	a9452fea 	ldp	x10, x11, [sp, #80]
    1a44:	a94427e8 	ldp	x8, x9, [sp, #64]
    1a48:	a9431fe6 	ldp	x6, x7, [sp, #48]
    1a4c:	a94217e4 	ldp	x4, x5, [sp, #32]
    1a50:	a9410fe2 	ldp	x2, x3, [sp, #16]
    1a54:	a94007e0 	ldp	x0, x1, [sp]
    1a58:	910403ff 	add	sp, sp, #0x100
    1a5c:	d69f03e0 	eret

0000000000001a60 <cmd_hello_world_cb>:
    1a60:	a9bf7bfd 	stp	x29, x30, [sp, #-16]!
    1a64:	aa0203e0 	mov	x0, x2
    1a68:	f01fffe1 	adrp	x1, 40000000 <__ram_begin>
    1a6c:	91026021 	add	x1, x1, #0x98
    1a70:	910003fd 	mov	x29, sp
    1a74:	94002c15 	bl	cac8 <std_fprintf>
    1a78:	52800000 	mov	w0, #0x0                   	// #0
    1a7c:	a8c17bfd 	ldp	x29, x30, [sp], #16
    1a80:	d65f03c0 	ret
    1a84:	00000000 	.inst	0x00000000 ; undefined

0000000000001a88 <main>:
    1a88:	a9be7bfd 	stp	x29, x30, [sp, #-32]!
    1a8c:	910003fd 	mov	x29, sp
    1a90:	f9000bf3 	str	x19, [sp, #16]
    1a94:	94000e3d 	bl	5388 <sys_start>
    1a98:	94000f00 	bl	5698 <sys_get_info>
    1a9c:	b0200033 	adrp	x19, 40006000 <null+0x928>
    1aa0:	94002b66 	bl	c838 <std_printf>
    1aa4:	91130273 	add	x19, x19, #0x4c0
    1aa8:	90000002 	adrp	x2, 1000 <vector_table>
    1aac:	f01fffe1 	adrp	x1, 40000000 <__ram_begin>
    1ab0:	91298042 	add	x2, x2, #0xa60
    1ab4:	9102a021 	add	x1, x1, #0xa8
    1ab8:	d2800003 	mov	x3, #0x0                   	// #0
    1abc:	aa1303e0 	mov	x0, x19
    1ac0:	94002620 	bl	b340 <fs_command_init>
    1ac4:	aa1303e0 	mov	x0, x19
    1ac8:	94002650 	bl	b408 <fs_command_register>
    1acc:	94000ee3 	bl	5658 <sys_get_stdin>
    1ad0:	aa0003f3 	mov	x19, x0
    1ad4:	94000ee5 	bl	5668 <sys_get_stdout>
    1ad8:	aa0003e2 	mov	x2, x0
    1adc:	aa1303e1 	mov	x1, x19
    1ae0:	d2800006 	mov	x6, #0x0                   	// #0
    1ae4:	d2800005 	mov	x5, #0x0                   	// #0
    1ae8:	d2800004 	mov	x4, #0x0                   	// #0
    1aec:	d2800003 	mov	x3, #0x0                   	// #0
    1af0:	b0200033 	adrp	x19, 40006000 <null+0x928>
    1af4:	91138273 	add	x19, x19, #0x4e0
    1af8:	aa1303e0 	mov	x0, x19
    1afc:	940017fb 	bl	7ae8 <shell_init>
    1b00:	aa1303e0 	mov	x0, x19
    1b04:	94001813 	bl	7b50 <shell_main>
    1b08:	52800000 	mov	w0, #0x0                   	// #0
    1b0c:	f9400bf3 	ldr	x19, [sp, #16]
    1b10:	a8c27bfd 	ldp	x29, x30, [sp], #32
    1b14:	d65f03c0 	ret

0000000000001b18 <board_pin_string_to_device_index>:
    1b18:	12800240 	mov	w0, #0xffffffed            	// #-19
    1b1c:	d65f03c0 	ret

0000000000001b20 <isr_none>:
    1b20:	f01fffe0 	adrp	x0, 40000000 <__ram_begin>
    1b24:	9113e000 	add	x0, x0, #0x4f8
    1b28:	14000e4c 	b	5458 <sys_panic>
    1b2c:	00000000 	.inst	0x00000000 ; undefined

0000000000001b30 <c_esr_none>:
    1b30:	f01fffe0 	adrp	x0, 40000000 <__ram_begin>
    1b34:	91032000 	add	x0, x0, #0xc8
    1b38:	14000e48 	b	5458 <sys_panic>
    1b3c:	00000000 	.inst	0x00000000 ; undefined

0000000000001b40 <c_esr_sync>:
    1b40:	f01fffe0 	adrp	x0, 40000000 <__ram_begin>
    1b44:	9103a000 	add	x0, x0, #0xe8
    1b48:	14000e44 	b	5458 <sys_panic>
    1b4c:	00000000 	.inst	0x00000000 ; undefined

0000000000001b50 <c_esr_irq>:
    1b50:	a9be7bfd 	stp	x29, x30, [sp, #-32]!
    1b54:	f01fffe0 	adrp	x0, 40000000 <__ram_begin>
    1b58:	9103e000 	add	x0, x0, #0xf8
    1b5c:	910003fd 	mov	x29, sp
    1b60:	a90153f3 	stp	x19, x20, [sp, #16]
    1b64:	d2a10033 	mov	x19, #0x8010000             	// #134283264
    1b68:	b9400e74 	ldr	w20, [x19, #12]
    1b6c:	92402681 	and	x1, x20, #0x3ff
    1b70:	f8617800 	ldr	x0, [x0, x1, lsl #3]
    1b74:	d63f0000 	blr	x0
    1b78:	b9001274 	str	w20, [x19, #16]
    1b7c:	a94153f3 	ldp	x19, x20, [sp, #16]
    1b80:	a8c27bfd 	ldp	x29, x30, [sp], #32
    1b84:	d65f03c0 	ret

0000000000001b88 <c_esr_fiq>:
    1b88:	f01fffe0 	adrp	x0, 40000000 <__ram_begin>
    1b8c:	9102e000 	add	x0, x0, #0xb8
    1b90:	14000e32 	b	5458 <sys_panic>
    1b94:	00000000 	.inst	0x00000000 ; undefined

0000000000001b98 <c_esr_serror>:
    1b98:	f01fffe0 	adrp	x0, 40000000 <__ram_begin>
    1b9c:	91036000 	add	x0, x0, #0xd8
    1ba0:	14000e2e 	b	5458 <sys_panic>
    1ba4:	00000000 	.inst	0x00000000 ; undefined

0000000000001ba8 <xvisor_virt_v8_init>:
    1ba8:	d2a10001 	mov	x1, #0x8000000             	// #134217728
    1bac:	aa0103e2 	mov	x2, x1
    1bb0:	52800100 	mov	w0, #0x8                   	// #8
    1bb4:	3200c3e3 	mov	w3, #0x1010101             	// #16843009
    1bb8:	b90c083f 	str	wzr, [x1, #3080]
    1bbc:	b90c0c3f 	str	wzr, [x1, #3084]
    1bc0:	b90c103f 	str	wzr, [x1, #3088]
    1bc4:	b90c143f 	str	wzr, [x1, #3092]
    1bc8:	93407c01 	sxtw	x1, w0
    1bcc:	11000400 	add	w0, w0, #0x1
    1bd0:	91080021 	add	x1, x1, #0x200
    1bd4:	7100601f 	cmp	w0, #0x18
    1bd8:	b8217843 	str	w3, [x2, x1, lsl #2]
    1bdc:	54ffff61 	b.ne	1bc8 <xvisor_virt_v8_init+0x20>  // b.any
    1be0:	d2a10020 	mov	x0, #0x8010000             	// #134283264
    1be4:	52800021 	mov	w1, #0x1                   	// #1
    1be8:	b9000041 	str	w1, [x2]
    1bec:	52801e02 	mov	w2, #0xf0                  	// #240
    1bf0:	b9000402 	str	w2, [x0, #4]
    1bf4:	b9000001 	str	w1, [x0]
    1bf8:	d65f03c0 	ret
    1bfc:	00000000 	.inst	0x00000000 ; undefined

0000000000001c00 <__locale_ctype_ptr>:
    1c00:	f01fffe0 	adrp	x0, 40000000 <__ram_begin>
    1c04:	f9400000 	ldr	x0, [x0]
    1c08:	d65f03c0 	ret
    1c0c:	00000000 	.inst	0x00000000 ; undefined

0000000000001c10 <memcpy>:
    1c10:	aa010003 	orr	x3, x0, x1
    1c14:	f240047f 	tst	x3, #0x3
    1c18:	54000281 	b.ne	1c68 <memcpy+0x58>  // b.any
    1c1c:	d342fc44 	lsr	x4, x2, #2
    1c20:	b4000344 	cbz	x4, 1c88 <memcpy+0x78>
    1c24:	d37ef484 	lsl	x4, x4, #2
    1c28:	d2800003 	mov	x3, #0x0                   	// #0
    1c2c:	d503201f 	nop
    1c30:	b8636825 	ldr	w5, [x1, x3]
    1c34:	b8236805 	str	w5, [x0, x3]
    1c38:	91001063 	add	x3, x3, #0x4
    1c3c:	eb03009f 	cmp	x4, x3
    1c40:	54ffff81 	b.ne	1c30 <memcpy+0x20>  // b.any
    1c44:	8b040021 	add	x1, x1, x4
    1c48:	8b040004 	add	x4, x0, x4
    1c4c:	36080062 	tbz	w2, #1, 1c58 <memcpy+0x48>
    1c50:	78402423 	ldrh	w3, [x1], #2
    1c54:	78002483 	strh	w3, [x4], #2
    1c58:	36000062 	tbz	w2, #0, 1c64 <memcpy+0x54>
    1c5c:	39400021 	ldrb	w1, [x1]
    1c60:	39000081 	strb	w1, [x4]
    1c64:	d65f03c0 	ret
    1c68:	d2800003 	mov	x3, #0x0                   	// #0
    1c6c:	b4ffffc2 	cbz	x2, 1c64 <memcpy+0x54>
    1c70:	38636824 	ldrb	w4, [x1, x3]
    1c74:	38236804 	strb	w4, [x0, x3]
    1c78:	91000463 	add	x3, x3, #0x1
    1c7c:	eb02007f 	cmp	x3, x2
    1c80:	54ffff81 	b.ne	1c70 <memcpy+0x60>  // b.any
    1c84:	d65f03c0 	ret
    1c88:	aa0003e4 	mov	x4, x0
    1c8c:	360ffe62 	tbz	w2, #1, 1c58 <memcpy+0x48>
    1c90:	17fffff0 	b	1c50 <memcpy+0x40>
    1c94:	00000000 	.inst	0x00000000 ; undefined

0000000000001c98 <memmove>:
    1c98:	eb00003f 	cmp	x1, x0
    1c9c:	54000182 	b.cs	1ccc <memmove+0x34>  // b.hs, b.nlast
    1ca0:	8b020023 	add	x3, x1, x2
    1ca4:	eb03001f 	cmp	x0, x3
    1ca8:	54000122 	b.cs	1ccc <memmove+0x34>  // b.hs, b.nlast
    1cac:	b40000e2 	cbz	x2, 1cc8 <memmove+0x30>
    1cb0:	d1000421 	sub	x1, x1, #0x1
    1cb4:	d1000404 	sub	x4, x0, #0x1
    1cb8:	38626823 	ldrb	w3, [x1, x2]
    1cbc:	38226883 	strb	w3, [x4, x2]
    1cc0:	f1000442 	subs	x2, x2, #0x1
    1cc4:	54ffffa1 	b.ne	1cb8 <memmove+0x20>  // b.any
    1cc8:	d65f03c0 	ret
    1ccc:	17ffffd1 	b	1c10 <memcpy>

0000000000001cd0 <memset>:
    1cd0:	35000201 	cbnz	w1, 1d10 <memset+0x40>
    1cd4:	f240041f 	tst	x0, #0x3
    1cd8:	540001c1 	b.ne	1d10 <memset+0x40>  // b.any
    1cdc:	d342fc43 	lsr	x3, x2, #2
    1ce0:	b4000283 	cbz	x3, 1d30 <memset+0x60>
    1ce4:	8b030803 	add	x3, x0, x3, lsl #2
    1ce8:	aa0003e1 	mov	x1, x0
    1cec:	d503201f 	nop
    1cf0:	b800443f 	str	wzr, [x1], #4
    1cf4:	eb03003f 	cmp	x1, x3
    1cf8:	54ffffc1 	b.ne	1cf0 <memset+0x20>  // b.any
    1cfc:	36080042 	tbz	w2, #1, 1d04 <memset+0x34>
    1d00:	7800247f 	strh	wzr, [x3], #2
    1d04:	36000042 	tbz	w2, #0, 1d0c <memset+0x3c>
    1d08:	3900007f 	strb	wzr, [x3]
    1d0c:	d65f03c0 	ret
    1d10:	b4ffffe2 	cbz	x2, 1d0c <memset+0x3c>
    1d14:	12001c21 	and	w1, w1, #0xff
    1d18:	8b020002 	add	x2, x0, x2
    1d1c:	aa0003e3 	mov	x3, x0
    1d20:	38001461 	strb	w1, [x3], #1
    1d24:	eb02007f 	cmp	x3, x2
    1d28:	54ffffc1 	b.ne	1d20 <memset+0x50>  // b.any
    1d2c:	d65f03c0 	ret
    1d30:	aa0003e3 	mov	x3, x0
    1d34:	360ffe82 	tbz	w2, #1, 1d04 <memset+0x34>
    1d38:	17fffff2 	b	1d00 <memset+0x30>
    1d3c:	00000000 	.inst	0x00000000 ; undefined

0000000000001d40 <memcmp>:
    1d40:	d2800003 	mov	x3, #0x0                   	// #0
    1d44:	14000007 	b	1d60 <memcmp+0x20>
    1d48:	38636805 	ldrb	w5, [x0, x3]
    1d4c:	38636824 	ldrb	w4, [x1, x3]
    1d50:	91000463 	add	x3, x3, #0x1
    1d54:	6b0400bf 	cmp	w5, w4
    1d58:	540000c3 	b.cc	1d70 <memcmp+0x30>  // b.lo, b.ul, b.last
    1d5c:	540000e8 	b.hi	1d78 <memcmp+0x38>  // b.pmore
    1d60:	eb03005f 	cmp	x2, x3
    1d64:	54ffff21 	b.ne	1d48 <memcmp+0x8>  // b.any
    1d68:	52800000 	mov	w0, #0x0                   	// #0
    1d6c:	d65f03c0 	ret
    1d70:	12800000 	mov	w0, #0xffffffff            	// #-1
    1d74:	d65f03c0 	ret
    1d78:	52800020 	mov	w0, #0x1                   	// #1
    1d7c:	d65f03c0 	ret

0000000000001d80 <strlen>:
    1d80:	39400001 	ldrb	w1, [x0]
    1d84:	34000101 	cbz	w1, 1da4 <strlen+0x24>
    1d88:	52800001 	mov	w1, #0x0                   	// #0
    1d8c:	d503201f 	nop
    1d90:	38401c02 	ldrb	w2, [x0, #1]!
    1d94:	11000421 	add	w1, w1, #0x1
    1d98:	35ffffc2 	cbnz	w2, 1d90 <strlen+0x10>
    1d9c:	93407c20 	sxtw	x0, w1
    1da0:	d65f03c0 	ret
    1da4:	d2800000 	mov	x0, #0x0                   	// #0
    1da8:	d65f03c0 	ret
    1dac:	00000000 	.inst	0x00000000 ; undefined

0000000000001db0 <strcmp>:
    1db0:	d2800002 	mov	x2, #0x0                   	// #0
    1db4:	14000004 	b	1dc4 <strcmp+0x14>
    1db8:	34000164 	cbz	w4, 1de4 <strcmp+0x34>
    1dbc:	54000183 	b.cc	1dec <strcmp+0x3c>  // b.lo, b.ul, b.last
    1dc0:	54000128 	b.hi	1de4 <strcmp+0x34>  // b.pmore
    1dc4:	38626803 	ldrb	w3, [x0, x2]
    1dc8:	38626824 	ldrb	w4, [x1, x2]
    1dcc:	91000442 	add	x2, x2, #0x1
    1dd0:	6b04007f 	cmp	w3, w4
    1dd4:	35ffff23 	cbnz	w3, 1db8 <strcmp+0x8>
    1dd8:	7100009f 	cmp	w4, #0x0
    1ddc:	5a830060 	cinv	w0, w3, ne  // ne = any
    1de0:	d65f03c0 	ret
    1de4:	52800020 	mov	w0, #0x1                   	// #1
    1de8:	d65f03c0 	ret
    1dec:	12800000 	mov	w0, #0xffffffff            	// #-1
    1df0:	d65f03c0 	ret
    1df4:	00000000 	.inst	0x00000000 ; undefined

0000000000001df8 <strncmp>:
    1df8:	14000009 	b	1e1c <strncmp+0x24>
    1dfc:	39400024 	ldrb	w4, [x1]
    1e00:	91000421 	add	x1, x1, #0x1
    1e04:	6b04007f 	cmp	w3, w4
    1e08:	340001e4 	cbz	w4, 1e44 <strncmp+0x4c>
    1e0c:	b4000182 	cbz	x2, 1e3c <strncmp+0x44>
    1e10:	d1000442 	sub	x2, x2, #0x1
    1e14:	540001e3 	b.cc	1e50 <strncmp+0x58>  // b.lo, b.ul, b.last
    1e18:	54000208 	b.hi	1e58 <strncmp+0x60>  // b.pmore
    1e1c:	39400003 	ldrb	w3, [x0]
    1e20:	91000400 	add	x0, x0, #0x1
    1e24:	35fffec3 	cbnz	w3, 1dfc <strncmp+0x4>
    1e28:	b40000a2 	cbz	x2, 1e3c <strncmp+0x44>
    1e2c:	39400020 	ldrb	w0, [x1]
    1e30:	7100001f 	cmp	w0, #0x0
    1e34:	5a830060 	cinv	w0, w3, ne  // ne = any
    1e38:	d65f03c0 	ret
    1e3c:	52800000 	mov	w0, #0x0                   	// #0
    1e40:	d65f03c0 	ret
    1e44:	f100005f 	cmp	x2, #0x0
    1e48:	1a9f07e0 	cset	w0, ne  // ne = any
    1e4c:	d65f03c0 	ret
    1e50:	12800000 	mov	w0, #0xffffffff            	// #-1
    1e54:	d65f03c0 	ret
    1e58:	52800020 	mov	w0, #0x1                   	// #1
    1e5c:	d65f03c0 	ret

0000000000001e60 <strcpy>:
    1e60:	39400022 	ldrb	w2, [x1]
    1e64:	aa0003e3 	mov	x3, x0
    1e68:	340000a2 	cbz	w2, 1e7c <strcpy+0x1c>
    1e6c:	d503201f 	nop
    1e70:	38001462 	strb	w2, [x3], #1
    1e74:	38401c22 	ldrb	w2, [x1, #1]!
    1e78:	35ffffc2 	cbnz	w2, 1e70 <strcpy+0x10>
    1e7c:	3900007f 	strb	wzr, [x3]
    1e80:	d65f03c0 	ret
    1e84:	00000000 	.inst	0x00000000 ; undefined

0000000000001e88 <strncpy>:
    1e88:	39400023 	ldrb	w3, [x1]
    1e8c:	aa0003e4 	mov	x4, x0
    1e90:	340000e3 	cbz	w3, 1eac <strncpy+0x24>
    1e94:	d503201f 	nop
    1e98:	b40000e2 	cbz	x2, 1eb4 <strncpy+0x2c>
    1e9c:	38001483 	strb	w3, [x4], #1
    1ea0:	d1000442 	sub	x2, x2, #0x1
    1ea4:	38401c23 	ldrb	w3, [x1, #1]!
    1ea8:	35ffff83 	cbnz	w3, 1e98 <strncpy+0x10>
    1eac:	b4000042 	cbz	x2, 1eb4 <strncpy+0x2c>
    1eb0:	3900009f 	strb	wzr, [x4]
    1eb4:	d65f03c0 	ret

0000000000001eb8 <strstr>:
    1eb8:	39400026 	ldrb	w6, [x1]
    1ebc:	aa0003e5 	mov	x5, x0
    1ec0:	340004a6 	cbz	w6, 1f54 <strstr+0x9c>
    1ec4:	aa0103e8 	mov	x8, x1
    1ec8:	52800000 	mov	w0, #0x0                   	// #0
    1ecc:	d503201f 	nop
    1ed0:	38401c22 	ldrb	w2, [x1, #1]!
    1ed4:	11000400 	add	w0, w0, #0x1
    1ed8:	35ffffc2 	cbnz	w2, 1ed0 <strstr+0x18>
    1edc:	93407c07 	sxtw	x7, w0
    1ee0:	394000a0 	ldrb	w0, [x5]
    1ee4:	340000e0 	cbz	w0, 1f00 <strstr+0x48>
    1ee8:	6b0000df 	cmp	w6, w0
    1eec:	d503201f 	nop
    1ef0:	540000c0 	b.eq	1f08 <strstr+0x50>  // b.none
    1ef4:	38401ca1 	ldrb	w1, [x5, #1]!
    1ef8:	6b0100df 	cmp	w6, w1
    1efc:	35ffffa1 	cbnz	w1, 1ef0 <strstr+0x38>
    1f00:	d2800000 	mov	x0, #0x0                   	// #0
    1f04:	d65f03c0 	ret
    1f08:	a9bf7bfd 	stp	x29, x30, [sp, #-16]!
    1f0c:	910003fd 	mov	x29, sp
    1f10:	aa0703e2 	mov	x2, x7
    1f14:	aa0803e1 	mov	x1, x8
    1f18:	aa0503e0 	mov	x0, x5
    1f1c:	97ffffb7 	bl	1df8 <strncmp>
    1f20:	340001c0 	cbz	w0, 1f58 <strstr+0xa0>
    1f24:	910004a5 	add	x5, x5, #0x1
    1f28:	394000a0 	ldrb	w0, [x5]
    1f2c:	340000e0 	cbz	w0, 1f48 <strstr+0x90>
    1f30:	6b0000df 	cmp	w6, w0
    1f34:	d503201f 	nop
    1f38:	54fffec0 	b.eq	1f10 <strstr+0x58>  // b.none
    1f3c:	38401ca1 	ldrb	w1, [x5, #1]!
    1f40:	6b0100df 	cmp	w6, w1
    1f44:	35ffffa1 	cbnz	w1, 1f38 <strstr+0x80>
    1f48:	d2800000 	mov	x0, #0x0                   	// #0
    1f4c:	a8c17bfd 	ldp	x29, x30, [sp], #16
    1f50:	d65f03c0 	ret
    1f54:	d65f03c0 	ret
    1f58:	aa0503e0 	mov	x0, x5
    1f5c:	a8c17bfd 	ldp	x29, x30, [sp], #16
    1f60:	d65f03c0 	ret
    1f64:	00000000 	.inst	0x00000000 ; undefined

0000000000001f68 <circular_heap_init>:
    1f68:	a9bd7bfd 	stp	x29, x30, [sp, #-48]!
    1f6c:	910003fd 	mov	x29, sp
    1f70:	a90153f3 	stp	x19, x20, [sp, #16]
    1f74:	aa0003f3 	mov	x19, x0
    1f78:	f90013f5 	str	x21, [sp, #32]
    1f7c:	aa0103f4 	mov	x20, x1
    1f80:	aa0203f5 	mov	x21, x2
    1f84:	b4000340 	cbz	x0, 1fec <circular_heap_init+0x84>
    1f88:	b4000234 	cbz	x20, 1fcc <circular_heap_init+0x64>
    1f8c:	b5000115 	cbnz	x21, 1fac <circular_heap_init+0x44>
    1f90:	f01fffe0 	adrp	x0, 40000000 <__ram_begin>
    1f94:	9126c000 	add	x0, x0, #0x9b0
    1f98:	94002a28 	bl	c838 <std_printf>
    1f9c:	f01fffe1 	adrp	x1, 40000000 <__ram_begin>
    1fa0:	528002c0 	mov	w0, #0x16                  	// #22
    1fa4:	f9400421 	ldr	x1, [x1, #8]
    1fa8:	d63f0020 	blr	x1
    1fac:	8b150295 	add	x21, x20, x21
    1fb0:	a9005674 	stp	x20, x21, [x19]
    1fb4:	a9015274 	stp	x20, x20, [x19, #16]
    1fb8:	52800000 	mov	w0, #0x0                   	// #0
    1fbc:	a94153f3 	ldp	x19, x20, [sp, #16]
    1fc0:	f94013f5 	ldr	x21, [sp, #32]
    1fc4:	a8c37bfd 	ldp	x29, x30, [sp], #48
    1fc8:	d65f03c0 	ret
    1fcc:	f01fffe0 	adrp	x0, 40000000 <__ram_begin>
    1fd0:	91254000 	add	x0, x0, #0x950
    1fd4:	94002a19 	bl	c838 <std_printf>
    1fd8:	f01fffe1 	adrp	x1, 40000000 <__ram_begin>
    1fdc:	528002c0 	mov	w0, #0x16                  	// #22
    1fe0:	f9400421 	ldr	x1, [x1, #8]
    1fe4:	d63f0020 	blr	x1
    1fe8:	17ffffe9 	b	1f8c <circular_heap_init+0x24>
    1fec:	f01fffe0 	adrp	x0, 40000000 <__ram_begin>
    1ff0:	9123c000 	add	x0, x0, #0x8f0
    1ff4:	94002a11 	bl	c838 <std_printf>
    1ff8:	f01fffe1 	adrp	x1, 40000000 <__ram_begin>
    1ffc:	528002c0 	mov	w0, #0x16                  	// #22
    2000:	f9400421 	ldr	x1, [x1, #8]
    2004:	d63f0020 	blr	x1
    2008:	b5fffc34 	cbnz	x20, 1f8c <circular_heap_init+0x24>
    200c:	17fffff0 	b	1fcc <circular_heap_init+0x64>

0000000000002010 <circular_heap_alloc>:
    2010:	a9be7bfd 	stp	x29, x30, [sp, #-32]!
    2014:	910003fd 	mov	x29, sp
    2018:	a90153f3 	stp	x19, x20, [sp, #16]
    201c:	aa0003f4 	mov	x20, x0
    2020:	aa0103f3 	mov	x19, x1
    2024:	b4000460 	cbz	x0, 20b0 <circular_heap_alloc+0xa0>
    2028:	b4000353 	cbz	x19, 2090 <circular_heap_alloc+0x80>
    202c:	a9410a80 	ldp	x0, x2, [x20, #16]
    2030:	91002261 	add	x1, x19, #0x8
    2034:	927df021 	and	x1, x1, #0xfffffffffffffff8
    2038:	b27d0021 	orr	x1, x1, #0x8
    203c:	eb02001f 	cmp	x0, x2
    2040:	540001a3 	b.cc	2074 <circular_heap_alloc+0x64>  // b.lo, b.ul, b.last
    2044:	f9400683 	ldr	x3, [x20, #8]
    2048:	cb000063 	sub	x3, x3, x0
    204c:	eb01007f 	cmp	x3, x1
    2050:	54000109 	b.ls	2070 <circular_heap_alloc+0x60>  // b.plast
    2054:	8b010002 	add	x2, x0, x1
    2058:	f9000a82 	str	x2, [x20, #16]
    205c:	b4000120 	cbz	x0, 2080 <circular_heap_alloc+0x70>
    2060:	f8008401 	str	x1, [x0], #8
    2064:	a94153f3 	ldp	x19, x20, [sp, #16]
    2068:	a8c27bfd 	ldp	x29, x30, [sp], #32
    206c:	d65f03c0 	ret
    2070:	f9400280 	ldr	x0, [x20]
    2074:	cb000042 	sub	x2, x2, x0
    2078:	eb01005f 	cmp	x2, x1
    207c:	54fffec8 	b.hi	2054 <circular_heap_alloc+0x44>  // b.pmore
    2080:	d2800000 	mov	x0, #0x0                   	// #0
    2084:	a94153f3 	ldp	x19, x20, [sp, #16]
    2088:	a8c27bfd 	ldp	x29, x30, [sp], #32
    208c:	d65f03c0 	ret
    2090:	d01fffe0 	adrp	x0, 40000000 <__ram_begin>
    2094:	9119c000 	add	x0, x0, #0x670
    2098:	940029e8 	bl	c838 <std_printf>
    209c:	d01fffe1 	adrp	x1, 40000000 <__ram_begin>
    20a0:	528002c0 	mov	w0, #0x16                  	// #22
    20a4:	f9400421 	ldr	x1, [x1, #8]
    20a8:	d63f0020 	blr	x1
    20ac:	17ffffe0 	b	202c <circular_heap_alloc+0x1c>
    20b0:	d01fffe0 	adrp	x0, 40000000 <__ram_begin>
    20b4:	91184000 	add	x0, x0, #0x610
    20b8:	940029e0 	bl	c838 <std_printf>
    20bc:	d01fffe1 	adrp	x1, 40000000 <__ram_begin>
    20c0:	528002c0 	mov	w0, #0x16                  	// #22
    20c4:	f9400421 	ldr	x1, [x1, #8]
    20c8:	d63f0020 	blr	x1
    20cc:	17ffffd7 	b	2028 <circular_heap_alloc+0x18>

00000000000020d0 <circular_heap_free>:
    20d0:	a9bd7bfd 	stp	x29, x30, [sp, #-48]!
    20d4:	910003fd 	mov	x29, sp
    20d8:	a90153f3 	stp	x19, x20, [sp, #16]
    20dc:	aa0003f3 	mov	x19, x0
    20e0:	f90013f5 	str	x21, [sp, #32]
    20e4:	aa0103f5 	mov	x21, x1
    20e8:	b4000540 	cbz	x0, 2190 <circular_heap_free+0xc0>
    20ec:	b4000635 	cbz	x21, 21b0 <circular_heap_free+0xe0>
    20f0:	f9400260 	ldr	x0, [x19]
    20f4:	eb15001f 	cmp	x0, x21
    20f8:	54000782 	b.cs	21e8 <circular_heap_free+0x118>  // b.hs, b.nlast
    20fc:	f9400660 	ldr	x0, [x19, #8]
    2100:	eb15001f 	cmp	x0, x21
    2104:	54000369 	b.ls	2170 <circular_heap_free+0xa0>  // b.plast
    2108:	f9400e61 	ldr	x1, [x19, #24]
    210c:	d10022b4 	sub	x20, x21, #0x8
    2110:	f9400260 	ldr	x0, [x19]
    2114:	eb14003f 	cmp	x1, x20
    2118:	54000160 	b.eq	2144 <circular_heap_free+0x74>  // b.none
    211c:	eb00029f 	cmp	x20, x0
    2120:	54000180 	b.eq	2150 <circular_heap_free+0x80>  // b.none
    2124:	d01fffe0 	adrp	x0, 40000000 <__ram_begin>
    2128:	91218000 	add	x0, x0, #0x860
    212c:	940029c3 	bl	c838 <std_printf>
    2130:	d01fffe1 	adrp	x1, 40000000 <__ram_begin>
    2134:	528002c0 	mov	w0, #0x16                  	// #22
    2138:	f9400421 	ldr	x1, [x1, #8]
    213c:	d63f0020 	blr	x1
    2140:	f9400260 	ldr	x0, [x19]
    2144:	eb00029f 	cmp	x20, x0
    2148:	54000040 	b.eq	2150 <circular_heap_free+0x80>  // b.none
    214c:	f9400e74 	ldr	x20, [x19, #24]
    2150:	f85f82a1 	ldur	x1, [x21, #-8]
    2154:	52800000 	mov	w0, #0x0                   	// #0
    2158:	f94013f5 	ldr	x21, [sp, #32]
    215c:	8b010294 	add	x20, x20, x1
    2160:	f9000e74 	str	x20, [x19, #24]
    2164:	a94153f3 	ldp	x19, x20, [sp, #16]
    2168:	a8c37bfd 	ldp	x29, x30, [sp], #48
    216c:	d65f03c0 	ret
    2170:	d01fffe0 	adrp	x0, 40000000 <__ram_begin>
    2174:	911fe000 	add	x0, x0, #0x7f8
    2178:	940029b0 	bl	c838 <std_printf>
    217c:	d01fffe1 	adrp	x1, 40000000 <__ram_begin>
    2180:	528002c0 	mov	w0, #0x16                  	// #22
    2184:	f9400421 	ldr	x1, [x1, #8]
    2188:	d63f0020 	blr	x1
    218c:	17ffffdf 	b	2108 <circular_heap_free+0x38>
    2190:	d01ffff4 	adrp	x20, 40000000 <__ram_begin>
    2194:	d01fffe0 	adrp	x0, 40000000 <__ram_begin>
    2198:	911b2000 	add	x0, x0, #0x6c8
    219c:	940029a7 	bl	c838 <std_printf>
    21a0:	f9400681 	ldr	x1, [x20, #8]
    21a4:	528002c0 	mov	w0, #0x16                  	// #22
    21a8:	d63f0020 	blr	x1
    21ac:	b5fffa35 	cbnz	x21, 20f0 <circular_heap_free+0x20>
    21b0:	d01ffff4 	adrp	x20, 40000000 <__ram_begin>
    21b4:	d01fffe0 	adrp	x0, 40000000 <__ram_begin>
    21b8:	911cc000 	add	x0, x0, #0x730
    21bc:	9400299f 	bl	c838 <std_printf>
    21c0:	f9400681 	ldr	x1, [x20, #8]
    21c4:	528002c0 	mov	w0, #0x16                  	// #22
    21c8:	d63f0020 	blr	x1
    21cc:	d01fffe0 	adrp	x0, 40000000 <__ram_begin>
    21d0:	911e4000 	add	x0, x0, #0x790
    21d4:	94002999 	bl	c838 <std_printf>
    21d8:	f9400681 	ldr	x1, [x20, #8]
    21dc:	528002c0 	mov	w0, #0x16                  	// #22
    21e0:	d63f0020 	blr	x1
    21e4:	17ffffc6 	b	20fc <circular_heap_free+0x2c>
    21e8:	d01ffff4 	adrp	x20, 40000000 <__ram_begin>
    21ec:	17fffff8 	b	21cc <circular_heap_free+0xfc>

00000000000021f0 <circular_buffer_init>:
    21f0:	a9bd7bfd 	stp	x29, x30, [sp, #-48]!
    21f4:	910003fd 	mov	x29, sp
    21f8:	a90153f3 	stp	x19, x20, [sp, #16]
    21fc:	aa0003f3 	mov	x19, x0
    2200:	f90013f5 	str	x21, [sp, #32]
    2204:	aa0203f4 	mov	x20, x2
    2208:	aa0103f5 	mov	x21, x1
    220c:	b4000320 	cbz	x0, 2270 <circular_buffer_init+0x80>
    2210:	b4000215 	cbz	x21, 2250 <circular_buffer_init+0x60>
    2214:	b5000114 	cbnz	x20, 2234 <circular_buffer_init+0x44>
    2218:	d01fffe0 	adrp	x0, 40000000 <__ram_begin>
    221c:	912b6000 	add	x0, x0, #0xad8
    2220:	94002986 	bl	c838 <std_printf>
    2224:	d01fffe1 	adrp	x1, 40000000 <__ram_begin>
    2228:	528002c0 	mov	w0, #0x16                  	// #22
    222c:	f9400421 	ldr	x1, [x1, #8]
    2230:	d63f0020 	blr	x1
    2234:	a9005275 	stp	x21, x20, [x19]
    2238:	52800000 	mov	w0, #0x0                   	// #0
    223c:	a9017e7f 	stp	xzr, xzr, [x19, #16]
    2240:	a94153f3 	ldp	x19, x20, [sp, #16]
    2244:	f94013f5 	ldr	x21, [sp, #32]
    2248:	a8c37bfd 	ldp	x29, x30, [sp], #48
    224c:	d65f03c0 	ret
    2250:	d01fffe0 	adrp	x0, 40000000 <__ram_begin>
    2254:	9129c000 	add	x0, x0, #0xa70
    2258:	94002978 	bl	c838 <std_printf>
    225c:	d01fffe1 	adrp	x1, 40000000 <__ram_begin>
    2260:	528002c0 	mov	w0, #0x16                  	// #22
    2264:	f9400421 	ldr	x1, [x1, #8]
    2268:	d63f0020 	blr	x1
    226c:	17ffffea 	b	2214 <circular_buffer_init+0x24>
    2270:	d01fffe0 	adrp	x0, 40000000 <__ram_begin>
    2274:	91282000 	add	x0, x0, #0xa08
    2278:	94002970 	bl	c838 <std_printf>
    227c:	d01fffe1 	adrp	x1, 40000000 <__ram_begin>
    2280:	528002c0 	mov	w0, #0x16                  	// #22
    2284:	f9400421 	ldr	x1, [x1, #8]
    2288:	d63f0020 	blr	x1
    228c:	b5fffc55 	cbnz	x21, 2214 <circular_buffer_init+0x24>
    2290:	17fffff0 	b	2250 <circular_buffer_init+0x60>
    2294:	00000000 	.inst	0x00000000 ; undefined

0000000000002298 <circular_buffer_unused_size>:
    2298:	a9be7bfd 	stp	x29, x30, [sp, #-32]!
    229c:	910003fd 	mov	x29, sp
    22a0:	f9000bf3 	str	x19, [sp, #16]
    22a4:	aa0003f3 	mov	x19, x0
    22a8:	b4000140 	cbz	x0, 22d0 <circular_buffer_unused_size+0x38>
    22ac:	a9410261 	ldp	x1, x0, [x19, #16]
    22b0:	d1000400 	sub	x0, x0, #0x1
    22b4:	eb010000 	subs	x0, x0, x1
    22b8:	54000065 	b.pl	22c4 <circular_buffer_unused_size+0x2c>  // b.nfrst
    22bc:	f9400661 	ldr	x1, [x19, #8]
    22c0:	8b010000 	add	x0, x0, x1
    22c4:	f9400bf3 	ldr	x19, [sp, #16]
    22c8:	a8c27bfd 	ldp	x29, x30, [sp], #32
    22cc:	d65f03c0 	ret
    22d0:	d01fffe0 	adrp	x0, 40000000 <__ram_begin>
    22d4:	91302000 	add	x0, x0, #0xc08
    22d8:	94002958 	bl	c838 <std_printf>
    22dc:	d01fffe1 	adrp	x1, 40000000 <__ram_begin>
    22e0:	528002c0 	mov	w0, #0x16                  	// #22
    22e4:	f9400421 	ldr	x1, [x1, #8]
    22e8:	d63f0020 	blr	x1
    22ec:	17fffff0 	b	22ac <circular_buffer_unused_size+0x14>

00000000000022f0 <circular_buffer_write>:
    22f0:	a9bc7bfd 	stp	x29, x30, [sp, #-64]!
    22f4:	910003fd 	mov	x29, sp
    22f8:	a90153f3 	stp	x19, x20, [sp, #16]
    22fc:	aa0003f3 	mov	x19, x0
    2300:	a9025bf5 	stp	x21, x22, [sp, #32]
    2304:	aa0203f4 	mov	x20, x2
    2308:	aa0103f6 	mov	x22, x1
    230c:	b4000520 	cbz	x0, 23b0 <circular_buffer_write+0xc0>
    2310:	b4000616 	cbz	x22, 23d0 <circular_buffer_write+0xe0>
    2314:	aa1303e0 	mov	x0, x19
    2318:	97ffffe0 	bl	2298 <circular_buffer_unused_size>
    231c:	a9408e75 	ldp	x21, x3, [x19, #8]
    2320:	eb14001f 	cmp	x0, x20
    2324:	9a949014 	csel	x20, x0, x20, ls  // ls = plast
    2328:	cb0302b5 	sub	x21, x21, x3
    232c:	eb1402bf 	cmp	x21, x20
    2330:	540001c9 	b.ls	2368 <circular_buffer_write+0x78>  // b.plast
    2334:	f9400260 	ldr	x0, [x19]
    2338:	aa1403e2 	mov	x2, x20
    233c:	aa1603e1 	mov	x1, x22
    2340:	8b030000 	add	x0, x0, x3
    2344:	97fffe33 	bl	1c10 <memcpy>
    2348:	f9400a60 	ldr	x0, [x19, #16]
    234c:	a9425bf5 	ldp	x21, x22, [sp, #32]
    2350:	8b140000 	add	x0, x0, x20
    2354:	f9000a60 	str	x0, [x19, #16]
    2358:	aa1403e0 	mov	x0, x20
    235c:	a94153f3 	ldp	x19, x20, [sp, #16]
    2360:	a8c47bfd 	ldp	x29, x30, [sp], #64
    2364:	d65f03c0 	ret
    2368:	f9400260 	ldr	x0, [x19]
    236c:	aa1503e2 	mov	x2, x21
    2370:	f9001bb7 	str	x23, [x29, #48]
    2374:	aa1603e1 	mov	x1, x22
    2378:	8b030000 	add	x0, x0, x3
    237c:	97fffe25 	bl	1c10 <memcpy>
    2380:	f9400260 	ldr	x0, [x19]
    2384:	cb150297 	sub	x23, x20, x21
    2388:	aa1703e2 	mov	x2, x23
    238c:	8b1502c1 	add	x1, x22, x21
    2390:	97fffe20 	bl	1c10 <memcpy>
    2394:	f9000a77 	str	x23, [x19, #16]
    2398:	aa1403e0 	mov	x0, x20
    239c:	f9401bb7 	ldr	x23, [x29, #48]
    23a0:	a94153f3 	ldp	x19, x20, [sp, #16]
    23a4:	a9425bf5 	ldp	x21, x22, [sp, #32]
    23a8:	a8c47bfd 	ldp	x29, x30, [sp], #64
    23ac:	d65f03c0 	ret
    23b0:	d01fffe0 	adrp	x0, 40000000 <__ram_begin>
    23b4:	9133a000 	add	x0, x0, #0xce8
    23b8:	94002920 	bl	c838 <std_printf>
    23bc:	d01fffe1 	adrp	x1, 40000000 <__ram_begin>
    23c0:	528002c0 	mov	w0, #0x16                  	// #22
    23c4:	f9400421 	ldr	x1, [x1, #8]
    23c8:	d63f0020 	blr	x1
    23cc:	b5fffa56 	cbnz	x22, 2314 <circular_buffer_write+0x24>
    23d0:	d01fffe0 	adrp	x0, 40000000 <__ram_begin>
    23d4:	91354000 	add	x0, x0, #0xd50
    23d8:	94002918 	bl	c838 <std_printf>
    23dc:	d01fffe1 	adrp	x1, 40000000 <__ram_begin>
    23e0:	528002c0 	mov	w0, #0x16                  	// #22
    23e4:	f9400421 	ldr	x1, [x1, #8]
    23e8:	d63f0020 	blr	x1
    23ec:	17ffffca 	b	2314 <circular_buffer_write+0x24>

00000000000023f0 <circular_buffer_used_size>:
    23f0:	a9be7bfd 	stp	x29, x30, [sp, #-32]!
    23f4:	910003fd 	mov	x29, sp
    23f8:	a90153f3 	stp	x19, x20, [sp, #16]
    23fc:	aa0003f4 	mov	x20, x0
    2400:	b4000120 	cbz	x0, 2424 <circular_buffer_used_size+0x34>
    2404:	f9400693 	ldr	x19, [x20, #8]
    2408:	aa1403e0 	mov	x0, x20
    240c:	97ffffa3 	bl	2298 <circular_buffer_unused_size>
    2410:	d1000673 	sub	x19, x19, #0x1
    2414:	cb000260 	sub	x0, x19, x0
    2418:	a94153f3 	ldp	x19, x20, [sp, #16]
    241c:	a8c27bfd 	ldp	x29, x30, [sp], #32
    2420:	d65f03c0 	ret
    2424:	d01fffe0 	adrp	x0, 40000000 <__ram_begin>
    2428:	9131e000 	add	x0, x0, #0xc78
    242c:	94002903 	bl	c838 <std_printf>
    2430:	d01fffe1 	adrp	x1, 40000000 <__ram_begin>
    2434:	528002c0 	mov	w0, #0x16                  	// #22
    2438:	f9400421 	ldr	x1, [x1, #8]
    243c:	d63f0020 	blr	x1
    2440:	f9400693 	ldr	x19, [x20, #8]
    2444:	aa1403e0 	mov	x0, x20
    2448:	97ffff94 	bl	2298 <circular_buffer_unused_size>
    244c:	d1000673 	sub	x19, x19, #0x1
    2450:	cb000260 	sub	x0, x19, x0
    2454:	a94153f3 	ldp	x19, x20, [sp, #16]
    2458:	a8c27bfd 	ldp	x29, x30, [sp], #32
    245c:	d65f03c0 	ret

0000000000002460 <circular_buffer_read>:
    2460:	a9bc7bfd 	stp	x29, x30, [sp, #-64]!
    2464:	910003fd 	mov	x29, sp
    2468:	a90153f3 	stp	x19, x20, [sp, #16]
    246c:	aa0003f3 	mov	x19, x0
    2470:	a9025bf5 	stp	x21, x22, [sp, #32]
    2474:	aa0203f4 	mov	x20, x2
    2478:	aa0103f6 	mov	x22, x1
    247c:	b4000540 	cbz	x0, 2524 <circular_buffer_read+0xc4>
    2480:	b4000656 	cbz	x22, 2548 <circular_buffer_read+0xe8>
    2484:	aa1303e0 	mov	x0, x19
    2488:	97ffffda 	bl	23f0 <circular_buffer_used_size>
    248c:	f9400675 	ldr	x21, [x19, #8]
    2490:	eb14001f 	cmp	x0, x20
    2494:	f9400e61 	ldr	x1, [x19, #24]
    2498:	9a949014 	csel	x20, x0, x20, ls  // ls = plast
    249c:	cb0102b5 	sub	x21, x21, x1
    24a0:	eb1402bf 	cmp	x21, x20
    24a4:	540001c9 	b.ls	24dc <circular_buffer_read+0x7c>  // b.plast
    24a8:	f9400263 	ldr	x3, [x19]
    24ac:	aa1403e2 	mov	x2, x20
    24b0:	aa1603e0 	mov	x0, x22
    24b4:	8b010061 	add	x1, x3, x1
    24b8:	97fffdd6 	bl	1c10 <memcpy>
    24bc:	f9400e60 	ldr	x0, [x19, #24]
    24c0:	a9425bf5 	ldp	x21, x22, [sp, #32]
    24c4:	8b140000 	add	x0, x0, x20
    24c8:	f9000e60 	str	x0, [x19, #24]
    24cc:	aa1403e0 	mov	x0, x20
    24d0:	a94153f3 	ldp	x19, x20, [sp, #16]
    24d4:	a8c47bfd 	ldp	x29, x30, [sp], #64
    24d8:	d65f03c0 	ret
    24dc:	f9400263 	ldr	x3, [x19]
    24e0:	aa1503e2 	mov	x2, x21
    24e4:	f9001bb7 	str	x23, [x29, #48]
    24e8:	aa1603e0 	mov	x0, x22
    24ec:	8b010061 	add	x1, x3, x1
    24f0:	cb150297 	sub	x23, x20, x21
    24f4:	97fffdc7 	bl	1c10 <memcpy>
    24f8:	f9400261 	ldr	x1, [x19]
    24fc:	aa1703e2 	mov	x2, x23
    2500:	8b1502c0 	add	x0, x22, x21
    2504:	97fffdc3 	bl	1c10 <memcpy>
    2508:	f9000e77 	str	x23, [x19, #24]
    250c:	aa1403e0 	mov	x0, x20
    2510:	f9401bb7 	ldr	x23, [x29, #48]
    2514:	a94153f3 	ldp	x19, x20, [sp, #16]
    2518:	a9425bf5 	ldp	x21, x22, [sp, #32]
    251c:	a8c47bfd 	ldp	x29, x30, [sp], #64
    2520:	d65f03c0 	ret
    2524:	d01fffe0 	adrp	x0, 40000000 <__ram_begin>
    2528:	912ce000 	add	x0, x0, #0xb38
    252c:	940028c3 	bl	c838 <std_printf>
    2530:	d01fffe1 	adrp	x1, 40000000 <__ram_begin>
    2534:	528002c0 	mov	w0, #0x16                  	// #22
    2538:	f9400421 	ldr	x1, [x1, #8]
    253c:	d63f0020 	blr	x1
    2540:	b5fffa36 	cbnz	x22, 2484 <circular_buffer_read+0x24>
    2544:	d503201f 	nop
    2548:	d01fffe0 	adrp	x0, 40000000 <__ram_begin>
    254c:	912e8000 	add	x0, x0, #0xba0
    2550:	940028ba 	bl	c838 <std_printf>
    2554:	d01fffe1 	adrp	x1, 40000000 <__ram_begin>
    2558:	528002c0 	mov	w0, #0x16                  	// #22
    255c:	f9400421 	ldr	x1, [x1, #8]
    2560:	d63f0020 	blr	x1
    2564:	17ffffc8 	b	2484 <circular_buffer_read+0x24>

0000000000002568 <cmd_set_log_mask_cb>:
    2568:	a9bb7bfd 	stp	x29, x30, [sp, #-80]!
    256c:	71000c1f 	cmp	w0, #0x3
    2570:	910003fd 	mov	x29, sp
    2574:	f9001bf7 	str	x23, [sp, #48]
    2578:	aa0203f7 	mov	x23, x2
    257c:	540004a1 	b.ne	2610 <cmd_set_log_mask_cb+0xa8>  // b.any
    2580:	f9000fb4 	str	x20, [x29, #24]
    2584:	aa0103f4 	mov	x20, x1
    2588:	910123a1 	add	x1, x29, #0x48
    258c:	f9400a80 	ldr	x0, [x20, #16]
    2590:	94002a44 	bl	cea0 <std_strtol>
    2594:	b40005c0 	cbz	x0, 264c <cmd_set_log_mask_cb+0xe4>
    2598:	a9025bb5 	stp	x21, x22, [x29, #32]
    259c:	90200035 	adrp	x21, 40006000 <null+0x928>
    25a0:	912722a0 	add	x0, x21, #0x9c8
    25a4:	f9400694 	ldr	x20, [x20, #8]
    25a8:	52800016 	mov	w22, #0x0                   	// #0
    25ac:	f9000bb3 	str	x19, [x29, #16]
    25b0:	91006013 	add	x19, x0, #0x18
    25b4:	9100c000 	add	x0, x0, #0x30
    25b8:	9400254c 	bl	bae8 <mutex_lock>
    25bc:	d503201f 	nop
    25c0:	f9400260 	ldr	x0, [x19]
    25c4:	aa1403e1 	mov	x1, x20
    25c8:	97fffdfa 	bl	1db0 <strcmp>
    25cc:	350000a0 	cbnz	w0, 25e0 <cmd_set_log_mask_cb+0x78>
    25d0:	f94027a0 	ldr	x0, [x29, #72]
    25d4:	52800036 	mov	w22, #0x1                   	// #1
    25d8:	12001000 	and	w0, w0, #0x1f
    25dc:	39002260 	strb	w0, [x19, #8]
    25e0:	f9400a73 	ldr	x19, [x19, #16]
    25e4:	b5fffef3 	cbnz	x19, 25c0 <cmd_set_log_mask_cb+0x58>
    25e8:	912722a0 	add	x0, x21, #0x9c8
    25ec:	9100c000 	add	x0, x0, #0x30
    25f0:	94002568 	bl	bb90 <mutex_unlock>
    25f4:	52800000 	mov	w0, #0x0                   	// #0
    25f8:	34000196 	cbz	w22, 2628 <cmd_set_log_mask_cb+0xc0>
    25fc:	a94153b3 	ldp	x19, x20, [x29, #16]
    2600:	a9425bb5 	ldp	x21, x22, [x29, #32]
    2604:	f9401bf7 	ldr	x23, [sp, #48]
    2608:	a8c57bfd 	ldp	x29, x30, [sp], #80
    260c:	d65f03c0 	ret
    2610:	d01fffe1 	adrp	x1, 40000000 <__ram_begin>
    2614:	aa0203e0 	mov	x0, x2
    2618:	91386021 	add	x1, x1, #0xe18
    261c:	9400292b 	bl	cac8 <std_fprintf>
    2620:	128002a0 	mov	w0, #0xffffffea            	// #-22
    2624:	17fffff8 	b	2604 <cmd_set_log_mask_cb+0x9c>
    2628:	aa1403e2 	mov	x2, x20
    262c:	d01fffe1 	adrp	x1, 40000000 <__ram_begin>
    2630:	aa1703e0 	mov	x0, x23
    2634:	91396021 	add	x1, x1, #0xe58
    2638:	94002924 	bl	cac8 <std_fprintf>
    263c:	128002a0 	mov	w0, #0xffffffea            	// #-22
    2640:	a94153b3 	ldp	x19, x20, [x29, #16]
    2644:	a9425bb5 	ldp	x21, x22, [x29, #32]
    2648:	17ffffef 	b	2604 <cmd_set_log_mask_cb+0x9c>
    264c:	f9400a82 	ldr	x2, [x20, #16]
    2650:	d01fffe1 	adrp	x1, 40000000 <__ram_begin>
    2654:	aa1703e0 	mov	x0, x23
    2658:	91390021 	add	x1, x1, #0xe40
    265c:	9400291b 	bl	cac8 <std_fprintf>
    2660:	f9400fb4 	ldr	x20, [x29, #24]
    2664:	128002a0 	mov	w0, #0xffffffea            	// #-22
    2668:	17ffffe7 	b	2604 <cmd_set_log_mask_cb+0x9c>
    266c:	00000000 	.inst	0x00000000 ; undefined

0000000000002670 <cmd_list_cb>:
    2670:	a9bd7bfd 	stp	x29, x30, [sp, #-48]!
    2674:	7100041f 	cmp	w0, #0x1
    2678:	910003fd 	mov	x29, sp
    267c:	f90013f5 	str	x21, [sp, #32]
    2680:	aa0203f5 	mov	x21, x2
    2684:	540003e1 	b.ne	2700 <cmd_list_cb+0x90>  // b.any
    2688:	a90153b3 	stp	x19, x20, [x29, #16]
    268c:	d01ffff4 	adrp	x20, 40000000 <__ram_begin>
    2690:	f90017b6 	str	x22, [x29, #40]
    2694:	90200036 	adrp	x22, 40006000 <null+0x928>
    2698:	912722d3 	add	x19, x22, #0x9c8
    269c:	9137a294 	add	x20, x20, #0xde8
    26a0:	9100c260 	add	x0, x19, #0x30
    26a4:	94002511 	bl	bae8 <mutex_lock>
    26a8:	d01fffe1 	adrp	x1, 40000000 <__ram_begin>
    26ac:	aa1503e0 	mov	x0, x21
    26b0:	91006273 	add	x19, x19, #0x18
    26b4:	91372021 	add	x1, x1, #0xdc8
    26b8:	94002904 	bl	cac8 <std_fprintf>
    26bc:	d503201f 	nop
    26c0:	39402263 	ldrb	w3, [x19, #8]
    26c4:	aa1403e1 	mov	x1, x20
    26c8:	f9400262 	ldr	x2, [x19]
    26cc:	aa1503e0 	mov	x0, x21
    26d0:	940028fe 	bl	cac8 <std_fprintf>
    26d4:	f9400a73 	ldr	x19, [x19, #16]
    26d8:	b5ffff53 	cbnz	x19, 26c0 <cmd_list_cb+0x50>
    26dc:	912722c0 	add	x0, x22, #0x9c8
    26e0:	9100c000 	add	x0, x0, #0x30
    26e4:	9400252b 	bl	bb90 <mutex_unlock>
    26e8:	a94153b3 	ldp	x19, x20, [x29, #16]
    26ec:	52800000 	mov	w0, #0x0                   	// #0
    26f0:	f94017b6 	ldr	x22, [x29, #40]
    26f4:	f94013f5 	ldr	x21, [sp, #32]
    26f8:	a8c37bfd 	ldp	x29, x30, [sp], #48
    26fc:	d65f03c0 	ret
    2700:	d01fffe1 	adrp	x1, 40000000 <__ram_begin>
    2704:	aa0203e0 	mov	x0, x2
    2708:	9136e021 	add	x1, x1, #0xdb8
    270c:	940028ef 	bl	cac8 <std_fprintf>
    2710:	128002a0 	mov	w0, #0xffffffea            	// #-22
    2714:	17fffff8 	b	26f4 <cmd_list_cb+0x84>

0000000000002718 <log_module_init>:
    2718:	90200021 	adrp	x1, 40006000 <null+0x928>
    271c:	39e72020 	ldrsb	w0, [x1, #2504]
    2720:	7100041f 	cmp	w0, #0x1
    2724:	54000660 	b.eq	27f0 <log_module_init+0xd8>  // b.none
    2728:	a9be7bfd 	stp	x29, x30, [sp, #-32]!
    272c:	52800022 	mov	w2, #0x1                   	// #1
    2730:	910003fd 	mov	x29, sp
    2734:	a90153f3 	stp	x19, x20, [sp, #16]
    2738:	91272033 	add	x19, x1, #0x9c8
    273c:	39272022 	strb	w2, [x1, #2504]
    2740:	9100c260 	add	x0, x19, #0x30
    2744:	940024e1 	bl	bac8 <mutex_init>
    2748:	91010274 	add	x20, x19, #0x40
    274c:	94000bc7 	bl	5668 <sys_get_stdout>
    2750:	a900fe60 	stp	x0, xzr, [x19, #8]
    2754:	528001e4 	mov	w4, #0xf                   	// #15
    2758:	90000002 	adrp	x2, 2000 <circular_heap_init+0x98>
    275c:	d01fffe1 	adrp	x1, 40000000 <__ram_begin>
    2760:	91276042 	add	x2, x2, #0x9d8
    2764:	913b4021 	add	x1, x1, #0xed0
    2768:	d2800003 	mov	x3, #0x0                   	// #0
    276c:	d01fffe0 	adrp	x0, 40000000 <__ram_begin>
    2770:	913b2000 	add	x0, x0, #0xec8
    2774:	f9000e60 	str	x0, [x19, #24]
    2778:	aa1403e0 	mov	x0, x20
    277c:	39008264 	strb	w4, [x19, #32]
    2780:	f900167f 	str	xzr, [x19, #40]
    2784:	940022ef 	bl	b340 <fs_command_init>
    2788:	aa1403e0 	mov	x0, x20
    278c:	9400231f 	bl	b408 <fs_command_register>
    2790:	90000002 	adrp	x2, 2000 <circular_heap_init+0x98>
    2794:	d01fffe1 	adrp	x1, 40000000 <__ram_begin>
    2798:	9119c042 	add	x2, x2, #0x670
    279c:	913ba021 	add	x1, x1, #0xee8
    27a0:	91018274 	add	x20, x19, #0x60
    27a4:	d2800003 	mov	x3, #0x0                   	// #0
    27a8:	aa1403e0 	mov	x0, x20
    27ac:	940022e5 	bl	b340 <fs_command_init>
    27b0:	aa1403e0 	mov	x0, x20
    27b4:	94002315 	bl	b408 <fs_command_register>
    27b8:	90000002 	adrp	x2, 2000 <circular_heap_init+0x98>
    27bc:	d01fffe1 	adrp	x1, 40000000 <__ram_begin>
    27c0:	9115a042 	add	x2, x2, #0x568
    27c4:	913be021 	add	x1, x1, #0xef8
    27c8:	91020273 	add	x19, x19, #0x80
    27cc:	d2800003 	mov	x3, #0x0                   	// #0
    27d0:	aa1303e0 	mov	x0, x19
    27d4:	940022db 	bl	b340 <fs_command_init>
    27d8:	aa1303e0 	mov	x0, x19
    27dc:	9400230b 	bl	b408 <fs_command_register>
    27e0:	52800000 	mov	w0, #0x0                   	// #0
    27e4:	a94153f3 	ldp	x19, x20, [sp, #16]
    27e8:	a8c27bfd 	ldp	x29, x30, [sp], #32
    27ec:	d65f03c0 	ret
    27f0:	52800000 	mov	w0, #0x0                   	// #0
    27f4:	d65f03c0 	ret

00000000000027f8 <log_set_default_handler_output_channel>:
    27f8:	90200021 	adrp	x1, 40006000 <null+0x928>
    27fc:	f904e820 	str	x0, [x1, #2512]
    2800:	52800000 	mov	w0, #0x0                   	// #0
    2804:	d65f03c0 	ret

0000000000002808 <log_object_print>:
    2808:	a9b37bfd 	stp	x29, x30, [sp, #-208]!
    280c:	910003fd 	mov	x29, sp
    2810:	f9000bf3 	str	x19, [sp, #16]
    2814:	aa0003f3 	mov	x19, x0
    2818:	a9025bf5 	stp	x21, x22, [sp, #32]
    281c:	2a0103f6 	mov	w22, w1
    2820:	f9001bf7 	str	x23, [sp, #48]
    2824:	aa0203f7 	mov	x23, x2
    2828:	a90a93a3 	stp	x3, x4, [x29, #168]
    282c:	a90b9ba5 	stp	x5, x6, [x29, #184]
    2830:	f90067a7 	str	x7, [x29, #200]
    2834:	b4000a82 	cbz	x2, 2984 <log_object_print+0x17c>
    2838:	b4000b93 	cbz	x19, 29a8 <log_object_print+0x1a0>
    283c:	39402260 	ldrb	w0, [x19, #8]
    2840:	1ad62800 	asr	w0, w0, w22
    2844:	36000920 	tbz	w0, #0, 2968 <log_object_print+0x160>
    2848:	f9400260 	ldr	x0, [x19]
    284c:	f9000fb4 	str	x20, [x29, #24]
    2850:	a903e7b8 	stp	x24, x25, [x29, #56]
    2854:	a904efba 	stp	x26, x27, [x29, #72]
    2858:	f9002fbc 	str	x28, [x29, #88]
    285c:	f90037a0 	str	x0, [x29, #104]
    2860:	90200020 	adrp	x0, 40006000 <null+0x928>
    2864:	91272013 	add	x19, x0, #0x9c8
    2868:	9100c260 	add	x0, x19, #0x30
    286c:	d01ffff9 	adrp	x25, 40000000 <__ram_begin>
    2870:	d01ffff8 	adrp	x24, 40000000 <__ram_begin>
    2874:	91002273 	add	x19, x19, #0x8
    2878:	9139e339 	add	x25, x25, #0xe78
    287c:	913dc318 	add	x24, x24, #0xf70
    2880:	52800015 	mov	w21, #0x0                   	// #0
    2884:	94002499 	bl	bae8 <mutex_lock>
    2888:	9101e3a0 	add	x0, x29, #0x78
    288c:	94000f07 	bl	64a8 <time_get>
    2890:	f9400274 	ldr	x20, [x19]
    2894:	52800021 	mov	w1, #0x1                   	// #1
    2898:	aa1403e0 	mov	x0, x20
    289c:	b4000474 	cbz	x20, 2928 <log_object_print+0x120>
    28a0:	9400244e 	bl	b9d8 <chan_control>
    28a4:	f876db3c 	ldr	x28, [x25, w22, sxtw #3]
    28a8:	d2869b60 	mov	x0, #0x34db                	// #13531
    28ac:	b9807fa3 	ldrsw	x3, [x29, #124]
    28b0:	f2baf6c0 	movk	x0, #0xd7b6, lsl #16
    28b4:	b9407bba 	ldr	w26, [x29, #120]
    28b8:	f2dbd040 	movk	x0, #0xde82, lsl #32
    28bc:	110006b5 	add	w21, w21, #0x1
    28c0:	f2e86360 	movk	x0, #0x431b, lsl #48
    28c4:	9bc07c63 	umulh	x3, x3, x0
    28c8:	d352fc7b 	lsr	x27, x3, #18
    28cc:	94000c27 	bl	5968 <thrd_get_name>
    28d0:	aa0003e5 	mov	x5, x0
    28d4:	f94037a6 	ldr	x6, [x29, #104]
    28d8:	aa1c03e4 	mov	x4, x28
    28dc:	aa1b03e3 	mov	x3, x27
    28e0:	2a1a03e2 	mov	w2, w26
    28e4:	aa1803e1 	mov	x1, x24
    28e8:	aa1403e0 	mov	x0, x20
    28ec:	94002877 	bl	cac8 <std_fprintf>
    28f0:	b9009fbf 	str	wzr, [x29, #156]
    28f4:	910283a3 	add	x3, x29, #0xa0
    28f8:	910343a0 	add	x0, x29, #0xd0
    28fc:	910203a2 	add	x2, x29, #0x80
    2900:	a90803a0 	stp	x0, x0, [x29, #128]
    2904:	128004e0 	mov	w0, #0xffffffd8            	// #-40
    2908:	aa1703e1 	mov	x1, x23
    290c:	f9004ba3 	str	x3, [x29, #144]
    2910:	b9009ba0 	str	w0, [x29, #152]
    2914:	aa1403e0 	mov	x0, x20
    2918:	9400289a 	bl	cb80 <std_vfprintf>
    291c:	52800041 	mov	w1, #0x2                   	// #2
    2920:	aa1403e0 	mov	x0, x20
    2924:	9400242d 	bl	b9d8 <chan_control>
    2928:	f9400673 	ldr	x19, [x19, #8]
    292c:	b5fffb33 	cbnz	x19, 2890 <log_object_print+0x88>
    2930:	90200020 	adrp	x0, 40006000 <null+0x928>
    2934:	91272000 	add	x0, x0, #0x9c8
    2938:	9100c000 	add	x0, x0, #0x30
    293c:	94002495 	bl	bb90 <mutex_unlock>
    2940:	2a1503e0 	mov	w0, w21
    2944:	f9400fb4 	ldr	x20, [x29, #24]
    2948:	a943e7b8 	ldp	x24, x25, [x29, #56]
    294c:	a944efba 	ldp	x26, x27, [x29, #72]
    2950:	f9402fbc 	ldr	x28, [x29, #88]
    2954:	f9400bf3 	ldr	x19, [sp, #16]
    2958:	a9425bf5 	ldp	x21, x22, [sp, #32]
    295c:	f9401bf7 	ldr	x23, [sp, #48]
    2960:	a8cd7bfd 	ldp	x29, x30, [sp], #208
    2964:	d65f03c0 	ret
    2968:	52800015 	mov	w21, #0x0                   	// #0
    296c:	f9400bf3 	ldr	x19, [sp, #16]
    2970:	2a1503e0 	mov	w0, w21
    2974:	f9401bf7 	ldr	x23, [sp, #48]
    2978:	a9425bf5 	ldp	x21, x22, [sp, #32]
    297c:	a8cd7bfd 	ldp	x29, x30, [sp], #208
    2980:	d65f03c0 	ret
    2984:	d01fffe0 	adrp	x0, 40000000 <__ram_begin>
    2988:	913c6000 	add	x0, x0, #0xf18
    298c:	940027ab 	bl	c838 <std_printf>
    2990:	d01fffe1 	adrp	x1, 40000000 <__ram_begin>
    2994:	528002c0 	mov	w0, #0x16                  	// #22
    2998:	f9400421 	ldr	x1, [x1, #8]
    299c:	d63f0020 	blr	x1
    29a0:	b5fff4f3 	cbnz	x19, 283c <log_object_print+0x34>
    29a4:	d503201f 	nop
    29a8:	94000c2e 	bl	5a60 <thrd_get_log_mask>
    29ac:	1ad62800 	asr	w0, w0, w22
    29b0:	3607fdc0 	tbz	w0, #0, 2968 <log_object_print+0x160>
    29b4:	f9000fb4 	str	x20, [x29, #24]
    29b8:	a903e7b8 	stp	x24, x25, [x29, #56]
    29bc:	a904efba 	stp	x26, x27, [x29, #72]
    29c0:	d01ffffb 	adrp	x27, 40000000 <__ram_begin>
    29c4:	f9002fbc 	str	x28, [x29, #88]
    29c8:	913c4360 	add	x0, x27, #0xf10
    29cc:	f90037a0 	str	x0, [x29, #104]
    29d0:	17ffffa4 	b	2860 <log_object_print+0x58>
    29d4:	00000000 	.inst	0x00000000 ; undefined

00000000000029d8 <cmd_print_cb>:
    29d8:	a9bf7bfd 	stp	x29, x30, [sp, #-16]!
    29dc:	7100081f 	cmp	w0, #0x2
    29e0:	910003fd 	mov	x29, sp
    29e4:	54000181 	b.ne	2a14 <cmd_print_cb+0x3c>  // b.any
    29e8:	f9400423 	ldr	x3, [x1, #8]
    29ec:	90200020 	adrp	x0, 40006000 <null+0x928>
    29f0:	91272000 	add	x0, x0, #0x9c8
    29f4:	d01fffe2 	adrp	x2, 40000000 <__ram_begin>
    29f8:	91006000 	add	x0, x0, #0x18
    29fc:	91384042 	add	x2, x2, #0xe10
    2a00:	52800061 	mov	w1, #0x3                   	// #3
    2a04:	97ffff81 	bl	2808 <log_object_print>
    2a08:	52800000 	mov	w0, #0x0                   	// #0
    2a0c:	a8c17bfd 	ldp	x29, x30, [sp], #16
    2a10:	d65f03c0 	ret
    2a14:	d01fffe1 	adrp	x1, 40000000 <__ram_begin>
    2a18:	aa0203e0 	mov	x0, x2
    2a1c:	9137e021 	add	x1, x1, #0xdf8
    2a20:	9400282a 	bl	cac8 <std_fprintf>
    2a24:	128002a0 	mov	w0, #0xffffffea            	// #-22
    2a28:	17fffff9 	b	2a0c <cmd_print_cb+0x34>
    2a2c:	00000000 	.inst	0x00000000 ; undefined

0000000000002a30 <cmd_read_cb>:
    2a30:	a9bd7bfd 	stp	x29, x30, [sp, #-48]!
    2a34:	7100081f 	cmp	w0, #0x2
    2a38:	910003fd 	mov	x29, sp
    2a3c:	f9000bf3 	str	x19, [sp, #16]
    2a40:	f90013f5 	str	x21, [sp, #32]
    2a44:	aa0203f5 	mov	x21, x2
    2a48:	540003a1 	b.ne	2abc <cmd_read_cb+0x8c>  // b.any
    2a4c:	f9400420 	ldr	x0, [x1, #8]
    2a50:	f9000fb4 	str	x20, [x29, #24]
    2a54:	aa0103f4 	mov	x20, x1
    2a58:	97fffc30 	bl	1b18 <board_pin_string_to_device_index>
    2a5c:	2a0003f3 	mov	w19, w0
    2a60:	37f80180 	tbnz	w0, #31, 2a90 <cmd_read_cb+0x60>
    2a64:	d01fffe1 	adrp	x1, 40000000 <__ram_begin>
    2a68:	aa1503e0 	mov	x0, x21
    2a6c:	913ec021 	add	x1, x1, #0xfb0
    2a70:	94002816 	bl	cac8 <std_fprintf>
    2a74:	f9400fb4 	ldr	x20, [x29, #24]
    2a78:	52800013 	mov	w19, #0x0                   	// #0
    2a7c:	2a1303e0 	mov	w0, w19
    2a80:	f9400bf3 	ldr	x19, [sp, #16]
    2a84:	f94013f5 	ldr	x21, [sp, #32]
    2a88:	a8c37bfd 	ldp	x29, x30, [sp], #48
    2a8c:	d65f03c0 	ret
    2a90:	f9400682 	ldr	x2, [x20, #8]
    2a94:	aa1503e0 	mov	x0, x21
    2a98:	d01fffe1 	adrp	x1, 40000000 <__ram_begin>
    2a9c:	913e8021 	add	x1, x1, #0xfa0
    2aa0:	9400280a 	bl	cac8 <std_fprintf>
    2aa4:	f9400fb4 	ldr	x20, [x29, #24]
    2aa8:	2a1303e0 	mov	w0, w19
    2aac:	f9400bf3 	ldr	x19, [sp, #16]
    2ab0:	f94013f5 	ldr	x21, [sp, #32]
    2ab4:	a8c37bfd 	ldp	x29, x30, [sp], #48
    2ab8:	d65f03c0 	ret
    2abc:	d01fffe1 	adrp	x1, 40000000 <__ram_begin>
    2ac0:	aa0203e0 	mov	x0, x2
    2ac4:	913e2021 	add	x1, x1, #0xf88
    2ac8:	128002b3 	mov	w19, #0xffffffea            	// #-22
    2acc:	940027ff 	bl	cac8 <std_fprintf>
    2ad0:	17ffffeb 	b	2a7c <cmd_read_cb+0x4c>
    2ad4:	00000000 	.inst	0x00000000 ; undefined

0000000000002ad8 <cmd_write_cb>:
    2ad8:	a9bd7bfd 	stp	x29, x30, [sp, #-48]!
    2adc:	71000c1f 	cmp	w0, #0x3
    2ae0:	910003fd 	mov	x29, sp
    2ae4:	f9000bf3 	str	x19, [sp, #16]
    2ae8:	f90013f5 	str	x21, [sp, #32]
    2aec:	aa0203f5 	mov	x21, x2
    2af0:	54000561 	b.ne	2b9c <cmd_write_cb+0xc4>  // b.any
    2af4:	f9400420 	ldr	x0, [x1, #8]
    2af8:	f9000fb4 	str	x20, [x29, #24]
    2afc:	aa0103f4 	mov	x20, x1
    2b00:	97fffc06 	bl	1b18 <board_pin_string_to_device_index>
    2b04:	2a0003f3 	mov	w19, w0
    2b08:	37f80340 	tbnz	w0, #31, 2b70 <cmd_write_cb+0x98>
    2b0c:	f9400a80 	ldr	x0, [x20, #16]
    2b10:	f01fffe1 	adrp	x1, 40001000 <level_warning+0x140>
    2b14:	9101c021 	add	x1, x1, #0x70
    2b18:	97fffca6 	bl	1db0 <strcmp>
    2b1c:	35000100 	cbnz	w0, 2b3c <cmd_write_cb+0x64>
    2b20:	f9400fb4 	ldr	x20, [x29, #24]
    2b24:	52800013 	mov	w19, #0x0                   	// #0
    2b28:	2a1303e0 	mov	w0, w19
    2b2c:	f9400bf3 	ldr	x19, [sp, #16]
    2b30:	f94013f5 	ldr	x21, [sp, #32]
    2b34:	a8c37bfd 	ldp	x29, x30, [sp], #48
    2b38:	d65f03c0 	ret
    2b3c:	f9400a80 	ldr	x0, [x20, #16]
    2b40:	f01fffe1 	adrp	x1, 40001000 <level_warning+0x140>
    2b44:	9101e021 	add	x1, x1, #0x78
    2b48:	97fffc9a 	bl	1db0 <strcmp>
    2b4c:	34fffea0 	cbz	w0, 2b20 <cmd_write_cb+0x48>
    2b50:	f9400a82 	ldr	x2, [x20, #16]
    2b54:	f01fffe1 	adrp	x1, 40001000 <level_warning+0x140>
    2b58:	aa1503e0 	mov	x0, x21
    2b5c:	91020021 	add	x1, x1, #0x80
    2b60:	128002b3 	mov	w19, #0xffffffea            	// #-22
    2b64:	940027d9 	bl	cac8 <std_fprintf>
    2b68:	f9400fb4 	ldr	x20, [x29, #24]
    2b6c:	17ffffef 	b	2b28 <cmd_write_cb+0x50>
    2b70:	f9400682 	ldr	x2, [x20, #8]
    2b74:	aa1503e0 	mov	x0, x21
    2b78:	d01fffe1 	adrp	x1, 40000000 <__ram_begin>
    2b7c:	913e8021 	add	x1, x1, #0xfa0
    2b80:	940027d2 	bl	cac8 <std_fprintf>
    2b84:	f9400fb4 	ldr	x20, [x29, #24]
    2b88:	2a1303e0 	mov	w0, w19
    2b8c:	f9400bf3 	ldr	x19, [sp, #16]
    2b90:	f94013f5 	ldr	x21, [sp, #32]
    2b94:	a8c37bfd 	ldp	x29, x30, [sp], #48
    2b98:	d65f03c0 	ret
    2b9c:	f01fffe1 	adrp	x1, 40001000 <level_warning+0x140>
    2ba0:	aa0203e0 	mov	x0, x2
    2ba4:	91014021 	add	x1, x1, #0x50
    2ba8:	128002b3 	mov	w19, #0xffffffea            	// #-22
    2bac:	940027c7 	bl	cac8 <std_fprintf>
    2bb0:	17ffffde 	b	2b28 <cmd_write_cb+0x50>
    2bb4:	00000000 	.inst	0x00000000 ; undefined

0000000000002bb8 <cmd_set_mode_cb>:
    2bb8:	a9bd7bfd 	stp	x29, x30, [sp, #-48]!
    2bbc:	71000c1f 	cmp	w0, #0x3
    2bc0:	910003fd 	mov	x29, sp
    2bc4:	f9000bf3 	str	x19, [sp, #16]
    2bc8:	f90013f5 	str	x21, [sp, #32]
    2bcc:	aa0203f5 	mov	x21, x2
    2bd0:	540007e1 	b.ne	2ccc <cmd_set_mode_cb+0x114>  // b.any
    2bd4:	f9400420 	ldr	x0, [x1, #8]
    2bd8:	f9000fb4 	str	x20, [x29, #24]
    2bdc:	aa0103f4 	mov	x20, x1
    2be0:	97fffbce 	bl	1b18 <board_pin_string_to_device_index>
    2be4:	2a0003f3 	mov	w19, w0
    2be8:	37f805c0 	tbnz	w0, #31, 2ca0 <cmd_set_mode_cb+0xe8>
    2bec:	f9400a80 	ldr	x0, [x20, #16]
    2bf0:	d01fffe1 	adrp	x1, 40000000 <__ram_begin>
    2bf4:	913f6021 	add	x1, x1, #0xfd8
    2bf8:	97fffc6e 	bl	1db0 <strcmp>
    2bfc:	35000100 	cbnz	w0, 2c1c <cmd_set_mode_cb+0x64>
    2c00:	f9400fb4 	ldr	x20, [x29, #24]
    2c04:	52800013 	mov	w19, #0x0                   	// #0
    2c08:	2a1303e0 	mov	w0, w19
    2c0c:	f9400bf3 	ldr	x19, [sp, #16]
    2c10:	f94013f5 	ldr	x21, [sp, #32]
    2c14:	a8c37bfd 	ldp	x29, x30, [sp], #48
    2c18:	d65f03c0 	ret
    2c1c:	f9400a80 	ldr	x0, [x20, #16]
    2c20:	d01fffe1 	adrp	x1, 40000000 <__ram_begin>
    2c24:	913f8021 	add	x1, x1, #0xfe0
    2c28:	97fffc62 	bl	1db0 <strcmp>
    2c2c:	34fffea0 	cbz	w0, 2c00 <cmd_set_mode_cb+0x48>
    2c30:	f9400a80 	ldr	x0, [x20, #16]
    2c34:	d01fffe1 	adrp	x1, 40000000 <__ram_begin>
    2c38:	913fe021 	add	x1, x1, #0xff8
    2c3c:	97fffc5d 	bl	1db0 <strcmp>
    2c40:	34fffe00 	cbz	w0, 2c00 <cmd_set_mode_cb+0x48>
    2c44:	f9400a80 	ldr	x0, [x20, #16]
    2c48:	f01fffe1 	adrp	x1, 40001000 <level_warning+0x140>
    2c4c:	91006021 	add	x1, x1, #0x18
    2c50:	97fffc58 	bl	1db0 <strcmp>
    2c54:	34fffd60 	cbz	w0, 2c00 <cmd_set_mode_cb+0x48>
    2c58:	f9400a80 	ldr	x0, [x20, #16]
    2c5c:	f01fffe1 	adrp	x1, 40001000 <level_warning+0x140>
    2c60:	91008021 	add	x1, x1, #0x20
    2c64:	97fffc53 	bl	1db0 <strcmp>
    2c68:	34fffcc0 	cbz	w0, 2c00 <cmd_set_mode_cb+0x48>
    2c6c:	f9400a80 	ldr	x0, [x20, #16]
    2c70:	f01fffe1 	adrp	x1, 40001000 <level_warning+0x140>
    2c74:	9100c021 	add	x1, x1, #0x30
    2c78:	97fffc4e 	bl	1db0 <strcmp>
    2c7c:	34fffc20 	cbz	w0, 2c00 <cmd_set_mode_cb+0x48>
    2c80:	f9400a82 	ldr	x2, [x20, #16]
    2c84:	f01fffe1 	adrp	x1, 40001000 <level_warning+0x140>
    2c88:	aa1503e0 	mov	x0, x21
    2c8c:	91010021 	add	x1, x1, #0x40
    2c90:	128002b3 	mov	w19, #0xffffffea            	// #-22
    2c94:	9400278d 	bl	cac8 <std_fprintf>
    2c98:	f9400fb4 	ldr	x20, [x29, #24]
    2c9c:	17ffffdb 	b	2c08 <cmd_set_mode_cb+0x50>
    2ca0:	f9400682 	ldr	x2, [x20, #8]
    2ca4:	aa1503e0 	mov	x0, x21
    2ca8:	d01fffe1 	adrp	x1, 40000000 <__ram_begin>
    2cac:	913e8021 	add	x1, x1, #0xfa0
    2cb0:	94002786 	bl	cac8 <std_fprintf>
    2cb4:	f9400fb4 	ldr	x20, [x29, #24]
    2cb8:	2a1303e0 	mov	w0, w19
    2cbc:	f9400bf3 	ldr	x19, [sp, #16]
    2cc0:	f94013f5 	ldr	x21, [sp, #32]
    2cc4:	a8c37bfd 	ldp	x29, x30, [sp], #48
    2cc8:	d65f03c0 	ret
    2ccc:	d01fffe1 	adrp	x1, 40000000 <__ram_begin>
    2cd0:	aa0203e0 	mov	x0, x2
    2cd4:	913ee021 	add	x1, x1, #0xfb8
    2cd8:	128002b3 	mov	w19, #0xffffffea            	// #-22
    2cdc:	9400277b 	bl	cac8 <std_fprintf>
    2ce0:	17ffffca 	b	2c08 <cmd_set_mode_cb+0x50>
    2ce4:	00000000 	.inst	0x00000000 ; undefined

0000000000002ce8 <pin_module_init>:
    2ce8:	d0200024 	adrp	x4, 40008000 <module>
    2cec:	39c9c080 	ldrsb	w0, [x4, #624]
    2cf0:	7100041f 	cmp	w0, #0x1
    2cf4:	54000560 	b.eq	2da0 <pin_module_init+0xb8>  // b.none
    2cf8:	a9be7bfd 	stp	x29, x30, [sp, #-32]!
    2cfc:	52800025 	mov	w5, #0x1                   	// #1
    2d00:	90000002 	adrp	x2, 2000 <circular_heap_init+0x98>
    2d04:	f01fffe1 	adrp	x1, 40001000 <level_warning+0x140>
    2d08:	910003fd 	mov	x29, sp
    2d0c:	912ee042 	add	x2, x2, #0xbb8
    2d10:	91024021 	add	x1, x1, #0x90
    2d14:	f9000bf3 	str	x19, [sp, #16]
    2d18:	d2800003 	mov	x3, #0x0                   	// #0
    2d1c:	d0200033 	adrp	x19, 40008000 <module>
    2d20:	9109e273 	add	x19, x19, #0x278
    2d24:	3909c085 	strb	w5, [x4, #624]
    2d28:	aa1303e0 	mov	x0, x19
    2d2c:	94002185 	bl	b340 <fs_command_init>
    2d30:	aa1303e0 	mov	x0, x19
    2d34:	940021b5 	bl	b408 <fs_command_register>
    2d38:	90000002 	adrp	x2, 2000 <circular_heap_init+0x98>
    2d3c:	f01fffe1 	adrp	x1, 40001000 <level_warning+0x140>
    2d40:	9128c042 	add	x2, x2, #0xa30
    2d44:	9102a021 	add	x1, x1, #0xa8
    2d48:	d2800003 	mov	x3, #0x0                   	// #0
    2d4c:	d0200033 	adrp	x19, 40008000 <module>
    2d50:	910a6273 	add	x19, x19, #0x298
    2d54:	aa1303e0 	mov	x0, x19
    2d58:	9400217a 	bl	b340 <fs_command_init>
    2d5c:	aa1303e0 	mov	x0, x19
    2d60:	940021aa 	bl	b408 <fs_command_register>
    2d64:	90000002 	adrp	x2, 2000 <circular_heap_init+0x98>
    2d68:	f01fffe1 	adrp	x1, 40001000 <level_warning+0x140>
    2d6c:	912b6042 	add	x2, x2, #0xad8
    2d70:	91030021 	add	x1, x1, #0xc0
    2d74:	d2800003 	mov	x3, #0x0                   	// #0
    2d78:	d0200033 	adrp	x19, 40008000 <module>
    2d7c:	910ae273 	add	x19, x19, #0x2b8
    2d80:	aa1303e0 	mov	x0, x19
    2d84:	9400216f 	bl	b340 <fs_command_init>
    2d88:	aa1303e0 	mov	x0, x19
    2d8c:	9400219f 	bl	b408 <fs_command_register>
    2d90:	52800000 	mov	w0, #0x0                   	// #0
    2d94:	f9400bf3 	ldr	x19, [sp, #16]
    2d98:	a8c27bfd 	ldp	x29, x30, [sp], #32
    2d9c:	d65f03c0 	ret
    2da0:	52800000 	mov	w0, #0x0                   	// #0
    2da4:	d65f03c0 	ret

0000000000002da8 <pin_read>:
    2da8:	b4000060 	cbz	x0, 2db4 <pin_read+0xc>
    2dac:	128004a0 	mov	w0, #0xffffffda            	// #-38
    2db0:	d65f03c0 	ret
    2db4:	a9bf7bfd 	stp	x29, x30, [sp, #-16]!
    2db8:	f01fffe0 	adrp	x0, 40001000 <level_warning+0x140>
    2dbc:	91036000 	add	x0, x0, #0xd8
    2dc0:	910003fd 	mov	x29, sp
    2dc4:	9400269d 	bl	c838 <std_printf>
    2dc8:	d01fffe1 	adrp	x1, 40000000 <__ram_begin>
    2dcc:	528002c0 	mov	w0, #0x16                  	// #22
    2dd0:	f9400421 	ldr	x1, [x1, #8]
    2dd4:	d63f0020 	blr	x1
    2dd8:	128004a0 	mov	w0, #0xffffffda            	// #-38
    2ddc:	a8c17bfd 	ldp	x29, x30, [sp], #16
    2de0:	d65f03c0 	ret
    2de4:	00000000 	.inst	0x00000000 ; undefined

0000000000002de8 <pin_write>:
    2de8:	b4000060 	cbz	x0, 2df4 <pin_write+0xc>
    2dec:	52800000 	mov	w0, #0x0                   	// #0
    2df0:	d65f03c0 	ret
    2df4:	a9bf7bfd 	stp	x29, x30, [sp, #-16]!
    2df8:	f01fffe0 	adrp	x0, 40001000 <level_warning+0x140>
    2dfc:	91066000 	add	x0, x0, #0x198
    2e00:	910003fd 	mov	x29, sp
    2e04:	9400268d 	bl	c838 <std_printf>
    2e08:	d01fffe1 	adrp	x1, 40000000 <__ram_begin>
    2e0c:	528002c0 	mov	w0, #0x16                  	// #22
    2e10:	f9400421 	ldr	x1, [x1, #8]
    2e14:	d63f0020 	blr	x1
    2e18:	52800000 	mov	w0, #0x0                   	// #0
    2e1c:	a8c17bfd 	ldp	x29, x30, [sp], #16
    2e20:	d65f03c0 	ret
    2e24:	00000000 	.inst	0x00000000 ; undefined

0000000000002e28 <pin_set_mode>:
    2e28:	b4000060 	cbz	x0, 2e34 <pin_set_mode+0xc>
    2e2c:	128004a0 	mov	w0, #0xffffffda            	// #-38
    2e30:	d65f03c0 	ret
    2e34:	a9bf7bfd 	stp	x29, x30, [sp, #-16]!
    2e38:	f01fffe0 	adrp	x0, 40001000 <level_warning+0x140>
    2e3c:	9104e000 	add	x0, x0, #0x138
    2e40:	910003fd 	mov	x29, sp
    2e44:	9400267d 	bl	c838 <std_printf>
    2e48:	d01fffe1 	adrp	x1, 40000000 <__ram_begin>
    2e4c:	528002c0 	mov	w0, #0x16                  	// #22
    2e50:	f9400421 	ldr	x1, [x1, #8]
    2e54:	d63f0020 	blr	x1
    2e58:	128004a0 	mov	w0, #0xffffffda            	// #-38
    2e5c:	a8c17bfd 	ldp	x29, x30, [sp], #16
    2e60:	d65f03c0 	ret
    2e64:	00000000 	.inst	0x00000000 ; undefined

0000000000002e68 <i2c_module_init>:
    2e68:	90200024 	adrp	x4, 40006000 <null+0x928>
    2e6c:	39e9a080 	ldrsb	w0, [x4, #2664]
    2e70:	7100041f 	cmp	w0, #0x1
    2e74:	54000500 	b.eq	2f14 <i2c_module_init+0xac>  // b.none
    2e78:	a9be7bfd 	stp	x29, x30, [sp, #-32]!
    2e7c:	52800025 	mov	w5, #0x1                   	// #1
    2e80:	b0000002 	adrp	x2, 3000 <i2c_read+0x40>
    2e84:	f01fffe1 	adrp	x1, 40001000 <level_warning+0x140>
    2e88:	910003fd 	mov	x29, sp
    2e8c:	a90153f3 	stp	x19, x20, [sp, #16]
    2e90:	91024042 	add	x2, x2, #0x90
    2e94:	9129a093 	add	x19, x4, #0xa68
    2e98:	910fc021 	add	x1, x1, #0x3f0
    2e9c:	91002274 	add	x20, x19, #0x8
    2ea0:	d2800003 	mov	x3, #0x0                   	// #0
    2ea4:	3929a085 	strb	w5, [x4, #2664]
    2ea8:	aa1403e0 	mov	x0, x20
    2eac:	94002125 	bl	b340 <fs_command_init>
    2eb0:	aa1403e0 	mov	x0, x20
    2eb4:	94002155 	bl	b408 <fs_command_register>
    2eb8:	b0000002 	adrp	x2, 3000 <i2c_read+0x40>
    2ebc:	f01fffe1 	adrp	x1, 40001000 <level_warning+0x140>
    2ec0:	9108c042 	add	x2, x2, #0x230
    2ec4:	91102021 	add	x1, x1, #0x408
    2ec8:	9100a274 	add	x20, x19, #0x28
    2ecc:	d2800003 	mov	x3, #0x0                   	// #0
    2ed0:	aa1403e0 	mov	x0, x20
    2ed4:	9400211b 	bl	b340 <fs_command_init>
    2ed8:	aa1403e0 	mov	x0, x20
    2edc:	9400214b 	bl	b408 <fs_command_register>
    2ee0:	b0000002 	adrp	x2, 3000 <i2c_read+0x40>
    2ee4:	f01fffe1 	adrp	x1, 40001000 <level_warning+0x140>
    2ee8:	910ee042 	add	x2, x2, #0x3b8
    2eec:	91108021 	add	x1, x1, #0x420
    2ef0:	d2800003 	mov	x3, #0x0                   	// #0
    2ef4:	91012273 	add	x19, x19, #0x48
    2ef8:	aa1303e0 	mov	x0, x19
    2efc:	94002111 	bl	b340 <fs_command_init>
    2f00:	aa1303e0 	mov	x0, x19
    2f04:	94002141 	bl	b408 <fs_command_register>
    2f08:	a94153f3 	ldp	x19, x20, [sp, #16]
    2f0c:	a8c27bfd 	ldp	x29, x30, [sp], #32
    2f10:	14000190 	b	3550 <i2c_soft_module_init>
    2f14:	52800000 	mov	w0, #0x0                   	// #0
    2f18:	d65f03c0 	ret
    2f1c:	00000000 	.inst	0x00000000 ; undefined

0000000000002f20 <i2c_init>:
    2f20:	a9bd7bfd 	stp	x29, x30, [sp, #-48]!
    2f24:	910003fd 	mov	x29, sp
    2f28:	a90153f3 	stp	x19, x20, [sp, #16]
    2f2c:	aa0003f4 	mov	x20, x0
    2f30:	f90013f5 	str	x21, [sp, #32]
    2f34:	aa0103f3 	mov	x19, x1
    2f38:	2a0203f5 	mov	w21, w2
    2f3c:	b4000140 	cbz	x0, 2f64 <i2c_init+0x44>
    2f40:	b4000233 	cbz	x19, 2f84 <i2c_init+0x64>
    2f44:	93407ea3 	sxtw	x3, w21
    2f48:	aa1403e0 	mov	x0, x20
    2f4c:	a9400a61 	ldp	x1, x2, [x19]
    2f50:	a9411664 	ldp	x4, x5, [x19, #16]
    2f54:	a94153f3 	ldp	x19, x20, [sp, #16]
    2f58:	f94013f5 	ldr	x21, [sp, #32]
    2f5c:	a8c37bfd 	ldp	x29, x30, [sp], #48
    2f60:	1400017e 	b	3558 <i2c_soft_init>
    2f64:	f01fffe0 	adrp	x0, 40001000 <level_warning+0x140>
    2f68:	910ca000 	add	x0, x0, #0x328
    2f6c:	94002633 	bl	c838 <std_printf>
    2f70:	d01fffe1 	adrp	x1, 40000000 <__ram_begin>
    2f74:	528002c0 	mov	w0, #0x16                  	// #22
    2f78:	f9400421 	ldr	x1, [x1, #8]
    2f7c:	d63f0020 	blr	x1
    2f80:	b5fffe33 	cbnz	x19, 2f44 <i2c_init+0x24>
    2f84:	f01fffe0 	adrp	x0, 40001000 <level_warning+0x140>
    2f88:	910e4000 	add	x0, x0, #0x390
    2f8c:	9400262b 	bl	c838 <std_printf>
    2f90:	d01fffe1 	adrp	x1, 40000000 <__ram_begin>
    2f94:	528002c0 	mov	w0, #0x16                  	// #22
    2f98:	f9400421 	ldr	x1, [x1, #8]
    2f9c:	d63f0020 	blr	x1
    2fa0:	93407ea3 	sxtw	x3, w21
    2fa4:	aa1403e0 	mov	x0, x20
    2fa8:	a9400a61 	ldp	x1, x2, [x19]
    2fac:	a9411664 	ldp	x4, x5, [x19, #16]
    2fb0:	a94153f3 	ldp	x19, x20, [sp, #16]
    2fb4:	f94013f5 	ldr	x21, [sp, #32]
    2fb8:	a8c37bfd 	ldp	x29, x30, [sp], #48
    2fbc:	14000167 	b	3558 <i2c_soft_init>

0000000000002fc0 <i2c_read>:
    2fc0:	a9bd7bfd 	stp	x29, x30, [sp, #-48]!
    2fc4:	910003fd 	mov	x29, sp
    2fc8:	a90153f3 	stp	x19, x20, [sp, #16]
    2fcc:	aa0003f3 	mov	x19, x0
    2fd0:	a9025bf5 	stp	x21, x22, [sp, #32]
    2fd4:	2a0103f4 	mov	w20, w1
    2fd8:	aa0203f5 	mov	x21, x2
    2fdc:	aa0303f6 	mov	x22, x3
    2fe0:	b4000480 	cbz	x0, 3070 <i2c_read+0xb0>
    2fe4:	7101fe9f 	cmp	w20, #0x7f
    2fe8:	5400024c 	b.gt	3030 <i2c_read+0x70>
    2fec:	b4000335 	cbz	x21, 3050 <i2c_read+0x90>
    2ff0:	b5000116 	cbnz	x22, 3010 <i2c_read+0x50>
    2ff4:	f01fffe0 	adrp	x0, 40001000 <level_warning+0x140>
    2ff8:	91158000 	add	x0, x0, #0x560
    2ffc:	9400260f 	bl	c838 <std_printf>
    3000:	b01fffe1 	adrp	x1, 40000000 <__ram_begin>
    3004:	528002c0 	mov	w0, #0x16                  	// #22
    3008:	f9400421 	ldr	x1, [x1, #8]
    300c:	d63f0020 	blr	x1
    3010:	aa1603e3 	mov	x3, x22
    3014:	aa1503e2 	mov	x2, x21
    3018:	2a1403e1 	mov	w1, w20
    301c:	aa1303e0 	mov	x0, x19
    3020:	a94153f3 	ldp	x19, x20, [sp, #16]
    3024:	a9425bf5 	ldp	x21, x22, [sp, #32]
    3028:	a8c37bfd 	ldp	x29, x30, [sp], #48
    302c:	14000159 	b	3590 <i2c_soft_read>
    3030:	d01fffe0 	adrp	x0, 40001000 <level_warning+0x140>
    3034:	91128000 	add	x0, x0, #0x4a0
    3038:	94002600 	bl	c838 <std_printf>
    303c:	b01fffe1 	adrp	x1, 40000000 <__ram_begin>
    3040:	528002c0 	mov	w0, #0x16                  	// #22
    3044:	f9400421 	ldr	x1, [x1, #8]
    3048:	d63f0020 	blr	x1
    304c:	b5fffd35 	cbnz	x21, 2ff0 <i2c_read+0x30>
    3050:	d01fffe0 	adrp	x0, 40001000 <level_warning+0x140>
    3054:	91140000 	add	x0, x0, #0x500
    3058:	940025f8 	bl	c838 <std_printf>
    305c:	b01fffe1 	adrp	x1, 40000000 <__ram_begin>
    3060:	528002c0 	mov	w0, #0x16                  	// #22
    3064:	f9400421 	ldr	x1, [x1, #8]
    3068:	d63f0020 	blr	x1
    306c:	17ffffe1 	b	2ff0 <i2c_read+0x30>
    3070:	d01fffe0 	adrp	x0, 40001000 <level_warning+0x140>
    3074:	9110e000 	add	x0, x0, #0x438
    3078:	940025f0 	bl	c838 <std_printf>
    307c:	b01fffe1 	adrp	x1, 40000000 <__ram_begin>
    3080:	528002c0 	mov	w0, #0x16                  	// #22
    3084:	f9400421 	ldr	x1, [x1, #8]
    3088:	d63f0020 	blr	x1
    308c:	17ffffd6 	b	2fe4 <i2c_read+0x24>

0000000000003090 <cmd_read_cb>:
    3090:	a9ba7bfd 	stp	x29, x30, [sp, #-96]!
    3094:	7100081f 	cmp	w0, #0x2
    3098:	910003fd 	mov	x29, sp
    309c:	540004c1 	b.ne	3134 <cmd_read_cb+0xa4>  // b.any
    30a0:	f9400420 	ldr	x0, [x1, #8]
    30a4:	9100a3a1 	add	x1, x29, #0x28
    30a8:	9400277e 	bl	cea0 <std_strtol>
    30ac:	b40004e0 	cbz	x0, 3148 <cmd_read_cb+0xb8>
    30b0:	b0200021 	adrp	x1, 40008000 <module>
    30b4:	5290d402 	mov	w2, #0x86a0                	// #34464
    30b8:	91090021 	add	x1, x1, #0x240
    30bc:	12800003 	mov	w3, #0xffffffff            	// #-1
    30c0:	72a00022 	movk	w2, #0x1, lsl #16
    30c4:	f9000bb3 	str	x19, [x29, #16]
    30c8:	9100c3a0 	add	x0, x29, #0x30
    30cc:	f94017b3 	ldr	x19, [x29, #40]
    30d0:	97ffff94 	bl	2f20 <i2c_init>
    30d4:	9100c3a0 	add	x0, x29, #0x30
    30d8:	9400012a 	bl	3580 <i2c_soft_start>
    30dc:	d2800023 	mov	x3, #0x1                   	// #1
    30e0:	91009fa2 	add	x2, x29, #0x27
    30e4:	2a1303e1 	mov	w1, w19
    30e8:	9100c3a0 	add	x0, x29, #0x30
    30ec:	97ffffb5 	bl	2fc0 <i2c_read>
    30f0:	f100041f 	cmp	x0, #0x1
    30f4:	54000160 	b.eq	3120 <cmd_read_cb+0x90>  // b.none
    30f8:	d01fffe0 	adrp	x0, 40001000 <level_warning+0x140>
    30fc:	2a1303e1 	mov	w1, w19
    3100:	9108c000 	add	x0, x0, #0x230
    3104:	940025cd 	bl	c838 <std_printf>
    3108:	9100c3a0 	add	x0, x29, #0x30
    310c:	9400011f 	bl	3588 <i2c_soft_stop>
    3110:	f9400bb3 	ldr	x19, [x29, #16]
    3114:	52800000 	mov	w0, #0x0                   	// #0
    3118:	a8c67bfd 	ldp	x29, x30, [sp], #96
    311c:	d65f03c0 	ret
    3120:	39409fa1 	ldrb	w1, [x29, #39]
    3124:	f01fffe0 	adrp	x0, 40002000 <level_warning+0x1140>
    3128:	912e0000 	add	x0, x0, #0xb80
    312c:	940025c3 	bl	c838 <std_printf>
    3130:	17fffff6 	b	3108 <cmd_read_cb+0x78>
    3134:	d01fffe0 	adrp	x0, 40001000 <level_warning+0x140>
    3138:	9107e000 	add	x0, x0, #0x1f8
    313c:	940025bf 	bl	c838 <std_printf>
    3140:	128002a0 	mov	w0, #0xffffffea            	// #-22
    3144:	17fffff5 	b	3118 <cmd_read_cb+0x88>
    3148:	d01fffe0 	adrp	x0, 40001000 <level_warning+0x140>
    314c:	91086000 	add	x0, x0, #0x218
    3150:	940025ba 	bl	c838 <std_printf>
    3154:	128002a0 	mov	w0, #0xffffffea            	// #-22
    3158:	17fffff0 	b	3118 <cmd_read_cb+0x88>
    315c:	00000000 	.inst	0x00000000 ; undefined

0000000000003160 <i2c_write>:
    3160:	a9bd7bfd 	stp	x29, x30, [sp, #-48]!
    3164:	910003fd 	mov	x29, sp
    3168:	a90153f3 	stp	x19, x20, [sp, #16]
    316c:	aa0003f3 	mov	x19, x0
    3170:	a9025bf5 	stp	x21, x22, [sp, #32]
    3174:	2a0103f4 	mov	w20, w1
    3178:	aa0203f5 	mov	x21, x2
    317c:	aa0303f6 	mov	x22, x3
    3180:	b4000480 	cbz	x0, 3210 <i2c_write+0xb0>
    3184:	7101fe9f 	cmp	w20, #0x7f
    3188:	5400024c 	b.gt	31d0 <i2c_write+0x70>
    318c:	b4000335 	cbz	x21, 31f0 <i2c_write+0x90>
    3190:	b5000116 	cbnz	x22, 31b0 <i2c_write+0x50>
    3194:	d01fffe0 	adrp	x0, 40001000 <level_warning+0x140>
    3198:	911ea000 	add	x0, x0, #0x7a8
    319c:	940025a7 	bl	c838 <std_printf>
    31a0:	b01fffe1 	adrp	x1, 40000000 <__ram_begin>
    31a4:	528002c0 	mov	w0, #0x16                  	// #22
    31a8:	f9400421 	ldr	x1, [x1, #8]
    31ac:	d63f0020 	blr	x1
    31b0:	aa1603e3 	mov	x3, x22
    31b4:	aa1503e2 	mov	x2, x21
    31b8:	2a1403e1 	mov	w1, w20
    31bc:	aa1303e0 	mov	x0, x19
    31c0:	a94153f3 	ldp	x19, x20, [sp, #16]
    31c4:	a9425bf5 	ldp	x21, x22, [sp, #32]
    31c8:	a8c37bfd 	ldp	x29, x30, [sp], #48
    31cc:	14000117 	b	3628 <i2c_soft_write>
    31d0:	d01fffe0 	adrp	x0, 40001000 <level_warning+0x140>
    31d4:	911ba000 	add	x0, x0, #0x6e8
    31d8:	94002598 	bl	c838 <std_printf>
    31dc:	b01fffe1 	adrp	x1, 40000000 <__ram_begin>
    31e0:	528002c0 	mov	w0, #0x16                  	// #22
    31e4:	f9400421 	ldr	x1, [x1, #8]
    31e8:	d63f0020 	blr	x1
    31ec:	b5fffd35 	cbnz	x21, 3190 <i2c_write+0x30>
    31f0:	d01fffe0 	adrp	x0, 40001000 <level_warning+0x140>
    31f4:	911d2000 	add	x0, x0, #0x748
    31f8:	94002590 	bl	c838 <std_printf>
    31fc:	b01fffe1 	adrp	x1, 40000000 <__ram_begin>
    3200:	528002c0 	mov	w0, #0x16                  	// #22
    3204:	f9400421 	ldr	x1, [x1, #8]
    3208:	d63f0020 	blr	x1
    320c:	17ffffe1 	b	3190 <i2c_write+0x30>
    3210:	d01fffe0 	adrp	x0, 40001000 <level_warning+0x140>
    3214:	911a0000 	add	x0, x0, #0x680
    3218:	94002588 	bl	c838 <std_printf>
    321c:	b01fffe1 	adrp	x1, 40000000 <__ram_begin>
    3220:	528002c0 	mov	w0, #0x16                  	// #22
    3224:	f9400421 	ldr	x1, [x1, #8]
    3228:	d63f0020 	blr	x1
    322c:	17ffffd6 	b	3184 <i2c_write+0x24>

0000000000003230 <cmd_write_cb>:
    3230:	a9ba7bfd 	stp	x29, x30, [sp, #-96]!
    3234:	71000c1f 	cmp	w0, #0x3
    3238:	910003fd 	mov	x29, sp
    323c:	54000581 	b.ne	32ec <cmd_write_cb+0xbc>  // b.any
    3240:	f9000bb3 	str	x19, [x29, #16]
    3244:	aa0103f3 	mov	x19, x1
    3248:	9100a3a1 	add	x1, x29, #0x28
    324c:	f9400660 	ldr	x0, [x19, #8]
    3250:	94002714 	bl	cea0 <std_strtol>
    3254:	b4000620 	cbz	x0, 3318 <cmd_write_cb+0xe8>
    3258:	f9400a60 	ldr	x0, [x19, #16]
    325c:	9100a3a1 	add	x1, x29, #0x28
    3260:	f94017b3 	ldr	x19, [x29, #40]
    3264:	9400270f 	bl	cea0 <std_strtol>
    3268:	b4000640 	cbz	x0, 3330 <cmd_write_cb+0x100>
    326c:	f94017a0 	ldr	x0, [x29, #40]
    3270:	f103fc1f 	cmp	x0, #0xff
    3274:	54000468 	b.hi	3300 <cmd_write_cb+0xd0>  // b.pmore
    3278:	b0200021 	adrp	x1, 40008000 <module>
    327c:	5290d402 	mov	w2, #0x86a0                	// #34464
    3280:	91090021 	add	x1, x1, #0x240
    3284:	12800003 	mov	w3, #0xffffffff            	// #-1
    3288:	72a00022 	movk	w2, #0x1, lsl #16
    328c:	39009fa0 	strb	w0, [x29, #39]
    3290:	9100c3a0 	add	x0, x29, #0x30
    3294:	97ffff23 	bl	2f20 <i2c_init>
    3298:	9100c3a0 	add	x0, x29, #0x30
    329c:	940000b9 	bl	3580 <i2c_soft_start>
    32a0:	d2800023 	mov	x3, #0x1                   	// #1
    32a4:	91009fa2 	add	x2, x29, #0x27
    32a8:	2a1303e1 	mov	w1, w19
    32ac:	9100c3a0 	add	x0, x29, #0x30
    32b0:	97ffffac 	bl	3160 <i2c_write>
    32b4:	f100041f 	cmp	x0, #0x1
    32b8:	540000e1 	b.ne	32d4 <cmd_write_cb+0xa4>  // b.any
    32bc:	9100c3a0 	add	x0, x29, #0x30
    32c0:	940000b2 	bl	3588 <i2c_soft_stop>
    32c4:	f9400bb3 	ldr	x19, [x29, #16]
    32c8:	52800000 	mov	w0, #0x0                   	// #0
    32cc:	a8c67bfd 	ldp	x29, x30, [sp], #96
    32d0:	d65f03c0 	ret
    32d4:	39409fa1 	ldrb	w1, [x29, #39]
    32d8:	d01fffe0 	adrp	x0, 40001000 <level_warning+0x140>
    32dc:	2a1303e2 	mov	w2, w19
    32e0:	910bc000 	add	x0, x0, #0x2f0
    32e4:	94002555 	bl	c838 <std_printf>
    32e8:	17fffff5 	b	32bc <cmd_write_cb+0x8c>
    32ec:	d01fffe0 	adrp	x0, 40001000 <level_warning+0x140>
    32f0:	910a2000 	add	x0, x0, #0x288
    32f4:	94002551 	bl	c838 <std_printf>
    32f8:	128002a0 	mov	w0, #0xffffffea            	// #-22
    32fc:	17fffff4 	b	32cc <cmd_write_cb+0x9c>
    3300:	d01fffe0 	adrp	x0, 40001000 <level_warning+0x140>
    3304:	910b4000 	add	x0, x0, #0x2d0
    3308:	9400254c 	bl	c838 <std_printf>
    330c:	f9400bb3 	ldr	x19, [x29, #16]
    3310:	128002a0 	mov	w0, #0xffffffea            	// #-22
    3314:	17ffffee 	b	32cc <cmd_write_cb+0x9c>
    3318:	d01fffe0 	adrp	x0, 40001000 <level_warning+0x140>
    331c:	91086000 	add	x0, x0, #0x218
    3320:	94002546 	bl	c838 <std_printf>
    3324:	f9400bb3 	ldr	x19, [x29, #16]
    3328:	128002a0 	mov	w0, #0xffffffea            	// #-22
    332c:	17ffffe8 	b	32cc <cmd_write_cb+0x9c>
    3330:	d01fffe0 	adrp	x0, 40001000 <level_warning+0x140>
    3334:	910ae000 	add	x0, x0, #0x2b8
    3338:	94002540 	bl	c838 <std_printf>
    333c:	f9400bb3 	ldr	x19, [x29, #16]
    3340:	128002a0 	mov	w0, #0xffffffea            	// #-22
    3344:	17ffffe2 	b	32cc <cmd_write_cb+0x9c>

0000000000003348 <i2c_scan>:
    3348:	a9be7bfd 	stp	x29, x30, [sp, #-32]!
    334c:	910003fd 	mov	x29, sp
    3350:	a90153f3 	stp	x19, x20, [sp, #16]
    3354:	aa0003f3 	mov	x19, x0
    3358:	2a0103f4 	mov	w20, w1
    335c:	b40001e0 	cbz	x0, 3398 <i2c_scan+0x50>
    3360:	7101fe9f 	cmp	w20, #0x7f
    3364:	5400010d 	b.le	3384 <i2c_scan+0x3c>
    3368:	d01fffe0 	adrp	x0, 40001000 <level_warning+0x140>
    336c:	91188000 	add	x0, x0, #0x620
    3370:	94002532 	bl	c838 <std_printf>
    3374:	b01fffe1 	adrp	x1, 40000000 <__ram_begin>
    3378:	528002c0 	mov	w0, #0x16                  	// #22
    337c:	f9400421 	ldr	x1, [x1, #8]
    3380:	d63f0020 	blr	x1
    3384:	2a1403e1 	mov	w1, w20
    3388:	aa1303e0 	mov	x0, x19
    338c:	a94153f3 	ldp	x19, x20, [sp, #16]
    3390:	a8c27bfd 	ldp	x29, x30, [sp], #32
    3394:	140000c9 	b	36b8 <i2c_soft_scan>
    3398:	d01fffe0 	adrp	x0, 40001000 <level_warning+0x140>
    339c:	9116e000 	add	x0, x0, #0x5b8
    33a0:	94002526 	bl	c838 <std_printf>
    33a4:	b01fffe1 	adrp	x1, 40000000 <__ram_begin>
    33a8:	528002c0 	mov	w0, #0x16                  	// #22
    33ac:	f9400421 	ldr	x1, [x1, #8]
    33b0:	d63f0020 	blr	x1
    33b4:	17ffffeb 	b	3360 <i2c_scan+0x18>

00000000000033b8 <cmd_scan_cb>:
    33b8:	a9ba7bfd 	stp	x29, x30, [sp, #-96]!
    33bc:	b0200021 	adrp	x1, 40008000 <module>
    33c0:	91090021 	add	x1, x1, #0x240
    33c4:	12800003 	mov	w3, #0xffffffff            	// #-1
    33c8:	910003fd 	mov	x29, sp
    33cc:	f90013f5 	str	x21, [sp, #32]
    33d0:	aa0203f5 	mov	x21, x2
    33d4:	5290d402 	mov	w2, #0x86a0                	// #34464
    33d8:	a90153f3 	stp	x19, x20, [sp, #16]
    33dc:	72a00022 	movk	w2, #0x1, lsl #16
    33e0:	9100c3a0 	add	x0, x29, #0x30
    33e4:	97fffecf 	bl	2f20 <i2c_init>
    33e8:	52800013 	mov	w19, #0x0                   	// #0
    33ec:	d01ffff4 	adrp	x20, 40001000 <level_warning+0x140>
    33f0:	9100c3a0 	add	x0, x29, #0x30
    33f4:	91098294 	add	x20, x20, #0x260
    33f8:	94000062 	bl	3580 <i2c_soft_start>
    33fc:	14000004 	b	340c <cmd_scan_cb+0x54>
    3400:	11000673 	add	w19, w19, #0x1
    3404:	7102027f 	cmp	w19, #0x80
    3408:	540001a0 	b.eq	343c <cmd_scan_cb+0x84>  // b.none
    340c:	2a1303e1 	mov	w1, w19
    3410:	9100c3a0 	add	x0, x29, #0x30
    3414:	97ffffcd 	bl	3348 <i2c_scan>
    3418:	7100041f 	cmp	w0, #0x1
    341c:	54ffff21 	b.ne	3400 <cmd_scan_cb+0x48>  // b.any
    3420:	2a1303e2 	mov	w2, w19
    3424:	aa1403e1 	mov	x1, x20
    3428:	aa1503e0 	mov	x0, x21
    342c:	11000673 	add	w19, w19, #0x1
    3430:	940025a6 	bl	cac8 <std_fprintf>
    3434:	7102027f 	cmp	w19, #0x80
    3438:	54fffea1 	b.ne	340c <cmd_scan_cb+0x54>  // b.any
    343c:	9100c3a0 	add	x0, x29, #0x30
    3440:	94000052 	bl	3588 <i2c_soft_stop>
    3444:	52800000 	mov	w0, #0x0                   	// #0
    3448:	f94013f5 	ldr	x21, [sp, #32]
    344c:	a94153f3 	ldp	x19, x20, [sp, #16]
    3450:	a8c67bfd 	ldp	x29, x30, [sp], #96
    3454:	d65f03c0 	ret

0000000000003458 <stop_cond>:
    3458:	a9be7bfd 	stp	x29, x30, [sp, #-32]!
    345c:	910003fd 	mov	x29, sp
    3460:	a90153f3 	stp	x19, x20, [sp, #16]
    3464:	aa0003f4 	mov	x20, x0
    3468:	b9401800 	ldr	w0, [x0, #24]
    346c:	d2800013 	mov	x19, #0x0                   	// #0
    3470:	94000c2a 	bl	6518 <time_busy_wait_us>
    3474:	f9401680 	ldr	x0, [x20, #40]
    3478:	94000b4c 	bl	61a8 <thrd_sleep_us>
    347c:	a9420281 	ldp	x1, x0, [x20, #32]
    3480:	8b000273 	add	x19, x19, x0
    3484:	eb01027f 	cmp	x19, x1
    3488:	54ffff8b 	b.lt	3478 <stop_cond+0x20>  // b.tstop
    348c:	12800000 	mov	w0, #0xffffffff            	// #-1
    3490:	a94153f3 	ldp	x19, x20, [sp, #16]
    3494:	a8c27bfd 	ldp	x29, x30, [sp], #32
    3498:	d65f03c0 	ret
    349c:	00000000 	.inst	0x00000000 ; undefined

00000000000034a0 <write_bit.isra.8>:
    34a0:	a9be7bfd 	stp	x29, x30, [sp, #-32]!
    34a4:	910003fd 	mov	x29, sp
    34a8:	a90153f3 	stp	x19, x20, [sp, #16]
    34ac:	aa0003f4 	mov	x20, x0
    34b0:	b9401800 	ldr	w0, [x0, #24]
    34b4:	d2800013 	mov	x19, #0x0                   	// #0
    34b8:	94000c18 	bl	6518 <time_busy_wait_us>
    34bc:	b9401a80 	ldr	w0, [x20, #24]
    34c0:	94000c16 	bl	6518 <time_busy_wait_us>
    34c4:	f9401680 	ldr	x0, [x20, #40]
    34c8:	94000b38 	bl	61a8 <thrd_sleep_us>
    34cc:	a9420281 	ldp	x1, x0, [x20, #32]
    34d0:	8b000273 	add	x19, x19, x0
    34d4:	eb01027f 	cmp	x19, x1
    34d8:	54ffff8b 	b.lt	34c8 <write_bit.isra.8+0x28>  // b.tstop
    34dc:	12800000 	mov	w0, #0xffffffff            	// #-1
    34e0:	a94153f3 	ldp	x19, x20, [sp, #16]
    34e4:	a8c27bfd 	ldp	x29, x30, [sp], #32
    34e8:	d65f03c0 	ret
    34ec:	00000000 	.inst	0x00000000 ; undefined

00000000000034f0 <write_byte.isra.10>:
    34f0:	a9be7bfd 	stp	x29, x30, [sp, #-32]!
    34f4:	910003fd 	mov	x29, sp
    34f8:	a90153f3 	stp	x19, x20, [sp, #16]
    34fc:	aa0003f3 	mov	x19, x0
    3500:	52800114 	mov	w20, #0x8                   	// #8
    3504:	aa1303e0 	mov	x0, x19
    3508:	97ffffe6 	bl	34a0 <write_bit.isra.8>
    350c:	35000180 	cbnz	w0, 353c <write_byte.isra.10+0x4c>
    3510:	71000694 	subs	w20, w20, #0x1
    3514:	54ffff81 	b.ne	3504 <write_byte.isra.10+0x14>  // b.any
    3518:	b9401a60 	ldr	w0, [x19, #24]
    351c:	d2800014 	mov	x20, #0x0                   	// #0
    3520:	94000bfe 	bl	6518 <time_busy_wait_us>
    3524:	f9401660 	ldr	x0, [x19, #40]
    3528:	94000b20 	bl	61a8 <thrd_sleep_us>
    352c:	a9420261 	ldp	x1, x0, [x19, #32]
    3530:	8b000294 	add	x20, x20, x0
    3534:	eb01029f 	cmp	x20, x1
    3538:	54ffff8b 	b.lt	3528 <write_byte.isra.10+0x38>  // b.tstop
    353c:	12800000 	mov	w0, #0xffffffff            	// #-1
    3540:	a94153f3 	ldp	x19, x20, [sp, #16]
    3544:	a8c27bfd 	ldp	x29, x30, [sp], #32
    3548:	d65f03c0 	ret
    354c:	00000000 	.inst	0x00000000 ; undefined

0000000000003550 <i2c_soft_module_init>:
    3550:	52800000 	mov	w0, #0x0                   	// #0
    3554:	d65f03c0 	ret

0000000000003558 <i2c_soft_init>:
    3558:	d2942407 	mov	x7, #0xa120                	// #41248
    355c:	aa0003e6 	mov	x6, x0
    3560:	f2a000e7 	movk	x7, #0x7, lsl #16
    3564:	52800000 	mov	w0, #0x0                   	// #0
    3568:	9ac30ce7 	sdiv	x7, x7, x3
    356c:	a90008c1 	stp	x1, x2, [x6]
    3570:	a90214c4 	stp	x4, x5, [x6, #32]
    3574:	a9011cc3 	stp	x3, x7, [x6, #16]
    3578:	d65f03c0 	ret
    357c:	00000000 	.inst	0x00000000 ; undefined

0000000000003580 <i2c_soft_start>:
    3580:	52800000 	mov	w0, #0x0                   	// #0
    3584:	d65f03c0 	ret

0000000000003588 <i2c_soft_stop>:
    3588:	52800000 	mov	w0, #0x0                   	// #0
    358c:	d65f03c0 	ret

0000000000003590 <i2c_soft_read>:
    3590:	a9bd7bfd 	stp	x29, x30, [sp, #-48]!
    3594:	910003fd 	mov	x29, sp
    3598:	a90153f3 	stp	x19, x20, [sp, #16]
    359c:	aa0003f4 	mov	x20, x0
    35a0:	b9401800 	ldr	w0, [x0, #24]
    35a4:	aa0303f3 	mov	x19, x3
    35a8:	f90013f5 	str	x21, [sp, #32]
    35ac:	aa0203f5 	mov	x21, x2
    35b0:	94000bda 	bl	6518 <time_busy_wait_us>
    35b4:	aa1403e0 	mov	x0, x20
    35b8:	97ffffce 	bl	34f0 <write_byte.isra.10>
    35bc:	35000180 	cbnz	w0, 35ec <i2c_soft_read+0x5c>
    35c0:	b4000253 	cbz	x19, 3608 <i2c_soft_read+0x78>
    35c4:	390002bf 	strb	wzr, [x21]
    35c8:	d2800013 	mov	x19, #0x0                   	// #0
    35cc:	b9401a80 	ldr	w0, [x20, #24]
    35d0:	94000bd2 	bl	6518 <time_busy_wait_us>
    35d4:	f9401680 	ldr	x0, [x20, #40]
    35d8:	94000af4 	bl	61a8 <thrd_sleep_us>
    35dc:	a9420281 	ldp	x1, x0, [x20, #32]
    35e0:	8b000273 	add	x19, x19, x0
    35e4:	eb01027f 	cmp	x19, x1
    35e8:	54ffff8b 	b.lt	35d8 <i2c_soft_read+0x48>  // b.tstop
    35ec:	aa1403e0 	mov	x0, x20
    35f0:	97ffff9a 	bl	3458 <stop_cond>
    35f4:	92800000 	mov	x0, #0xffffffffffffffff    	// #-1
    35f8:	f94013f5 	ldr	x21, [sp, #32]
    35fc:	a94153f3 	ldp	x19, x20, [sp, #16]
    3600:	a8c37bfd 	ldp	x29, x30, [sp], #48
    3604:	d65f03c0 	ret
    3608:	aa1403e0 	mov	x0, x20
    360c:	97ffff93 	bl	3458 <stop_cond>
    3610:	7100001f 	cmp	w0, #0x0
    3614:	f94013f5 	ldr	x21, [sp, #32]
    3618:	da9f03e0 	csetm	x0, ne  // ne = any
    361c:	a94153f3 	ldp	x19, x20, [sp, #16]
    3620:	a8c37bfd 	ldp	x29, x30, [sp], #48
    3624:	d65f03c0 	ret

0000000000003628 <i2c_soft_write>:
    3628:	a9bd7bfd 	stp	x29, x30, [sp, #-48]!
    362c:	910003fd 	mov	x29, sp
    3630:	a901d7f4 	stp	x20, x21, [sp, #24]
    3634:	aa0003f5 	mov	x21, x0
    3638:	b9401800 	ldr	w0, [x0, #24]
    363c:	aa0303f4 	mov	x20, x3
    3640:	94000bb6 	bl	6518 <time_busy_wait_us>
    3644:	aa1503e0 	mov	x0, x21
    3648:	97ffffaa 	bl	34f0 <write_byte.isra.10>
    364c:	35000180 	cbnz	w0, 367c <i2c_soft_write+0x54>
    3650:	f9000bb3 	str	x19, [x29, #16]
    3654:	d2800013 	mov	x19, #0x0                   	// #0
    3658:	b5000094 	cbnz	x20, 3668 <i2c_soft_write+0x40>
    365c:	1400000e 	b	3694 <i2c_soft_write+0x6c>
    3660:	eb13029f 	cmp	x20, x19
    3664:	54000180 	b.eq	3694 <i2c_soft_write+0x6c>  // b.none
    3668:	91000673 	add	x19, x19, #0x1
    366c:	aa1503e0 	mov	x0, x21
    3670:	97ffffa0 	bl	34f0 <write_byte.isra.10>
    3674:	34ffff60 	cbz	w0, 3660 <i2c_soft_write+0x38>
    3678:	f9400bb3 	ldr	x19, [x29, #16]
    367c:	aa1503e0 	mov	x0, x21
    3680:	97ffff76 	bl	3458 <stop_cond>
    3684:	92800000 	mov	x0, #0xffffffffffffffff    	// #-1
    3688:	a941d7f4 	ldp	x20, x21, [sp, #24]
    368c:	a8c37bfd 	ldp	x29, x30, [sp], #48
    3690:	d65f03c0 	ret
    3694:	aa1503e0 	mov	x0, x21
    3698:	97ffff70 	bl	3458 <stop_cond>
    369c:	7100001f 	cmp	w0, #0x0
    36a0:	f9400bb3 	ldr	x19, [x29, #16]
    36a4:	da9f0280 	csinv	x0, x20, xzr, eq  // eq = none
    36a8:	a941d7f4 	ldp	x20, x21, [sp, #24]
    36ac:	a8c37bfd 	ldp	x29, x30, [sp], #48
    36b0:	d65f03c0 	ret
    36b4:	00000000 	.inst	0x00000000 ; undefined

00000000000036b8 <i2c_soft_scan>:
    36b8:	a9be7bfd 	stp	x29, x30, [sp, #-32]!
    36bc:	910003fd 	mov	x29, sp
    36c0:	a90153f3 	stp	x19, x20, [sp, #16]
    36c4:	aa0003f3 	mov	x19, x0
    36c8:	b9401800 	ldr	w0, [x0, #24]
    36cc:	94000b93 	bl	6518 <time_busy_wait_us>
    36d0:	aa1303e0 	mov	x0, x19
    36d4:	97ffff87 	bl	34f0 <write_byte.isra.10>
    36d8:	7100001f 	cmp	w0, #0x0
    36dc:	aa1303e0 	mov	x0, x19
    36e0:	1a9f17f4 	cset	w20, eq  // eq = none
    36e4:	97ffff5d 	bl	3458 <stop_cond>
    36e8:	7100001f 	cmp	w0, #0x0
    36ec:	5a9f0280 	csinv	w0, w20, wzr, eq  // eq = none
    36f0:	a94153f3 	ldp	x19, x20, [sp, #16]
    36f4:	a8c27bfd 	ldp	x29, x30, [sp], #32
    36f8:	d65f03c0 	ret
    36fc:	00000000 	.inst	0x00000000 ; undefined

0000000000003700 <owi_reset>:
    3700:	a9bd7bfd 	stp	x29, x30, [sp, #-48]!
    3704:	910003fd 	mov	x29, sp
    3708:	a90153f3 	stp	x19, x20, [sp, #16]
    370c:	aa0003f3 	mov	x19, x0
    3710:	f90013f5 	str	x21, [sp, #32]
    3714:	b40007c0 	cbz	x0, 380c <owi_reset+0x10c>
    3718:	52800001 	mov	w1, #0x0                   	// #0
    371c:	aa1303e0 	mov	x0, x19
    3720:	97fffdb2 	bl	2de8 <pin_write>
    3724:	52800094 	mov	w20, #0x4                   	// #4
    3728:	52803c00 	mov	w0, #0x1e0                 	// #480
    372c:	94000b7b 	bl	6518 <time_busy_wait_us>
    3730:	940007d2 	bl	5678 <sys_lock>
    3734:	52800021 	mov	w1, #0x1                   	// #1
    3738:	aa1303e0 	mov	x0, x19
    373c:	97fffdab 	bl	2de8 <pin_write>
    3740:	52800061 	mov	w1, #0x3                   	// #3
    3744:	aa1303e0 	mov	x0, x19
    3748:	97fffdb8 	bl	2e28 <pin_set_mode>
    374c:	528008c0 	mov	w0, #0x46                  	// #70
    3750:	94000b72 	bl	6518 <time_busy_wait_us>
    3754:	aa1303e0 	mov	x0, x19
    3758:	97fffd94 	bl	2da8 <pin_read>
    375c:	2a0003f5 	mov	w21, w0
    3760:	940007c8 	bl	5680 <sys_unlock>
    3764:	52803340 	mov	w0, #0x19a                 	// #410
    3768:	94000b6c 	bl	6518 <time_busy_wait_us>
    376c:	52800001 	mov	w1, #0x0                   	// #0
    3770:	aa1303e0 	mov	x0, x19
    3774:	97fffdad 	bl	2e28 <pin_set_mode>
    3778:	52800001 	mov	w1, #0x0                   	// #0
    377c:	aa1303e0 	mov	x0, x19
    3780:	340003d5 	cbz	w21, 37f8 <owi_reset+0xf8>
    3784:	97fffd99 	bl	2de8 <pin_write>
    3788:	52803c00 	mov	w0, #0x1e0                 	// #480
    378c:	94000b63 	bl	6518 <time_busy_wait_us>
    3790:	940007ba 	bl	5678 <sys_lock>
    3794:	52800021 	mov	w1, #0x1                   	// #1
    3798:	aa1303e0 	mov	x0, x19
    379c:	97fffd93 	bl	2de8 <pin_write>
    37a0:	52800061 	mov	w1, #0x3                   	// #3
    37a4:	aa1303e0 	mov	x0, x19
    37a8:	97fffda0 	bl	2e28 <pin_set_mode>
    37ac:	528008c0 	mov	w0, #0x46                  	// #70
    37b0:	94000b5a 	bl	6518 <time_busy_wait_us>
    37b4:	aa1303e0 	mov	x0, x19
    37b8:	97fffd7c 	bl	2da8 <pin_read>
    37bc:	2a0003f5 	mov	w21, w0
    37c0:	940007b0 	bl	5680 <sys_unlock>
    37c4:	52803340 	mov	w0, #0x19a                 	// #410
    37c8:	94000b54 	bl	6518 <time_busy_wait_us>
    37cc:	52800001 	mov	w1, #0x0                   	// #0
    37d0:	aa1303e0 	mov	x0, x19
    37d4:	97fffd95 	bl	2e28 <pin_set_mode>
    37d8:	71000694 	subs	w20, w20, #0x1
    37dc:	54fffce1 	b.ne	3778 <owi_reset+0x78>  // b.any
    37e0:	710002bf 	cmp	w21, #0x0
    37e4:	f94013f5 	ldr	x21, [sp, #32]
    37e8:	1a9f17e0 	cset	w0, eq  // eq = none
    37ec:	a94153f3 	ldp	x19, x20, [sp, #16]
    37f0:	a8c37bfd 	ldp	x29, x30, [sp], #48
    37f4:	d65f03c0 	ret
    37f8:	52800020 	mov	w0, #0x1                   	// #1
    37fc:	f94013f5 	ldr	x21, [sp, #32]
    3800:	a94153f3 	ldp	x19, x20, [sp, #16]
    3804:	a8c37bfd 	ldp	x29, x30, [sp], #48
    3808:	d65f03c0 	ret
    380c:	d01fffe0 	adrp	x0, 40001000 <level_warning+0x140>
    3810:	91248000 	add	x0, x0, #0x920
    3814:	94002409 	bl	c838 <std_printf>
    3818:	b01fffe1 	adrp	x1, 40000000 <__ram_begin>
    381c:	528002c0 	mov	w0, #0x16                  	// #22
    3820:	f9400421 	ldr	x1, [x1, #8]
    3824:	d63f0020 	blr	x1
    3828:	17ffffbc 	b	3718 <owi_reset+0x18>
    382c:	00000000 	.inst	0x00000000 ; undefined

0000000000003830 <owi_read>:
    3830:	a9bc7bfd 	stp	x29, x30, [sp, #-64]!
    3834:	910003fd 	mov	x29, sp
    3838:	a90153f3 	stp	x19, x20, [sp, #16]
    383c:	aa0003f4 	mov	x20, x0
    3840:	a9025bf5 	stp	x21, x22, [sp, #32]
    3844:	aa0103f3 	mov	x19, x1
    3848:	f9001bf7 	str	x23, [sp, #48]
    384c:	aa0203f7 	mov	x23, x2
    3850:	b4000840 	cbz	x0, 3958 <owi_read+0x128>
    3854:	b4000933 	cbz	x19, 3978 <owi_read+0x148>
    3858:	2a1703f6 	mov	w22, w23
    385c:	52800015 	mov	w21, #0x0                   	// #0
    3860:	b4000637 	cbz	x23, 3924 <owi_read+0xf4>
    3864:	d503201f 	nop
    3868:	94000784 	bl	5678 <sys_lock>
    386c:	52800001 	mov	w1, #0x0                   	// #0
    3870:	aa1403e0 	mov	x0, x20
    3874:	97fffd5d 	bl	2de8 <pin_write>
    3878:	528000a0 	mov	w0, #0x5                   	// #5
    387c:	94000b27 	bl	6518 <time_busy_wait_us>
    3880:	52800061 	mov	w1, #0x3                   	// #3
    3884:	aa1403e0 	mov	x0, x20
    3888:	97fffd68 	bl	2e28 <pin_set_mode>
    388c:	52800120 	mov	w0, #0x9                   	// #9
    3890:	94000b22 	bl	6518 <time_busy_wait_us>
    3894:	39400261 	ldrb	w1, [x19]
    3898:	aa1403e0 	mov	x0, x20
    389c:	53017c21 	lsr	w1, w1, #1
    38a0:	39000261 	strb	w1, [x19]
    38a4:	97fffd41 	bl	2da8 <pin_read>
    38a8:	39400261 	ldrb	w1, [x19]
    38ac:	2a001c20 	orr	w0, w1, w0, lsl #7
    38b0:	39000260 	strb	w0, [x19]
    38b4:	94000773 	bl	5680 <sys_unlock>
    38b8:	528006e0 	mov	w0, #0x37                  	// #55
    38bc:	94000b17 	bl	6518 <time_busy_wait_us>
    38c0:	52800001 	mov	w1, #0x0                   	// #0
    38c4:	aa1403e0 	mov	x0, x20
    38c8:	97fffd58 	bl	2e28 <pin_set_mode>
    38cc:	52800021 	mov	w1, #0x1                   	// #1
    38d0:	aa1403e0 	mov	x0, x20
    38d4:	97fffd45 	bl	2de8 <pin_write>
    38d8:	12000aa0 	and	w0, w21, #0x7
    38dc:	110006b5 	add	w21, w21, #0x1
    38e0:	71001c1f 	cmp	w0, #0x7
    38e4:	9a931673 	cinc	x19, x19, eq  // eq = none
    38e8:	6b1602bf 	cmp	w21, w22
    38ec:	54fffbe1 	b.ne	3868 <owi_read+0x38>  // b.any
    38f0:	f2400ae2 	ands	x2, x23, #0x7
    38f4:	540000c0 	b.eq	390c <owi_read+0xdc>  // b.none
    38f8:	39400260 	ldrb	w0, [x19]
    38fc:	52800101 	mov	w1, #0x8                   	// #8
    3900:	4b020021 	sub	w1, w1, w2
    3904:	1ac12800 	asr	w0, w0, w1
    3908:	39000260 	strb	w0, [x19]
    390c:	aa1703e0 	mov	x0, x23
    3910:	f9401bf7 	ldr	x23, [sp, #48]
    3914:	a94153f3 	ldp	x19, x20, [sp, #16]
    3918:	a9425bf5 	ldp	x21, x22, [sp, #32]
    391c:	a8c47bfd 	ldp	x29, x30, [sp], #64
    3920:	d65f03c0 	ret
    3924:	d01fffe0 	adrp	x0, 40001000 <level_warning+0x140>
    3928:	91232000 	add	x0, x0, #0x8c8
    392c:	940023c3 	bl	c838 <std_printf>
    3930:	b01fffe1 	adrp	x1, 40000000 <__ram_begin>
    3934:	528002c0 	mov	w0, #0x16                  	// #22
    3938:	f9400421 	ldr	x1, [x1, #8]
    393c:	d63f0020 	blr	x1
    3940:	aa1703e0 	mov	x0, x23
    3944:	f9401bf7 	ldr	x23, [sp, #48]
    3948:	a94153f3 	ldp	x19, x20, [sp, #16]
    394c:	a9425bf5 	ldp	x21, x22, [sp, #32]
    3950:	a8c47bfd 	ldp	x29, x30, [sp], #64
    3954:	d65f03c0 	ret
    3958:	d01fffe0 	adrp	x0, 40001000 <level_warning+0x140>
    395c:	91200000 	add	x0, x0, #0x800
    3960:	940023b6 	bl	c838 <std_printf>
    3964:	b01fffe1 	adrp	x1, 40000000 <__ram_begin>
    3968:	528002c0 	mov	w0, #0x16                  	// #22
    396c:	f9400421 	ldr	x1, [x1, #8]
    3970:	d63f0020 	blr	x1
    3974:	b5fff733 	cbnz	x19, 3858 <owi_read+0x28>
    3978:	d01fffe0 	adrp	x0, 40001000 <level_warning+0x140>
    397c:	9121a000 	add	x0, x0, #0x868
    3980:	940023ae 	bl	c838 <std_printf>
    3984:	b01fffe1 	adrp	x1, 40000000 <__ram_begin>
    3988:	528002c0 	mov	w0, #0x16                  	// #22
    398c:	f9400421 	ldr	x1, [x1, #8]
    3990:	d63f0020 	blr	x1
    3994:	17ffffb1 	b	3858 <owi_read+0x28>

0000000000003998 <owi_write>:
    3998:	a9bc7bfd 	stp	x29, x30, [sp, #-64]!
    399c:	910003fd 	mov	x29, sp
    39a0:	a9025bf5 	stp	x21, x22, [sp, #32]
    39a4:	aa0003f5 	mov	x21, x0
    39a8:	f9001ff8 	str	x24, [sp, #56]
    39ac:	aa0103f6 	mov	x22, x1
    39b0:	aa0203f8 	mov	x24, x2
    39b4:	b40008a0 	cbz	x0, 3ac8 <owi_write+0x130>
    39b8:	b4000796 	cbz	x22, 3aa8 <owi_write+0x110>
    39bc:	b40005f8 	cbz	x24, 3a78 <owi_write+0xe0>
    39c0:	a90153b3 	stp	x19, x20, [x29, #16]
    39c4:	52800014 	mov	w20, #0x0                   	// #0
    39c8:	f9001bb7 	str	x23, [x29, #48]
    39cc:	52800013 	mov	w19, #0x0                   	// #0
    39d0:	2a1803f7 	mov	w23, w24
    39d4:	1400000d 	b	3a08 <owi_write+0x70>
    39d8:	528000a0 	mov	w0, #0x5                   	// #5
    39dc:	94000acf 	bl	6518 <time_busy_wait_us>
    39e0:	52800021 	mov	w1, #0x1                   	// #1
    39e4:	aa1503e0 	mov	x0, x21
    39e8:	97fffd00 	bl	2de8 <pin_write>
    39ec:	11000673 	add	w19, w19, #0x1
    39f0:	52800800 	mov	w0, #0x40                  	// #64
    39f4:	94000ac9 	bl	6518 <time_busy_wait_us>
    39f8:	53017e94 	lsr	w20, w20, #1
    39fc:	94000721 	bl	5680 <sys_unlock>
    3a00:	6b17027f 	cmp	w19, w23
    3a04:	540002c0 	b.eq	3a5c <owi_write+0xc4>  // b.none
    3a08:	f2400a7f 	tst	x19, #0x7
    3a0c:	54000061 	b.ne	3a18 <owi_write+0x80>  // b.any
    3a10:	394002d4 	ldrb	w20, [x22]
    3a14:	910006d6 	add	x22, x22, #0x1
    3a18:	94000718 	bl	5678 <sys_lock>
    3a1c:	52800001 	mov	w1, #0x0                   	// #0
    3a20:	aa1503e0 	mov	x0, x21
    3a24:	97fffcf1 	bl	2de8 <pin_write>
    3a28:	3707fd94 	tbnz	w20, #0, 39d8 <owi_write+0x40>
    3a2c:	52800760 	mov	w0, #0x3b                  	// #59
    3a30:	94000aba 	bl	6518 <time_busy_wait_us>
    3a34:	52800021 	mov	w1, #0x1                   	// #1
    3a38:	aa1503e0 	mov	x0, x21
    3a3c:	97fffceb 	bl	2de8 <pin_write>
    3a40:	11000673 	add	w19, w19, #0x1
    3a44:	52800140 	mov	w0, #0xa                   	// #10
    3a48:	94000ab4 	bl	6518 <time_busy_wait_us>
    3a4c:	53017e94 	lsr	w20, w20, #1
    3a50:	9400070c 	bl	5680 <sys_unlock>
    3a54:	6b17027f 	cmp	w19, w23
    3a58:	54fffd81 	b.ne	3a08 <owi_write+0x70>  // b.any
    3a5c:	aa1803e0 	mov	x0, x24
    3a60:	f9401bb7 	ldr	x23, [x29, #48]
    3a64:	a94153b3 	ldp	x19, x20, [x29, #16]
    3a68:	a9425bf5 	ldp	x21, x22, [sp, #32]
    3a6c:	f9401ff8 	ldr	x24, [sp, #56]
    3a70:	a8c47bfd 	ldp	x29, x30, [sp], #64
    3a74:	d65f03c0 	ret
    3a78:	d01fffe0 	adrp	x0, 40001000 <level_warning+0x140>
    3a7c:	912aa000 	add	x0, x0, #0xaa8
    3a80:	9400236e 	bl	c838 <std_printf>
    3a84:	b01fffe1 	adrp	x1, 40000000 <__ram_begin>
    3a88:	528002c0 	mov	w0, #0x16                  	// #22
    3a8c:	f9400421 	ldr	x1, [x1, #8]
    3a90:	d63f0020 	blr	x1
    3a94:	aa1803e0 	mov	x0, x24
    3a98:	f9401ff8 	ldr	x24, [sp, #56]
    3a9c:	a9425bf5 	ldp	x21, x22, [sp, #32]
    3aa0:	a8c47bfd 	ldp	x29, x30, [sp], #64
    3aa4:	d65f03c0 	ret
    3aa8:	d01fffe0 	adrp	x0, 40001000 <level_warning+0x140>
    3aac:	91292000 	add	x0, x0, #0xa48
    3ab0:	94002362 	bl	c838 <std_printf>
    3ab4:	b01fffe1 	adrp	x1, 40000000 <__ram_begin>
    3ab8:	528002c0 	mov	w0, #0x16                  	// #22
    3abc:	f9400421 	ldr	x1, [x1, #8]
    3ac0:	d63f0020 	blr	x1
    3ac4:	17ffffbe 	b	39bc <owi_write+0x24>
    3ac8:	d01fffe0 	adrp	x0, 40001000 <level_warning+0x140>
    3acc:	91278000 	add	x0, x0, #0x9e0
    3ad0:	9400235a 	bl	c838 <std_printf>
    3ad4:	b01fffe1 	adrp	x1, 40000000 <__ram_begin>
    3ad8:	528002c0 	mov	w0, #0x16                  	// #22
    3adc:	f9400421 	ldr	x1, [x1, #8]
    3ae0:	d63f0020 	blr	x1
    3ae4:	b5fff6d6 	cbnz	x22, 39bc <owi_write+0x24>
    3ae8:	17fffff0 	b	3aa8 <owi_write+0x110>
    3aec:	00000000 	.inst	0x00000000 ; undefined

0000000000003af0 <owi_search>:
    3af0:	a9b97bfd 	stp	x29, x30, [sp, #-112]!
    3af4:	910003fd 	mov	x29, sp
    3af8:	a90153f3 	stp	x19, x20, [sp, #16]
    3afc:	a9025bf5 	stp	x21, x22, [sp, #32]
    3b00:	aa0003f5 	mov	x21, x0
    3b04:	a90363f7 	stp	x23, x24, [sp, #48]
    3b08:	a9046bf9 	stp	x25, x26, [sp, #64]
    3b0c:	a90573fb 	stp	x27, x28, [sp, #80]
    3b10:	b4000b80 	cbz	x0, 3c80 <owi_search+0x190>
    3b14:	f94006b3 	ldr	x19, [x21, #8]
    3b18:	d2800000 	mov	x0, #0x0                   	// #0
    3b1c:	1280001a 	mov	w26, #0xffffffff            	// #-1
    3b20:	128001fb 	mov	w27, #0xfffffff0            	// #-16
    3b24:	f9000ebf 	str	xzr, [x21, #24]
    3b28:	f9400aa1 	ldr	x1, [x21, #16]
    3b2c:	eb00003f 	cmp	x1, x0
    3b30:	540003c9 	b.ls	3ba8 <owi_search+0xb8>  // b.plast
    3b34:	9100227c 	add	x28, x19, #0x8
    3b38:	52800018 	mov	w24, #0x0                   	// #0
    3b3c:	12800019 	mov	w25, #0xffffffff            	// #-1
    3b40:	aa1503e0 	mov	x0, x21
    3b44:	97fffeef 	bl	3700 <owi_reset>
    3b48:	3901bfbb 	strb	w27, [x29, #111]
    3b4c:	d2800102 	mov	x2, #0x8                   	// #8
    3b50:	9101bfa1 	add	x1, x29, #0x6f
    3b54:	aa1503e0 	mov	x0, x21
    3b58:	97ffff90 	bl	3998 <owi_write>
    3b5c:	11000717 	add	w23, w24, #0x1
    3b60:	d2800014 	mov	x20, #0x0                   	// #0
    3b64:	39400263 	ldrb	w3, [x19]
    3b68:	d2800042 	mov	x2, #0x2                   	// #2
    3b6c:	9101bfa1 	add	x1, x29, #0x6f
    3b70:	aa1503e0 	mov	x0, x21
    3b74:	53017c63 	lsr	w3, w3, #1
    3b78:	39000263 	strb	w3, [x19]
    3b7c:	3901bfbf 	strb	wzr, [x29, #111]
    3b80:	97ffff2c 	bl	3830 <owi_read>
    3b84:	3941bfa0 	ldrb	w0, [x29, #111]
    3b88:	7100041f 	cmp	w0, #0x1
    3b8c:	54000600 	b.eq	3c4c <owi_search+0x15c>  // b.none
    3b90:	340001a0 	cbz	w0, 3bc4 <owi_search+0xd4>
    3b94:	7100081f 	cmp	w0, #0x2
    3b98:	54000560 	b.eq	3c44 <owi_search+0x154>  // b.none
    3b9c:	71000c1f 	cmp	w0, #0x3
    3ba0:	54000201 	b.ne	3be0 <owi_search+0xf0>  // b.any
    3ba4:	b9401aa0 	ldr	w0, [x21, #24]
    3ba8:	a94153f3 	ldp	x19, x20, [sp, #16]
    3bac:	a9425bf5 	ldp	x21, x22, [sp, #32]
    3bb0:	a94363f7 	ldp	x23, x24, [sp, #48]
    3bb4:	a9446bf9 	ldp	x25, x26, [sp, #64]
    3bb8:	a94573fb 	ldp	x27, x28, [sp, #80]
    3bbc:	a8c77bfd 	ldp	x29, x30, [sp], #112
    3bc0:	d65f03c0 	ret
    3bc4:	0b140300 	add	w0, w24, w20
    3bc8:	6b00035f 	cmp	w26, w0
    3bcc:	5400044c 	b.gt	3c54 <owi_search+0x164>
    3bd0:	5400052a 	b.ge	3c74 <owi_search+0x184>  // b.tcont
    3bd4:	13001c19 	sxtb	w25, w0
    3bd8:	3901bfbf 	strb	wzr, [x29, #111]
    3bdc:	d503201f 	nop
    3be0:	d2800022 	mov	x2, #0x1                   	// #1
    3be4:	9101bfa1 	add	x1, x29, #0x6f
    3be8:	aa1503e0 	mov	x0, x21
    3bec:	97ffff6b 	bl	3998 <owi_write>
    3bf0:	3941bfa1 	ldrb	w1, [x29, #111]
    3bf4:	0b1402f6 	add	w22, w23, w20
    3bf8:	39400262 	ldrb	w2, [x19]
    3bfc:	52800020 	mov	w0, #0x1                   	// #1
    3c00:	91000694 	add	x20, x20, #0x1
    3c04:	2a011c41 	orr	w1, w2, w1, lsl #7
    3c08:	39000261 	strb	w1, [x19]
    3c0c:	94000a43 	bl	6518 <time_busy_wait_us>
    3c10:	f100229f 	cmp	x20, #0x8
    3c14:	54fffa81 	b.ne	3b64 <owi_search+0x74>  // b.any
    3c18:	91000673 	add	x19, x19, #0x1
    3c1c:	2a1603f8 	mov	w24, w22
    3c20:	eb1c027f 	cmp	x19, x28
    3c24:	54fff9c1 	b.ne	3b5c <owi_search+0x6c>  // b.any
    3c28:	f9400ea0 	ldr	x0, [x21, #24]
    3c2c:	2a1903fa 	mov	w26, w25
    3c30:	3100073f 	cmn	w25, #0x1
    3c34:	91000400 	add	x0, x0, #0x1
    3c38:	f9000ea0 	str	x0, [x21, #24]
    3c3c:	54fff761 	b.ne	3b28 <owi_search+0x38>  // b.any
    3c40:	17ffffda 	b	3ba8 <owi_search+0xb8>
    3c44:	3901bfbf 	strb	wzr, [x29, #111]
    3c48:	17ffffe6 	b	3be0 <owi_search+0xf0>
    3c4c:	3901bfa0 	strb	w0, [x29, #111]
    3c50:	17ffffe4 	b	3be0 <owi_search+0xf0>
    3c54:	385f8261 	ldurb	w1, [x19, #-8]
    3c58:	13001c00 	sxtb	w0, w0
    3c5c:	1ad42836 	asr	w22, w1, w20
    3c60:	120002d6 	and	w22, w22, #0x1
    3c64:	710002df 	cmp	w22, #0x0
    3c68:	3901bfb6 	strb	w22, [x29, #111]
    3c6c:	1a990019 	csel	w25, w0, w25, eq  // eq = none
    3c70:	17ffffdc 	b	3be0 <owi_search+0xf0>
    3c74:	52800020 	mov	w0, #0x1                   	// #1
    3c78:	3901bfa0 	strb	w0, [x29, #111]
    3c7c:	17ffffd9 	b	3be0 <owi_search+0xf0>
    3c80:	d01fffe0 	adrp	x0, 40001000 <level_warning+0x140>
    3c84:	91260000 	add	x0, x0, #0x980
    3c88:	940022ec 	bl	c838 <std_printf>
    3c8c:	b01fffe1 	adrp	x1, 40000000 <__ram_begin>
    3c90:	528002c0 	mov	w0, #0x16                  	// #22
    3c94:	f9400421 	ldr	x1, [x1, #8]
    3c98:	d63f0020 	blr	x1
    3c9c:	17ffff9e 	b	3b14 <owi_search+0x24>

0000000000003ca0 <uart_port_write_cb>:
    3ca0:	a9bd7bfd 	stp	x29, x30, [sp, #-48]!
    3ca4:	910003fd 	mov	x29, sp
    3ca8:	a90153f3 	stp	x19, x20, [sp, #16]
    3cac:	aa0003f3 	mov	x19, x0
    3cb0:	a9025bf5 	stp	x21, x22, [sp, #32]
    3cb4:	9102a015 	add	x21, x0, #0xa8
    3cb8:	aa0203f4 	mov	x20, x2
    3cbc:	aa0103f6 	mov	x22, x1
    3cc0:	aa1503e0 	mov	x0, x21
    3cc4:	94001f89 	bl	bae8 <mutex_lock>
    3cc8:	a90bd276 	stp	x22, x20, [x19, #184]
    3ccc:	9400071d 	bl	5940 <thrd_self>
    3cd0:	f9006660 	str	x0, [x19, #200]
    3cd4:	94000669 	bl	5678 <sys_lock>
    3cd8:	a94b8662 	ldp	x2, x1, [x19, #184]
    3cdc:	d2a12003 	mov	x3, #0x9000000             	// #150994944
    3ce0:	91000440 	add	x0, x2, #0x1
    3ce4:	f9005e60 	str	x0, [x19, #184]
    3ce8:	d1000421 	sub	x1, x1, #0x1
    3cec:	d2800000 	mov	x0, #0x0                   	// #0
    3cf0:	39400042 	ldrb	w2, [x2]
    3cf4:	b9000062 	str	w2, [x3]
    3cf8:	f9006261 	str	x1, [x19, #192]
    3cfc:	940008fb 	bl	60e8 <thrd_suspend_isr>
    3d00:	94000660 	bl	5680 <sys_unlock>
    3d04:	aa1503e0 	mov	x0, x21
    3d08:	94001fa2 	bl	bb90 <mutex_unlock>
    3d0c:	aa1403e0 	mov	x0, x20
    3d10:	a94153f3 	ldp	x19, x20, [sp, #16]
    3d14:	a9425bf5 	ldp	x21, x22, [sp, #32]
    3d18:	a8c37bfd 	ldp	x29, x30, [sp], #48
    3d1c:	d65f03c0 	ret

0000000000003d20 <isr_pl011>:
    3d20:	a9bc7bfd 	stp	x29, x30, [sp, #-64]!
    3d24:	b0200020 	adrp	x0, 40008000 <module>
    3d28:	910003fd 	mov	x29, sp
    3d2c:	f9000ff4 	str	x20, [sp, #24]
    3d30:	f940fc14 	ldr	x20, [x0, #504]
    3d34:	b40003f4 	cbz	x20, 3db0 <isr_pl011+0x90>
    3d38:	d2a12000 	mov	x0, #0x9000000             	// #150994944
    3d3c:	f9000bb3 	str	x19, [x29, #16]
    3d40:	b9404013 	ldr	w19, [x0, #64]
    3d44:	36280173 	tbz	w19, #5, 3d70 <isr_pl011+0x50>
    3d48:	f9406281 	ldr	x1, [x20, #192]
    3d4c:	52800402 	mov	w2, #0x20                  	// #32
    3d50:	b9004402 	str	w2, [x0, #68]
    3d54:	b5000481 	cbnz	x1, 3de4 <isr_pl011+0xc4>
    3d58:	f9406680 	ldr	x0, [x20, #200]
    3d5c:	b40000a0 	cbz	x0, 3d70 <isr_pl011+0x50>
    3d60:	52800001 	mov	w1, #0x0                   	// #0
    3d64:	940008b9 	bl	6048 <thrd_resume_isr>
    3d68:	f900669f 	str	xzr, [x20, #200]
    3d6c:	d503201f 	nop
    3d70:	36200273 	tbz	w19, #4, 3dbc <isr_pl011+0x9c>
    3d74:	f90013b5 	str	x21, [x29, #32]
    3d78:	d2a12013 	mov	x19, #0x9000000             	// #150994944
    3d7c:	528001f5 	mov	w21, #0xf                   	// #15
    3d80:	b9401a60 	ldr	w0, [x19, #24]
    3d84:	372000e0 	tbnz	w0, #4, 3da0 <isr_pl011+0x80>
    3d88:	b9400260 	ldr	w0, [x19]
    3d8c:	72180c1f 	tst	w0, #0xf00
    3d90:	540001e0 	b.eq	3dcc <isr_pl011+0xac>  // b.none
    3d94:	b9000675 	str	w21, [x19, #4]
    3d98:	b9401a60 	ldr	w0, [x19, #24]
    3d9c:	3627ff60 	tbz	w0, #4, 3d88 <isr_pl011+0x68>
    3da0:	52800200 	mov	w0, #0x10                  	// #16
    3da4:	f94013b5 	ldr	x21, [x29, #32]
    3da8:	b9004660 	str	w0, [x19, #68]
    3dac:	f9400bb3 	ldr	x19, [x29, #16]
    3db0:	f9400ff4 	ldr	x20, [sp, #24]
    3db4:	a8c47bfd 	ldp	x29, x30, [sp], #64
    3db8:	d65f03c0 	ret
    3dbc:	f9400bb3 	ldr	x19, [x29, #16]
    3dc0:	f9400ff4 	ldr	x20, [sp, #24]
    3dc4:	a8c47bfd 	ldp	x29, x30, [sp], #64
    3dc8:	d65f03c0 	ret
    3dcc:	3900ffa0 	strb	w0, [x29, #63]
    3dd0:	d2800022 	mov	x2, #0x1                   	// #1
    3dd4:	9100ffa1 	add	x1, x29, #0x3f
    3dd8:	aa1403e0 	mov	x0, x20
    3ddc:	94001ff7 	bl	bdb8 <queue_write_isr>
    3de0:	17ffffe8 	b	3d80 <isr_pl011+0x60>
    3de4:	f9405e82 	ldr	x2, [x20, #184]
    3de8:	d1000421 	sub	x1, x1, #0x1
    3dec:	91000443 	add	x3, x2, #0x1
    3df0:	f9005e83 	str	x3, [x20, #184]
    3df4:	39400042 	ldrb	w2, [x2]
    3df8:	b9000002 	str	w2, [x0]
    3dfc:	f9006281 	str	x1, [x20, #192]
    3e00:	3727fbb3 	tbnz	w19, #4, 3d74 <isr_pl011+0x54>
    3e04:	17ffffee 	b	3dbc <isr_pl011+0x9c>

0000000000003e08 <uart_module_init>:
    3e08:	f0200000 	adrp	x0, 40006000 <null+0x928>
    3e0c:	39eb4001 	ldrsb	w1, [x0, #2768]
    3e10:	7100043f 	cmp	w1, #0x1
    3e14:	54000060 	b.eq	3e20 <uart_module_init+0x18>  // b.none
    3e18:	52800021 	mov	w1, #0x1                   	// #1
    3e1c:	392b4001 	strb	w1, [x0, #2768]
    3e20:	52800000 	mov	w0, #0x0                   	// #0
    3e24:	d65f03c0 	ret

0000000000003e28 <uart_init>:
    3e28:	a9bc7bfd 	stp	x29, x30, [sp, #-64]!
    3e2c:	910003fd 	mov	x29, sp
    3e30:	a90153f3 	stp	x19, x20, [sp, #16]
    3e34:	aa0003f3 	mov	x19, x0
    3e38:	a9025bf5 	stp	x21, x22, [sp, #32]
    3e3c:	aa0103f4 	mov	x20, x1
    3e40:	f9001bf7 	str	x23, [sp, #48]
    3e44:	aa0303f5 	mov	x21, x3
    3e48:	aa0403f6 	mov	x22, x4
    3e4c:	aa0203f7 	mov	x23, x2
    3e50:	b4000320 	cbz	x0, 3eb4 <uart_init+0x8c>
    3e54:	b4000434 	cbz	x20, 3ed8 <uart_init+0xb0>
    3e58:	f9005274 	str	x20, [x19, #160]
    3e5c:	9102a260 	add	x0, x19, #0xa8
    3e60:	f9006a77 	str	x23, [x19, #208]
    3e64:	b900da7f 	str	wzr, [x19, #216]
    3e68:	94001f18 	bl	bac8 <mutex_init>
    3e6c:	aa1603e2 	mov	x2, x22
    3e70:	aa1503e1 	mov	x1, x21
    3e74:	aa1303e0 	mov	x0, x19
    3e78:	9400206e 	bl	c030 <queue_init>
    3e7c:	aa1303e0 	mov	x0, x19
    3e80:	90000001 	adrp	x1, 3000 <i2c_read+0x40>
    3e84:	91328021 	add	x1, x1, #0xca0
    3e88:	94001e3e 	bl	b780 <chan_set_write_cb>
    3e8c:	aa1303e0 	mov	x0, x19
    3e90:	90000001 	adrp	x1, 3000 <i2c_read+0x40>
    3e94:	913ea021 	add	x1, x1, #0xfa8
    3e98:	94001e3e 	bl	b790 <chan_set_write_isr_cb>
    3e9c:	52800000 	mov	w0, #0x0                   	// #0
    3ea0:	f9401bf7 	ldr	x23, [sp, #48]
    3ea4:	a94153f3 	ldp	x19, x20, [sp, #16]
    3ea8:	a9425bf5 	ldp	x21, x22, [sp, #32]
    3eac:	a8c47bfd 	ldp	x29, x30, [sp], #64
    3eb0:	d65f03c0 	ret
    3eb4:	d01fffe0 	adrp	x0, 40001000 <level_warning+0x140>
    3eb8:	912c0000 	add	x0, x0, #0xb00
    3ebc:	9400225f 	bl	c838 <std_printf>
    3ec0:	b01fffe1 	adrp	x1, 40000000 <__ram_begin>
    3ec4:	528002c0 	mov	w0, #0x16                  	// #22
    3ec8:	f9400421 	ldr	x1, [x1, #8]
    3ecc:	d63f0020 	blr	x1
    3ed0:	b5fffc54 	cbnz	x20, 3e58 <uart_init+0x30>
    3ed4:	d503201f 	nop
    3ed8:	d01fffe0 	adrp	x0, 40001000 <level_warning+0x140>
    3edc:	912da000 	add	x0, x0, #0xb68
    3ee0:	94002256 	bl	c838 <std_printf>
    3ee4:	b01fffe1 	adrp	x1, 40000000 <__ram_begin>
    3ee8:	528002c0 	mov	w0, #0x16                  	// #22
    3eec:	f9400421 	ldr	x1, [x1, #8]
    3ef0:	d63f0020 	blr	x1
    3ef4:	17ffffd9 	b	3e58 <uart_init+0x30>

0000000000003ef8 <uart_start>:
    3ef8:	a9be7bfd 	stp	x29, x30, [sp, #-32]!
    3efc:	910003fd 	mov	x29, sp
    3f00:	f9000bf3 	str	x19, [sp, #16]
    3f04:	aa0003f3 	mov	x19, x0
    3f08:	b4000280 	cbz	x0, 3f58 <uart_start+0x60>
    3f0c:	f9405260 	ldr	x0, [x19, #160]
    3f10:	d2a12002 	mov	x2, #0x9000000             	// #150994944
    3f14:	52800e05 	mov	w5, #0x70                  	// #112
    3f18:	52806024 	mov	w4, #0x301                 	// #769
    3f1c:	d2a10001 	mov	x1, #0x8000000             	// #134217728
    3f20:	52800603 	mov	w3, #0x30                  	// #48
    3f24:	f9000013 	str	x19, [x0]
    3f28:	52800000 	mov	w0, #0x0                   	// #0
    3f2c:	f9400bf3 	ldr	x19, [sp, #16]
    3f30:	b9002c45 	str	w5, [x2, #44]
    3f34:	b9003044 	str	w4, [x2, #48]
    3f38:	b9003843 	str	w3, [x2, #56]
    3f3c:	b9442022 	ldr	w2, [x1, #1056]
    3f40:	b9042022 	str	w2, [x1, #1056]
    3f44:	b9410422 	ldr	w2, [x1, #260]
    3f48:	321f0042 	orr	w2, w2, #0x2
    3f4c:	b9010422 	str	w2, [x1, #260]
    3f50:	a8c27bfd 	ldp	x29, x30, [sp], #32
    3f54:	d65f03c0 	ret
    3f58:	d01fffe0 	adrp	x0, 40001000 <level_warning+0x140>
    3f5c:	912f2000 	add	x0, x0, #0xbc8
    3f60:	94002236 	bl	c838 <std_printf>
    3f64:	b01fffe1 	adrp	x1, 40000000 <__ram_begin>
    3f68:	528002c0 	mov	w0, #0x16                  	// #22
    3f6c:	f9400421 	ldr	x1, [x1, #8]
    3f70:	d63f0020 	blr	x1
    3f74:	17ffffe6 	b	3f0c <uart_start+0x14>

0000000000003f78 <uart_device_write>:
    3f78:	aa0203e0 	mov	x0, x2
    3f7c:	b4000122 	cbz	x2, 3fa0 <uart_device_write+0x28>
    3f80:	8b020025 	add	x5, x1, x2
    3f84:	d2a12004 	mov	x4, #0x9000000             	// #150994944
    3f88:	b9401883 	ldr	w3, [x4, #24]
    3f8c:	372fffe3 	tbnz	w3, #5, 3f88 <uart_device_write+0x10>
    3f90:	38401423 	ldrb	w3, [x1], #1
    3f94:	b9000083 	str	w3, [x4]
    3f98:	eb0100bf 	cmp	x5, x1
    3f9c:	54ffff61 	b.ne	3f88 <uart_device_write+0x10>  // b.any
    3fa0:	d65f03c0 	ret
    3fa4:	00000000 	.inst	0x00000000 ; undefined

0000000000003fa8 <uart_port_write_cb_isr>:
    3fa8:	17fffff4 	b	3f78 <uart_device_write>
    3fac:	00000000 	.inst	0x00000000 ; undefined

0000000000003fb0 <ds18b20_module_init>:
    3fb0:	f0200004 	adrp	x4, 40006000 <null+0x928>
    3fb4:	39eb6080 	ldrsb	w0, [x4, #2776]
    3fb8:	7100041f 	cmp	w0, #0x1
    3fbc:	540002a0 	b.eq	4010 <ds18b20_module_init+0x60>  // b.none
    3fc0:	a9be7bfd 	stp	x29, x30, [sp, #-32]!
    3fc4:	52800025 	mov	w5, #0x1                   	// #1
    3fc8:	b0000002 	adrp	x2, 4000 <ds18b20_module_init+0x50>
    3fcc:	d01fffe1 	adrp	x1, 40001000 <level_warning+0x140>
    3fd0:	910003fd 	mov	x29, sp
    3fd4:	f9000bf3 	str	x19, [sp, #16]
    3fd8:	910b4042 	add	x2, x2, #0x2d0
    3fdc:	912b6093 	add	x19, x4, #0xad8
    3fe0:	91338021 	add	x1, x1, #0xce0
    3fe4:	d2800003 	mov	x3, #0x0                   	// #0
    3fe8:	91004273 	add	x19, x19, #0x10
    3fec:	392b6085 	strb	w5, [x4, #2776]
    3ff0:	aa1303e0 	mov	x0, x19
    3ff4:	94001cd3 	bl	b340 <fs_command_init>
    3ff8:	aa1303e0 	mov	x0, x19
    3ffc:	94001d03 	bl	b408 <fs_command_register>
    4000:	52800000 	mov	w0, #0x0                   	// #0
    4004:	f9400bf3 	ldr	x19, [sp, #16]
    4008:	a8c27bfd 	ldp	x29, x30, [sp], #32
    400c:	d65f03c0 	ret
    4010:	52800000 	mov	w0, #0x0                   	// #0
    4014:	d65f03c0 	ret

0000000000004018 <ds18b20_convert>:
    4018:	a9bd7bfd 	stp	x29, x30, [sp, #-48]!
    401c:	910003fd 	mov	x29, sp
    4020:	a90153f3 	stp	x19, x20, [sp, #16]
    4024:	aa0003f4 	mov	x20, x0
    4028:	b40002c0 	cbz	x0, 4080 <ds18b20_convert+0x68>
    402c:	f9400280 	ldr	x0, [x20]
    4030:	9100c3b3 	add	x19, x29, #0x30
    4034:	97fffdb3 	bl	3700 <owi_reset>
    4038:	f9400280 	ldr	x0, [x20]
    403c:	12800661 	mov	w1, #0xffffffcc            	// #-52
    4040:	381ffe61 	strb	w1, [x19, #-1]!
    4044:	d2800102 	mov	x2, #0x8                   	// #8
    4048:	aa1303e1 	mov	x1, x19
    404c:	97fffe53 	bl	3998 <owi_write>
    4050:	f9400280 	ldr	x0, [x20]
    4054:	52800883 	mov	w3, #0x44                  	// #68
    4058:	aa1303e1 	mov	x1, x19
    405c:	d2800102 	mov	x2, #0x8                   	// #8
    4060:	3900bfa3 	strb	w3, [x29, #47]
    4064:	97fffe4d 	bl	3998 <owi_write>
    4068:	52805dc0 	mov	w0, #0x2ee                 	// #750
    406c:	9400089b 	bl	62d8 <thrd_sleep_ms>
    4070:	52800000 	mov	w0, #0x0                   	// #0
    4074:	a94153f3 	ldp	x19, x20, [sp, #16]
    4078:	a8c37bfd 	ldp	x29, x30, [sp], #48
    407c:	d65f03c0 	ret
    4080:	b01fffe0 	adrp	x0, 40001000 <level_warning+0x140>
    4084:	9131e000 	add	x0, x0, #0xc78
    4088:	940021ec 	bl	c838 <std_printf>
    408c:	901fffe1 	adrp	x1, 40000000 <__ram_begin>
    4090:	528002c0 	mov	w0, #0x16                  	// #22
    4094:	f9400421 	ldr	x1, [x1, #8]
    4098:	d63f0020 	blr	x1
    409c:	17ffffe4 	b	402c <ds18b20_convert+0x14>

00000000000040a0 <ds18b20_read_fixed_point>:
    40a0:	a9bb7bfd 	stp	x29, x30, [sp, #-80]!
    40a4:	910003fd 	mov	x29, sp
    40a8:	a90153f3 	stp	x19, x20, [sp, #16]
    40ac:	aa0003f3 	mov	x19, x0
    40b0:	a9025bf5 	stp	x21, x22, [sp, #32]
    40b4:	aa0103f5 	mov	x21, x1
    40b8:	aa0203f6 	mov	x22, x2
    40bc:	b4000720 	cbz	x0, 41a0 <ds18b20_read_fixed_point+0x100>
    40c0:	b40004f5 	cbz	x21, 415c <ds18b20_read_fixed_point+0xbc>
    40c4:	b40005f6 	cbz	x22, 4180 <ds18b20_read_fixed_point+0xe0>
    40c8:	f9400260 	ldr	x0, [x19]
    40cc:	910143b4 	add	x20, x29, #0x50
    40d0:	97fffd8c 	bl	3700 <owi_reset>
    40d4:	f9400260 	ldr	x0, [x19]
    40d8:	52800aa1 	mov	w1, #0x55                  	// #85
    40dc:	381efe81 	strb	w1, [x20, #-17]!
    40e0:	d2800102 	mov	x2, #0x8                   	// #8
    40e4:	aa1403e1 	mov	x1, x20
    40e8:	97fffe2c 	bl	3998 <owi_write>
    40ec:	f9400260 	ldr	x0, [x19]
    40f0:	d2800802 	mov	x2, #0x40                  	// #64
    40f4:	aa1503e1 	mov	x1, x21
    40f8:	97fffe28 	bl	3998 <owi_write>
    40fc:	f9400260 	ldr	x0, [x19]
    4100:	12800823 	mov	w3, #0xffffffbe            	// #-66
    4104:	d2800102 	mov	x2, #0x8                   	// #8
    4108:	3900ffa3 	strb	w3, [x29, #63]
    410c:	aa1403e1 	mov	x1, x20
    4110:	97fffe22 	bl	3998 <owi_write>
    4114:	f9400260 	ldr	x0, [x19]
    4118:	d2800902 	mov	x2, #0x48                  	// #72
    411c:	910103a1 	add	x1, x29, #0x40
    4120:	97fffdc4 	bl	3830 <owi_read>
    4124:	d2800123 	mov	x3, #0x9                   	// #9
    4128:	910103a2 	add	x2, x29, #0x40
    412c:	12800e61 	mov	w1, #0xffffff8c            	// #-116
    4130:	52800000 	mov	w0, #0x0                   	// #0
    4134:	940003c9 	bl	5058 <crc_8>
    4138:	72001c1f 	tst	w0, #0xff
    413c:	54000441 	b.ne	41c4 <ds18b20_read_fixed_point+0x124>  // b.any
    4140:	79c083a1 	ldrsh	w1, [x29, #64]
    4144:	52800000 	mov	w0, #0x0                   	// #0
    4148:	b90002c1 	str	w1, [x22]
    414c:	a94153f3 	ldp	x19, x20, [sp, #16]
    4150:	a9425bf5 	ldp	x21, x22, [sp, #32]
    4154:	a8c57bfd 	ldp	x29, x30, [sp], #80
    4158:	d65f03c0 	ret
    415c:	b01fffe0 	adrp	x0, 40001000 <level_warning+0x140>
    4160:	91358000 	add	x0, x0, #0xd60
    4164:	940021b5 	bl	c838 <std_printf>
    4168:	901fffe1 	adrp	x1, 40000000 <__ram_begin>
    416c:	528002c0 	mov	w0, #0x16                  	// #22
    4170:	f9400421 	ldr	x1, [x1, #8]
    4174:	d63f0020 	blr	x1
    4178:	b5fffa96 	cbnz	x22, 40c8 <ds18b20_read_fixed_point+0x28>
    417c:	d503201f 	nop
    4180:	b01fffe0 	adrp	x0, 40001000 <level_warning+0x140>
    4184:	91372000 	add	x0, x0, #0xdc8
    4188:	940021ac 	bl	c838 <std_printf>
    418c:	901fffe1 	adrp	x1, 40000000 <__ram_begin>
    4190:	528002c0 	mov	w0, #0x16                  	// #22
    4194:	f9400421 	ldr	x1, [x1, #8]
    4198:	d63f0020 	blr	x1
    419c:	17ffffcb 	b	40c8 <ds18b20_read_fixed_point+0x28>
    41a0:	b01fffe0 	adrp	x0, 40001000 <level_warning+0x140>
    41a4:	9133e000 	add	x0, x0, #0xcf8
    41a8:	940021a4 	bl	c838 <std_printf>
    41ac:	901fffe1 	adrp	x1, 40000000 <__ram_begin>
    41b0:	528002c0 	mov	w0, #0x16                  	// #22
    41b4:	f9400421 	ldr	x1, [x1, #8]
    41b8:	d63f0020 	blr	x1
    41bc:	b5fff855 	cbnz	x21, 40c4 <ds18b20_read_fixed_point+0x24>
    41c0:	17ffffe7 	b	415c <ds18b20_read_fixed_point+0xbc>
    41c4:	128008c0 	mov	w0, #0xffffffb9            	// #-71
    41c8:	17ffffe1 	b	414c <ds18b20_read_fixed_point+0xac>
    41cc:	00000000 	.inst	0x00000000 ; undefined

00000000000041d0 <ds18b20_read_string>:
    41d0:	a9bc7bfd 	stp	x29, x30, [sp, #-64]!
    41d4:	910003fd 	mov	x29, sp
    41d8:	a90153f3 	stp	x19, x20, [sp, #16]
    41dc:	aa0003f4 	mov	x20, x0
    41e0:	f90013f5 	str	x21, [sp, #32]
    41e4:	aa0203f3 	mov	x19, x2
    41e8:	aa0103f5 	mov	x21, x1
    41ec:	b4000600 	cbz	x0, 42ac <ds18b20_read_string+0xdc>
    41f0:	b40002b5 	cbz	x21, 4244 <ds18b20_read_string+0x74>
    41f4:	b40003b3 	cbz	x19, 4268 <ds18b20_read_string+0x98>
    41f8:	9100f3a2 	add	x2, x29, #0x3c
    41fc:	aa1503e1 	mov	x1, x21
    4200:	aa1403e0 	mov	x0, x20
    4204:	97ffffa7 	bl	40a0 <ds18b20_read_fixed_point>
    4208:	35000480 	cbnz	w0, 4298 <ds18b20_read_string+0xc8>
    420c:	b9403fa2 	ldr	w2, [x29, #60]
    4210:	52804e23 	mov	w3, #0x271                 	// #625
    4214:	aa1303e0 	mov	x0, x19
    4218:	b01fffe1 	adrp	x1, 40001000 <level_warning+0x140>
    421c:	12000c44 	and	w4, w2, #0xf
    4220:	913de021 	add	x1, x1, #0xf78
    4224:	13047c42 	asr	w2, w2, #4
    4228:	1b037c83 	mul	w3, w4, w3
    422c:	940021d3 	bl	c978 <std_sprintf>
    4230:	f94013f5 	ldr	x21, [sp, #32]
    4234:	aa1303e0 	mov	x0, x19
    4238:	a94153f3 	ldp	x19, x20, [sp, #16]
    423c:	a8c47bfd 	ldp	x29, x30, [sp], #64
    4240:	d65f03c0 	ret
    4244:	b01fffe0 	adrp	x0, 40001000 <level_warning+0x140>
    4248:	913a8000 	add	x0, x0, #0xea0
    424c:	9400217b 	bl	c838 <std_printf>
    4250:	901fffe1 	adrp	x1, 40000000 <__ram_begin>
    4254:	528002c0 	mov	w0, #0x16                  	// #22
    4258:	f9400421 	ldr	x1, [x1, #8]
    425c:	d63f0020 	blr	x1
    4260:	b5fffcd3 	cbnz	x19, 41f8 <ds18b20_read_string+0x28>
    4264:	d503201f 	nop
    4268:	b01fffe0 	adrp	x0, 40001000 <level_warning+0x140>
    426c:	913c2000 	add	x0, x0, #0xf08
    4270:	94002172 	bl	c838 <std_printf>
    4274:	901fffe1 	adrp	x1, 40000000 <__ram_begin>
    4278:	528002c0 	mov	w0, #0x16                  	// #22
    427c:	f9400421 	ldr	x1, [x1, #8]
    4280:	d63f0020 	blr	x1
    4284:	9100f3a2 	add	x2, x29, #0x3c
    4288:	aa1503e1 	mov	x1, x21
    428c:	aa1403e0 	mov	x0, x20
    4290:	97ffff84 	bl	40a0 <ds18b20_read_fixed_point>
    4294:	34fffbc0 	cbz	w0, 420c <ds18b20_read_string+0x3c>
    4298:	a94153f3 	ldp	x19, x20, [sp, #16]
    429c:	d2800000 	mov	x0, #0x0                   	// #0
    42a0:	f94013f5 	ldr	x21, [sp, #32]
    42a4:	a8c47bfd 	ldp	x29, x30, [sp], #64
    42a8:	d65f03c0 	ret
    42ac:	b01fffe0 	adrp	x0, 40001000 <level_warning+0x140>
    42b0:	9138e000 	add	x0, x0, #0xe38
    42b4:	94002161 	bl	c838 <std_printf>
    42b8:	901fffe1 	adrp	x1, 40000000 <__ram_begin>
    42bc:	528002c0 	mov	w0, #0x16                  	// #22
    42c0:	f9400421 	ldr	x1, [x1, #8]
    42c4:	d63f0020 	blr	x1
    42c8:	b5fff975 	cbnz	x21, 41f4 <ds18b20_read_string+0x24>
    42cc:	17ffffde 	b	4244 <ds18b20_read_string+0x74>

00000000000042d0 <cmd_list_cb>:
    42d0:	d10203ff 	sub	sp, sp, #0x80
    42d4:	b01fffe1 	adrp	x1, 40001000 <level_warning+0x140>
    42d8:	aa0203e0 	mov	x0, x2
    42dc:	9130c021 	add	x1, x1, #0xc30
    42e0:	a9027bfd 	stp	x29, x30, [sp, #32]
    42e4:	910083fd 	add	x29, sp, #0x20
    42e8:	f90023f5 	str	x21, [sp, #64]
    42ec:	f9002ff8 	str	x24, [sp, #88]
    42f0:	aa0203f8 	mov	x24, x2
    42f4:	940021f5 	bl	cac8 <std_fprintf>
    42f8:	d0200000 	adrp	x0, 40006000 <null+0x928>
    42fc:	f9457015 	ldr	x21, [x0, #2784]
    4300:	b4000775 	cbz	x21, 43ec <cmd_list_cb+0x11c>
    4304:	a902dfb6 	stp	x22, x23, [x29, #40]
    4308:	b01ffff7 	adrp	x23, 40001000 <level_warning+0x140>
    430c:	910143b6 	add	x22, x29, #0x50
    4310:	913142f7 	add	x23, x23, #0xc50
    4314:	a90153b3 	stp	x19, x20, [x29, #16]
    4318:	f90023b9 	str	x25, [x29, #64]
    431c:	d503201f 	nop
    4320:	f94002a0 	ldr	x0, [x21]
    4324:	97fffdf3 	bl	3af0 <owi_search>
    4328:	aa1503e0 	mov	x0, x21
    432c:	97ffff3b 	bl	4018 <ds18b20_convert>
    4330:	f94002a2 	ldr	x2, [x21]
    4334:	f9400c40 	ldr	x0, [x2, #24]
    4338:	f9400453 	ldr	x19, [x2, #8]
    433c:	b40004e0 	cbz	x0, 43d8 <cmd_list_cb+0x108>
    4340:	d2800034 	mov	x20, #0x1                   	// #1
    4344:	528005b9 	mov	w25, #0x2d                  	// #45
    4348:	14000007 	b	4364 <cmd_list_cb+0x94>
    434c:	f9400c41 	ldr	x1, [x2, #24]
    4350:	91000680 	add	x0, x20, #0x1
    4354:	91002273 	add	x19, x19, #0x8
    4358:	eb14003f 	cmp	x1, x20
    435c:	aa0003f4 	mov	x20, x0
    4360:	540003c9 	b.ls	43d8 <cmd_list_cb+0x108>  // b.plast
    4364:	39400260 	ldrb	w0, [x19]
    4368:	7100a01f 	cmp	w0, #0x28
    436c:	54ffff01 	b.ne	434c <cmd_list_cb+0x7c>  // b.any
    4370:	aa1303e1 	mov	x1, x19
    4374:	aa1603e2 	mov	x2, x22
    4378:	aa1503e0 	mov	x0, x21
    437c:	97ffff95 	bl	41d0 <ds18b20_read_string>
    4380:	b4000420 	cbz	x0, 4404 <cmd_list_cb+0x134>
    4384:	39400262 	ldrb	w2, [x19]
    4388:	aa1703e1 	mov	x1, x23
    438c:	39401667 	ldrb	w7, [x19, #5]
    4390:	aa1803e0 	mov	x0, x24
    4394:	39401266 	ldrb	w6, [x19, #4]
    4398:	91002273 	add	x19, x19, #0x8
    439c:	385fb265 	ldurb	w5, [x19, #-5]
    43a0:	385fa264 	ldurb	w4, [x19, #-6]
    43a4:	385f9263 	ldurb	w3, [x19, #-7]
    43a8:	f9000bf6 	str	x22, [sp, #16]
    43ac:	385ff268 	ldurb	w8, [x19, #-1]
    43b0:	b9000be8 	str	w8, [sp, #8]
    43b4:	385fe268 	ldurb	w8, [x19, #-2]
    43b8:	b90003e8 	str	w8, [sp]
    43bc:	940021c3 	bl	cac8 <std_fprintf>
    43c0:	f94002a2 	ldr	x2, [x21]
    43c4:	91000680 	add	x0, x20, #0x1
    43c8:	f9400c41 	ldr	x1, [x2, #24]
    43cc:	eb14003f 	cmp	x1, x20
    43d0:	aa0003f4 	mov	x20, x0
    43d4:	54fffc88 	b.hi	4364 <cmd_list_cb+0x94>  // b.pmore
    43d8:	f94006b5 	ldr	x21, [x21, #8]
    43dc:	b5fffa35 	cbnz	x21, 4320 <cmd_list_cb+0x50>
    43e0:	a94153b3 	ldp	x19, x20, [x29, #16]
    43e4:	a942dfb6 	ldp	x22, x23, [x29, #40]
    43e8:	f94023b9 	ldr	x25, [x29, #64]
    43ec:	a9427bfd 	ldp	x29, x30, [sp, #32]
    43f0:	52800000 	mov	w0, #0x0                   	// #0
    43f4:	f94023f5 	ldr	x21, [sp, #64]
    43f8:	f9402ff8 	ldr	x24, [sp, #88]
    43fc:	910203ff 	add	sp, sp, #0x80
    4400:	d65f03c0 	ret
    4404:	7900a3b9 	strh	w25, [x29, #80]
    4408:	17ffffdf 	b	4384 <cmd_list_cb+0xb4>
    440c:	00000000 	.inst	0x00000000 ; undefined

0000000000004410 <calculate_chunk_crc.isra.0>:
    4410:	a9bb7bfd 	stp	x29, x30, [sp, #-80]!
    4414:	910003fd 	mov	x29, sp
    4418:	f9000ff4 	str	x20, [sp, #24]
    441c:	f90017f6 	str	x22, [sp, #40]
    4420:	aa0003f6 	mov	x22, x0
    4424:	f9001ff8 	str	x24, [sp, #56]
    4428:	aa0203f8 	mov	x24, x2
    442c:	f9400020 	ldr	x0, [x1]
    4430:	f100201f 	cmp	x0, #0x8
    4434:	540005c9 	b.ls	44ec <calculate_chunk_crc.isra.0+0xdc>  // b.plast
    4438:	f9000bb3 	str	x19, [x29, #16]
    443c:	52800014 	mov	w20, #0x0                   	// #0
    4440:	f90013b5 	str	x21, [x29, #32]
    4444:	d2800113 	mov	x19, #0x8                   	// #8
    4448:	f9001bb7 	str	x23, [x29, #48]
    444c:	aa0103f5 	mov	x21, x1
    4450:	aa0303f7 	mov	x23, x3
    4454:	14000007 	b	4470 <calculate_chunk_crc.isra.0+0x60>
    4458:	940002dc 	bl	4fc8 <crc_32>
    445c:	2a0003f4 	mov	w20, w0
    4460:	940007a2 	bl	62e8 <thrd_yield>
    4464:	f94002a0 	ldr	x0, [x21]
    4468:	eb00027f 	cmp	x19, x0
    446c:	540002c2 	b.cs	44c4 <calculate_chunk_crc.isra.0+0xb4>  // b.hs, b.nlast
    4470:	f94002c0 	ldr	x0, [x22]
    4474:	d2800103 	mov	x3, #0x8                   	// #8
    4478:	8b1302e2 	add	x2, x23, x19
    447c:	910123a1 	add	x1, x29, #0x48
    4480:	8b030273 	add	x19, x19, x3
    4484:	9400025d 	bl	4df8 <flash_read>
    4488:	aa0003e3 	mov	x3, x0
    448c:	aa0003e2 	mov	x2, x0
    4490:	910123a1 	add	x1, x29, #0x48
    4494:	2a1403e0 	mov	w0, w20
    4498:	f100207f 	cmp	x3, #0x8
    449c:	54fffde0 	b.eq	4458 <calculate_chunk_crc.isra.0+0x48>  // b.none
    44a0:	f9400bb3 	ldr	x19, [x29, #16]
    44a4:	12800000 	mov	w0, #0xffffffff            	// #-1
    44a8:	f94013b5 	ldr	x21, [x29, #32]
    44ac:	f9401bb7 	ldr	x23, [x29, #48]
    44b0:	f9400ff4 	ldr	x20, [sp, #24]
    44b4:	f94017f6 	ldr	x22, [sp, #40]
    44b8:	f9401ff8 	ldr	x24, [sp, #56]
    44bc:	a8c57bfd 	ldp	x29, x30, [sp], #80
    44c0:	d65f03c0 	ret
    44c4:	f9400bb3 	ldr	x19, [x29, #16]
    44c8:	f94013b5 	ldr	x21, [x29, #32]
    44cc:	f9401bb7 	ldr	x23, [x29, #48]
    44d0:	b9000314 	str	w20, [x24]
    44d4:	52800000 	mov	w0, #0x0                   	// #0
    44d8:	f9400ff4 	ldr	x20, [sp, #24]
    44dc:	f94017f6 	ldr	x22, [sp, #40]
    44e0:	f9401ff8 	ldr	x24, [sp, #56]
    44e4:	a8c57bfd 	ldp	x29, x30, [sp], #80
    44e8:	d65f03c0 	ret
    44ec:	52800014 	mov	w20, #0x0                   	// #0
    44f0:	17fffff8 	b	44d0 <calculate_chunk_crc.isra.0+0xc0>
    44f4:	00000000 	.inst	0x00000000 ; undefined

00000000000044f8 <write_header>:
    44f8:	a9bc7bfd 	stp	x29, x30, [sp, #-64]!
    44fc:	aa0103e3 	mov	x3, x1
    4500:	910003fd 	mov	x29, sp
    4504:	a90153f3 	stp	x19, x20, [sp, #16]
    4508:	aa0103f3 	mov	x19, x1
    450c:	f90013f5 	str	x21, [sp, #32]
    4510:	aa0003f4 	mov	x20, x0
    4514:	12003c55 	and	w21, w2, #0xffff
    4518:	91006001 	add	x1, x0, #0x18
    451c:	9100e3a2 	add	x2, x29, #0x38
    4520:	97ffffbc 	bl	4410 <calculate_chunk_crc.isra.0>
    4524:	350001e0 	cbnz	w0, 4560 <write_header+0x68>
    4528:	f9400280 	ldr	x0, [x20]
    452c:	128b4781 	mov	w1, #0xffffa5c3            	// #-23101
    4530:	79007bb5 	strh	w21, [x29, #60]
    4534:	d2800103 	mov	x3, #0x8                   	// #8
    4538:	79007fa1 	strh	w1, [x29, #62]
    453c:	9100e3a2 	add	x2, x29, #0x38
    4540:	aa1303e1 	mov	x1, x19
    4544:	94000257 	bl	4ea0 <flash_write>
    4548:	f100201f 	cmp	x0, #0x8
    454c:	5a9f03e0 	csetm	w0, ne  // ne = any
    4550:	a94153f3 	ldp	x19, x20, [sp, #16]
    4554:	f94013f5 	ldr	x21, [sp, #32]
    4558:	a8c47bfd 	ldp	x29, x30, [sp], #64
    455c:	d65f03c0 	ret
    4560:	12800000 	mov	w0, #0xffffffff            	// #-1
    4564:	17fffffb 	b	4550 <write_header+0x58>

0000000000004568 <eeprom_soft_module_init>:
    4568:	140001fc 	b	4d58 <flash_module_init>
    456c:	00000000 	.inst	0x00000000 ; undefined

0000000000004570 <eeprom_soft_init>:
    4570:	a9bc7bfd 	stp	x29, x30, [sp, #-64]!
    4574:	910003fd 	mov	x29, sp
    4578:	a90153f3 	stp	x19, x20, [sp, #16]
    457c:	aa0003f3 	mov	x19, x0
    4580:	a9025bf5 	stp	x21, x22, [sp, #32]
    4584:	aa0403f4 	mov	x20, x4
    4588:	f9001bf7 	str	x23, [sp, #48]
    458c:	aa0203f6 	mov	x22, x2
    4590:	2a0303f5 	mov	w21, w3
    4594:	aa0103f7 	mov	x23, x1
    4598:	b4000580 	cbz	x0, 4648 <eeprom_soft_init+0xd8>
    459c:	b4000377 	cbz	x23, 4608 <eeprom_soft_init+0x98>
    45a0:	b4000456 	cbz	x22, 4628 <eeprom_soft_init+0xb8>
    45a4:	710006bf 	cmp	w21, #0x1
    45a8:	5400020d 	b.le	45e8 <eeprom_soft_init+0x78>
    45ac:	a9005a77 	stp	x23, x22, [x19]
    45b0:	b2407fe0 	mov	x0, #0xffffffff            	// #4294967295
    45b4:	b9001275 	str	w21, [x19, #16]
    45b8:	f9000e74 	str	x20, [x19, #24]
    45bc:	d1002294 	sub	x20, x20, #0x8
    45c0:	f9001274 	str	x20, [x19, #32]
    45c4:	a902827f 	stp	xzr, x0, [x19, #40]
    45c8:	91010260 	add	x0, x19, #0x40
    45cc:	94001d3f 	bl	bac8 <mutex_init>
    45d0:	f9401bf7 	ldr	x23, [sp, #48]
    45d4:	52800000 	mov	w0, #0x0                   	// #0
    45d8:	a94153f3 	ldp	x19, x20, [sp, #16]
    45dc:	a9425bf5 	ldp	x21, x22, [sp, #32]
    45e0:	a8c47bfd 	ldp	x29, x30, [sp], #64
    45e4:	d65f03c0 	ret
    45e8:	d01fffe0 	adrp	x0, 40002000 <level_warning+0x1140>
    45ec:	91034000 	add	x0, x0, #0xd0
    45f0:	94002092 	bl	c838 <std_printf>
    45f4:	901fffe1 	adrp	x1, 40000000 <__ram_begin>
    45f8:	528002c0 	mov	w0, #0x16                  	// #22
    45fc:	f9400421 	ldr	x1, [x1, #8]
    4600:	d63f0020 	blr	x1
    4604:	17ffffea 	b	45ac <eeprom_soft_init+0x3c>
    4608:	b01fffe0 	adrp	x0, 40001000 <level_warning+0x140>
    460c:	913fc000 	add	x0, x0, #0xff0
    4610:	9400208a 	bl	c838 <std_printf>
    4614:	901fffe1 	adrp	x1, 40000000 <__ram_begin>
    4618:	528002c0 	mov	w0, #0x16                  	// #22
    461c:	f9400421 	ldr	x1, [x1, #8]
    4620:	d63f0020 	blr	x1
    4624:	b5fffc16 	cbnz	x22, 45a4 <eeprom_soft_init+0x34>
    4628:	d01fffe0 	adrp	x0, 40002000 <level_warning+0x1140>
    462c:	91018000 	add	x0, x0, #0x60
    4630:	94002082 	bl	c838 <std_printf>
    4634:	901fffe1 	adrp	x1, 40000000 <__ram_begin>
    4638:	528002c0 	mov	w0, #0x16                  	// #22
    463c:	f9400421 	ldr	x1, [x1, #8]
    4640:	d63f0020 	blr	x1
    4644:	17ffffd8 	b	45a4 <eeprom_soft_init+0x34>
    4648:	b01fffe0 	adrp	x0, 40001000 <level_warning+0x140>
    464c:	913e0000 	add	x0, x0, #0xf80
    4650:	9400207a 	bl	c838 <std_printf>
    4654:	901fffe1 	adrp	x1, 40000000 <__ram_begin>
    4658:	528002c0 	mov	w0, #0x16                  	// #22
    465c:	f9400421 	ldr	x1, [x1, #8]
    4660:	d63f0020 	blr	x1
    4664:	b5fff9f7 	cbnz	x23, 45a0 <eeprom_soft_init+0x30>
    4668:	17ffffe8 	b	4608 <eeprom_soft_init+0x98>
    466c:	00000000 	.inst	0x00000000 ; undefined

0000000000004670 <eeprom_soft_read>:
    4670:	a9bc7bfd 	stp	x29, x30, [sp, #-64]!
    4674:	910003fd 	mov	x29, sp
    4678:	a90153f3 	stp	x19, x20, [sp, #16]
    467c:	aa0003f3 	mov	x19, x0
    4680:	a9025bf5 	stp	x21, x22, [sp, #32]
    4684:	aa0203f4 	mov	x20, x2
    4688:	aa0103f5 	mov	x21, x1
    468c:	aa0303f6 	mov	x22, x3
    4690:	b40003c0 	cbz	x0, 4708 <eeprom_soft_read+0x98>
    4694:	b40004b5 	cbz	x21, 4728 <eeprom_soft_read+0xb8>
    4698:	f9401660 	ldr	x0, [x19, #40]
    469c:	b40005a0 	cbz	x0, 4750 <eeprom_soft_read+0xe0>
    46a0:	f9401260 	ldr	x0, [x19, #32]
    46a4:	eb14001f 	cmp	x0, x20
    46a8:	54000509 	b.ls	4748 <eeprom_soft_read+0xd8>  // b.plast
    46ac:	8b160281 	add	x1, x20, x22
    46b0:	eb01001f 	cmp	x0, x1
    46b4:	540004a3 	b.cc	4748 <eeprom_soft_read+0xd8>  // b.lo, b.ul, b.last
    46b8:	f9001bb7 	str	x23, [x29, #48]
    46bc:	91010277 	add	x23, x19, #0x40
    46c0:	aa1703e0 	mov	x0, x23
    46c4:	94001d09 	bl	bae8 <mutex_lock>
    46c8:	f9400260 	ldr	x0, [x19]
    46cc:	91002294 	add	x20, x20, #0x8
    46d0:	f9401a62 	ldr	x2, [x19, #48]
    46d4:	aa1603e3 	mov	x3, x22
    46d8:	aa1503e1 	mov	x1, x21
    46dc:	8b020282 	add	x2, x20, x2
    46e0:	940001c6 	bl	4df8 <flash_read>
    46e4:	aa0003f3 	mov	x19, x0
    46e8:	aa1703e0 	mov	x0, x23
    46ec:	94001d29 	bl	bb90 <mutex_unlock>
    46f0:	f9401bb7 	ldr	x23, [x29, #48]
    46f4:	aa1303e0 	mov	x0, x19
    46f8:	a94153f3 	ldp	x19, x20, [sp, #16]
    46fc:	a9425bf5 	ldp	x21, x22, [sp, #32]
    4700:	a8c47bfd 	ldp	x29, x30, [sp], #64
    4704:	d65f03c0 	ret
    4708:	d01fffe0 	adrp	x0, 40002000 <level_warning+0x1140>
    470c:	91050000 	add	x0, x0, #0x140
    4710:	9400204a 	bl	c838 <std_printf>
    4714:	901fffe1 	adrp	x1, 40000000 <__ram_begin>
    4718:	528002c0 	mov	w0, #0x16                  	// #22
    471c:	f9400421 	ldr	x1, [x1, #8]
    4720:	d63f0020 	blr	x1
    4724:	b5fffbb5 	cbnz	x21, 4698 <eeprom_soft_read+0x28>
    4728:	d01fffe0 	adrp	x0, 40002000 <level_warning+0x1140>
    472c:	9106c000 	add	x0, x0, #0x1b0
    4730:	94002042 	bl	c838 <std_printf>
    4734:	901fffe1 	adrp	x1, 40000000 <__ram_begin>
    4738:	528002c0 	mov	w0, #0x16                  	// #22
    473c:	f9400421 	ldr	x1, [x1, #8]
    4740:	d63f0020 	blr	x1
    4744:	17ffffd5 	b	4698 <eeprom_soft_read+0x28>
    4748:	928002b3 	mov	x19, #0xffffffffffffffea    	// #-22
    474c:	17ffffea 	b	46f4 <eeprom_soft_read+0x84>
    4750:	92807d73 	mov	x19, #0xfffffffffffffc14    	// #-1004
    4754:	17ffffe8 	b	46f4 <eeprom_soft_read+0x84>

0000000000004758 <eeprom_soft_vwrite>:
    4758:	a9b67bfd 	stp	x29, x30, [sp, #-160]!
    475c:	910003fd 	mov	x29, sp
    4760:	a90153f3 	stp	x19, x20, [sp, #16]
    4764:	aa0003f4 	mov	x20, x0
    4768:	a9025bf5 	stp	x21, x22, [sp, #32]
    476c:	aa0103f3 	mov	x19, x1
    4770:	f9001ff8 	str	x24, [sp, #56]
    4774:	aa0303f5 	mov	x21, x3
    4778:	aa0203f8 	mov	x24, x2
    477c:	b4001320 	cbz	x0, 49e0 <eeprom_soft_vwrite+0x288>
    4780:	b4001213 	cbz	x19, 49c0 <eeprom_soft_vwrite+0x268>
    4784:	b40010f8 	cbz	x24, 49a0 <eeprom_soft_vwrite+0x248>
    4788:	91010280 	add	x0, x20, #0x40
    478c:	f9003ba0 	str	x0, [x29, #112]
    4790:	94001cd6 	bl	bae8 <mutex_lock>
    4794:	f9401680 	ldr	x0, [x20, #40]
    4798:	b40028e0 	cbz	x0, 4cb4 <eeprom_soft_vwrite+0x55c>
    479c:	f9401283 	ldr	x3, [x20, #32]
    47a0:	b4002475 	cbz	x21, 4c2c <eeprom_soft_vwrite+0x4d4>
    47a4:	a9401660 	ldp	x0, x5, [x19]
    47a8:	eb03001f 	cmp	x0, x3
    47ac:	54000e82 	b.cs	497c <eeprom_soft_vwrite+0x224>  // b.hs, b.nlast
    47b0:	8b0000a0 	add	x0, x5, x0
    47b4:	eb00007f 	cmp	x3, x0
    47b8:	54000e23 	b.cc	497c <eeprom_soft_vwrite+0x224>  // b.lo, b.ul, b.last
    47bc:	91004260 	add	x0, x19, #0x10
    47c0:	d2800002 	mov	x2, #0x0                   	// #0
    47c4:	14000008 	b	47e4 <eeprom_soft_vwrite+0x8c>
    47c8:	a9400404 	ldp	x4, x1, [x0]
    47cc:	91004000 	add	x0, x0, #0x10
    47d0:	8b010081 	add	x1, x4, x1
    47d4:	eb03009f 	cmp	x4, x3
    47d8:	54000d22 	b.cs	497c <eeprom_soft_vwrite+0x224>  // b.hs, b.nlast
    47dc:	eb03003f 	cmp	x1, x3
    47e0:	54000ce8 	b.hi	497c <eeprom_soft_vwrite+0x224>  // b.pmore
    47e4:	91000442 	add	x2, x2, #0x1
    47e8:	eb0202bf 	cmp	x21, x2
    47ec:	54fffee1 	b.ne	47c8 <eeprom_soft_vwrite+0x70>  // b.any
    47f0:	b40025e3 	cbz	x3, 4cac <eeprom_soft_vwrite+0x554>
    47f4:	f9001bb7 	str	x23, [x29, #48]
    47f8:	910263b7 	add	x23, x29, #0x98
    47fc:	a9046bb9 	stp	x25, x26, [x29, #64]
    4800:	8b151319 	add	x25, x24, x21, lsl #4
    4804:	a90573bb 	stp	x27, x28, [x29, #80]
    4808:	d280001a 	mov	x26, #0x0                   	// #0
    480c:	52800036 	mov	w22, #0x1                   	// #1
    4810:	f9400280 	ldr	x0, [x20]
    4814:	d2800103 	mov	x3, #0x8                   	// #8
    4818:	f9401a82 	ldr	x2, [x20, #48]
    481c:	aa1703e1 	mov	x1, x23
    4820:	8b030042 	add	x2, x2, x3
    4824:	8b1a0042 	add	x2, x2, x26
    4828:	94000174 	bl	4df8 <flash_read>
    482c:	f100201f 	cmp	x0, #0x8
    4830:	54000ea1 	b.ne	4a04 <eeprom_soft_vwrite+0x2ac>  // b.any
    4834:	9100235b 	add	x27, x26, #0x8
    4838:	b40004f5 	cbz	x21, 48d4 <eeprom_soft_vwrite+0x17c>
    483c:	91002263 	add	x3, x19, #0x8
    4840:	aa1803e4 	mov	x4, x24
    4844:	d503201f 	nop
    4848:	f85f8065 	ldur	x5, [x3, #-8]
    484c:	eb05037f 	cmp	x27, x5
    4850:	540003a9 	b.ls	48c4 <eeprom_soft_vwrite+0x16c>  // b.plast
    4854:	f9400061 	ldr	x1, [x3]
    4858:	8b0100a1 	add	x1, x5, x1
    485c:	eb1a003f 	cmp	x1, x26
    4860:	54000329 	b.ls	48c4 <eeprom_soft_vwrite+0x16c>  // b.plast
    4864:	4b1a00a2 	sub	w2, w5, w26
    4868:	aa1703e0 	mov	x0, x23
    486c:	d280001c 	mov	x28, #0x0                   	// #0
    4870:	eb1a00bf 	cmp	x5, x26
    4874:	54000069 	b.ls	4880 <eeprom_soft_vwrite+0x128>  // b.plast
    4878:	93407c5c 	sxtw	x28, w2
    487c:	8b1c02e0 	add	x0, x23, x28
    4880:	f9400085 	ldr	x5, [x4]
    4884:	cb1a0022 	sub	x2, x1, x26
    4888:	f100205f 	cmp	x2, #0x8
    488c:	d2800101 	mov	x1, #0x8                   	// #8
    4890:	9a819042 	csel	x2, x2, x1, ls  // ls = plast
    4894:	a90793a3 	stp	x3, x4, [x29, #120]
    4898:	cb1c005c 	sub	x28, x2, x28
    489c:	aa0503e1 	mov	x1, x5
    48a0:	aa1c03e2 	mov	x2, x28
    48a4:	f90047a5 	str	x5, [x29, #136]
    48a8:	97fff526 	bl	1d40 <memcmp>
    48ac:	7100001f 	cmp	w0, #0x0
    48b0:	a94793a3 	ldp	x3, x4, [x29, #120]
    48b4:	1a9f02d6 	csel	w22, w22, wzr, eq  // eq = none
    48b8:	f94047a5 	ldr	x5, [x29, #136]
    48bc:	8b1c00a2 	add	x2, x5, x28
    48c0:	f9000082 	str	x2, [x4]
    48c4:	91004084 	add	x4, x4, #0x10
    48c8:	91004063 	add	x3, x3, #0x10
    48cc:	eb04033f 	cmp	x25, x4
    48d0:	54fffbc1 	b.ne	4848 <eeprom_soft_vwrite+0xf0>  // b.any
    48d4:	94000685 	bl	62e8 <thrd_yield>
    48d8:	aa1b03fa 	mov	x26, x27
    48dc:	f9401283 	ldr	x3, [x20, #32]
    48e0:	eb03037f 	cmp	x27, x3
    48e4:	54fff963 	b.cc	4810 <eeprom_soft_vwrite+0xb8>  // b.lo, b.ul, b.last
    48e8:	93407ed6 	sxtw	x22, w22
    48ec:	b4001d95 	cbz	x21, 4c9c <eeprom_soft_vwrite+0x544>
    48f0:	f9400665 	ldr	x5, [x19, #8]
    48f4:	f9401bb7 	ldr	x23, [x29, #48]
    48f8:	a9446bb9 	ldp	x25, x26, [x29, #64]
    48fc:	a94573bb 	ldp	x27, x28, [x29, #80]
    4900:	d2800000 	mov	x0, #0x0                   	// #0
    4904:	d2800002 	mov	x2, #0x0                   	// #0
    4908:	14000002 	b	4910 <eeprom_soft_vwrite+0x1b8>
    490c:	f9400425 	ldr	x5, [x1, #8]
    4910:	f8606b01 	ldr	x1, [x24, x0]
    4914:	91000442 	add	x2, x2, #0x1
    4918:	eb0202bf 	cmp	x21, x2
    491c:	cb050021 	sub	x1, x1, x5
    4920:	f8206b01 	str	x1, [x24, x0]
    4924:	91004000 	add	x0, x0, #0x10
    4928:	8b000261 	add	x1, x19, x0
    492c:	54ffff08 	b.hi	490c <eeprom_soft_vwrite+0x1b4>  // b.pmore
    4930:	f10006df 	cmp	x22, #0x1
    4934:	54000801 	b.ne	4a34 <eeprom_soft_vwrite+0x2dc>  // b.any
    4938:	d2800016 	mov	x22, #0x0                   	// #0
    493c:	b4000235 	cbz	x21, 4980 <eeprom_soft_vwrite+0x228>
    4940:	8b151275 	add	x21, x19, x21, lsl #4
    4944:	d503201f 	nop
    4948:	f9400660 	ldr	x0, [x19, #8]
    494c:	91004273 	add	x19, x19, #0x10
    4950:	eb1302bf 	cmp	x21, x19
    4954:	8b0002d6 	add	x22, x22, x0
    4958:	54ffff81 	b.ne	4948 <eeprom_soft_vwrite+0x1f0>  // b.any
    495c:	f9403ba0 	ldr	x0, [x29, #112]
    4960:	94001c8c 	bl	bb90 <mutex_unlock>
    4964:	f9401ff8 	ldr	x24, [sp, #56]
    4968:	aa1603e0 	mov	x0, x22
    496c:	a94153f3 	ldp	x19, x20, [sp, #16]
    4970:	a9425bf5 	ldp	x21, x22, [sp, #32]
    4974:	a8ca7bfd 	ldp	x29, x30, [sp], #160
    4978:	d65f03c0 	ret
    497c:	928002b6 	mov	x22, #0xffffffffffffffea    	// #-22
    4980:	f9403ba0 	ldr	x0, [x29, #112]
    4984:	94001c83 	bl	bb90 <mutex_unlock>
    4988:	f9401ff8 	ldr	x24, [sp, #56]
    498c:	aa1603e0 	mov	x0, x22
    4990:	a94153f3 	ldp	x19, x20, [sp, #16]
    4994:	a9425bf5 	ldp	x21, x22, [sp, #32]
    4998:	a8ca7bfd 	ldp	x29, x30, [sp], #160
    499c:	d65f03c0 	ret
    49a0:	d01fffe0 	adrp	x0, 40002000 <level_warning+0x1140>
    49a4:	910bc000 	add	x0, x0, #0x2f0
    49a8:	94001fa4 	bl	c838 <std_printf>
    49ac:	901fffe1 	adrp	x1, 40000000 <__ram_begin>
    49b0:	528002c0 	mov	w0, #0x16                  	// #22
    49b4:	f9400421 	ldr	x1, [x1, #8]
    49b8:	d63f0020 	blr	x1
    49bc:	17ffff73 	b	4788 <eeprom_soft_vwrite+0x30>
    49c0:	d01fffe0 	adrp	x0, 40002000 <level_warning+0x1140>
    49c4:	910a2000 	add	x0, x0, #0x288
    49c8:	94001f9c 	bl	c838 <std_printf>
    49cc:	901fffe1 	adrp	x1, 40000000 <__ram_begin>
    49d0:	528002c0 	mov	w0, #0x16                  	// #22
    49d4:	f9400421 	ldr	x1, [x1, #8]
    49d8:	d63f0020 	blr	x1
    49dc:	17ffff6a 	b	4784 <eeprom_soft_vwrite+0x2c>
    49e0:	d01fffe0 	adrp	x0, 40002000 <level_warning+0x1140>
    49e4:	91086000 	add	x0, x0, #0x218
    49e8:	94001f94 	bl	c838 <std_printf>
    49ec:	901fffe1 	adrp	x1, 40000000 <__ram_begin>
    49f0:	528002c0 	mov	w0, #0x16                  	// #22
    49f4:	f9400421 	ldr	x1, [x1, #8]
    49f8:	d63f0020 	blr	x1
    49fc:	b5ffec53 	cbnz	x19, 4784 <eeprom_soft_vwrite+0x2c>
    4a00:	17fffff0 	b	49c0 <eeprom_soft_vwrite+0x268>
    4a04:	f9403ba0 	ldr	x0, [x29, #112]
    4a08:	92800016 	mov	x22, #0xffffffffffffffff    	// #-1
    4a0c:	f9401bb7 	ldr	x23, [x29, #48]
    4a10:	a9446bb9 	ldp	x25, x26, [x29, #64]
    4a14:	a94573bb 	ldp	x27, x28, [x29, #80]
    4a18:	94001c5e 	bl	bb90 <mutex_unlock>
    4a1c:	aa1603e0 	mov	x0, x22
    4a20:	f9401ff8 	ldr	x24, [sp, #56]
    4a24:	a94153f3 	ldp	x19, x20, [sp, #16]
    4a28:	a9425bf5 	ldp	x21, x22, [sp, #32]
    4a2c:	a8ca7bfd 	ldp	x29, x30, [sp], #160
    4a30:	d65f03c0 	ret
    4a34:	a9429282 	ldp	x2, x4, [x20, #40]
    4a38:	f9400e81 	ldr	x1, [x20, #24]
    4a3c:	f9400040 	ldr	x0, [x2]
    4a40:	8b010084 	add	x4, x4, x1
    4a44:	a90613a2 	stp	x2, x4, [x29, #96]
    4a48:	f9400442 	ldr	x2, [x2, #8]
    4a4c:	f9001bb7 	str	x23, [x29, #48]
    4a50:	f90023b9 	str	x25, [x29, #64]
    4a54:	8b020000 	add	x0, x0, x2
    4a58:	f9002fbc 	str	x28, [x29, #88]
    4a5c:	eb00009f 	cmp	x4, x0
    4a60:	54000ec3 	b.cc	4c38 <eeprom_soft_vwrite+0x4e0>  // b.lo, b.ul, b.last
    4a64:	f9400682 	ldr	x2, [x20, #8]
    4a68:	b9801281 	ldrsw	x1, [x20, #16]
    4a6c:	f94033a0 	ldr	x0, [x29, #96]
    4a70:	8b011041 	add	x1, x2, x1, lsl #4
    4a74:	91004003 	add	x3, x0, #0x10
    4a78:	eb01007f 	cmp	x3, x1
    4a7c:	f9400280 	ldr	x0, [x20]
    4a80:	9a821061 	csel	x1, x3, x2, ne  // ne = any
    4a84:	aa0103e2 	mov	x2, x1
    4a88:	f90033a2 	str	x2, [x29, #96]
    4a8c:	f9400021 	ldr	x1, [x1]
    4a90:	f9400442 	ldr	x2, [x2, #8]
    4a94:	9400012d 	bl	4f48 <flash_erase>
    4a98:	35000c00 	cbnz	w0, 4c18 <eeprom_soft_vwrite+0x4c0>
    4a9c:	f94033a0 	ldr	x0, [x29, #96]
    4aa0:	f9401283 	ldr	x3, [x20, #32]
    4aa4:	f9400000 	ldr	x0, [x0]
    4aa8:	f90037a0 	str	x0, [x29, #104]
    4aac:	b4000843 	cbz	x3, 4bb4 <eeprom_soft_vwrite+0x45c>
    4ab0:	f94037a0 	ldr	x0, [x29, #104]
    4ab4:	d37ceeb9 	lsl	x25, x21, #4
    4ab8:	910263b7 	add	x23, x29, #0x98
    4abc:	a904efba 	stp	x26, x27, [x29, #72]
    4ac0:	91002000 	add	x0, x0, #0x8
    4ac4:	d280001c 	mov	x28, #0x0                   	// #0
    4ac8:	f9003fa0 	str	x0, [x29, #120]
    4acc:	d503201f 	nop
    4ad0:	f9400280 	ldr	x0, [x20]
    4ad4:	d2800103 	mov	x3, #0x8                   	// #8
    4ad8:	f9401a82 	ldr	x2, [x20, #48]
    4adc:	aa1703e1 	mov	x1, x23
    4ae0:	8b030042 	add	x2, x2, x3
    4ae4:	8b1c0042 	add	x2, x2, x28
    4ae8:	940000c4 	bl	4df8 <flash_read>
    4aec:	f100201f 	cmp	x0, #0x8
    4af0:	54000921 	b.ne	4c14 <eeprom_soft_vwrite+0x4bc>  // b.any
    4af4:	b4000455 	cbz	x21, 4b7c <eeprom_soft_vwrite+0x424>
    4af8:	9100239b 	add	x27, x28, #0x8
    4afc:	d280001a 	mov	x26, #0x0                   	// #0
    4b00:	f87a6a65 	ldr	x5, [x19, x26]
    4b04:	8b1a0260 	add	x0, x19, x26
    4b08:	eb1b00bf 	cmp	x5, x27
    4b0c:	54000322 	b.cs	4b70 <eeprom_soft_vwrite+0x418>  // b.hs, b.nlast
    4b10:	f9400401 	ldr	x1, [x0, #8]
    4b14:	8b0100a1 	add	x1, x5, x1
    4b18:	eb1c003f 	cmp	x1, x28
    4b1c:	540002a9 	b.ls	4b70 <eeprom_soft_vwrite+0x418>  // b.plast
    4b20:	4b1c00a2 	sub	w2, w5, w28
    4b24:	aa1703e0 	mov	x0, x23
    4b28:	d2800004 	mov	x4, #0x0                   	// #0
    4b2c:	eb1c00bf 	cmp	x5, x28
    4b30:	54000069 	b.ls	4b3c <eeprom_soft_vwrite+0x3e4>  // b.plast
    4b34:	93407c44 	sxtw	x4, w2
    4b38:	8b0402e0 	add	x0, x23, x4
    4b3c:	cb1c0022 	sub	x2, x1, x28
    4b40:	f87a6b05 	ldr	x5, [x24, x26]
    4b44:	f100205f 	cmp	x2, #0x8
    4b48:	d2800101 	mov	x1, #0x8                   	// #8
    4b4c:	9a819042 	csel	x2, x2, x1, ls  // ls = plast
    4b50:	aa0503e1 	mov	x1, x5
    4b54:	cb040044 	sub	x4, x2, x4
    4b58:	a90813a5 	stp	x5, x4, [x29, #128]
    4b5c:	aa0403e2 	mov	x2, x4
    4b60:	97fff42c 	bl	1c10 <memcpy>
    4b64:	a94813a5 	ldp	x5, x4, [x29, #128]
    4b68:	8b0400a2 	add	x2, x5, x4
    4b6c:	f83a6b02 	str	x2, [x24, x26]
    4b70:	9100435a 	add	x26, x26, #0x10
    4b74:	eb1a033f 	cmp	x25, x26
    4b78:	54fffc41 	b.ne	4b00 <eeprom_soft_vwrite+0x3a8>  // b.any
    4b7c:	f9400280 	ldr	x0, [x20]
    4b80:	d2800103 	mov	x3, #0x8                   	// #8
    4b84:	f9403fa1 	ldr	x1, [x29, #120]
    4b88:	aa1703e2 	mov	x2, x23
    4b8c:	8b1c0021 	add	x1, x1, x28
    4b90:	940000c4 	bl	4ea0 <flash_write>
    4b94:	f100201f 	cmp	x0, #0x8
    4b98:	540003e1 	b.ne	4c14 <eeprom_soft_vwrite+0x4bc>  // b.any
    4b9c:	940005d3 	bl	62e8 <thrd_yield>
    4ba0:	9100239c 	add	x28, x28, #0x8
    4ba4:	f9401280 	ldr	x0, [x20, #32]
    4ba8:	eb00039f 	cmp	x28, x0
    4bac:	54fff923 	b.cc	4ad0 <eeprom_soft_vwrite+0x378>  // b.lo, b.ul, b.last
    4bb0:	a944efba 	ldp	x26, x27, [x29, #72]
    4bb4:	aa1403e0 	mov	x0, x20
    4bb8:	79407297 	ldrh	w23, [x20, #56]
    4bbc:	f94037b8 	ldr	x24, [x29, #104]
    4bc0:	110006f7 	add	w23, w23, #0x1
    4bc4:	12003ef7 	and	w23, w23, #0xffff
    4bc8:	aa1803e1 	mov	x1, x24
    4bcc:	2a1703e2 	mov	w2, w23
    4bd0:	97fffe4a 	bl	44f8 <write_header>
    4bd4:	35000220 	cbnz	w0, 4c18 <eeprom_soft_vwrite+0x4c0>
    4bd8:	f94033a0 	ldr	x0, [x29, #96]
    4bdc:	a902e280 	stp	x0, x24, [x20, #40]
    4be0:	79007297 	strh	w23, [x20, #56]
    4be4:	b4000115 	cbz	x21, 4c04 <eeprom_soft_vwrite+0x4ac>
    4be8:	8b151275 	add	x21, x19, x21, lsl #4
    4bec:	d2800016 	mov	x22, #0x0                   	// #0
    4bf0:	f9400660 	ldr	x0, [x19, #8]
    4bf4:	91004273 	add	x19, x19, #0x10
    4bf8:	eb1302bf 	cmp	x21, x19
    4bfc:	8b0002d6 	add	x22, x22, x0
    4c00:	54ffff81 	b.ne	4bf0 <eeprom_soft_vwrite+0x498>  // b.any
    4c04:	f9401bb7 	ldr	x23, [x29, #48]
    4c08:	f94023b9 	ldr	x25, [x29, #64]
    4c0c:	f9402fbc 	ldr	x28, [x29, #88]
    4c10:	17ffff5c 	b	4980 <eeprom_soft_vwrite+0x228>
    4c14:	a944efba 	ldp	x26, x27, [x29, #72]
    4c18:	92800016 	mov	x22, #0xffffffffffffffff    	// #-1
    4c1c:	f9401bb7 	ldr	x23, [x29, #48]
    4c20:	f94023b9 	ldr	x25, [x29, #64]
    4c24:	f9402fbc 	ldr	x28, [x29, #88]
    4c28:	17ffff56 	b	4980 <eeprom_soft_vwrite+0x228>
    4c2c:	d2800016 	mov	x22, #0x0                   	// #0
    4c30:	b5ffde23 	cbnz	x3, 47f4 <eeprom_soft_vwrite+0x9c>
    4c34:	17ffff53 	b	4980 <eeprom_soft_vwrite+0x228>
    4c38:	b4fff3a1 	cbz	x1, 4aac <eeprom_soft_vwrite+0x354>
    4c3c:	aa0403fc 	mov	x28, x4
    4c40:	910263b7 	add	x23, x29, #0x98
    4c44:	d503201f 	nop
    4c48:	f9400280 	ldr	x0, [x20]
    4c4c:	aa1c03e2 	mov	x2, x28
    4c50:	d2800023 	mov	x3, #0x1                   	// #1
    4c54:	aa1703e1 	mov	x1, x23
    4c58:	94000068 	bl	4df8 <flash_read>
    4c5c:	aa0003f9 	mov	x25, x0
    4c60:	f100041f 	cmp	x0, #0x1
    4c64:	54fff001 	b.ne	4a64 <eeprom_soft_vwrite+0x30c>  // b.any
    4c68:	394263a0 	ldrb	w0, [x29, #152]
    4c6c:	7103fc1f 	cmp	w0, #0xff
    4c70:	54ffefa1 	b.ne	4a64 <eeprom_soft_vwrite+0x30c>  // b.any
    4c74:	9400059d 	bl	62e8 <thrd_yield>
    4c78:	f94037a0 	ldr	x0, [x29, #104]
    4c7c:	f9400e81 	ldr	x1, [x20, #24]
    4c80:	cb000320 	sub	x0, x25, x0
    4c84:	8b1c0000 	add	x0, x0, x28
    4c88:	9100079c 	add	x28, x28, #0x1
    4c8c:	eb00003f 	cmp	x1, x0
    4c90:	54fffdc8 	b.hi	4c48 <eeprom_soft_vwrite+0x4f0>  // b.pmore
    4c94:	f9401283 	ldr	x3, [x20, #32]
    4c98:	17ffff85 	b	4aac <eeprom_soft_vwrite+0x354>
    4c9c:	f9401bb7 	ldr	x23, [x29, #48]
    4ca0:	a9446bb9 	ldp	x25, x26, [x29, #64]
    4ca4:	a94573bb 	ldp	x27, x28, [x29, #80]
    4ca8:	17ffff22 	b	4930 <eeprom_soft_vwrite+0x1d8>
    4cac:	d2800036 	mov	x22, #0x1                   	// #1
    4cb0:	17ffff14 	b	4900 <eeprom_soft_vwrite+0x1a8>
    4cb4:	92807d76 	mov	x22, #0xfffffffffffffc14    	// #-1004
    4cb8:	17ffff32 	b	4980 <eeprom_soft_vwrite+0x228>
    4cbc:	00000000 	.inst	0x00000000 ; undefined

0000000000004cc0 <eeprom_soft_write>:
    4cc0:	a9bb7bfd 	stp	x29, x30, [sp, #-80]!
    4cc4:	910003fd 	mov	x29, sp
    4cc8:	a90153f3 	stp	x19, x20, [sp, #16]
    4ccc:	aa0003f4 	mov	x20, x0
    4cd0:	a9025bf5 	stp	x21, x22, [sp, #32]
    4cd4:	aa0203f3 	mov	x19, x2
    4cd8:	aa0103f6 	mov	x22, x1
    4cdc:	aa0303f5 	mov	x21, x3
    4ce0:	b40001a0 	cbz	x0, 4d14 <eeprom_soft_write+0x54>
    4ce4:	b40002b3 	cbz	x19, 4d38 <eeprom_soft_write+0x78>
    4ce8:	910143a2 	add	x2, x29, #0x50
    4cec:	9100c3a1 	add	x1, x29, #0x30
    4cf0:	a90357b6 	stp	x22, x21, [x29, #48]
    4cf4:	d2800023 	mov	x3, #0x1                   	// #1
    4cf8:	aa1403e0 	mov	x0, x20
    4cfc:	f81f0c53 	str	x19, [x2, #-16]!
    4d00:	97fffe96 	bl	4758 <eeprom_soft_vwrite>
    4d04:	a94153f3 	ldp	x19, x20, [sp, #16]
    4d08:	a9425bf5 	ldp	x21, x22, [sp, #32]
    4d0c:	a8c57bfd 	ldp	x29, x30, [sp], #80
    4d10:	d65f03c0 	ret
    4d14:	d01fffe0 	adrp	x0, 40002000 <level_warning+0x1140>
    4d18:	910d6000 	add	x0, x0, #0x358
    4d1c:	94001ec7 	bl	c838 <std_printf>
    4d20:	901fffe1 	adrp	x1, 40000000 <__ram_begin>
    4d24:	528002c0 	mov	w0, #0x16                  	// #22
    4d28:	f9400421 	ldr	x1, [x1, #8]
    4d2c:	d63f0020 	blr	x1
    4d30:	b5fffdd3 	cbnz	x19, 4ce8 <eeprom_soft_write+0x28>
    4d34:	d503201f 	nop
    4d38:	d01fffe0 	adrp	x0, 40002000 <level_warning+0x1140>
    4d3c:	910f2000 	add	x0, x0, #0x3c8
    4d40:	94001ebe 	bl	c838 <std_printf>
    4d44:	901fffe1 	adrp	x1, 40000000 <__ram_begin>
    4d48:	528002c0 	mov	w0, #0x16                  	// #22
    4d4c:	f9400421 	ldr	x1, [x1, #8]
    4d50:	d63f0020 	blr	x1
    4d54:	17ffffe5 	b	4ce8 <eeprom_soft_write+0x28>

0000000000004d58 <flash_module_init>:
    4d58:	d0200000 	adrp	x0, 40006000 <null+0x928>
    4d5c:	39ec2001 	ldrsb	w1, [x0, #2824]
    4d60:	7100043f 	cmp	w1, #0x1
    4d64:	54000060 	b.eq	4d70 <flash_module_init+0x18>  // b.none
    4d68:	52800021 	mov	w1, #0x1                   	// #1
    4d6c:	392c2001 	strb	w1, [x0, #2824]
    4d70:	52800000 	mov	w0, #0x0                   	// #0
    4d74:	d65f03c0 	ret

0000000000004d78 <flash_init>:
    4d78:	a9be7bfd 	stp	x29, x30, [sp, #-32]!
    4d7c:	910003fd 	mov	x29, sp
    4d80:	a90153f3 	stp	x19, x20, [sp, #16]
    4d84:	aa0003f3 	mov	x19, x0
    4d88:	aa0103f4 	mov	x20, x1
    4d8c:	b40000e0 	cbz	x0, 4da8 <flash_init+0x30>
    4d90:	b40001d4 	cbz	x20, 4dc8 <flash_init+0x50>
    4d94:	f9000274 	str	x20, [x19]
    4d98:	52800000 	mov	w0, #0x0                   	// #0
    4d9c:	a94153f3 	ldp	x19, x20, [sp, #16]
    4da0:	a8c27bfd 	ldp	x29, x30, [sp], #32
    4da4:	d65f03c0 	ret
    4da8:	d01fffe0 	adrp	x0, 40002000 <level_warning+0x1140>
    4dac:	9113c000 	add	x0, x0, #0x4f0
    4db0:	94001ea2 	bl	c838 <std_printf>
    4db4:	901fffe1 	adrp	x1, 40000000 <__ram_begin>
    4db8:	528002c0 	mov	w0, #0x16                  	// #22
    4dbc:	f9400421 	ldr	x1, [x1, #8]
    4dc0:	d63f0020 	blr	x1
    4dc4:	b5fffe94 	cbnz	x20, 4d94 <flash_init+0x1c>
    4dc8:	d01fffe0 	adrp	x0, 40002000 <level_warning+0x1140>
    4dcc:	91156000 	add	x0, x0, #0x558
    4dd0:	94001e9a 	bl	c838 <std_printf>
    4dd4:	901fffe1 	adrp	x1, 40000000 <__ram_begin>
    4dd8:	528002c0 	mov	w0, #0x16                  	// #22
    4ddc:	f9400421 	ldr	x1, [x1, #8]
    4de0:	d63f0020 	blr	x1
    4de4:	f9000274 	str	x20, [x19]
    4de8:	52800000 	mov	w0, #0x0                   	// #0
    4dec:	a94153f3 	ldp	x19, x20, [sp, #16]
    4df0:	a8c27bfd 	ldp	x29, x30, [sp], #32
    4df4:	d65f03c0 	ret

0000000000004df8 <flash_read>:
    4df8:	a9bd7bfd 	stp	x29, x30, [sp, #-48]!
    4dfc:	910003fd 	mov	x29, sp
    4e00:	a90153f3 	stp	x19, x20, [sp, #16]
    4e04:	aa0003f3 	mov	x19, x0
    4e08:	aa0303f4 	mov	x20, x3
    4e0c:	b4000340 	cbz	x0, 4e74 <flash_read+0x7c>
    4e10:	b4000221 	cbz	x1, 4e54 <flash_read+0x5c>
    4e14:	b5000114 	cbnz	x20, 4e34 <flash_read+0x3c>
    4e18:	d01fffe0 	adrp	x0, 40002000 <level_warning+0x1140>
    4e1c:	911a4000 	add	x0, x0, #0x690
    4e20:	94001e86 	bl	c838 <std_printf>
    4e24:	901fffe1 	adrp	x1, 40000000 <__ram_begin>
    4e28:	528002c0 	mov	w0, #0x16                  	// #22
    4e2c:	f9400421 	ldr	x1, [x1, #8]
    4e30:	d63f0020 	blr	x1
    4e34:	f9400260 	ldr	x0, [x19]
    4e38:	94001b2c 	bl	bae8 <mutex_lock>
    4e3c:	f9400260 	ldr	x0, [x19]
    4e40:	94001b54 	bl	bb90 <mutex_unlock>
    4e44:	928004a0 	mov	x0, #0xffffffffffffffda    	// #-38
    4e48:	a94153f3 	ldp	x19, x20, [sp, #16]
    4e4c:	a8c37bfd 	ldp	x29, x30, [sp], #48
    4e50:	d65f03c0 	ret
    4e54:	d01fffe0 	adrp	x0, 40002000 <level_warning+0x1140>
    4e58:	9118a000 	add	x0, x0, #0x628
    4e5c:	94001e77 	bl	c838 <std_printf>
    4e60:	901fffe1 	adrp	x1, 40000000 <__ram_begin>
    4e64:	528002c0 	mov	w0, #0x16                  	// #22
    4e68:	f9400421 	ldr	x1, [x1, #8]
    4e6c:	d63f0020 	blr	x1
    4e70:	17ffffe9 	b	4e14 <flash_read+0x1c>
    4e74:	f90017a1 	str	x1, [x29, #40]
    4e78:	d01fffe0 	adrp	x0, 40002000 <level_warning+0x1140>
    4e7c:	91170000 	add	x0, x0, #0x5c0
    4e80:	94001e6e 	bl	c838 <std_printf>
    4e84:	901fffe2 	adrp	x2, 40000000 <__ram_begin>
    4e88:	528002c0 	mov	w0, #0x16                  	// #22
    4e8c:	f9400442 	ldr	x2, [x2, #8]
    4e90:	d63f0040 	blr	x2
    4e94:	f94017a1 	ldr	x1, [x29, #40]
    4e98:	b5fffbe1 	cbnz	x1, 4e14 <flash_read+0x1c>
    4e9c:	17ffffee 	b	4e54 <flash_read+0x5c>

0000000000004ea0 <flash_write>:
    4ea0:	a9bd7bfd 	stp	x29, x30, [sp, #-48]!
    4ea4:	910003fd 	mov	x29, sp
    4ea8:	a90153f3 	stp	x19, x20, [sp, #16]
    4eac:	aa0003f3 	mov	x19, x0
    4eb0:	aa0303f4 	mov	x20, x3
    4eb4:	b4000340 	cbz	x0, 4f1c <flash_write+0x7c>
    4eb8:	b4000222 	cbz	x2, 4efc <flash_write+0x5c>
    4ebc:	b5000114 	cbnz	x20, 4edc <flash_write+0x3c>
    4ec0:	d01fffe0 	adrp	x0, 40002000 <level_warning+0x1140>
    4ec4:	911ee000 	add	x0, x0, #0x7b8
    4ec8:	94001e5c 	bl	c838 <std_printf>
    4ecc:	901fffe1 	adrp	x1, 40000000 <__ram_begin>
    4ed0:	528002c0 	mov	w0, #0x16                  	// #22
    4ed4:	f9400421 	ldr	x1, [x1, #8]
    4ed8:	d63f0020 	blr	x1
    4edc:	f9400260 	ldr	x0, [x19]
    4ee0:	94001b02 	bl	bae8 <mutex_lock>
    4ee4:	f9400260 	ldr	x0, [x19]
    4ee8:	94001b2a 	bl	bb90 <mutex_unlock>
    4eec:	928004a0 	mov	x0, #0xffffffffffffffda    	// #-38
    4ef0:	a94153f3 	ldp	x19, x20, [sp, #16]
    4ef4:	a8c37bfd 	ldp	x29, x30, [sp], #48
    4ef8:	d65f03c0 	ret
    4efc:	d01fffe0 	adrp	x0, 40002000 <level_warning+0x1140>
    4f00:	911d4000 	add	x0, x0, #0x750
    4f04:	94001e4d 	bl	c838 <std_printf>
    4f08:	901fffe1 	adrp	x1, 40000000 <__ram_begin>
    4f0c:	528002c0 	mov	w0, #0x16                  	// #22
    4f10:	f9400421 	ldr	x1, [x1, #8]
    4f14:	d63f0020 	blr	x1
    4f18:	17ffffe9 	b	4ebc <flash_write+0x1c>
    4f1c:	f90017a2 	str	x2, [x29, #40]
    4f20:	d01fffe0 	adrp	x0, 40002000 <level_warning+0x1140>
    4f24:	911ba000 	add	x0, x0, #0x6e8
    4f28:	94001e44 	bl	c838 <std_printf>
    4f2c:	901fffe1 	adrp	x1, 40000000 <__ram_begin>
    4f30:	528002c0 	mov	w0, #0x16                  	// #22
    4f34:	f9400421 	ldr	x1, [x1, #8]
    4f38:	d63f0020 	blr	x1
    4f3c:	f94017a2 	ldr	x2, [x29, #40]
    4f40:	b5fffbe2 	cbnz	x2, 4ebc <flash_write+0x1c>
    4f44:	17ffffee 	b	4efc <flash_write+0x5c>

0000000000004f48 <flash_erase>:
    4f48:	a9bd7bfd 	stp	x29, x30, [sp, #-48]!
    4f4c:	910003fd 	mov	x29, sp
    4f50:	f9000bf3 	str	x19, [sp, #16]
    4f54:	aa0003f3 	mov	x19, x0
    4f58:	b4000220 	cbz	x0, 4f9c <flash_erase+0x54>
    4f5c:	b5000102 	cbnz	x2, 4f7c <flash_erase+0x34>
    4f60:	d01fffe0 	adrp	x0, 40002000 <level_warning+0x1140>
    4f64:	91126000 	add	x0, x0, #0x498
    4f68:	94001e34 	bl	c838 <std_printf>
    4f6c:	901fffe1 	adrp	x1, 40000000 <__ram_begin>
    4f70:	528002c0 	mov	w0, #0x16                  	// #22
    4f74:	f9400421 	ldr	x1, [x1, #8]
    4f78:	d63f0020 	blr	x1
    4f7c:	f9400260 	ldr	x0, [x19]
    4f80:	94001ada 	bl	bae8 <mutex_lock>
    4f84:	f9400260 	ldr	x0, [x19]
    4f88:	94001b02 	bl	bb90 <mutex_unlock>
    4f8c:	f9400bf3 	ldr	x19, [sp, #16]
    4f90:	128004a0 	mov	w0, #0xffffffda            	// #-38
    4f94:	a8c37bfd 	ldp	x29, x30, [sp], #48
    4f98:	d65f03c0 	ret
    4f9c:	f90017a2 	str	x2, [x29, #40]
    4fa0:	d01fffe0 	adrp	x0, 40002000 <level_warning+0x1140>
    4fa4:	9110c000 	add	x0, x0, #0x430
    4fa8:	94001e24 	bl	c838 <std_printf>
    4fac:	901fffe1 	adrp	x1, 40000000 <__ram_begin>
    4fb0:	528002c0 	mov	w0, #0x16                  	// #22
    4fb4:	f9400421 	ldr	x1, [x1, #8]
    4fb8:	d63f0020 	blr	x1
    4fbc:	f94017a2 	ldr	x2, [x29, #40]
    4fc0:	17ffffe7 	b	4f5c <flash_erase+0x14>
    4fc4:	00000000 	.inst	0x00000000 ; undefined

0000000000004fc8 <crc_32>:
    4fc8:	a9bd7bfd 	stp	x29, x30, [sp, #-48]!
    4fcc:	910003fd 	mov	x29, sp
    4fd0:	f9000bf3 	str	x19, [sp, #16]
    4fd4:	2a0003f3 	mov	w19, w0
    4fd8:	b40002a1 	cbz	x1, 502c <crc_32+0x64>
    4fdc:	2a3303e0 	mvn	w0, w19
    4fe0:	b40001e2 	cbz	x2, 501c <crc_32+0x54>
    4fe4:	52906404 	mov	w4, #0x8320                	// #33568
    4fe8:	8b020025 	add	x5, x1, x2
    4fec:	72bdb704 	movk	w4, #0xedb8, lsl #16
    4ff0:	38401422 	ldrb	w2, [x1], #1
    4ff4:	d2800103 	mov	x3, #0x8                   	// #8
    4ff8:	4a020000 	eor	w0, w0, w2
    4ffc:	d503201f 	nop
    5000:	93400002 	sbfx	x2, x0, #0, #1
    5004:	f1000463 	subs	x3, x3, #0x1
    5008:	0a040042 	and	w2, w2, w4
    500c:	4a400440 	eor	w0, w2, w0, lsr #1
    5010:	54ffff81 	b.ne	5000 <crc_32+0x38>  // b.any
    5014:	eb05003f 	cmp	x1, x5
    5018:	54fffec1 	b.ne	4ff0 <crc_32+0x28>  // b.any
    501c:	f9400bf3 	ldr	x19, [sp, #16]
    5020:	2a2003e0 	mvn	w0, w0
    5024:	a8c37bfd 	ldp	x29, x30, [sp], #48
    5028:	d65f03c0 	ret
    502c:	a90207a2 	stp	x2, x1, [x29, #32]
    5030:	b01fffe0 	adrp	x0, 40002000 <level_warning+0x1140>
    5034:	91204000 	add	x0, x0, #0x810
    5038:	94001e00 	bl	c838 <std_printf>
    503c:	f01fffc3 	adrp	x3, 40000000 <__ram_begin>
    5040:	528002c0 	mov	w0, #0x16                  	// #22
    5044:	f9400463 	ldr	x3, [x3, #8]
    5048:	d63f0060 	blr	x3
    504c:	a94207a2 	ldp	x2, x1, [x29, #32]
    5050:	17ffffe3 	b	4fdc <crc_32+0x14>
    5054:	00000000 	.inst	0x00000000 ; undefined

0000000000005058 <crc_8>:
    5058:	8b030043 	add	x3, x2, x3
    505c:	12001c00 	and	w0, w0, #0xff
    5060:	12001c21 	and	w1, w1, #0xff
    5064:	eb02007f 	cmp	x3, x2
    5068:	54000200 	b.eq	50a8 <crc_8+0x50>  // b.none
    506c:	d503201f 	nop
    5070:	38401444 	ldrb	w4, [x2], #1
    5074:	52800105 	mov	w5, #0x8                   	// #8
    5078:	4a000080 	eor	w0, w4, w0
    507c:	d503201f 	nop
    5080:	12000006 	and	w6, w0, #0x1
    5084:	53017c00 	lsr	w0, w0, #1
    5088:	4a000024 	eor	w4, w1, w0
    508c:	710000df 	cmp	w6, #0x0
    5090:	12001c84 	and	w4, w4, #0xff
    5094:	1a840000 	csel	w0, w0, w4, eq  // eq = none
    5098:	710004a5 	subs	w5, w5, #0x1
    509c:	54ffff21 	b.ne	5080 <crc_8+0x28>  // b.any
    50a0:	eb02007f 	cmp	x3, x2
    50a4:	54fffe61 	b.ne	5070 <crc_8+0x18>  // b.any
    50a8:	d65f03c0 	ret
    50ac:	00000000 	.inst	0x00000000 ; undefined

00000000000050b0 <cmd_reboot_cb>:
    50b0:	14000000 	b	50b0 <cmd_reboot_cb>
    50b4:	00000000 	.inst	0x00000000 ; undefined

00000000000050b8 <panic_write>:
    50b8:	aa0203e0 	mov	x0, x2
    50bc:	b4000162 	cbz	x2, 50e8 <panic_write+0x30>
    50c0:	8b020026 	add	x6, x1, x2
    50c4:	d2a12004 	mov	x4, #0x9000000             	// #150994944
    50c8:	39400025 	ldrb	w5, [x1]
    50cc:	d503201f 	nop
    50d0:	b9401883 	ldr	w3, [x4, #24]
    50d4:	372fffe3 	tbnz	w3, #5, 50d0 <panic_write+0x18>
    50d8:	b9000085 	str	w5, [x4]
    50dc:	91000421 	add	x1, x1, #0x1
    50e0:	eb06003f 	cmp	x1, x6
    50e4:	54ffff21 	b.ne	50c8 <panic_write+0x10>  // b.any
    50e8:	d65f03c0 	ret
    50ec:	00000000 	.inst	0x00000000 ; undefined

00000000000050f0 <sys_stop>:
    50f0:	14000000 	b	50f0 <sys_stop>
    50f4:	00000000 	.inst	0x00000000 ; undefined

00000000000050f8 <cmd_config_cb>:
    50f8:	a9bf7bfd 	stp	x29, x30, [sp, #-16]!
    50fc:	aa0203e0 	mov	x0, x2
    5100:	b01fffe1 	adrp	x1, 40002000 <level_warning+0x1140>
    5104:	9122a021 	add	x1, x1, #0x8a8
    5108:	910003fd 	mov	x29, sp
    510c:	94001e6f 	bl	cac8 <std_fprintf>
    5110:	52800000 	mov	w0, #0x0                   	// #0
    5114:	a8c17bfd 	ldp	x29, x30, [sp], #16
    5118:	d65f03c0 	ret
    511c:	00000000 	.inst	0x00000000 ; undefined

0000000000005120 <cmd_info_cb>:
    5120:	a9bf7bfd 	stp	x29, x30, [sp, #-16]!
    5124:	aa0203e0 	mov	x0, x2
    5128:	b0200001 	adrp	x1, 40006000 <null+0x928>
    512c:	91106021 	add	x1, x1, #0x418
    5130:	910003fd 	mov	x29, sp
    5134:	94001e65 	bl	cac8 <std_fprintf>
    5138:	52800000 	mov	w0, #0x0                   	// #0
    513c:	a8c17bfd 	ldp	x29, x30, [sp], #16
    5140:	d65f03c0 	ret
    5144:	00000000 	.inst	0x00000000 ; undefined

0000000000005148 <cmd_backtrace_cb>:
    5148:	a9be7bfd 	stp	x29, x30, [sp, #-32]!
    514c:	aa0203e0 	mov	x0, x2
    5150:	b01fffe1 	adrp	x1, 40002000 <level_warning+0x1140>
    5154:	9121a021 	add	x1, x1, #0x868
    5158:	910003fd 	mov	x29, sp
    515c:	f9000bf3 	str	x19, [sp, #16]
    5160:	aa0203f3 	mov	x19, x2
    5164:	94001e59 	bl	cac8 <std_fprintf>
    5168:	aa1303e0 	mov	x0, x19
    516c:	90200001 	adrp	x1, 40005000 <state_fmt+0x2388>
    5170:	9118a021 	add	x1, x1, #0x628
    5174:	94001e55 	bl	cac8 <std_fprintf>
    5178:	52800000 	mov	w0, #0x0                   	// #0
    517c:	f9400bf3 	ldr	x19, [sp, #16]
    5180:	a8c27bfd 	ldp	x29, x30, [sp], #32
    5184:	d65f03c0 	ret

0000000000005188 <cmd_reset_cause_cb>:
    5188:	a9bf7bfd 	stp	x29, x30, [sp, #-16]!
    518c:	b0200001 	adrp	x1, 40006000 <null+0x928>
    5190:	b01fffe3 	adrp	x3, 40002000 <level_warning+0x1140>
    5194:	91266063 	add	x3, x3, #0x998
    5198:	910003fd 	mov	x29, sp
    519c:	b94b1c24 	ldr	w4, [x1, #2844]
    51a0:	aa0203e0 	mov	x0, x2
    51a4:	b01fffe1 	adrp	x1, 40002000 <level_warning+0x1140>
    51a8:	91222021 	add	x1, x1, #0x888
    51ac:	f8647862 	ldr	x2, [x3, x4, lsl #3]
    51b0:	94001e46 	bl	cac8 <std_fprintf>
    51b4:	52800000 	mov	w0, #0x0                   	// #0
    51b8:	a8c17bfd 	ldp	x29, x30, [sp], #16
    51bc:	d65f03c0 	ret

00000000000051c0 <sys_module_init.part.4>:
    51c0:	a9be7bfd 	stp	x29, x30, [sp, #-32]!
    51c4:	52800024 	mov	w4, #0x1                   	// #1
    51c8:	b0200000 	adrp	x0, 40006000 <null+0x928>
    51cc:	90000002 	adrp	x2, 5000 <crc_32+0x38>
    51d0:	910003fd 	mov	x29, sp
    51d4:	a90153f3 	stp	x19, x20, [sp, #16]
    51d8:	91048042 	add	x2, x2, #0x120
    51dc:	912c4013 	add	x19, x0, #0xb10
    51e0:	b01fffe1 	adrp	x1, 40002000 <level_warning+0x1140>
    51e4:	9127a021 	add	x1, x1, #0x9e8
    51e8:	91004274 	add	x20, x19, #0x10
    51ec:	d2800003 	mov	x3, #0x0                   	// #0
    51f0:	392c4004 	strb	w4, [x0, #2832]
    51f4:	aa1403e0 	mov	x0, x20
    51f8:	94001852 	bl	b340 <fs_command_init>
    51fc:	aa1403e0 	mov	x0, x20
    5200:	94001882 	bl	b408 <fs_command_register>
    5204:	90000002 	adrp	x2, 5000 <crc_32+0x38>
    5208:	b01fffe1 	adrp	x1, 40002000 <level_warning+0x1140>
    520c:	9103e042 	add	x2, x2, #0xf8
    5210:	91280021 	add	x1, x1, #0xa00
    5214:	9100c274 	add	x20, x19, #0x30
    5218:	d2800003 	mov	x3, #0x0                   	// #0
    521c:	aa1403e0 	mov	x0, x20
    5220:	94001848 	bl	b340 <fs_command_init>
    5224:	aa1403e0 	mov	x0, x20
    5228:	94001878 	bl	b408 <fs_command_register>
    522c:	90000002 	adrp	x2, 5000 <crc_32+0x38>
    5230:	b01fffe1 	adrp	x1, 40002000 <level_warning+0x1140>
    5234:	91180042 	add	x2, x2, #0x600
    5238:	91286021 	add	x1, x1, #0xa18
    523c:	91014274 	add	x20, x19, #0x50
    5240:	d2800003 	mov	x3, #0x0                   	// #0
    5244:	aa1403e0 	mov	x0, x20
    5248:	9400183e 	bl	b340 <fs_command_init>
    524c:	aa1403e0 	mov	x0, x20
    5250:	9400186e 	bl	b408 <fs_command_register>
    5254:	90000002 	adrp	x2, 5000 <crc_32+0x38>
    5258:	b01fffe1 	adrp	x1, 40002000 <level_warning+0x1140>
    525c:	91148042 	add	x2, x2, #0x520
    5260:	9128c021 	add	x1, x1, #0xa30
    5264:	9101c274 	add	x20, x19, #0x70
    5268:	d2800003 	mov	x3, #0x0                   	// #0
    526c:	aa1403e0 	mov	x0, x20
    5270:	94001834 	bl	b340 <fs_command_init>
    5274:	aa1403e0 	mov	x0, x20
    5278:	94001864 	bl	b408 <fs_command_register>
    527c:	90000002 	adrp	x2, 5000 <crc_32+0x38>
    5280:	b01fffe1 	adrp	x1, 40002000 <level_warning+0x1140>
    5284:	9102c042 	add	x2, x2, #0xb0
    5288:	91292021 	add	x1, x1, #0xa48
    528c:	91024274 	add	x20, x19, #0x90
    5290:	d2800003 	mov	x3, #0x0                   	// #0
    5294:	aa1403e0 	mov	x0, x20
    5298:	9400182a 	bl	b340 <fs_command_init>
    529c:	aa1403e0 	mov	x0, x20
    52a0:	9400185a 	bl	b408 <fs_command_register>
    52a4:	90000002 	adrp	x2, 5000 <crc_32+0x38>
    52a8:	b01fffe1 	adrp	x1, 40002000 <level_warning+0x1140>
    52ac:	91052042 	add	x2, x2, #0x148
    52b0:	91298021 	add	x1, x1, #0xa60
    52b4:	9102c274 	add	x20, x19, #0xb0
    52b8:	d2800003 	mov	x3, #0x0                   	// #0
    52bc:	aa1403e0 	mov	x0, x20
    52c0:	94001820 	bl	b340 <fs_command_init>
    52c4:	aa1403e0 	mov	x0, x20
    52c8:	94001850 	bl	b408 <fs_command_register>
    52cc:	90000002 	adrp	x2, 5000 <crc_32+0x38>
    52d0:	b01fffe1 	adrp	x1, 40002000 <level_warning+0x1140>
    52d4:	91062042 	add	x2, x2, #0x188
    52d8:	9129e021 	add	x1, x1, #0xa78
    52dc:	d2800003 	mov	x3, #0x0                   	// #0
    52e0:	91034273 	add	x19, x19, #0xd0
    52e4:	aa1303e0 	mov	x0, x19
    52e8:	94001816 	bl	b340 <fs_command_init>
    52ec:	aa1303e0 	mov	x0, x19
    52f0:	94001846 	bl	b408 <fs_command_register>
    52f4:	d2a10000 	mov	x0, #0x8000000             	// #134217728
    52f8:	529dc002 	mov	w2, #0xee00                	// #60928
    52fc:	72a00042 	movk	w2, #0x2, lsl #16
    5300:	b9441c01 	ldr	w1, [x0, #1052]
    5304:	b9041c01 	str	w1, [x0, #1052]
    5308:	b9410001 	ldr	w1, [x0, #256]
    530c:	32020021 	orr	w1, w1, #0x40000000
    5310:	b9010001 	str	w1, [x0, #256]
    5314:	d51be202 	msr	cntp_tval_el0, x2
    5318:	52800020 	mov	w0, #0x1                   	// #1
    531c:	d51be220 	msr	cntp_ctl_el0, x0
    5320:	d50342ff 	msr	daifclr, #0x2
    5324:	a94153f3 	ldp	x19, x20, [sp, #16]
    5328:	a8c27bfd 	ldp	x29, x30, [sp], #32
    532c:	d65f03c0 	ret

0000000000005330 <isr_phys_timer>:
    5330:	a9bf7bfd 	stp	x29, x30, [sp, #-16]!
    5334:	529dc000 	mov	w0, #0xee00                	// #60928
    5338:	72a00040 	movk	w0, #0x2, lsl #16
    533c:	910003fd 	mov	x29, sp
    5340:	d51be200 	msr	cntp_tval_el0, x0
    5344:	52800020 	mov	w0, #0x1                   	// #1
    5348:	d51be220 	msr	cntp_ctl_el0, x0
    534c:	b0200000 	adrp	x0, 40006000 <null+0x928>
    5350:	912c4000 	add	x0, x0, #0xb10
    5354:	529ffa02 	mov	w2, #0xffd0                	// #65488
    5358:	72afffe2 	movk	w2, #0x7fff, lsl #16
    535c:	b9400801 	ldr	w1, [x0, #8]
    5360:	11000421 	add	w1, w1, #0x1
    5364:	b9000801 	str	w1, [x0, #8]
    5368:	6b02003f 	cmp	w1, w2
    536c:	54000081 	b.ne	537c <isr_phys_timer+0x4c>  // b.any
    5370:	b9400401 	ldr	w1, [x0, #4]
    5374:	11000421 	add	w1, w1, #0x1
    5378:	2900fc01 	stp	w1, wzr, [x0, #4]
    537c:	94000477 	bl	6558 <timer_tick_isr>
    5380:	a8c17bfd 	ldp	x29, x30, [sp], #16
    5384:	14000217 	b	5be0 <thrd_tick_isr>

0000000000005388 <sys_start>:
    5388:	a9be7bfd 	stp	x29, x30, [sp, #-32]!
    538c:	910003fd 	mov	x29, sp
    5390:	a90153f3 	stp	x19, x20, [sp, #16]
    5394:	f01fffd3 	adrp	x19, 40000000 <__ram_begin>
    5398:	91002274 	add	x20, x19, #0x8
    539c:	940019a7 	bl	ba38 <chan_null>
    53a0:	f9000680 	str	x0, [x20, #8]
    53a4:	940019a5 	bl	ba38 <chan_null>
    53a8:	f9000a80 	str	x0, [x20, #16]
    53ac:	94001b77 	bl	c188 <rwlock_module_init>
    53b0:	94001848 	bl	b4d0 <fs_module_init>
    53b4:	94001d1f 	bl	c830 <std_module_init>
    53b8:	94001b76 	bl	c190 <sem_module_init>
    53bc:	940004a5 	bl	6650 <timer_module_init>
    53c0:	97fff4d6 	bl	2718 <log_module_init>
    53c4:	940018b1 	bl	b688 <chan_module_init>
    53c8:	94000282 	bl	5dd0 <thrd_module_init>
    53cc:	b0200000 	adrp	x0, 40006000 <null+0x928>
    53d0:	39ec4000 	ldrsb	w0, [x0, #2832]
    53d4:	7100041f 	cmp	w0, #0x1
    53d8:	54000040 	b.eq	53e0 <sys_start+0x58>  // b.none
    53dc:	97ffff79 	bl	51c0 <sys_module_init.part.4>
    53e0:	940018a0 	bl	b660 <bus_module_init>
    53e4:	97fffaf3 	bl	3fb0 <ds18b20_module_init>
    53e8:	97fffe5c 	bl	4d58 <flash_module_init>
    53ec:	97fff69f 	bl	2e68 <i2c_module_init>
    53f0:	97fff858 	bl	3550 <i2c_soft_module_init>
    53f4:	97fff63d 	bl	2ce8 <pin_module_init>
    53f8:	97fffa84 	bl	3e08 <uart_module_init>
    53fc:	9400053b 	bl	68e8 <console_module_init>
    5400:	9400053c 	bl	68f0 <console_init>
    5404:	94000545 	bl	6918 <console_start>
    5408:	94000548 	bl	6928 <console_get_input_channel>
    540c:	b4000200 	cbz	x0, 544c <sys_start+0xc4>
    5410:	91002261 	add	x1, x19, #0x8
    5414:	f9000420 	str	x0, [x1, #8]
    5418:	94000548 	bl	6938 <console_get_output_channel>
    541c:	b4000140 	cbz	x0, 5444 <sys_start+0xbc>
    5420:	91002273 	add	x19, x19, #0x8
    5424:	f9000a60 	str	x0, [x19, #16]
    5428:	94000544 	bl	6938 <console_get_output_channel>
    542c:	97fff4f3 	bl	27f8 <log_set_default_handler_output_channel>
    5430:	94000672 	bl	6df8 <settings_module_init>
    5434:	52800000 	mov	w0, #0x0                   	// #0
    5438:	a94153f3 	ldp	x19, x20, [sp, #16]
    543c:	a8c27bfd 	ldp	x29, x30, [sp], #32
    5440:	d65f03c0 	ret
    5444:	9400197d 	bl	ba38 <chan_null>
    5448:	17fffff6 	b	5420 <sys_start+0x98>
    544c:	9400197b 	bl	ba38 <chan_null>
    5450:	17fffff0 	b	5410 <sys_start+0x88>
    5454:	00000000 	.inst	0x00000000 ; undefined

0000000000005458 <sys_panic>:
    5458:	a9b37bfd 	stp	x29, x30, [sp, #-208]!
    545c:	910003fd 	mov	x29, sp
    5460:	f9000bf3 	str	x19, [sp, #16]
    5464:	aa0003f3 	mov	x19, x0
    5468:	a9098ba1 	stp	x1, x2, [x29, #152]
    546c:	a90a93a3 	stp	x3, x4, [x29, #168]
    5470:	a90b9ba5 	stp	x5, x6, [x29, #184]
    5474:	f90067a7 	str	x7, [x29, #200]
    5478:	d50342df 	msr	daifset, #0x2
    547c:	d0000023 	adrp	x3, b000 <fs_list+0x110>
    5480:	90000002 	adrp	x2, 5000 <crc_32+0x38>
    5484:	9119e063 	add	x3, x3, #0x678
    5488:	9102e042 	add	x2, x2, #0xb8
    548c:	d0000021 	adrp	x1, b000 <fs_list+0x110>
    5490:	910123a0 	add	x0, x29, #0x48
    5494:	9119a021 	add	x1, x1, #0x668
    5498:	9400187e 	bl	b690 <chan_init>
    549c:	910343a0 	add	x0, x29, #0xd0
    54a0:	910243a1 	add	x1, x29, #0x90
    54a4:	a90283a0 	stp	x0, x0, [x29, #40]
    54a8:	128006e0 	mov	w0, #0xffffffc8            	// #-56
    54ac:	f9001fa1 	str	x1, [x29, #56]
    54b0:	9100a3a2 	add	x2, x29, #0x28
    54b4:	aa1303e1 	mov	x1, x19
    54b8:	b90043a0 	str	w0, [x29, #64]
    54bc:	b90047bf 	str	wzr, [x29, #68]
    54c0:	910123a0 	add	x0, x29, #0x48
    54c4:	94001daf 	bl	cb80 <std_vfprintf>
    54c8:	d2a12001 	mov	x1, #0x9000000             	// #150994944
    54cc:	d503201f 	nop
    54d0:	b9401820 	ldr	w0, [x1, #24]
    54d4:	372fffe0 	tbnz	w0, #5, 54d0 <sys_panic+0x78>
    54d8:	52800742 	mov	w2, #0x3a                  	// #58
    54dc:	d2a12000 	mov	x0, #0x9000000             	// #150994944
    54e0:	b9000022 	str	w2, [x1]
    54e4:	d503201f 	nop
    54e8:	b9401801 	ldr	w1, [x0, #24]
    54ec:	372fffe1 	tbnz	w1, #5, 54e8 <sys_panic+0x90>
    54f0:	52800401 	mov	w1, #0x20                  	// #32
    54f4:	b9000001 	str	w1, [x0]
    54f8:	b0200001 	adrp	x1, 40006000 <null+0x928>
    54fc:	910123a0 	add	x0, x29, #0x48
    5500:	91106021 	add	x1, x1, #0x418
    5504:	94001d71 	bl	cac8 <std_fprintf>
    5508:	b01fffe1 	adrp	x1, 40002000 <level_warning+0x1140>
    550c:	910123a0 	add	x0, x29, #0x48
    5510:	912a4021 	add	x1, x1, #0xa90
    5514:	94001d6d 	bl	cac8 <std_fprintf>
    5518:	14000000 	b	5518 <sys_panic+0xc0>
    551c:	00000000 	.inst	0x00000000 ; undefined

0000000000005520 <cmd_panic_cb>:
    5520:	a9bf7bfd 	stp	x29, x30, [sp, #-16]!
    5524:	b01fffe0 	adrp	x0, 40002000 <level_warning+0x1140>
    5528:	9121e000 	add	x0, x0, #0x878
    552c:	910003fd 	mov	x29, sp
    5530:	97ffffca 	bl	5458 <sys_panic>
    5534:	00000000 	.inst	0x00000000 ; undefined

0000000000005538 <sys_uptime>:
    5538:	a9bd7bfd 	stp	x29, x30, [sp, #-48]!
    553c:	910003fd 	mov	x29, sp
    5540:	f9000bf3 	str	x19, [sp, #16]
    5544:	aa0003f3 	mov	x19, x0
    5548:	b40004a0 	cbz	x0, 55dc <sys_uptime+0xa4>
    554c:	b9002bbf 	str	wzr, [x29, #40]
    5550:	d50342df 	msr	daifset, #0x2
    5554:	b0200000 	adrp	x0, 40006000 <null+0x928>
    5558:	912c4000 	add	x0, x0, #0xb10
    555c:	b9002fbf 	str	wzr, [x29, #44]
    5560:	29409805 	ldp	w5, w6, [x0, #4]
    5564:	d50342ff 	msr	daifclr, #0x2
    5568:	5290a3e4 	mov	w4, #0x851f                	// #34079
    556c:	52800c83 	mov	w3, #0x64                  	// #100
    5570:	72aa3d64 	movk	w4, #0x51eb, lsl #16
    5574:	52884809 	mov	w9, #0x4240                	// #16960
    5578:	72a001e9 	movk	w9, #0xf, lsl #16
    557c:	d29eb868 	mov	x8, #0xf5c3                	// #62915
    5580:	9ba47cc4 	umull	x4, w6, w4
    5584:	f2ab8508 	movk	x8, #0x5c28, lsl #16
    5588:	f2d851e8 	movk	x8, #0xc28f, lsl #32
    558c:	5295c28a 	mov	w10, #0xae14                	// #44564
    5590:	f2e51ea8 	movk	x8, #0x28f5, lsl #48
    5594:	72a028ea 	movk	w10, #0x147, lsl #16
    5598:	d365fc84 	lsr	x4, x4, #37
    559c:	52807d07 	mov	w7, #0x3e8                 	// #1000
    55a0:	9100a3a2 	add	x2, x29, #0x28
    55a4:	aa1303e1 	mov	x1, x19
    55a8:	aa1303e0 	mov	x0, x19
    55ac:	1b039883 	msub	w3, w4, w3, w6
    55b0:	1b0a10a4 	madd	w4, w5, w10, w4
    55b4:	9ba97c63 	umull	x3, w3, w9
    55b8:	d342fc63 	lsr	x3, x3, #2
    55bc:	9bc87c63 	umulh	x3, x3, x8
    55c0:	d342fc63 	lsr	x3, x3, #2
    55c4:	1b077c63 	mul	w3, w3, w7
    55c8:	29000e64 	stp	w4, w3, [x19]
    55cc:	94000387 	bl	63e8 <time_add>
    55d0:	f9400bf3 	ldr	x19, [sp, #16]
    55d4:	a8c37bfd 	ldp	x29, x30, [sp], #48
    55d8:	d65f03c0 	ret
    55dc:	b01fffe0 	adrp	x0, 40002000 <level_warning+0x1140>
    55e0:	912a8000 	add	x0, x0, #0xaa0
    55e4:	94001c95 	bl	c838 <std_printf>
    55e8:	f01fffc1 	adrp	x1, 40000000 <__ram_begin>
    55ec:	528002c0 	mov	w0, #0x16                  	// #22
    55f0:	f9400421 	ldr	x1, [x1, #8]
    55f4:	d63f0020 	blr	x1
    55f8:	17ffffd5 	b	554c <sys_uptime+0x14>
    55fc:	00000000 	.inst	0x00000000 ; undefined

0000000000005600 <cmd_uptime_cb>:
    5600:	a9bd7bfd 	stp	x29, x30, [sp, #-48]!
    5604:	910003fd 	mov	x29, sp
    5608:	f9000bf3 	str	x19, [sp, #16]
    560c:	9100a3a0 	add	x0, x29, #0x28
    5610:	aa0203f3 	mov	x19, x2
    5614:	97ffffc9 	bl	5538 <sys_uptime>
    5618:	d2869b64 	mov	x4, #0x34db                	// #13531
    561c:	b9802fa3 	ldrsw	x3, [x29, #44]
    5620:	f2baf6c4 	movk	x4, #0xd7b6, lsl #16
    5624:	b9402ba2 	ldr	w2, [x29, #40]
    5628:	f2dbd044 	movk	x4, #0xde82, lsl #32
    562c:	aa1303e0 	mov	x0, x19
    5630:	f2e86364 	movk	x4, #0x431b, lsl #48
    5634:	b01fffe1 	adrp	x1, 40002000 <level_warning+0x1140>
    5638:	91224021 	add	x1, x1, #0x890
    563c:	9bc47c63 	umulh	x3, x3, x4
    5640:	d352fc63 	lsr	x3, x3, #18
    5644:	94001d21 	bl	cac8 <std_fprintf>
    5648:	52800000 	mov	w0, #0x0                   	// #0
    564c:	f9400bf3 	ldr	x19, [sp, #16]
    5650:	a8c37bfd 	ldp	x29, x30, [sp], #48
    5654:	d65f03c0 	ret

0000000000005658 <sys_get_stdin>:
    5658:	f01fffc0 	adrp	x0, 40000000 <__ram_begin>
    565c:	f9400800 	ldr	x0, [x0, #16]
    5660:	d65f03c0 	ret
    5664:	00000000 	.inst	0x00000000 ; undefined

0000000000005668 <sys_get_stdout>:
    5668:	f01fffc0 	adrp	x0, 40000000 <__ram_begin>
    566c:	f9400c00 	ldr	x0, [x0, #24]
    5670:	d65f03c0 	ret
    5674:	00000000 	.inst	0x00000000 ; undefined

0000000000005678 <sys_lock>:
    5678:	d50342df 	msr	daifset, #0x2
    567c:	d65f03c0 	ret

0000000000005680 <sys_unlock>:
    5680:	d50342ff 	msr	daifclr, #0x2
    5684:	d65f03c0 	ret

0000000000005688 <sys_lock_isr>:
    5688:	d65f03c0 	ret
    568c:	00000000 	.inst	0x00000000 ; undefined

0000000000005690 <sys_unlock_isr>:
    5690:	d65f03c0 	ret
    5694:	00000000 	.inst	0x00000000 ; undefined

0000000000005698 <sys_get_info>:
    5698:	b0200000 	adrp	x0, 40006000 <null+0x928>
    569c:	91106000 	add	x0, x0, #0x418
    56a0:	d65f03c0 	ret
    56a4:	00000000 	.inst	0x00000000 ; undefined

00000000000056a8 <sys_interrupt_cpu_usage_get>:
    56a8:	52800000 	mov	w0, #0x0                   	// #0
    56ac:	d65f03c0 	ret

00000000000056b0 <sys_interrupt_cpu_usage_reset>:
    56b0:	d65f03c0 	ret
    56b4:	00000000 	.inst	0x00000000 ; undefined

00000000000056b8 <thrd_reschedule>:
    56b8:	a9be7bfd 	stp	x29, x30, [sp, #-32]!
    56bc:	528266e0 	mov	w0, #0x1337                	// #4919
    56c0:	910003fd 	mov	x29, sp
    56c4:	a90153f3 	stp	x19, x20, [sp, #16]
    56c8:	d0200013 	adrp	x19, 40007000 <idle_thrd_stack+0x400>
    56cc:	91124261 	add	x1, x19, #0x490
    56d0:	f9400434 	ldr	x20, [x1, #8]
    56d4:	79411281 	ldrh	w1, [x20, #136]
    56d8:	6b00003f 	cmp	w1, w0
    56dc:	54000080 	b.eq	56ec <thrd_reschedule+0x34>  // b.none
    56e0:	b01fffe0 	adrp	x0, 40002000 <level_warning+0x1140>
    56e4:	91388000 	add	x0, x0, #0xe20
    56e8:	97ffff5c 	bl	5458 <sys_panic>
    56ec:	91124261 	add	x1, x19, #0x490
    56f0:	f9400822 	ldr	x2, [x1, #16]
    56f4:	f9400440 	ldr	x0, [x2, #8]
    56f8:	b40001e2 	cbz	x2, 5734 <thrd_reschedule+0x7c>
    56fc:	f9400042 	ldr	x2, [x2]
    5700:	eb00029f 	cmp	x20, x0
    5704:	3900a41f 	strb	wzr, [x0, #41]
    5708:	f9000822 	str	x2, [x1, #16]
    570c:	540000e0 	b.eq	5728 <thrd_reschedule+0x70>  // b.none
    5710:	f9000420 	str	x0, [x1, #8]
    5714:	aa1403e1 	mov	x1, x20
    5718:	94001ecb 	bl	d244 <thrd_port_swap>
    571c:	b9406680 	ldr	w0, [x20, #100]
    5720:	11000400 	add	w0, w0, #0x1
    5724:	b9006680 	str	w0, [x20, #100]
    5728:	a94153f3 	ldp	x19, x20, [sp, #16]
    572c:	a8c27bfd 	ldp	x29, x30, [sp], #32
    5730:	d65f03c0 	ret
    5734:	d4207d00 	brk	#0x3e8

0000000000005738 <cmd_monitor_set_print_cb>:
    5738:	a9bd7bfd 	stp	x29, x30, [sp, #-48]!
    573c:	7100081f 	cmp	w0, #0x2
    5740:	910003fd 	mov	x29, sp
    5744:	f9000bf3 	str	x19, [sp, #16]
    5748:	aa0203f3 	mov	x19, x2
    574c:	540001c1 	b.ne	5784 <cmd_monitor_set_print_cb+0x4c>  // b.any
    5750:	f9400420 	ldr	x0, [x1, #8]
    5754:	9100a3a1 	add	x1, x29, #0x28
    5758:	94001dd2 	bl	cea0 <std_strtol>
    575c:	b4000140 	cbz	x0, 5784 <cmd_monitor_set_print_cb+0x4c>
    5760:	f94017a1 	ldr	x1, [x29, #40]
    5764:	f100043f 	cmp	x1, #0x1
    5768:	540000e8 	b.hi	5784 <cmd_monitor_set_print_cb+0x4c>  // b.pmore
    576c:	f01fffc2 	adrp	x2, 40000000 <__ram_begin>
    5770:	52800000 	mov	w0, #0x0                   	// #0
    5774:	b9003041 	str	w1, [x2, #48]
    5778:	f9400bf3 	ldr	x19, [sp, #16]
    577c:	a8c37bfd 	ldp	x29, x30, [sp], #48
    5780:	d65f03c0 	ret
    5784:	b01fffe1 	adrp	x1, 40002000 <level_warning+0x1140>
    5788:	aa1303e0 	mov	x0, x19
    578c:	912ee021 	add	x1, x1, #0xbb8
    5790:	94001cce 	bl	cac8 <std_fprintf>
    5794:	128002a0 	mov	w0, #0xffffffea            	// #-22
    5798:	17fffff8 	b	5778 <cmd_monitor_set_print_cb+0x40>
    579c:	00000000 	.inst	0x00000000 ; undefined

00000000000057a0 <cmd_monitor_set_period_ms_cb>:
    57a0:	a9be7bfd 	stp	x29, x30, [sp, #-32]!
    57a4:	7100081f 	cmp	w0, #0x2
    57a8:	910003fd 	mov	x29, sp
    57ac:	540001e1 	b.ne	57e8 <cmd_monitor_set_period_ms_cb+0x48>  // b.any
    57b0:	f9400420 	ldr	x0, [x1, #8]
    57b4:	910063a1 	add	x1, x29, #0x18
    57b8:	94001dba 	bl	cea0 <std_strtol>
    57bc:	b4000220 	cbz	x0, 5800 <cmd_monitor_set_period_ms_cb+0x60>
    57c0:	f9400fa2 	ldr	x2, [x29, #24]
    57c4:	f01fffc3 	adrp	x3, 40000000 <__ram_begin>
    57c8:	52800000 	mov	w0, #0x0                   	// #0
    57cc:	d37be841 	lsl	x1, x2, #5
    57d0:	cb020021 	sub	x1, x1, x2
    57d4:	8b010841 	add	x1, x2, x1, lsl #2
    57d8:	d37df021 	lsl	x1, x1, #3
    57dc:	f9001461 	str	x1, [x3, #40]
    57e0:	a8c27bfd 	ldp	x29, x30, [sp], #32
    57e4:	d65f03c0 	ret
    57e8:	b01fffe1 	adrp	x1, 40002000 <level_warning+0x1140>
    57ec:	aa0203e0 	mov	x0, x2
    57f0:	912e4021 	add	x1, x1, #0xb90
    57f4:	94001cb5 	bl	cac8 <std_fprintf>
    57f8:	128002a0 	mov	w0, #0xffffffea            	// #-22
    57fc:	17fffff9 	b	57e0 <cmd_monitor_set_period_ms_cb+0x40>
    5800:	128002a0 	mov	w0, #0xffffffea            	// #-22
    5804:	17fffff7 	b	57e0 <cmd_monitor_set_period_ms_cb+0x40>

0000000000005808 <cmd_list_cb>:
    5808:	d10103ff 	sub	sp, sp, #0x40
    580c:	b01fffe1 	adrp	x1, 40002000 <level_warning+0x1140>
    5810:	aa0203e0 	mov	x0, x2
    5814:	912c0021 	add	x1, x1, #0xb00
    5818:	a9017bfd 	stp	x29, x30, [sp, #16]
    581c:	910043fd 	add	x29, sp, #0x10
    5820:	f90013f3 	str	x19, [sp, #32]
    5824:	f9001ff6 	str	x22, [sp, #56]
    5828:	aa0203f6 	mov	x22, x2
    582c:	94001ca7 	bl	cac8 <std_fprintf>
    5830:	d0200000 	adrp	x0, 40007000 <idle_thrd_stack+0x400>
    5834:	f9425413 	ldr	x19, [x0, #1192]
    5838:	b4000493 	cbz	x19, 58c8 <cmd_list_cb+0xc0>
    583c:	a901d7b4 	stp	x20, x21, [x29, #24]
    5840:	b01ffff5 	adrp	x21, 40002000 <level_warning+0x1140>
    5844:	b01ffff4 	adrp	x20, 40002000 <level_warning+0x1140>
    5848:	9131e2b5 	add	x21, x21, #0xc78
    584c:	912d6294 	add	x20, x20, #0xb58
    5850:	3980a660 	ldrsb	x0, [x19, #41]
    5854:	f9404267 	ldr	x7, [x19, #128]
    5858:	39c0a264 	ldrsb	w4, [x19, #40]
    585c:	294c1a65 	ldp	w5, w6, [x19, #96]
    5860:	f8607aa3 	ldr	x3, [x21, x0, lsl #3]
    5864:	f9402262 	ldr	x2, [x19, #64]
    5868:	b4000407 	cbz	x7, 58e8 <cmd_list_cb+0xe0>
    586c:	39424261 	ldrb	w1, [x19, #144]
    5870:	2a0703e8 	mov	w8, w7
    5874:	d2800000 	mov	x0, #0x0                   	// #0
    5878:	7100643f 	cmp	w1, #0x19
    587c:	540000a0 	b.eq	5890 <cmd_list_cb+0x88>  // b.none
    5880:	14000009 	b	58a4 <cmd_list_cb+0x9c>
    5884:	39424021 	ldrb	w1, [x1, #144]
    5888:	7100643f 	cmp	w1, #0x19
    588c:	540002a1 	b.ne	58e0 <cmd_list_cb+0xd8>  // b.any
    5890:	91000400 	add	x0, x0, #0x1
    5894:	8b000261 	add	x1, x19, x0
    5898:	eb07001f 	cmp	x0, x7
    589c:	54ffff41 	b.ne	5884 <cmd_list_cb+0x7c>  // b.any
    58a0:	52800007 	mov	w7, #0x0                   	// #0
    58a4:	3940c260 	ldrb	w0, [x19, #48]
    58a8:	aa1403e1 	mov	x1, x20
    58ac:	b90003e8 	str	w8, [sp]
    58b0:	b9000be0 	str	w0, [sp, #8]
    58b4:	aa1603e0 	mov	x0, x22
    58b8:	94001c84 	bl	cac8 <std_fprintf>
    58bc:	f9402673 	ldr	x19, [x19, #72]
    58c0:	b5fffc93 	cbnz	x19, 5850 <cmd_list_cb+0x48>
    58c4:	a941d7b4 	ldp	x20, x21, [x29, #24]
    58c8:	52800000 	mov	w0, #0x0                   	// #0
    58cc:	a9417bfd 	ldp	x29, x30, [sp, #16]
    58d0:	f94013f3 	ldr	x19, [sp, #32]
    58d4:	f9401ff6 	ldr	x22, [sp, #56]
    58d8:	910103ff 	add	sp, sp, #0x40
    58dc:	d65f03c0 	ret
    58e0:	4b0000e7 	sub	w7, w7, w0
    58e4:	17fffff0 	b	58a4 <cmd_list_cb+0x9c>
    58e8:	52800007 	mov	w7, #0x0                   	// #0
    58ec:	52800008 	mov	w8, #0x0                   	// #0
    58f0:	17ffffed 	b	58a4 <cmd_list_cb+0x9c>
    58f4:	00000000 	.inst	0x00000000 ; undefined

00000000000058f8 <terminate>:
    58f8:	a9be7bfd 	stp	x29, x30, [sp, #-32]!
    58fc:	910003fd 	mov	x29, sp
    5900:	f9000bf3 	str	x19, [sp, #16]
    5904:	d0200013 	adrp	x19, 40007000 <idle_thrd_stack+0x400>
    5908:	91124273 	add	x19, x19, #0x490
    590c:	97ffff5b 	bl	5678 <sys_lock>
    5910:	52800021 	mov	w1, #0x1                   	// #1
    5914:	f9400660 	ldr	x0, [x19, #8]
    5918:	91014000 	add	x0, x0, #0x50
    591c:	94001a55 	bl	c270 <sem_give_isr>
    5920:	f9400660 	ldr	x0, [x19, #8]
    5924:	52800081 	mov	w1, #0x4                   	// #4
    5928:	3900a401 	strb	w1, [x0, #41]
    592c:	97ffff63 	bl	56b8 <thrd_reschedule>
    5930:	f9400bf3 	ldr	x19, [sp, #16]
    5934:	a8c27bfd 	ldp	x29, x30, [sp], #32
    5938:	52800020 	mov	w0, #0x1                   	// #1
    593c:	17fffded 	b	50f0 <sys_stop>

0000000000005940 <thrd_self>:
    5940:	d0200000 	adrp	x0, 40007000 <idle_thrd_stack+0x400>
    5944:	f9424c00 	ldr	x0, [x0, #1176]
    5948:	d65f03c0 	ret
    594c:	00000000 	.inst	0x00000000 ; undefined

0000000000005950 <thrd_set_name>:
    5950:	d0200001 	adrp	x1, 40007000 <idle_thrd_stack+0x400>
    5954:	f9424c21 	ldr	x1, [x1, #1176]
    5958:	f9002020 	str	x0, [x1, #64]
    595c:	52800000 	mov	w0, #0x0                   	// #0
    5960:	d65f03c0 	ret
    5964:	00000000 	.inst	0x00000000 ; undefined

0000000000005968 <thrd_get_name>:
    5968:	d0200000 	adrp	x0, 40007000 <idle_thrd_stack+0x400>
    596c:	f9424c00 	ldr	x0, [x0, #1176]
    5970:	f9402000 	ldr	x0, [x0, #64]
    5974:	d65f03c0 	ret

0000000000005978 <thrd_get_by_name>:
    5978:	a9be7bfd 	stp	x29, x30, [sp, #-32]!
    597c:	d0200001 	adrp	x1, 40007000 <idle_thrd_stack+0x400>
    5980:	910003fd 	mov	x29, sp
    5984:	f9000bf3 	str	x19, [sp, #16]
    5988:	f9425433 	ldr	x19, [x1, #1192]
    598c:	b4000213 	cbz	x19, 59cc <thrd_get_by_name+0x54>
    5990:	f9000fb4 	str	x20, [x29, #24]
    5994:	aa0003f4 	mov	x20, x0
    5998:	14000003 	b	59a4 <thrd_get_by_name+0x2c>
    599c:	f9402673 	ldr	x19, [x19, #72]
    59a0:	b4000153 	cbz	x19, 59c8 <thrd_get_by_name+0x50>
    59a4:	f9402260 	ldr	x0, [x19, #64]
    59a8:	aa1403e1 	mov	x1, x20
    59ac:	97fff101 	bl	1db0 <strcmp>
    59b0:	35ffff60 	cbnz	w0, 599c <thrd_get_by_name+0x24>
    59b4:	aa1303e0 	mov	x0, x19
    59b8:	f9400fb4 	ldr	x20, [x29, #24]
    59bc:	f9400bf3 	ldr	x19, [sp, #16]
    59c0:	a8c27bfd 	ldp	x29, x30, [sp], #32
    59c4:	d65f03c0 	ret
    59c8:	f9400fb4 	ldr	x20, [x29, #24]
    59cc:	d2800013 	mov	x19, #0x0                   	// #0
    59d0:	aa1303e0 	mov	x0, x19
    59d4:	f9400bf3 	ldr	x19, [sp, #16]
    59d8:	a8c27bfd 	ldp	x29, x30, [sp], #32
    59dc:	d65f03c0 	ret

00000000000059e0 <cmd_set_log_mask_cb>:
    59e0:	a9bd7bfd 	stp	x29, x30, [sp, #-48]!
    59e4:	71000c1f 	cmp	w0, #0x3
    59e8:	910003fd 	mov	x29, sp
    59ec:	54000221 	b.ne	5a30 <cmd_set_log_mask_cb+0x50>  // b.any
    59f0:	f9400420 	ldr	x0, [x1, #8]
    59f4:	a90153b3 	stp	x19, x20, [x29, #16]
    59f8:	aa0103f3 	mov	x19, x1
    59fc:	97ffffdf 	bl	5978 <thrd_get_by_name>
    5a00:	aa0003f4 	mov	x20, x0
    5a04:	b4000220 	cbz	x0, 5a48 <cmd_set_log_mask_cb+0x68>
    5a08:	f9400a60 	ldr	x0, [x19, #16]
    5a0c:	9100a3a1 	add	x1, x29, #0x28
    5a10:	94001d24 	bl	cea0 <std_strtol>
    5a14:	b4000200 	cbz	x0, 5a54 <cmd_set_log_mask_cb+0x74>
    5a18:	f94017a1 	ldr	x1, [x29, #40]
    5a1c:	52800000 	mov	w0, #0x0                   	// #0
    5a20:	3900c281 	strb	w1, [x20, #48]
    5a24:	a94153b3 	ldp	x19, x20, [x29, #16]
    5a28:	a8c37bfd 	ldp	x29, x30, [sp], #48
    5a2c:	d65f03c0 	ret
    5a30:	b01fffe1 	adrp	x1, 40002000 <level_warning+0x1140>
    5a34:	aa0203e0 	mov	x0, x2
    5a38:	912f6021 	add	x1, x1, #0xbd8
    5a3c:	94001c23 	bl	cac8 <std_fprintf>
    5a40:	128002a0 	mov	w0, #0xffffffea            	// #-22
    5a44:	17fffff9 	b	5a28 <cmd_set_log_mask_cb+0x48>
    5a48:	12800040 	mov	w0, #0xfffffffd            	// #-3
    5a4c:	a94153b3 	ldp	x19, x20, [x29, #16]
    5a50:	17fffff6 	b	5a28 <cmd_set_log_mask_cb+0x48>
    5a54:	128002a0 	mov	w0, #0xffffffea            	// #-22
    5a58:	a94153b3 	ldp	x19, x20, [x29, #16]
    5a5c:	17fffff3 	b	5a28 <cmd_set_log_mask_cb+0x48>

0000000000005a60 <thrd_get_log_mask>:
    5a60:	d0200000 	adrp	x0, 40007000 <idle_thrd_stack+0x400>
    5a64:	f9424c00 	ldr	x0, [x0, #1176]
    5a68:	3940c000 	ldrb	w0, [x0, #48]
    5a6c:	d65f03c0 	ret

0000000000005a70 <thrd_get_global_env>:
    5a70:	a9bc7bfd 	stp	x29, x30, [sp, #-64]!
    5a74:	910003fd 	mov	x29, sp
    5a78:	f9000bf3 	str	x19, [sp, #16]
    5a7c:	a9025bf5 	stp	x21, x22, [sp, #32]
    5a80:	aa0003f6 	mov	x22, x0
    5a84:	f9001bf7 	str	x23, [sp, #48]
    5a88:	b4000440 	cbz	x0, 5b10 <thrd_get_global_env+0xa0>
    5a8c:	d0200017 	adrp	x23, 40007000 <idle_thrd_stack+0x400>
    5a90:	911242f5 	add	x21, x23, #0x490
    5a94:	9101e2a0 	add	x0, x21, #0x78
    5a98:	94001814 	bl	bae8 <mutex_lock>
    5a9c:	a94602b3 	ldp	x19, x0, [x21, #96]
    5aa0:	b4000240 	cbz	x0, 5ae8 <thrd_get_global_env+0x78>
    5aa4:	f9000fb4 	str	x20, [x29, #24]
    5aa8:	d2800034 	mov	x20, #0x1                   	// #1
    5aac:	14000007 	b	5ac8 <thrd_get_global_env+0x58>
    5ab0:	f94036a1 	ldr	x1, [x21, #104]
    5ab4:	91000680 	add	x0, x20, #0x1
    5ab8:	91004273 	add	x19, x19, #0x10
    5abc:	eb01029f 	cmp	x20, x1
    5ac0:	aa0003f4 	mov	x20, x0
    5ac4:	54000102 	b.cs	5ae4 <thrd_get_global_env+0x74>  // b.hs, b.nlast
    5ac8:	f9400260 	ldr	x0, [x19]
    5acc:	aa1603e1 	mov	x1, x22
    5ad0:	97fff0b8 	bl	1db0 <strcmp>
    5ad4:	35fffee0 	cbnz	w0, 5ab0 <thrd_get_global_env+0x40>
    5ad8:	f9400673 	ldr	x19, [x19, #8]
    5adc:	f9400fb4 	ldr	x20, [x29, #24]
    5ae0:	14000003 	b	5aec <thrd_get_global_env+0x7c>
    5ae4:	f9400fb4 	ldr	x20, [x29, #24]
    5ae8:	d2800013 	mov	x19, #0x0                   	// #0
    5aec:	911242e0 	add	x0, x23, #0x490
    5af0:	9101e000 	add	x0, x0, #0x78
    5af4:	94001827 	bl	bb90 <mutex_unlock>
    5af8:	aa1303e0 	mov	x0, x19
    5afc:	f9400bf3 	ldr	x19, [sp, #16]
    5b00:	a9425bf5 	ldp	x21, x22, [sp, #32]
    5b04:	f9401bf7 	ldr	x23, [sp, #48]
    5b08:	a8c47bfd 	ldp	x29, x30, [sp], #64
    5b0c:	d65f03c0 	ret
    5b10:	b01fffe0 	adrp	x0, 40002000 <level_warning+0x1140>
    5b14:	9134e000 	add	x0, x0, #0xd38
    5b18:	94001b48 	bl	c838 <std_printf>
    5b1c:	f01fffc1 	adrp	x1, 40000000 <__ram_begin>
    5b20:	528002c0 	mov	w0, #0x16                  	// #22
    5b24:	f9400421 	ldr	x1, [x1, #8]
    5b28:	d63f0020 	blr	x1
    5b2c:	17ffffd8 	b	5a8c <thrd_get_global_env+0x1c>

0000000000005b30 <thrd_get_env>:
    5b30:	a9bd7bfd 	stp	x29, x30, [sp, #-48]!
    5b34:	910003fd 	mov	x29, sp
    5b38:	f9000bf3 	str	x19, [sp, #16]
    5b3c:	a9025bf5 	stp	x21, x22, [sp, #32]
    5b40:	aa0003f5 	mov	x21, x0
    5b44:	b40003e0 	cbz	x0, 5bc0 <thrd_get_env+0x90>
    5b48:	d0200000 	adrp	x0, 40007000 <idle_thrd_stack+0x400>
    5b4c:	f9424c16 	ldr	x22, [x0, #1176]
    5b50:	a94682d3 	ldp	x19, x0, [x22, #104]
    5b54:	b40002c0 	cbz	x0, 5bac <thrd_get_env+0x7c>
    5b58:	f9000fb4 	str	x20, [x29, #24]
    5b5c:	d2800034 	mov	x20, #0x1                   	// #1
    5b60:	14000007 	b	5b7c <thrd_get_env+0x4c>
    5b64:	f9403ac1 	ldr	x1, [x22, #112]
    5b68:	91000680 	add	x0, x20, #0x1
    5b6c:	91004273 	add	x19, x19, #0x10
    5b70:	eb14003f 	cmp	x1, x20
    5b74:	aa0003f4 	mov	x20, x0
    5b78:	54000189 	b.ls	5ba8 <thrd_get_env+0x78>  // b.plast
    5b7c:	f9400260 	ldr	x0, [x19]
    5b80:	aa1503e1 	mov	x1, x21
    5b84:	97fff08b 	bl	1db0 <strcmp>
    5b88:	35fffee0 	cbnz	w0, 5b64 <thrd_get_env+0x34>
    5b8c:	f9400660 	ldr	x0, [x19, #8]
    5b90:	b40000c0 	cbz	x0, 5ba8 <thrd_get_env+0x78>
    5b94:	f9400fb4 	ldr	x20, [x29, #24]
    5b98:	f9400bf3 	ldr	x19, [sp, #16]
    5b9c:	a9425bf5 	ldp	x21, x22, [sp, #32]
    5ba0:	a8c37bfd 	ldp	x29, x30, [sp], #48
    5ba4:	d65f03c0 	ret
    5ba8:	f9400fb4 	ldr	x20, [x29, #24]
    5bac:	aa1503e0 	mov	x0, x21
    5bb0:	f9400bf3 	ldr	x19, [sp, #16]
    5bb4:	a9425bf5 	ldp	x21, x22, [sp, #32]
    5bb8:	a8c37bfd 	ldp	x29, x30, [sp], #48
    5bbc:	17ffffad 	b	5a70 <thrd_get_global_env>
    5bc0:	b01fffe0 	adrp	x0, 40002000 <level_warning+0x1140>
    5bc4:	91336000 	add	x0, x0, #0xcd8
    5bc8:	94001b1c 	bl	c838 <std_printf>
    5bcc:	f01fffc1 	adrp	x1, 40000000 <__ram_begin>
    5bd0:	528002c0 	mov	w0, #0x16                  	// #22
    5bd4:	f9400421 	ldr	x1, [x1, #8]
    5bd8:	d63f0020 	blr	x1
    5bdc:	17ffffdb 	b	5b48 <thrd_get_env+0x18>

0000000000005be0 <thrd_tick_isr>:
    5be0:	d65f03c0 	ret
    5be4:	00000000 	.inst	0x00000000 ; undefined

0000000000005be8 <thrd_prio_list_init>:
    5be8:	f900001f 	str	xzr, [x0]
    5bec:	52800000 	mov	w0, #0x0                   	// #0
    5bf0:	d65f03c0 	ret
    5bf4:	00000000 	.inst	0x00000000 ; undefined

0000000000005bf8 <thrd_prio_list_push_isr>:
    5bf8:	f9400006 	ldr	x6, [x0]
    5bfc:	f900003f 	str	xzr, [x1]
    5c00:	b4000226 	cbz	x6, 5c44 <thrd_prio_list_push_isr+0x4c>
    5c04:	f9400423 	ldr	x3, [x1, #8]
    5c08:	aa0603e2 	mov	x2, x6
    5c0c:	d2800004 	mov	x4, #0x0                   	// #0
    5c10:	39c0a065 	ldrsb	w5, [x3, #40]
    5c14:	14000002 	b	5c1c <thrd_prio_list_push_isr+0x24>
    5c18:	aa0303e2 	mov	x2, x3
    5c1c:	f9400443 	ldr	x3, [x2, #8]
    5c20:	39c0a063 	ldrsb	w3, [x3, #40]
    5c24:	6b05007f 	cmp	w3, w5
    5c28:	5400012c 	b.gt	5c4c <thrd_prio_list_push_isr+0x54>
    5c2c:	f9400043 	ldr	x3, [x2]
    5c30:	aa0203e4 	mov	x4, x2
    5c34:	b5ffff23 	cbnz	x3, 5c18 <thrd_prio_list_push_isr+0x20>
    5c38:	f9000041 	str	x1, [x2]
    5c3c:	d65f03c0 	ret
    5c40:	f9000026 	str	x6, [x1]
    5c44:	f9000001 	str	x1, [x0]
    5c48:	d65f03c0 	ret
    5c4c:	b4ffffa4 	cbz	x4, 5c40 <thrd_prio_list_push_isr+0x48>
    5c50:	f9400080 	ldr	x0, [x4]
    5c54:	f9000020 	str	x0, [x1]
    5c58:	f9000081 	str	x1, [x4]
    5c5c:	d65f03c0 	ret

0000000000005c60 <thrd_spawn>:
    5c60:	a9bc7bfd 	stp	x29, x30, [sp, #-64]!
    5c64:	910003fd 	mov	x29, sp
    5c68:	a90153f3 	stp	x19, x20, [sp, #16]
    5c6c:	aa0303f3 	mov	x19, x3
    5c70:	a9025bf5 	stp	x21, x22, [sp, #32]
    5c74:	aa0403f4 	mov	x20, x4
    5c78:	f9001bf7 	str	x23, [sp, #48]
    5c7c:	aa0003f5 	mov	x21, x0
    5c80:	aa0103f6 	mov	x22, x1
    5c84:	2a0203f7 	mov	w23, w2
    5c88:	b4000820 	cbz	x0, 5d8c <thrd_spawn+0x12c>
    5c8c:	b4000933 	cbz	x19, 5db0 <thrd_spawn+0x150>
    5c90:	f102469f 	cmp	x20, #0x91
    5c94:	540006c9 	b.ls	5d6c <thrd_spawn+0x10c>  // b.plast
    5c98:	52800020 	mov	w0, #0x1                   	// #1
    5c9c:	3900a660 	strb	w0, [x19, #41]
    5ca0:	528001e0 	mov	w0, #0xf                   	// #15
    5ca4:	d1024281 	sub	x1, x20, #0x90
    5ca8:	f9000673 	str	x19, [x19, #8]
    5cac:	52800022 	mov	w2, #0x1                   	// #1
    5cb0:	3900a277 	strb	w23, [x19, #40]
    5cb4:	b9002e7f 	str	wzr, [x19, #44]
    5cb8:	3900c260 	strb	w0, [x19, #48]
    5cbc:	b01fffe0 	adrp	x0, 40002000 <level_warning+0x1140>
    5cc0:	f9004261 	str	x1, [x19, #128]
    5cc4:	911ec000 	add	x0, x0, #0x7b0
    5cc8:	a903827f 	stp	xzr, x0, [x19, #56]
    5ccc:	2a0203e1 	mov	w1, w2
    5cd0:	91014260 	add	x0, x19, #0x50
    5cd4:	94001931 	bl	c198 <sem_init>
    5cd8:	a9067e7f 	stp	xzr, xzr, [x19, #96]
    5cdc:	f9404261 	ldr	x1, [x19, #128]
    5ce0:	528266e0 	mov	w0, #0x1337                	// #4919
    5ce4:	a9077e7f 	stp	xzr, xzr, [x19, #112]
    5ce8:	79011260 	strh	w0, [x19, #136]
    5cec:	b4000101 	cbz	x1, 5d0c <thrd_spawn+0xac>
    5cf0:	8b010261 	add	x1, x19, x1
    5cf4:	91024260 	add	x0, x19, #0x90
    5cf8:	91024021 	add	x1, x1, #0x90
    5cfc:	52800322 	mov	w2, #0x19                  	// #25
    5d00:	38001402 	strb	w2, [x0], #1
    5d04:	eb01001f 	cmp	x0, x1
    5d08:	54ffffc1 	b.ne	5d00 <thrd_spawn+0xa0>  // b.any
    5d0c:	d0200017 	adrp	x23, 40007000 <idle_thrd_stack+0x400>
    5d10:	911242f7 	add	x23, x23, #0x490
    5d14:	d1040294 	sub	x20, x20, #0x100
    5d18:	90000041 	adrp	x1, d000 <std_strcmp_f+0x18>
    5d1c:	8b140260 	add	x0, x19, x20
    5d20:	f9001260 	str	x0, [x19, #32]
    5d24:	f9400ee2 	ldr	x2, [x23, #24]
    5d28:	910b8021 	add	x1, x1, #0x2e0
    5d2c:	f9002662 	str	x2, [x19, #72]
    5d30:	f9000ef3 	str	x19, [x23, #24]
    5d34:	f9000415 	str	x21, [x0, #8]
    5d38:	f8346a76 	str	x22, [x19, x20]
    5d3c:	f9007801 	str	x1, [x0, #240]
    5d40:	97fffe4e 	bl	5678 <sys_lock>
    5d44:	aa1303e1 	mov	x1, x19
    5d48:	910042e0 	add	x0, x23, #0x10
    5d4c:	97ffffab 	bl	5bf8 <thrd_prio_list_push_isr>
    5d50:	97fffe4c 	bl	5680 <sys_unlock>
    5d54:	f9401bf7 	ldr	x23, [sp, #48]
    5d58:	aa1303e0 	mov	x0, x19
    5d5c:	a94153f3 	ldp	x19, x20, [sp, #16]
    5d60:	a9425bf5 	ldp	x21, x22, [sp, #32]
    5d64:	a8c47bfd 	ldp	x29, x30, [sp], #64
    5d68:	d65f03c0 	ret
    5d6c:	b01fffe0 	adrp	x0, 40002000 <level_warning+0x1140>
    5d70:	913fe000 	add	x0, x0, #0xff8
    5d74:	94001ab1 	bl	c838 <std_printf>
    5d78:	f01fffc1 	adrp	x1, 40000000 <__ram_begin>
    5d7c:	528002c0 	mov	w0, #0x16                  	// #22
    5d80:	f9400421 	ldr	x1, [x1, #8]
    5d84:	d63f0020 	blr	x1
    5d88:	17ffffc4 	b	5c98 <thrd_spawn+0x38>
    5d8c:	b01fffe0 	adrp	x0, 40002000 <level_warning+0x1140>
    5d90:	913d0000 	add	x0, x0, #0xf40
    5d94:	94001aa9 	bl	c838 <std_printf>
    5d98:	f01fffc1 	adrp	x1, 40000000 <__ram_begin>
    5d9c:	528002c0 	mov	w0, #0x16                  	// #22
    5da0:	f9400421 	ldr	x1, [x1, #8]
    5da4:	d63f0020 	blr	x1
    5da8:	b5fff753 	cbnz	x19, 5c90 <thrd_spawn+0x30>
    5dac:	d503201f 	nop
    5db0:	b01fffe0 	adrp	x0, 40002000 <level_warning+0x1140>
    5db4:	913e6000 	add	x0, x0, #0xf98
    5db8:	94001aa0 	bl	c838 <std_printf>
    5dbc:	f01fffc1 	adrp	x1, 40000000 <__ram_begin>
    5dc0:	528002c0 	mov	w0, #0x16                  	// #22
    5dc4:	f9400421 	ldr	x1, [x1, #8]
    5dc8:	d63f0020 	blr	x1
    5dcc:	17ffffb1 	b	5c90 <thrd_spawn+0x30>

0000000000005dd0 <thrd_module_init>:
    5dd0:	a9bc7bfd 	stp	x29, x30, [sp, #-64]!
    5dd4:	910003fd 	mov	x29, sp
    5dd8:	f90013f5 	str	x21, [sp, #32]
    5ddc:	d0200015 	adrp	x21, 40007000 <idle_thrd_stack+0x400>
    5de0:	39d242a0 	ldrsb	w0, [x21, #1168]
    5de4:	7100041f 	cmp	w0, #0x1
    5de8:	54000e00 	b.eq	5fa8 <thrd_module_init+0x1d8>  // b.none
    5dec:	911242a1 	add	x1, x21, #0x490
    5df0:	a90153b3 	stp	x19, x20, [x29, #16]
    5df4:	f90017b6 	str	x22, [x29, #40]
    5df8:	52800022 	mov	w2, #0x1                   	// #1
    5dfc:	391242a2 	strb	w2, [x21, #1168]
    5e00:	d2800082 	mov	x2, #0x4                   	// #4
    5e04:	f900083f 	str	xzr, [x1, #16]
    5e08:	91008020 	add	x0, x1, #0x20
    5e0c:	f0200016 	adrp	x22, 40008000 <module>
    5e10:	910b62d3 	add	x19, x22, #0x2d8
    5e14:	a9067c20 	stp	x0, xzr, [x1, #96]
    5e18:	9101e020 	add	x0, x1, #0x78
    5e1c:	f9003822 	str	x2, [x1, #112]
    5e20:	9400172a 	bl	bac8 <mutex_init>
    5e24:	910103b4 	add	x20, x29, #0x40
    5e28:	91024261 	add	x1, x19, #0x90
    5e2c:	d02003c0 	adrp	x0, 4007f000 <_end+0x76c98>
    5e30:	913fe000 	add	x0, x0, #0xff8
    5e34:	cb010000 	sub	x0, x0, x1
    5e38:	7900527f 	strh	wzr, [x19, #40]
    5e3c:	528001e1 	mov	w1, #0xf                   	// #15
    5e40:	3900c261 	strb	w1, [x19, #48]
    5e44:	b01fffe1 	adrp	x1, 40002000 <level_warning+0x1140>
    5e48:	91366021 	add	x1, x1, #0xd98
    5e4c:	52800022 	mov	w2, #0x1                   	// #1
    5e50:	381ffe9f 	strb	wzr, [x20, #-1]!
    5e54:	f9000673 	str	x19, [x19, #8]
    5e58:	b9002e7f 	str	wzr, [x19, #44]
    5e5c:	a903867f 	stp	xzr, x1, [x19, #56]
    5e60:	2a0203e1 	mov	w1, w2
    5e64:	f900267f 	str	xzr, [x19, #72]
    5e68:	f9004260 	str	x0, [x19, #128]
    5e6c:	91014260 	add	x0, x19, #0x50
    5e70:	940018ca 	bl	c198 <sem_init>
    5e74:	a9067e7f 	stp	xzr, xzr, [x19, #96]
    5e78:	528266e0 	mov	w0, #0x1337                	// #4919
    5e7c:	a9077e7f 	stp	xzr, xzr, [x19, #112]
    5e80:	79011260 	strh	w0, [x19, #136]
    5e84:	91048262 	add	x2, x19, #0x120
    5e88:	eb020282 	subs	x2, x20, x2
    5e8c:	54000120 	b.eq	5eb0 <thrd_module_init+0xe0>  // b.none
    5e90:	aa1303e1 	mov	x1, x19
    5e94:	8b020262 	add	x2, x19, x2
    5e98:	52800320 	mov	w0, #0x19                  	// #25
    5e9c:	d503201f 	nop
    5ea0:	39024020 	strb	w0, [x1, #144]
    5ea4:	91000421 	add	x1, x1, #0x1
    5ea8:	eb02003f 	cmp	x1, x2
    5eac:	54ffffa1 	b.ne	5ea0 <thrd_module_init+0xd0>  // b.any
    5eb0:	911242b3 	add	x19, x21, #0x490
    5eb4:	910b62d6 	add	x22, x22, #0x2d8
    5eb8:	d2811204 	mov	x4, #0x890                 	// #2192
    5ebc:	52800fe2 	mov	w2, #0x7f                  	// #127
    5ec0:	d2800001 	mov	x1, #0x0                   	// #0
    5ec4:	b0200003 	adrp	x3, 40006000 <null+0x928>
    5ec8:	f9000676 	str	x22, [x19, #8]
    5ecc:	91300063 	add	x3, x3, #0xc00
    5ed0:	f9000e76 	str	x22, [x19, #24]
    5ed4:	b0000000 	adrp	x0, 6000 <thrd_resume_isr.part.8+0x20>
    5ed8:	91020000 	add	x0, x0, #0x80
    5edc:	97ffff61 	bl	5c60 <thrd_spawn>
    5ee0:	d2811204 	mov	x4, #0x890                 	// #2192
    5ee4:	128009e2 	mov	w2, #0xffffffb0            	// #-80
    5ee8:	d2800001 	mov	x1, #0x0                   	// #0
    5eec:	d0200003 	adrp	x3, 40007000 <idle_thrd_stack+0x400>
    5ef0:	b0000000 	adrp	x0, 6000 <thrd_resume_isr.part.8+0x20>
    5ef4:	91168063 	add	x3, x3, #0x5a0
    5ef8:	9108a000 	add	x0, x0, #0x228
    5efc:	97ffff59 	bl	5c60 <thrd_spawn>
    5f00:	90000002 	adrp	x2, 5000 <crc_32+0x38>
    5f04:	b01fffe1 	adrp	x1, 40002000 <level_warning+0x1140>
    5f08:	91202042 	add	x2, x2, #0x808
    5f0c:	91368021 	add	x1, x1, #0xda0
    5f10:	91022274 	add	x20, x19, #0x88
    5f14:	d2800003 	mov	x3, #0x0                   	// #0
    5f18:	aa1403e0 	mov	x0, x20
    5f1c:	94001509 	bl	b340 <fs_command_init>
    5f20:	aa1403e0 	mov	x0, x20
    5f24:	94001539 	bl	b408 <fs_command_register>
    5f28:	90000002 	adrp	x2, 5000 <crc_32+0x38>
    5f2c:	b01fffe1 	adrp	x1, 40002000 <level_warning+0x1140>
    5f30:	91278042 	add	x2, x2, #0x9e0
    5f34:	9136e021 	add	x1, x1, #0xdb8
    5f38:	9102a274 	add	x20, x19, #0xa8
    5f3c:	d2800003 	mov	x3, #0x0                   	// #0
    5f40:	aa1403e0 	mov	x0, x20
    5f44:	940014ff 	bl	b340 <fs_command_init>
    5f48:	aa1403e0 	mov	x0, x20
    5f4c:	9400152f 	bl	b408 <fs_command_register>
    5f50:	90000002 	adrp	x2, 5000 <crc_32+0x38>
    5f54:	b01fffe1 	adrp	x1, 40002000 <level_warning+0x1140>
    5f58:	911e8042 	add	x2, x2, #0x7a0
    5f5c:	91376021 	add	x1, x1, #0xdd8
    5f60:	91032274 	add	x20, x19, #0xc8
    5f64:	d2800003 	mov	x3, #0x0                   	// #0
    5f68:	aa1403e0 	mov	x0, x20
    5f6c:	940014f5 	bl	b340 <fs_command_init>
    5f70:	aa1403e0 	mov	x0, x20
    5f74:	94001525 	bl	b408 <fs_command_register>
    5f78:	90000002 	adrp	x2, 5000 <crc_32+0x38>
    5f7c:	b01fffe1 	adrp	x1, 40002000 <level_warning+0x1140>
    5f80:	911ce042 	add	x2, x2, #0x738
    5f84:	91380021 	add	x1, x1, #0xe00
    5f88:	9103a273 	add	x19, x19, #0xe8
    5f8c:	d2800003 	mov	x3, #0x0                   	// #0
    5f90:	aa1303e0 	mov	x0, x19
    5f94:	940014eb 	bl	b340 <fs_command_init>
    5f98:	aa1303e0 	mov	x0, x19
    5f9c:	9400151b 	bl	b408 <fs_command_register>
    5fa0:	a94153b3 	ldp	x19, x20, [x29, #16]
    5fa4:	f94017b6 	ldr	x22, [x29, #40]
    5fa8:	f94013f5 	ldr	x21, [sp, #32]
    5fac:	52800000 	mov	w0, #0x0                   	// #0
    5fb0:	a8c47bfd 	ldp	x29, x30, [sp], #64
    5fb4:	d65f03c0 	ret

0000000000005fb8 <on_suspend_timer_expired>:
    5fb8:	12800da3 	mov	w3, #0xffffff92            	// #-110
    5fbc:	52800024 	mov	w4, #0x1                   	// #1
    5fc0:	3900a404 	strb	w4, [x0, #41]
    5fc4:	d0200002 	adrp	x2, 40007000 <idle_thrd_stack+0x400>
    5fc8:	b9002c03 	str	w3, [x0, #44]
    5fcc:	91124042 	add	x2, x2, #0x490
    5fd0:	f9001c1f 	str	xzr, [x0, #56]
    5fd4:	aa0003e1 	mov	x1, x0
    5fd8:	91004040 	add	x0, x2, #0x10
    5fdc:	17ffff07 	b	5bf8 <thrd_prio_list_push_isr>

0000000000005fe0 <thrd_resume_isr.part.8>:
    5fe0:	a9be7bfd 	stp	x29, x30, [sp, #-32]!
    5fe4:	52800021 	mov	w1, #0x1                   	// #1
    5fe8:	910003fd 	mov	x29, sp
    5fec:	f9000bf3 	str	x19, [sp, #16]
    5ff0:	aa0003f3 	mov	x19, x0
    5ff4:	f9401c00 	ldr	x0, [x0, #56]
    5ff8:	3900a661 	strb	w1, [x19, #41]
    5ffc:	b40000a0 	cbz	x0, 6010 <thrd_resume_isr.part.8+0x30>
    6000:	94000216 	bl	6858 <timer_stop_isr>
    6004:	7100041f 	cmp	w0, #0x1
    6008:	54000161 	b.ne	6034 <thrd_resume_isr.part.8+0x54>  // b.any
    600c:	f9001e7f 	str	xzr, [x19, #56]
    6010:	b0200000 	adrp	x0, 40007000 <idle_thrd_stack+0x400>
    6014:	91124000 	add	x0, x0, #0x490
    6018:	aa1303e1 	mov	x1, x19
    601c:	91004000 	add	x0, x0, #0x10
    6020:	97fffef6 	bl	5bf8 <thrd_prio_list_push_isr>
    6024:	f9400bf3 	ldr	x19, [sp, #16]
    6028:	52800000 	mov	w0, #0x0                   	// #0
    602c:	a8c27bfd 	ldp	x29, x30, [sp], #32
    6030:	d65f03c0 	ret
    6034:	901fffe0 	adrp	x0, 40002000 <level_warning+0x1140>
    6038:	913a6000 	add	x0, x0, #0xe98
    603c:	97fffd07 	bl	5458 <sys_panic>
    6040:	17fffff3 	b	600c <thrd_resume_isr.part.8+0x2c>
    6044:	00000000 	.inst	0x00000000 ; undefined

0000000000006048 <thrd_resume_isr>:
    6048:	39c0a403 	ldrsb	w3, [x0, #41]
    604c:	aa0003e2 	mov	x2, x0
    6050:	b9002c01 	str	w1, [x0, #44]
    6054:	7100087f 	cmp	w3, #0x2
    6058:	540000e0 	b.eq	6074 <thrd_resume_isr+0x2c>  // b.none
    605c:	7100107f 	cmp	w3, #0x4
    6060:	540000c0 	b.eq	6078 <thrd_resume_isr+0x30>  // b.none
    6064:	52800061 	mov	w1, #0x3                   	// #3
    6068:	52800000 	mov	w0, #0x0                   	// #0
    606c:	3900a441 	strb	w1, [x2, #41]
    6070:	d65f03c0 	ret
    6074:	17ffffdb 	b	5fe0 <thrd_resume_isr.part.8>
    6078:	12800000 	mov	w0, #0xffffffff            	// #-1
    607c:	d65f03c0 	ret

0000000000006080 <idle_thrd>:
    6080:	a9bd7bfd 	stp	x29, x30, [sp, #-48]!
    6084:	901fffe1 	adrp	x1, 40002000 <level_warning+0x1140>
    6088:	91302021 	add	x1, x1, #0xc08
    608c:	901fffe0 	adrp	x0, 40002000 <level_warning+0x1140>
    6090:	910003fd 	mov	x29, sp
    6094:	a90153f3 	stp	x19, x20, [sp, #16]
    6098:	b0200013 	adrp	x19, 40007000 <idle_thrd_stack+0x400>
    609c:	91124273 	add	x19, x19, #0x490
    60a0:	91304000 	add	x0, x0, #0xc10
    60a4:	52800034 	mov	w20, #0x1                   	// #1
    60a8:	f9400662 	ldr	x2, [x19, #8]
    60ac:	f90013f5 	str	x21, [sp, #32]
    60b0:	91004275 	add	x21, x19, #0x10
    60b4:	f9002041 	str	x1, [x2, #64]
    60b8:	940019e0 	bl	c838 <std_printf>
    60bc:	f9400673 	ldr	x19, [x19, #8]
    60c0:	d503207f 	wfi
    60c4:	97fffd6f 	bl	5680 <sys_unlock>
    60c8:	97fffd6c 	bl	5678 <sys_lock>
    60cc:	3900a674 	strb	w20, [x19, #41]
    60d0:	aa1303e1 	mov	x1, x19
    60d4:	aa1503e0 	mov	x0, x21
    60d8:	97fffec8 	bl	5bf8 <thrd_prio_list_push_isr>
    60dc:	97fffd77 	bl	56b8 <thrd_reschedule>
    60e0:	17fffff8 	b	60c0 <idle_thrd+0x40>
    60e4:	00000000 	.inst	0x00000000 ; undefined

00000000000060e8 <thrd_suspend_isr>:
    60e8:	a9bb7bfd 	stp	x29, x30, [sp, #-80]!
    60ec:	b0200002 	adrp	x2, 40007000 <idle_thrd_stack+0x400>
    60f0:	91124042 	add	x2, x2, #0x490
    60f4:	910003fd 	mov	x29, sp
    60f8:	a90153f3 	stp	x19, x20, [sp, #16]
    60fc:	aa0003f4 	mov	x20, x0
    6100:	f9400453 	ldr	x19, [x2, #8]
    6104:	39c0a660 	ldrsb	w0, [x19, #41]
    6108:	71000c1f 	cmp	w0, #0x3
    610c:	54000420 	b.eq	6190 <thrd_suspend_isr+0xa8>  // b.none
    6110:	52800040 	mov	w0, #0x2                   	// #2
    6114:	3900a660 	strb	w0, [x19, #41]
    6118:	b4000294 	cbz	x20, 6168 <thrd_suspend_isr+0x80>
    611c:	b9400280 	ldr	w0, [x20]
    6120:	7100001f 	cmp	w0, #0x0
    6124:	540002cd 	b.le	617c <thrd_suspend_isr+0x94>
    6128:	f9401e60 	ldr	x0, [x19, #56]
    612c:	b4000080 	cbz	x0, 613c <thrd_suspend_isr+0x54>
    6130:	b01fffe0 	adrp	x0, 40003000 <state_fmt+0x388>
    6134:	9101a000 	add	x0, x0, #0x68
    6138:	97fffcc8 	bl	5458 <sys_panic>
    613c:	aa1403e1 	mov	x1, x20
    6140:	f0ffffe2 	adrp	x2, 5000 <crc_32+0x38>
    6144:	9100a3b4 	add	x20, x29, #0x28
    6148:	aa1303e3 	mov	x3, x19
    614c:	913ee042 	add	x2, x2, #0xfb8
    6150:	f9001e74 	str	x20, [x19, #56]
    6154:	52800004 	mov	w4, #0x0                   	// #0
    6158:	aa1403e0 	mov	x0, x20
    615c:	9400013f 	bl	6658 <timer_init>
    6160:	aa1403e0 	mov	x0, x20
    6164:	9400017f 	bl	6760 <timer_start_isr>
    6168:	97fffd54 	bl	56b8 <thrd_reschedule>
    616c:	b9402e60 	ldr	w0, [x19, #44]
    6170:	a94153f3 	ldp	x19, x20, [sp, #16]
    6174:	a8c57bfd 	ldp	x29, x30, [sp], #80
    6178:	d65f03c0 	ret
    617c:	b9400680 	ldr	w0, [x20, #4]
    6180:	7100001f 	cmp	w0, #0x0
    6184:	54fffd2c 	b.gt	6128 <thrd_suspend_isr+0x40>
    6188:	12800da0 	mov	w0, #0xffffff92            	// #-110
    618c:	17fffff9 	b	6170 <thrd_suspend_isr+0x88>
    6190:	52800020 	mov	w0, #0x1                   	// #1
    6194:	3900a660 	strb	w0, [x19, #41]
    6198:	aa1303e1 	mov	x1, x19
    619c:	91004040 	add	x0, x2, #0x10
    61a0:	97fffe96 	bl	5bf8 <thrd_prio_list_push_isr>
    61a4:	17fffff1 	b	6168 <thrd_suspend_isr+0x80>

00000000000061a8 <thrd_sleep_us>:
    61a8:	d2869b62 	mov	x2, #0x34db                	// #13531
    61ac:	a9bd7bfd 	stp	x29, x30, [sp, #-48]!
    61b0:	f2baf6c2 	movk	x2, #0xd7b6, lsl #16
    61b4:	d2884804 	mov	x4, #0x4240                	// #16960
    61b8:	f2dbd042 	movk	x2, #0xde82, lsl #32
    61bc:	910003fd 	mov	x29, sp
    61c0:	f2e86362 	movk	x2, #0x431b, lsl #48
    61c4:	f2a001e4 	movk	x4, #0xf, lsl #16
    61c8:	52807d03 	mov	w3, #0x3e8                 	// #1000
    61cc:	9b427c02 	smulh	x2, x0, x2
    61d0:	f9000bf3 	str	x19, [sp, #16]
    61d4:	9352fc42 	asr	x2, x2, #18
    61d8:	cb80fc41 	sub	x1, x2, x0, asr #63
    61dc:	b9002ba1 	str	w1, [x29, #40]
    61e0:	d503201f 	nop
    61e4:	9b048021 	msub	x1, x1, x4, x0
    61e8:	1b037c21 	mul	w1, w1, w3
    61ec:	b9002fa1 	str	w1, [x29, #44]
    61f0:	97fffd22 	bl	5678 <sys_lock>
    61f4:	9100a3a0 	add	x0, x29, #0x28
    61f8:	97ffffbc 	bl	60e8 <thrd_suspend_isr>
    61fc:	2a0003f3 	mov	w19, w0
    6200:	97fffd20 	bl	5680 <sys_unlock>
    6204:	3101ba7f 	cmn	w19, #0x6e
    6208:	54000080 	b.eq	6218 <thrd_sleep_us+0x70>  // b.none
    620c:	901fffe0 	adrp	x0, 40002000 <level_warning+0x1140>
    6210:	913ba000 	add	x0, x0, #0xee8
    6214:	97fffc91 	bl	5458 <sys_panic>
    6218:	f9400bf3 	ldr	x19, [sp, #16]
    621c:	52800000 	mov	w0, #0x0                   	// #0
    6220:	a8c37bfd 	ldp	x29, x30, [sp], #48
    6224:	d65f03c0 	ret

0000000000006228 <monitor_main>:
    6228:	a9bc7bfd 	stp	x29, x30, [sp, #-64]!
    622c:	901fffe0 	adrp	x0, 40002000 <level_warning+0x1140>
    6230:	91306000 	add	x0, x0, #0xc18
    6234:	910003fd 	mov	x29, sp
    6238:	a90363f7 	stp	x23, x24, [sp, #48]
    623c:	b0200017 	adrp	x23, 40007000 <idle_thrd_stack+0x400>
    6240:	911242f7 	add	x23, x23, #0x490
    6244:	a90153f3 	stp	x19, x20, [sp, #16]
    6248:	a9025bf5 	stp	x21, x22, [sp, #32]
    624c:	901ffff8 	adrp	x24, 40002000 <level_warning+0x1140>
    6250:	d01fffd5 	adrp	x21, 40000000 <__ram_begin>
    6254:	901ffff6 	adrp	x22, 40002000 <level_warning+0x1140>
    6258:	f94006e1 	ldr	x1, [x23, #8]
    625c:	9100a2b5 	add	x21, x21, #0x28
    6260:	91308318 	add	x24, x24, #0xc20
    6264:	9131a2d6 	add	x22, x22, #0xc68
    6268:	f9002020 	str	x0, [x1, #64]
    626c:	d503201f 	nop
    6270:	f94002a0 	ldr	x0, [x21]
    6274:	97ffffcd 	bl	61a8 <thrd_sleep_us>
    6278:	b9400ab4 	ldr	w20, [x21, #8]
    627c:	97fffd0b 	bl	56a8 <sys_interrupt_cpu_usage_get>
    6280:	2a0003f3 	mov	w19, w0
    6284:	97fffd0b 	bl	56b0 <sys_interrupt_cpu_usage_reset>
    6288:	7100069f 	cmp	w20, #0x1
    628c:	540001c0 	b.eq	62c4 <monitor_main+0x9c>  // b.none
    6290:	f9400ef3 	ldr	x19, [x23, #24]
    6294:	b5000093 	cbnz	x19, 62a4 <monitor_main+0x7c>
    6298:	17fffff6 	b	6270 <monitor_main+0x48>
    629c:	f9402673 	ldr	x19, [x19, #72]
    62a0:	b4fffe93 	cbz	x19, 6270 <monitor_main+0x48>
    62a4:	b900627f 	str	wzr, [x19, #96]
    62a8:	7100069f 	cmp	w20, #0x1
    62ac:	54ffff81 	b.ne	629c <monitor_main+0x74>  // b.any
    62b0:	f9402261 	ldr	x1, [x19, #64]
    62b4:	52800002 	mov	w2, #0x0                   	// #0
    62b8:	aa1603e0 	mov	x0, x22
    62bc:	9400195f 	bl	c838 <std_printf>
    62c0:	17fffff7 	b	629c <monitor_main+0x74>
    62c4:	2a1303e1 	mov	w1, w19
    62c8:	aa1803e0 	mov	x0, x24
    62cc:	9400195b 	bl	c838 <std_printf>
    62d0:	17fffff0 	b	6290 <monitor_main+0x68>
    62d4:	00000000 	.inst	0x00000000 ; undefined

00000000000062d8 <thrd_sleep_ms>:
    62d8:	52807d01 	mov	w1, #0x3e8                 	// #1000
    62dc:	9b217c00 	smull	x0, w0, w1
    62e0:	17ffffb2 	b	61a8 <thrd_sleep_us>
    62e4:	00000000 	.inst	0x00000000 ; undefined

00000000000062e8 <thrd_yield>:
    62e8:	a9bf7bfd 	stp	x29, x30, [sp, #-16]!
    62ec:	910003fd 	mov	x29, sp
    62f0:	97fffce2 	bl	5678 <sys_lock>
    62f4:	b0200001 	adrp	x1, 40007000 <idle_thrd_stack+0x400>
    62f8:	91124021 	add	x1, x1, #0x490
    62fc:	91004020 	add	x0, x1, #0x10
    6300:	52800023 	mov	w3, #0x1                   	// #1
    6304:	f9400422 	ldr	x2, [x1, #8]
    6308:	aa0203e1 	mov	x1, x2
    630c:	3900a443 	strb	w3, [x2, #41]
    6310:	97fffe3a 	bl	5bf8 <thrd_prio_list_push_isr>
    6314:	97fffce9 	bl	56b8 <thrd_reschedule>
    6318:	97fffcda 	bl	5680 <sys_unlock>
    631c:	52800000 	mov	w0, #0x0                   	// #0
    6320:	a8c17bfd 	ldp	x29, x30, [sp], #16
    6324:	d65f03c0 	ret

0000000000006328 <thrd_prio_list_pop_isr>:
    6328:	aa0003e1 	mov	x1, x0
    632c:	f9400000 	ldr	x0, [x0]
    6330:	b4000060 	cbz	x0, 633c <thrd_prio_list_pop_isr+0x14>
    6334:	f9400002 	ldr	x2, [x0]
    6338:	f9000022 	str	x2, [x1]
    633c:	d65f03c0 	ret

0000000000006340 <adjust_result>:
    6340:	29400801 	ldp	w1, w2, [x0]
    6344:	5286c023 	mov	w3, #0x3601                	// #13825
    6348:	72b88ca3 	movk	w3, #0xc465, lsl #16
    634c:	6b03005f 	cmp	w2, w3
    6350:	5400016a 	b.ge	637c <adjust_result+0x3c>  // b.tcont
    6354:	52994003 	mov	w3, #0xca00                	// #51712
    6358:	51000421 	sub	w1, w1, #0x1
    635c:	72a77343 	movk	w3, #0x3b9a, lsl #16
    6360:	0b030042 	add	w2, w2, w3
    6364:	29000801 	stp	w1, w2, [x0]
    6368:	7100003f 	cmp	w1, #0x0
    636c:	540001ed 	b.le	63a8 <adjust_result+0x68>
    6370:	b9400402 	ldr	w2, [x0, #4]
    6374:	37f802e2 	tbnz	w2, #31, 63d0 <adjust_result+0x90>
    6378:	d65f03c0 	ret
    637c:	52993fe3 	mov	w3, #0xc9ff                	// #51711
    6380:	72a77343 	movk	w3, #0x3b9a, lsl #16
    6384:	6b03005f 	cmp	w2, w3
    6388:	54ffff0d 	b.le	6368 <adjust_result+0x28>
    638c:	5286c003 	mov	w3, #0x3600                	// #13824
    6390:	11000421 	add	w1, w1, #0x1
    6394:	72b88ca3 	movk	w3, #0xc465, lsl #16
    6398:	0b030042 	add	w2, w2, w3
    639c:	29000801 	stp	w1, w2, [x0]
    63a0:	7100003f 	cmp	w1, #0x0
    63a4:	54fffe6c 	b.gt	6370 <adjust_result+0x30>
    63a8:	54fffe80 	b.eq	6378 <adjust_result+0x38>  // b.none
    63ac:	b9400402 	ldr	w2, [x0, #4]
    63b0:	7100005f 	cmp	w2, #0x0
    63b4:	54fffe2d 	b.le	6378 <adjust_result+0x38>
    63b8:	5286c003 	mov	w3, #0x3600                	// #13824
    63bc:	11000421 	add	w1, w1, #0x1
    63c0:	72b88ca3 	movk	w3, #0xc465, lsl #16
    63c4:	0b030042 	add	w2, w2, w3
    63c8:	29000801 	stp	w1, w2, [x0]
    63cc:	d65f03c0 	ret
    63d0:	52994003 	mov	w3, #0xca00                	// #51712
    63d4:	51000421 	sub	w1, w1, #0x1
    63d8:	72a77343 	movk	w3, #0x3b9a, lsl #16
    63dc:	0b030042 	add	w2, w2, w3
    63e0:	29000801 	stp	w1, w2, [x0]
    63e4:	d65f03c0 	ret

00000000000063e8 <time_add>:
    63e8:	a9bd7bfd 	stp	x29, x30, [sp, #-48]!
    63ec:	910003fd 	mov	x29, sp
    63f0:	a90153f3 	stp	x19, x20, [sp, #16]
    63f4:	aa0003f3 	mov	x19, x0
    63f8:	f90013f5 	str	x21, [sp, #32]
    63fc:	aa0203f4 	mov	x20, x2
    6400:	aa0103f5 	mov	x21, x1
    6404:	b40003e0 	cbz	x0, 6480 <time_add+0x98>
    6408:	b40001d5 	cbz	x21, 6440 <time_add+0x58>
    640c:	b40002b4 	cbz	x20, 6460 <time_add+0x78>
    6410:	29400a81 	ldp	w1, w2, [x20]
    6414:	294002a3 	ldp	w3, w0, [x21]
    6418:	0b010061 	add	w1, w3, w1
    641c:	0b020000 	add	w0, w0, w2
    6420:	29000261 	stp	w1, w0, [x19]
    6424:	aa1303e0 	mov	x0, x19
    6428:	97ffffc6 	bl	6340 <adjust_result>
    642c:	f94013f5 	ldr	x21, [sp, #32]
    6430:	52800000 	mov	w0, #0x0                   	// #0
    6434:	a94153f3 	ldp	x19, x20, [sp, #16]
    6438:	a8c37bfd 	ldp	x29, x30, [sp], #48
    643c:	d65f03c0 	ret
    6440:	b01fffe0 	adrp	x0, 40003000 <state_fmt+0x388>
    6444:	9104a000 	add	x0, x0, #0x128
    6448:	940018fc 	bl	c838 <std_printf>
    644c:	d01fffc1 	adrp	x1, 40000000 <__ram_begin>
    6450:	528002c0 	mov	w0, #0x16                  	// #22
    6454:	f9400421 	ldr	x1, [x1, #8]
    6458:	d63f0020 	blr	x1
    645c:	b5fffdb4 	cbnz	x20, 6410 <time_add+0x28>
    6460:	b01fffe0 	adrp	x0, 40003000 <state_fmt+0x388>
    6464:	91060000 	add	x0, x0, #0x180
    6468:	940018f4 	bl	c838 <std_printf>
    646c:	d01fffc1 	adrp	x1, 40000000 <__ram_begin>
    6470:	528002c0 	mov	w0, #0x16                  	// #22
    6474:	f9400421 	ldr	x1, [x1, #8]
    6478:	d63f0020 	blr	x1
    647c:	17ffffe5 	b	6410 <time_add+0x28>
    6480:	b01fffe0 	adrp	x0, 40003000 <state_fmt+0x388>
    6484:	91034000 	add	x0, x0, #0xd0
    6488:	940018ec 	bl	c838 <std_printf>
    648c:	d01fffc1 	adrp	x1, 40000000 <__ram_begin>
    6490:	528002c0 	mov	w0, #0x16                  	// #22
    6494:	f9400421 	ldr	x1, [x1, #8]
    6498:	d63f0020 	blr	x1
    649c:	b5fffb95 	cbnz	x21, 640c <time_add+0x24>
    64a0:	17ffffe8 	b	6440 <time_add+0x58>
    64a4:	00000000 	.inst	0x00000000 ; undefined

00000000000064a8 <time_get>:
    64a8:	a9be7bfd 	stp	x29, x30, [sp, #-32]!
    64ac:	910003fd 	mov	x29, sp
    64b0:	f9000bf3 	str	x19, [sp, #16]
    64b4:	aa0003f3 	mov	x19, x0
    64b8:	b4000160 	cbz	x0, 64e4 <time_get+0x3c>
    64bc:	aa1303e0 	mov	x0, x19
    64c0:	97fffc1e 	bl	5538 <sys_uptime>
    64c4:	35000200 	cbnz	w0, 6504 <time_get+0x5c>
    64c8:	aa1303e1 	mov	x1, x19
    64cc:	aa1303e0 	mov	x0, x19
    64d0:	f9400bf3 	ldr	x19, [sp, #16]
    64d4:	b0200002 	adrp	x2, 40007000 <idle_thrd_stack+0x400>
    64d8:	a8c27bfd 	ldp	x29, x30, [sp], #32
    64dc:	9138c042 	add	x2, x2, #0xe30
    64e0:	17ffffc2 	b	63e8 <time_add>
    64e4:	b01fffe0 	adrp	x0, 40003000 <state_fmt+0x388>
    64e8:	91078000 	add	x0, x0, #0x1e0
    64ec:	940018d3 	bl	c838 <std_printf>
    64f0:	d01fffc1 	adrp	x1, 40000000 <__ram_begin>
    64f4:	528002c0 	mov	w0, #0x16                  	// #22
    64f8:	f9400421 	ldr	x1, [x1, #8]
    64fc:	d63f0020 	blr	x1
    6500:	17ffffef 	b	64bc <time_get+0x14>
    6504:	12800000 	mov	w0, #0xffffffff            	// #-1
    6508:	f9400bf3 	ldr	x19, [sp, #16]
    650c:	a8c27bfd 	ldp	x29, x30, [sp], #32
    6510:	d65f03c0 	ret
    6514:	00000000 	.inst	0x00000000 ; undefined

0000000000006518 <time_busy_wait_us>:
    6518:	d10043ff 	sub	sp, sp, #0x10
    651c:	528000c1 	mov	w1, #0x6                   	// #6
    6520:	9b217c00 	smull	x0, w0, w1
    6524:	b9000fff 	str	wzr, [sp, #12]
    6528:	b9400fe2 	ldr	w2, [sp, #12]
    652c:	eb22c01f 	cmp	x0, w2, sxtw
    6530:	5400010d 	b.le	6550 <time_busy_wait_us+0x38>
    6534:	d503201f 	nop
    6538:	b9400fe1 	ldr	w1, [sp, #12]
    653c:	11000421 	add	w1, w1, #0x1
    6540:	b9000fe1 	str	w1, [sp, #12]
    6544:	b9400fe1 	ldr	w1, [sp, #12]
    6548:	eb21c01f 	cmp	x0, w1, sxtw
    654c:	54ffff6c 	b.gt	6538 <time_busy_wait_us+0x20>
    6550:	910043ff 	add	sp, sp, #0x10
    6554:	d65f03c0 	ret

0000000000006558 <timer_tick_isr>:
    6558:	a9bd7bfd 	stp	x29, x30, [sp, #-48]!
    655c:	910003fd 	mov	x29, sp
    6560:	a90153f3 	stp	x19, x20, [sp, #16]
    6564:	f90013f5 	str	x21, [sp, #32]
    6568:	97fffc48 	bl	5688 <sys_lock_isr>
    656c:	d01fffc0 	adrp	x0, 40000000 <__ram_begin>
    6570:	9100e014 	add	x20, x0, #0x38
    6574:	91002295 	add	x21, x20, #0x8
    6578:	f9401c13 	ldr	x19, [x0, #56]
    657c:	eb15027f 	cmp	x19, x21
    6580:	540001e0 	b.eq	65bc <timer_tick_isr+0x64>  // b.none
    6584:	b9400a60 	ldr	w0, [x19, #8]
    6588:	51000400 	sub	w0, w0, #0x1
    658c:	b9000a60 	str	w0, [x19, #8]
    6590:	35000160 	cbnz	w0, 65bc <timer_tick_isr+0x64>
    6594:	d503201f 	nop
    6598:	f9400262 	ldr	x2, [x19]
    659c:	a9418261 	ldp	x1, x0, [x19, #24]
    65a0:	f9000282 	str	x2, [x20]
    65a4:	d63f0020 	blr	x1
    65a8:	b9401260 	ldr	w0, [x19, #16]
    65ac:	37000100 	tbnz	w0, #0, 65cc <timer_tick_isr+0x74>
    65b0:	f9400293 	ldr	x19, [x20]
    65b4:	b9400a60 	ldr	w0, [x19, #8]
    65b8:	34ffff00 	cbz	w0, 6598 <timer_tick_isr+0x40>
    65bc:	a94153f3 	ldp	x19, x20, [sp, #16]
    65c0:	f94013f5 	ldr	x21, [sp, #32]
    65c4:	a8c37bfd 	ldp	x29, x30, [sp], #48
    65c8:	17fffc32 	b	5690 <sys_unlock_isr>
    65cc:	b9400e60 	ldr	w0, [x19, #12]
    65d0:	f9400283 	ldr	x3, [x20]
    65d4:	b9000a60 	str	w0, [x19, #8]
    65d8:	b9400861 	ldr	w1, [x3, #8]
    65dc:	6b01001f 	cmp	w0, w1
    65e0:	54000068 	b.hi	65ec <timer_tick_isr+0x94>  // b.pmore
    65e4:	1400000f 	b	6620 <timer_tick_isr+0xc8>
    65e8:	aa0203e3 	mov	x3, x2
    65ec:	f9400062 	ldr	x2, [x3]
    65f0:	4b010000 	sub	w0, w0, w1
    65f4:	b9000a60 	str	w0, [x19, #8]
    65f8:	b9400841 	ldr	w1, [x2, #8]
    65fc:	6b00003f 	cmp	w1, w0
    6600:	54ffff43 	b.cc	65e8 <timer_tick_isr+0x90>  // b.lo, b.ul, b.last
    6604:	eb15005f 	cmp	x2, x21
    6608:	54000060 	b.eq	6614 <timer_tick_isr+0xbc>  // b.none
    660c:	4b000020 	sub	w0, w1, w0
    6610:	b9000840 	str	w0, [x2, #8]
    6614:	f9000262 	str	x2, [x19]
    6618:	f9000073 	str	x19, [x3]
    661c:	17ffffe5 	b	65b0 <timer_tick_isr+0x58>
    6620:	eb15007f 	cmp	x3, x21
    6624:	540000e0 	b.eq	6640 <timer_tick_isr+0xe8>  // b.none
    6628:	4b000020 	sub	w0, w1, w0
    662c:	b9000860 	str	w0, [x3, #8]
    6630:	f9000263 	str	x3, [x19]
    6634:	b9400a60 	ldr	w0, [x19, #8]
    6638:	f9000293 	str	x19, [x20]
    663c:	17ffffd5 	b	6590 <timer_tick_isr+0x38>
    6640:	f9000275 	str	x21, [x19]
    6644:	f9000293 	str	x19, [x20]
    6648:	17ffffd2 	b	6590 <timer_tick_isr+0x38>
    664c:	00000000 	.inst	0x00000000 ; undefined

0000000000006650 <timer_module_init>:
    6650:	52800000 	mov	w0, #0x0                   	// #0
    6654:	d65f03c0 	ret

0000000000006658 <timer_init>:
    6658:	a9bc7bfd 	stp	x29, x30, [sp, #-64]!
    665c:	910003fd 	mov	x29, sp
    6660:	a90153f3 	stp	x19, x20, [sp, #16]
    6664:	aa0003f3 	mov	x19, x0
    6668:	a9025bf5 	stp	x21, x22, [sp, #32]
    666c:	aa0103f4 	mov	x20, x1
    6670:	f9001bf7 	str	x23, [sp, #48]
    6674:	aa0203f5 	mov	x21, x2
    6678:	aa0303f6 	mov	x22, x3
    667c:	2a0403f7 	mov	w23, w4
    6680:	b40005c0 	cbz	x0, 6738 <timer_init+0xe0>
    6684:	b40003b4 	cbz	x20, 66f8 <timer_init+0xa0>
    6688:	b4000495 	cbz	x21, 6718 <timer_init+0xc0>
    668c:	29401686 	ldp	w6, w5, [x20]
    6690:	5289ba68 	mov	w8, #0x4dd3                	// #19923
    6694:	72a20c48 	movk	w8, #0x1062, lsl #16
    6698:	528847e2 	mov	w2, #0x423f                	// #16959
    669c:	110f9ca5 	add	w5, w5, #0x3e7
    66a0:	52800c89 	mov	w9, #0x64                  	// #100
    66a4:	72a001e2 	movk	w2, #0xf, lsl #16
    66a8:	529bd067 	mov	w7, #0xde83                	// #56963
    66ac:	72a86367 	movk	w7, #0x431b, lsl #16
    66b0:	a901da75 	stp	x21, x22, [x19, #24]
    66b4:	9b287ca1 	smull	x1, w5, w8
    66b8:	52800000 	mov	w0, #0x0                   	// #0
    66bc:	a9425bf5 	ldp	x21, x22, [sp, #32]
    66c0:	9366fc21 	asr	x1, x1, #38
    66c4:	4b857c25 	sub	w5, w1, w5, asr #31
    66c8:	1b0908a1 	madd	w1, w5, w9, w2
    66cc:	9b277c22 	smull	x2, w1, w7
    66d0:	9372fc42 	asr	x2, x2, #50
    66d4:	4b817c41 	sub	w1, w2, w1, asr #31
    66d8:	1b0904c1 	madd	w1, w6, w9, w1
    66dc:	7100003f 	cmp	w1, #0x0
    66e0:	1a9f1421 	csinc	w1, w1, wzr, ne  // ne = any
    66e4:	2901de61 	stp	w1, w23, [x19, #12]
    66e8:	a94153f3 	ldp	x19, x20, [sp, #16]
    66ec:	f9401bf7 	ldr	x23, [sp, #48]
    66f0:	a8c47bfd 	ldp	x29, x30, [sp], #64
    66f4:	d65f03c0 	ret
    66f8:	b01fffe0 	adrp	x0, 40003000 <state_fmt+0x388>
    66fc:	910a6000 	add	x0, x0, #0x298
    6700:	9400184e 	bl	c838 <std_printf>
    6704:	d01fffc1 	adrp	x1, 40000000 <__ram_begin>
    6708:	528002c0 	mov	w0, #0x16                  	// #22
    670c:	f9400421 	ldr	x1, [x1, #8]
    6710:	d63f0020 	blr	x1
    6714:	b5fffbd5 	cbnz	x21, 668c <timer_init+0x34>
    6718:	b01fffe0 	adrp	x0, 40003000 <state_fmt+0x388>
    671c:	910be000 	add	x0, x0, #0x2f8
    6720:	94001846 	bl	c838 <std_printf>
    6724:	d01fffc1 	adrp	x1, 40000000 <__ram_begin>
    6728:	528002c0 	mov	w0, #0x16                  	// #22
    672c:	f9400421 	ldr	x1, [x1, #8]
    6730:	d63f0020 	blr	x1
    6734:	17ffffd6 	b	668c <timer_init+0x34>
    6738:	b01fffe0 	adrp	x0, 40003000 <state_fmt+0x388>
    673c:	9108e000 	add	x0, x0, #0x238
    6740:	9400183e 	bl	c838 <std_printf>
    6744:	d01fffc1 	adrp	x1, 40000000 <__ram_begin>
    6748:	528002c0 	mov	w0, #0x16                  	// #22
    674c:	f9400421 	ldr	x1, [x1, #8]
    6750:	d63f0020 	blr	x1
    6754:	b5fff9b4 	cbnz	x20, 6688 <timer_init+0x30>
    6758:	17ffffe8 	b	66f8 <timer_init+0xa0>
    675c:	00000000 	.inst	0x00000000 ; undefined

0000000000006760 <timer_start_isr>:
    6760:	29418801 	ldp	w1, w2, [x0, #12]
    6764:	b9000801 	str	w1, [x0, #8]
    6768:	d01fffc4 	adrp	x4, 40000000 <__ram_begin>
    676c:	36080362 	tbz	w2, #1, 67d8 <timer_start_isr+0x78>
    6770:	9100e083 	add	x3, x4, #0x38
    6774:	f9401865 	ldr	x5, [x3, #48]
    6778:	b94008a2 	ldr	w2, [x5, #8]
    677c:	6b02003f 	cmp	w1, w2
    6780:	54000168 	b.hi	67ac <timer_start_isr+0x4c>  // b.pmore
    6784:	9100e063 	add	x3, x3, #0x38
    6788:	eb0300bf 	cmp	x5, x3
    678c:	54000060 	b.eq	6798 <timer_start_isr+0x38>  // b.none
    6790:	4b010041 	sub	w1, w2, w1
    6794:	b90008a1 	str	w1, [x5, #8]
    6798:	9100e084 	add	x4, x4, #0x38
    679c:	f9000005 	str	x5, [x0]
    67a0:	f9001880 	str	x0, [x4, #48]
    67a4:	1400002b 	b	6850 <timer_start_isr+0xf0>
    67a8:	aa0303e5 	mov	x5, x3
    67ac:	f94000a3 	ldr	x3, [x5]
    67b0:	4b020021 	sub	w1, w1, w2
    67b4:	b9000801 	str	w1, [x0, #8]
    67b8:	b9400862 	ldr	w2, [x3, #8]
    67bc:	6b01005f 	cmp	w2, w1
    67c0:	54ffff43 	b.cc	67a8 <timer_start_isr+0x48>  // b.lo, b.ul, b.last
    67c4:	9100e084 	add	x4, x4, #0x38
    67c8:	9100e084 	add	x4, x4, #0x38
    67cc:	eb04007f 	cmp	x3, x4
    67d0:	54000381 	b.ne	6840 <timer_start_isr+0xe0>  // b.any
    67d4:	1400001d 	b	6848 <timer_start_isr+0xe8>
    67d8:	f9401c85 	ldr	x5, [x4, #56]
    67dc:	11000421 	add	w1, w1, #0x1
    67e0:	b9000801 	str	w1, [x0, #8]
    67e4:	9100e083 	add	x3, x4, #0x38
    67e8:	b94008a2 	ldr	w2, [x5, #8]
    67ec:	6b02003f 	cmp	w1, w2
    67f0:	54000148 	b.hi	6818 <timer_start_isr+0xb8>  // b.pmore
    67f4:	91002063 	add	x3, x3, #0x8
    67f8:	eb0300bf 	cmp	x5, x3
    67fc:	54000060 	b.eq	6808 <timer_start_isr+0xa8>  // b.none
    6800:	4b010041 	sub	w1, w2, w1
    6804:	b90008a1 	str	w1, [x5, #8]
    6808:	f9000005 	str	x5, [x0]
    680c:	f9001c80 	str	x0, [x4, #56]
    6810:	14000010 	b	6850 <timer_start_isr+0xf0>
    6814:	aa0303e5 	mov	x5, x3
    6818:	f94000a3 	ldr	x3, [x5]
    681c:	4b020021 	sub	w1, w1, w2
    6820:	b9000801 	str	w1, [x0, #8]
    6824:	b9400862 	ldr	w2, [x3, #8]
    6828:	6b01005f 	cmp	w2, w1
    682c:	54ffff43 	b.cc	6814 <timer_start_isr+0xb4>  // b.lo, b.ul, b.last
    6830:	9100e084 	add	x4, x4, #0x38
    6834:	91002084 	add	x4, x4, #0x8
    6838:	eb04007f 	cmp	x3, x4
    683c:	54000060 	b.eq	6848 <timer_start_isr+0xe8>  // b.none
    6840:	4b010041 	sub	w1, w2, w1
    6844:	b9000861 	str	w1, [x3, #8]
    6848:	f9000003 	str	x3, [x0]
    684c:	f90000a0 	str	x0, [x5]
    6850:	52800000 	mov	w0, #0x0                   	// #0
    6854:	d65f03c0 	ret

0000000000006858 <timer_stop_isr>:
    6858:	b9401002 	ldr	w2, [x0, #16]
    685c:	d01fffc3 	adrp	x3, 40000000 <__ram_begin>
    6860:	9100e061 	add	x1, x3, #0x38
    6864:	9100c023 	add	x3, x1, #0x30
    6868:	f27f005f 	tst	x2, #0x2
    686c:	9a811063 	csel	x3, x3, x1, ne  // ne = any
    6870:	f9400062 	ldr	x2, [x3]
    6874:	b4000362 	cbz	x2, 68e0 <timer_stop_isr+0x88>
    6878:	eb02001f 	cmp	x0, x2
    687c:	54000081 	b.ne	688c <timer_stop_isr+0x34>  // b.any
    6880:	14000015 	b	68d4 <timer_stop_isr+0x7c>
    6884:	540000e0 	b.eq	68a0 <timer_stop_isr+0x48>  // b.none
    6888:	aa0103e2 	mov	x2, x1
    688c:	f9400041 	ldr	x1, [x2]
    6890:	eb01001f 	cmp	x0, x1
    6894:	b5ffff81 	cbnz	x1, 6884 <timer_stop_isr+0x2c>
    6898:	2a0103e0 	mov	w0, w1
    689c:	d65f03c0 	ret
    68a0:	f9400001 	ldr	x1, [x0]
    68a4:	f9000041 	str	x1, [x2]
    68a8:	f9400002 	ldr	x2, [x0]
    68ac:	91002063 	add	x3, x3, #0x8
    68b0:	52800021 	mov	w1, #0x1                   	// #1
    68b4:	eb03005f 	cmp	x2, x3
    68b8:	54ffff00 	b.eq	6898 <timer_stop_isr+0x40>  // b.none
    68bc:	b9400800 	ldr	w0, [x0, #8]
    68c0:	b9400843 	ldr	w3, [x2, #8]
    68c4:	0b000060 	add	w0, w3, w0
    68c8:	b9000840 	str	w0, [x2, #8]
    68cc:	2a0103e0 	mov	w0, w1
    68d0:	d65f03c0 	ret
    68d4:	f9400001 	ldr	x1, [x0]
    68d8:	f9000061 	str	x1, [x3]
    68dc:	17fffff3 	b	68a8 <timer_stop_isr+0x50>
    68e0:	52800001 	mov	w1, #0x0                   	// #0
    68e4:	17ffffed 	b	6898 <timer_stop_isr+0x40>

00000000000068e8 <console_module_init>:
    68e8:	17fff548 	b	3e08 <uart_module_init>
    68ec:	00000000 	.inst	0x00000000 ; undefined

00000000000068f0 <console_init>:
    68f0:	b0200000 	adrp	x0, 40007000 <idle_thrd_stack+0x400>
    68f4:	9138e000 	add	x0, x0, #0xe38
    68f8:	9103a003 	add	x3, x0, #0xe8
    68fc:	d0200001 	adrp	x1, 40008000 <module>
    6900:	d2800404 	mov	x4, #0x20                  	// #32
    6904:	d292c002 	mov	x2, #0x9600                	// #38400
    6908:	9107e021 	add	x1, x1, #0x1f8
    690c:	91002000 	add	x0, x0, #0x8
    6910:	17fff546 	b	3e28 <uart_init>
    6914:	00000000 	.inst	0x00000000 ; undefined

0000000000006918 <console_start>:
    6918:	b0200000 	adrp	x0, 40007000 <idle_thrd_stack+0x400>
    691c:	9138e000 	add	x0, x0, #0xe38
    6920:	91002000 	add	x0, x0, #0x8
    6924:	17fff575 	b	3ef8 <uart_start>

0000000000006928 <console_get_input_channel>:
    6928:	b0200000 	adrp	x0, 40007000 <idle_thrd_stack+0x400>
    692c:	9138e000 	add	x0, x0, #0xe38
    6930:	91002000 	add	x0, x0, #0x8
    6934:	d65f03c0 	ret

0000000000006938 <console_get_output_channel>:
    6938:	b0200000 	adrp	x0, 40007000 <idle_thrd_stack+0x400>
    693c:	9138e000 	add	x0, x0, #0xe38
    6940:	91002000 	add	x0, x0, #0x8
    6944:	d65f03c0 	ret

0000000000006948 <nvm_module_init>:
    6948:	b0200004 	adrp	x4, 40007000 <idle_thrd_stack+0x400>
    694c:	39fd0080 	ldrsb	w0, [x4, #3904]
    6950:	7100041f 	cmp	w0, #0x1
    6954:	54000400 	b.eq	69d4 <nvm_module_init+0x8c>  // b.none
    6958:	a9be7bfd 	stp	x29, x30, [sp, #-32]!
    695c:	52800025 	mov	w5, #0x1                   	// #1
    6960:	90000002 	adrp	x2, 6000 <thrd_resume_isr.part.8+0x20>
    6964:	b01fffe1 	adrp	x1, 40003000 <state_fmt+0x388>
    6968:	910003fd 	mov	x29, sp
    696c:	a90153f3 	stp	x19, x20, [sp, #16]
    6970:	912ba042 	add	x2, x2, #0xae8
    6974:	913d0093 	add	x19, x4, #0xf40
    6978:	910f4021 	add	x1, x1, #0x3d0
    697c:	d2800003 	mov	x3, #0x0                   	// #0
    6980:	91020274 	add	x20, x19, #0x80
    6984:	393d0085 	strb	w5, [x4, #3904]
    6988:	aa1403e0 	mov	x0, x20
    698c:	9400126d 	bl	b340 <fs_command_init>
    6990:	aa1403e0 	mov	x0, x20
    6994:	9400129d 	bl	b408 <fs_command_register>
    6998:	90000002 	adrp	x2, 6000 <thrd_resume_isr.part.8+0x20>
    699c:	b01fffe1 	adrp	x1, 40003000 <state_fmt+0x388>
    69a0:	91316042 	add	x2, x2, #0xc58
    69a4:	910f8021 	add	x1, x1, #0x3e0
    69a8:	d2800003 	mov	x3, #0x0                   	// #0
    69ac:	91028274 	add	x20, x19, #0xa0
    69b0:	aa1403e0 	mov	x0, x20
    69b4:	94001263 	bl	b340 <fs_command_init>
    69b8:	aa1403e0 	mov	x0, x20
    69bc:	94001293 	bl	b408 <fs_command_register>
    69c0:	97fff6ea 	bl	4568 <eeprom_soft_module_init>
    69c4:	340000c0 	cbz	w0, 69dc <nvm_module_init+0x94>
    69c8:	a94153f3 	ldp	x19, x20, [sp, #16]
    69cc:	a8c27bfd 	ldp	x29, x30, [sp], #32
    69d0:	d65f03c0 	ret
    69d4:	52800000 	mov	w0, #0x0                   	// #0
    69d8:	d65f03c0 	ret
    69dc:	91002274 	add	x20, x19, #0x8
    69e0:	d0200001 	adrp	x1, 40008000 <module>
    69e4:	aa1403e0 	mov	x0, x20
    69e8:	91098021 	add	x1, x1, #0x260
    69ec:	97fff8e3 	bl	4d78 <flash_init>
    69f0:	35fffec0 	cbnz	w0, 69c8 <nvm_module_init+0x80>
    69f4:	d2880002 	mov	x2, #0x4000                	// #16384
    69f8:	f0000041 	adrp	x1, 11000 <__fini_array_end+0x3d10>
    69fc:	f0000020 	adrp	x0, d000 <std_strcmp_f+0x18>
    6a00:	910bc021 	add	x1, x1, #0x2f0
    6a04:	910bc000 	add	x0, x0, #0x2f0
    6a08:	a9060a61 	stp	x1, x2, [x19, #96]
    6a0c:	a9070a60 	stp	x0, x2, [x19, #112]
    6a10:	aa1403e1 	mov	x1, x20
    6a14:	91018262 	add	x2, x19, #0x60
    6a18:	91004260 	add	x0, x19, #0x10
    6a1c:	a94153f3 	ldp	x19, x20, [sp, #16]
    6a20:	d2810004 	mov	x4, #0x800                 	// #2048
    6a24:	a8c27bfd 	ldp	x29, x30, [sp], #32
    6a28:	52800043 	mov	w3, #0x2                   	// #2
    6a2c:	17fff6d1 	b	4570 <eeprom_soft_init>

0000000000006a30 <nvm_read>:
    6a30:	a9bd7bfd 	stp	x29, x30, [sp, #-48]!
    6a34:	910003fd 	mov	x29, sp
    6a38:	a90153f3 	stp	x19, x20, [sp, #16]
    6a3c:	b0200013 	adrp	x19, 40007000 <idle_thrd_stack+0x400>
    6a40:	a9025bf5 	stp	x21, x22, [sp, #32]
    6a44:	aa0003f4 	mov	x20, x0
    6a48:	39fd0260 	ldrsb	w0, [x19, #3904]
    6a4c:	2a0103f6 	mov	w22, w1
    6a50:	aa0203f5 	mov	x21, x2
    6a54:	7100041f 	cmp	w0, #0x1
    6a58:	54000261 	b.ne	6aa4 <nvm_read+0x74>  // b.any
    6a5c:	b4000354 	cbz	x20, 6ac4 <nvm_read+0x94>
    6a60:	b5000115 	cbnz	x21, 6a80 <nvm_read+0x50>
    6a64:	b01fffe0 	adrp	x0, 40003000 <state_fmt+0x388>
    6a68:	91128000 	add	x0, x0, #0x4a0
    6a6c:	94001773 	bl	c838 <std_printf>
    6a70:	d01fffc1 	adrp	x1, 40000000 <__ram_begin>
    6a74:	528002c0 	mov	w0, #0x16                  	// #22
    6a78:	f9400421 	ldr	x1, [x1, #8]
    6a7c:	d63f0020 	blr	x1
    6a80:	913d0260 	add	x0, x19, #0xf40
    6a84:	aa1503e3 	mov	x3, x21
    6a88:	2a1603e2 	mov	w2, w22
    6a8c:	aa1403e1 	mov	x1, x20
    6a90:	a94153f3 	ldp	x19, x20, [sp, #16]
    6a94:	91004000 	add	x0, x0, #0x10
    6a98:	a9425bf5 	ldp	x21, x22, [sp, #32]
    6a9c:	a8c37bfd 	ldp	x29, x30, [sp], #48
    6aa0:	17fff6f4 	b	4670 <eeprom_soft_read>
    6aa4:	b01fffe0 	adrp	x0, 40003000 <state_fmt+0x388>
    6aa8:	910fc000 	add	x0, x0, #0x3f0
    6aac:	94001763 	bl	c838 <std_printf>
    6ab0:	d01fffc1 	adrp	x1, 40000000 <__ram_begin>
    6ab4:	528002c0 	mov	w0, #0x16                  	// #22
    6ab8:	f9400421 	ldr	x1, [x1, #8]
    6abc:	d63f0020 	blr	x1
    6ac0:	b5fffd14 	cbnz	x20, 6a60 <nvm_read+0x30>
    6ac4:	b01fffe0 	adrp	x0, 40003000 <state_fmt+0x388>
    6ac8:	91112000 	add	x0, x0, #0x448
    6acc:	9400175b 	bl	c838 <std_printf>
    6ad0:	d01fffc1 	adrp	x1, 40000000 <__ram_begin>
    6ad4:	528002c0 	mov	w0, #0x16                  	// #22
    6ad8:	f9400421 	ldr	x1, [x1, #8]
    6adc:	d63f0020 	blr	x1
    6ae0:	17ffffe0 	b	6a60 <nvm_read+0x30>
    6ae4:	00000000 	.inst	0x00000000 ; undefined

0000000000006ae8 <cmd_read_cb>:
    6ae8:	a9bd7bfd 	stp	x29, x30, [sp, #-48]!
    6aec:	7100081f 	cmp	w0, #0x2
    6af0:	910003fd 	mov	x29, sp
    6af4:	f9000ff4 	str	x20, [sp, #24]
    6af8:	aa0203f4 	mov	x20, x2
    6afc:	54000341 	b.ne	6b64 <cmd_read_cb+0x7c>  // b.any
    6b00:	f9000bb3 	str	x19, [x29, #16]
    6b04:	aa0103f3 	mov	x19, x1
    6b08:	9100a3a1 	add	x1, x29, #0x28
    6b0c:	f9400660 	ldr	x0, [x19, #8]
    6b10:	940018e4 	bl	cea0 <std_strtol>
    6b14:	b4000340 	cbz	x0, 6b7c <cmd_read_cb+0x94>
    6b18:	b9402ba1 	ldr	w1, [x29, #40]
    6b1c:	d2800022 	mov	x2, #0x1                   	// #1
    6b20:	91009fa0 	add	x0, x29, #0x27
    6b24:	97ffffc3 	bl	6a30 <nvm_read>
    6b28:	f100041f 	cmp	x0, #0x1
    6b2c:	54000161 	b.ne	6b58 <cmd_read_cb+0x70>  // b.any
    6b30:	39409fa2 	ldrb	w2, [x29, #39]
    6b34:	901fffe1 	adrp	x1, 40002000 <level_warning+0x1140>
    6b38:	aa1403e0 	mov	x0, x20
    6b3c:	912e0021 	add	x1, x1, #0xb80
    6b40:	940017e2 	bl	cac8 <std_fprintf>
    6b44:	f9400bb3 	ldr	x19, [x29, #16]
    6b48:	52800000 	mov	w0, #0x0                   	// #0
    6b4c:	f9400ff4 	ldr	x20, [sp, #24]
    6b50:	a8c37bfd 	ldp	x29, x30, [sp], #48
    6b54:	d65f03c0 	ret
    6b58:	12800000 	mov	w0, #0xffffffff            	// #-1
    6b5c:	f9400bb3 	ldr	x19, [x29, #16]
    6b60:	17fffffb 	b	6b4c <cmd_read_cb+0x64>
    6b64:	b01fffe1 	adrp	x1, 40003000 <state_fmt+0x388>
    6b68:	aa0203e0 	mov	x0, x2
    6b6c:	910d6021 	add	x1, x1, #0x358
    6b70:	940017d6 	bl	cac8 <std_fprintf>
    6b74:	128002a0 	mov	w0, #0xffffffea            	// #-22
    6b78:	17fffff5 	b	6b4c <cmd_read_cb+0x64>
    6b7c:	f9400662 	ldr	x2, [x19, #8]
    6b80:	b01fffe1 	adrp	x1, 40003000 <state_fmt+0x388>
    6b84:	aa1403e0 	mov	x0, x20
    6b88:	910dc021 	add	x1, x1, #0x370
    6b8c:	940017cf 	bl	cac8 <std_fprintf>
    6b90:	f9400bb3 	ldr	x19, [x29, #16]
    6b94:	128002a0 	mov	w0, #0xffffffea            	// #-22
    6b98:	17ffffed 	b	6b4c <cmd_read_cb+0x64>
    6b9c:	00000000 	.inst	0x00000000 ; undefined

0000000000006ba0 <nvm_write>:
    6ba0:	a9bd7bfd 	stp	x29, x30, [sp, #-48]!
    6ba4:	910003fd 	mov	x29, sp
    6ba8:	a90153f3 	stp	x19, x20, [sp, #16]
    6bac:	b0200013 	adrp	x19, 40007000 <idle_thrd_stack+0x400>
    6bb0:	a9025bf5 	stp	x21, x22, [sp, #32]
    6bb4:	2a0003f6 	mov	w22, w0
    6bb8:	39fd0260 	ldrsb	w0, [x19, #3904]
    6bbc:	aa0103f4 	mov	x20, x1
    6bc0:	aa0203f5 	mov	x21, x2
    6bc4:	7100041f 	cmp	w0, #0x1
    6bc8:	54000261 	b.ne	6c14 <nvm_write+0x74>  // b.any
    6bcc:	b4000354 	cbz	x20, 6c34 <nvm_write+0x94>
    6bd0:	b5000115 	cbnz	x21, 6bf0 <nvm_write+0x50>
    6bd4:	b01fffe0 	adrp	x0, 40003000 <state_fmt+0x388>
    6bd8:	91166000 	add	x0, x0, #0x598
    6bdc:	94001717 	bl	c838 <std_printf>
    6be0:	d01fffc1 	adrp	x1, 40000000 <__ram_begin>
    6be4:	528002c0 	mov	w0, #0x16                  	// #22
    6be8:	f9400421 	ldr	x1, [x1, #8]
    6bec:	d63f0020 	blr	x1
    6bf0:	913d0260 	add	x0, x19, #0xf40
    6bf4:	aa1503e3 	mov	x3, x21
    6bf8:	aa1403e2 	mov	x2, x20
    6bfc:	2a1603e1 	mov	w1, w22
    6c00:	a94153f3 	ldp	x19, x20, [sp, #16]
    6c04:	91004000 	add	x0, x0, #0x10
    6c08:	a9425bf5 	ldp	x21, x22, [sp, #32]
    6c0c:	a8c37bfd 	ldp	x29, x30, [sp], #48
    6c10:	17fff82c 	b	4cc0 <eeprom_soft_write>
    6c14:	b01fffe0 	adrp	x0, 40003000 <state_fmt+0x388>
    6c18:	9113a000 	add	x0, x0, #0x4e8
    6c1c:	94001707 	bl	c838 <std_printf>
    6c20:	d01fffc1 	adrp	x1, 40000000 <__ram_begin>
    6c24:	528002c0 	mov	w0, #0x16                  	// #22
    6c28:	f9400421 	ldr	x1, [x1, #8]
    6c2c:	d63f0020 	blr	x1
    6c30:	b5fffd14 	cbnz	x20, 6bd0 <nvm_write+0x30>
    6c34:	b01fffe0 	adrp	x0, 40003000 <state_fmt+0x388>
    6c38:	91150000 	add	x0, x0, #0x540
    6c3c:	940016ff 	bl	c838 <std_printf>
    6c40:	d01fffc1 	adrp	x1, 40000000 <__ram_begin>
    6c44:	528002c0 	mov	w0, #0x16                  	// #22
    6c48:	f9400421 	ldr	x1, [x1, #8]
    6c4c:	d63f0020 	blr	x1
    6c50:	17ffffe0 	b	6bd0 <nvm_write+0x30>
    6c54:	00000000 	.inst	0x00000000 ; undefined

0000000000006c58 <cmd_write_cb>:
    6c58:	a9bc7bfd 	stp	x29, x30, [sp, #-64]!
    6c5c:	71000c1f 	cmp	w0, #0x3
    6c60:	910003fd 	mov	x29, sp
    6c64:	f9000ff4 	str	x20, [sp, #24]
    6c68:	aa0203f4 	mov	x20, x2
    6c6c:	54000321 	b.ne	6cd0 <cmd_write_cb+0x78>  // b.any
    6c70:	f9000bb3 	str	x19, [x29, #16]
    6c74:	aa0103f3 	mov	x19, x1
    6c78:	9100c3a1 	add	x1, x29, #0x30
    6c7c:	f9400660 	ldr	x0, [x19, #8]
    6c80:	94001888 	bl	cea0 <std_strtol>
    6c84:	b4000420 	cbz	x0, 6d08 <cmd_write_cb+0xb0>
    6c88:	f9400a60 	ldr	x0, [x19, #16]
    6c8c:	9100e3a1 	add	x1, x29, #0x38
    6c90:	94001884 	bl	cea0 <std_strtol>
    6c94:	b40004a0 	cbz	x0, 6d28 <cmd_write_cb+0xd0>
    6c98:	f9401fa3 	ldr	x3, [x29, #56]
    6c9c:	f103fc7f 	cmp	x3, #0xff
    6ca0:	54000248 	b.hi	6ce8 <cmd_write_cb+0x90>  // b.pmore
    6ca4:	910103a1 	add	x1, x29, #0x40
    6ca8:	b94033a0 	ldr	w0, [x29, #48]
    6cac:	d2800022 	mov	x2, #0x1                   	// #1
    6cb0:	381efc23 	strb	w3, [x1, #-17]!
    6cb4:	97ffffbb 	bl	6ba0 <nvm_write>
    6cb8:	f9400bb3 	ldr	x19, [x29, #16]
    6cbc:	f100041f 	cmp	x0, #0x1
    6cc0:	5a9f03e0 	csetm	w0, ne  // ne = any
    6cc4:	f9400ff4 	ldr	x20, [sp, #24]
    6cc8:	a8c47bfd 	ldp	x29, x30, [sp], #64
    6ccc:	d65f03c0 	ret
    6cd0:	b01fffe1 	adrp	x1, 40003000 <state_fmt+0x388>
    6cd4:	aa0203e0 	mov	x0, x2
    6cd8:	910e2021 	add	x1, x1, #0x388
    6cdc:	9400177b 	bl	cac8 <std_fprintf>
    6ce0:	128002a0 	mov	w0, #0xffffffea            	// #-22
    6ce4:	17fffff8 	b	6cc4 <cmd_write_cb+0x6c>
    6ce8:	f9400a62 	ldr	x2, [x19, #16]
    6cec:	b01fffe1 	adrp	x1, 40003000 <state_fmt+0x388>
    6cf0:	aa1403e0 	mov	x0, x20
    6cf4:	910ee021 	add	x1, x1, #0x3b8
    6cf8:	94001774 	bl	cac8 <std_fprintf>
    6cfc:	f9400bb3 	ldr	x19, [x29, #16]
    6d00:	128002a0 	mov	w0, #0xffffffea            	// #-22
    6d04:	17fffff0 	b	6cc4 <cmd_write_cb+0x6c>
    6d08:	f9400662 	ldr	x2, [x19, #8]
    6d0c:	b01fffe1 	adrp	x1, 40003000 <state_fmt+0x388>
    6d10:	aa1403e0 	mov	x0, x20
    6d14:	910dc021 	add	x1, x1, #0x370
    6d18:	9400176c 	bl	cac8 <std_fprintf>
    6d1c:	f9400bb3 	ldr	x19, [x29, #16]
    6d20:	128002a0 	mov	w0, #0xffffffea            	// #-22
    6d24:	17ffffe8 	b	6cc4 <cmd_write_cb+0x6c>
    6d28:	f9400a62 	ldr	x2, [x19, #16]
    6d2c:	b01fffe1 	adrp	x1, 40003000 <state_fmt+0x388>
    6d30:	aa1403e0 	mov	x0, x20
    6d34:	910ea021 	add	x1, x1, #0x3a8
    6d38:	94001764 	bl	cac8 <std_fprintf>
    6d3c:	f9400bb3 	ldr	x19, [x29, #16]
    6d40:	128002a0 	mov	w0, #0xffffffea            	// #-22
    6d44:	17ffffe0 	b	6cc4 <cmd_write_cb+0x6c>

0000000000006d48 <reset>:
    6d48:	b4000541 	cbz	x1, 6df0 <reset+0xa8>
    6d4c:	a9b47bfd 	stp	x29, x30, [sp, #-192]!
    6d50:	910003fd 	mov	x29, sp
    6d54:	a90153f3 	stp	x19, x20, [sp, #16]
    6d58:	910103b4 	add	x20, x29, #0x40
    6d5c:	a9025bf5 	stp	x21, x22, [sp, #32]
    6d60:	aa0003f6 	mov	x22, x0
    6d64:	a90363f7 	stp	x23, x24, [sp, #48]
    6d68:	aa0103f5 	mov	x21, x1
    6d6c:	90200017 	adrp	x23, 40006000 <null+0x928>
    6d70:	910c62f7 	add	x23, x23, #0x318
    6d74:	d2801018 	mov	x24, #0x80                  	// #128
    6d78:	f101febf 	cmp	x21, #0x7f
    6d7c:	8b1702c2 	add	x2, x22, x23
    6d80:	9a9892b3 	csel	x19, x21, x24, ls  // ls = plast
    6d84:	d2800000 	mov	x0, #0x0                   	// #0
    6d88:	38606841 	ldrb	w1, [x2, x0]
    6d8c:	38206a81 	strb	w1, [x20, x0]
    6d90:	91000400 	add	x0, x0, #0x1
    6d94:	eb00027f 	cmp	x19, x0
    6d98:	54ffff81 	b.ne	6d88 <reset+0x40>  // b.any
    6d9c:	aa1303e2 	mov	x2, x19
    6da0:	aa1403e1 	mov	x1, x20
    6da4:	2a1603e0 	mov	w0, w22
    6da8:	97ffff7e 	bl	6ba0 <nvm_write>
    6dac:	eb13001f 	cmp	x0, x19
    6db0:	54000141 	b.ne	6dd8 <reset+0x90>  // b.any
    6db4:	8b1302d6 	add	x22, x22, x19
    6db8:	eb1302b5 	subs	x21, x21, x19
    6dbc:	54fffde1 	b.ne	6d78 <reset+0x30>  // b.any
    6dc0:	a94153f3 	ldp	x19, x20, [sp, #16]
    6dc4:	52800000 	mov	w0, #0x0                   	// #0
    6dc8:	a9425bf5 	ldp	x21, x22, [sp, #32]
    6dcc:	a94363f7 	ldp	x23, x24, [sp, #48]
    6dd0:	a8cc7bfd 	ldp	x29, x30, [sp], #192
    6dd4:	d65f03c0 	ret
    6dd8:	a94153f3 	ldp	x19, x20, [sp, #16]
    6ddc:	12800000 	mov	w0, #0xffffffff            	// #-1
    6de0:	a9425bf5 	ldp	x21, x22, [sp, #32]
    6de4:	a94363f7 	ldp	x23, x24, [sp, #48]
    6de8:	a8cc7bfd 	ldp	x29, x30, [sp], #192
    6dec:	d65f03c0 	ret
    6df0:	52800000 	mov	w0, #0x0                   	// #0
    6df4:	d65f03c0 	ret

0000000000006df8 <settings_module_init>:
    6df8:	d0200004 	adrp	x4, 40008000 <module>
    6dfc:	39c00080 	ldrsb	w0, [x4]
    6e00:	7100041f 	cmp	w0, #0x1
    6e04:	54000640 	b.eq	6ecc <settings_module_init+0xd4>  // b.none
    6e08:	a9be7bfd 	stp	x29, x30, [sp, #-32]!
    6e0c:	52800025 	mov	w5, #0x1                   	// #1
    6e10:	b0000002 	adrp	x2, 7000 <cmd_read_cb+0xa8>
    6e14:	b01fffe1 	adrp	x1, 40003000 <state_fmt+0x388>
    6e18:	910003fd 	mov	x29, sp
    6e1c:	a90153f3 	stp	x19, x20, [sp, #16]
    6e20:	91062042 	add	x2, x2, #0x188
    6e24:	91000093 	add	x19, x4, #0x0
    6e28:	911da021 	add	x1, x1, #0x768
    6e2c:	91002274 	add	x20, x19, #0x8
    6e30:	d2800003 	mov	x3, #0x0                   	// #0
    6e34:	39000085 	strb	w5, [x4]
    6e38:	aa1403e0 	mov	x0, x20
    6e3c:	94001141 	bl	b340 <fs_command_init>
    6e40:	aa1403e0 	mov	x0, x20
    6e44:	94001171 	bl	b408 <fs_command_register>
    6e48:	b0000002 	adrp	x2, 7000 <cmd_read_cb+0xa8>
    6e4c:	b01fffe1 	adrp	x1, 40003000 <state_fmt+0x388>
    6e50:	911e2042 	add	x2, x2, #0x788
    6e54:	911e0021 	add	x1, x1, #0x780
    6e58:	9100a274 	add	x20, x19, #0x28
    6e5c:	d2800003 	mov	x3, #0x0                   	// #0
    6e60:	aa1403e0 	mov	x0, x20
    6e64:	94001137 	bl	b340 <fs_command_init>
    6e68:	aa1403e0 	mov	x0, x20
    6e6c:	94001167 	bl	b408 <fs_command_register>
    6e70:	90000002 	adrp	x2, 6000 <thrd_resume_isr.part.8+0x20>
    6e74:	b01fffe1 	adrp	x1, 40003000 <state_fmt+0x388>
    6e78:	913d6042 	add	x2, x2, #0xf58
    6e7c:	911e6021 	add	x1, x1, #0x798
    6e80:	91012274 	add	x20, x19, #0x48
    6e84:	d2800003 	mov	x3, #0x0                   	// #0
    6e88:	aa1403e0 	mov	x0, x20
    6e8c:	9400112d 	bl	b340 <fs_command_init>
    6e90:	aa1403e0 	mov	x0, x20
    6e94:	9400115d 	bl	b408 <fs_command_register>
    6e98:	b0000002 	adrp	x2, 7000 <cmd_read_cb+0xa8>
    6e9c:	b01fffe1 	adrp	x1, 40003000 <state_fmt+0x388>
    6ea0:	910f2042 	add	x2, x2, #0x3c8
    6ea4:	911ec021 	add	x1, x1, #0x7b0
    6ea8:	d2800003 	mov	x3, #0x0                   	// #0
    6eac:	9101a273 	add	x19, x19, #0x68
    6eb0:	aa1303e0 	mov	x0, x19
    6eb4:	94001123 	bl	b340 <fs_command_init>
    6eb8:	aa1303e0 	mov	x0, x19
    6ebc:	94001153 	bl	b408 <fs_command_register>
    6ec0:	a94153f3 	ldp	x19, x20, [sp, #16]
    6ec4:	a8c27bfd 	ldp	x29, x30, [sp], #32
    6ec8:	17fffea0 	b	6948 <nvm_module_init>
    6ecc:	52800000 	mov	w0, #0x0                   	// #0
    6ed0:	d65f03c0 	ret
    6ed4:	00000000 	.inst	0x00000000 ; undefined

0000000000006ed8 <settings_read>:
    6ed8:	a9bd7bfd 	stp	x29, x30, [sp, #-48]!
    6edc:	910003fd 	mov	x29, sp
    6ee0:	a90153f3 	stp	x19, x20, [sp, #16]
    6ee4:	aa0003f3 	mov	x19, x0
    6ee8:	f90013f5 	str	x21, [sp, #32]
    6eec:	aa0203f4 	mov	x20, x2
    6ef0:	aa0103f5 	mov	x21, x1
    6ef4:	b4000200 	cbz	x0, 6f34 <settings_read+0x5c>
    6ef8:	b5000114 	cbnz	x20, 6f18 <settings_read+0x40>
    6efc:	b01fffe0 	adrp	x0, 40003000 <state_fmt+0x388>
