
build/arduino_due/shell.out:     file format elf32-littlearm


Disassembly of section .text:

00080000 <__fixed_start__>:
   80000:	20087ff8 	.word	0x20087ff8
   80004:	000809f1 	.word	0x000809f1
   80008:	0008044d 	.word	0x0008044d
   8000c:	0008044d 	.word	0x0008044d
   80010:	0008044d 	.word	0x0008044d
   80014:	0008044d 	.word	0x0008044d
   80018:	0008044d 	.word	0x0008044d
   8001c:	0008044d 	.word	0x0008044d
   80020:	0008044d 	.word	0x0008044d
   80024:	0008044d 	.word	0x0008044d
   80028:	0008044d 	.word	0x0008044d
   8002c:	0008044d 	.word	0x0008044d
   80030:	0008044d 	.word	0x0008044d
   80034:	0008044d 	.word	0x0008044d
   80038:	0008044d 	.word	0x0008044d
   8003c:	00083a61 	.word	0x00083a61
   80040:	00080451 	.word	0x00080451
   80044:	00080471 	.word	0x00080471
   80048:	00080491 	.word	0x00080491
   8004c:	000804b1 	.word	0x000804b1
   80050:	000804d1 	.word	0x000804d1
   80054:	000804f1 	.word	0x000804f1
   80058:	00080511 	.word	0x00080511
   8005c:	00080531 	.word	0x00080531
   80060:	00080551 	.word	0x00080551
   80064:	00080571 	.word	0x00080571
   80068:	00080591 	.word	0x00080591
   8006c:	000805b1 	.word	0x000805b1
   80070:	000805d1 	.word	0x000805d1
   80074:	000805f1 	.word	0x000805f1
   80078:	00080611 	.word	0x00080611
   8007c:	00080631 	.word	0x00080631
   80080:	00080651 	.word	0x00080651
   80084:	00080671 	.word	0x00080671
   80088:	00080691 	.word	0x00080691
   8008c:	000806b1 	.word	0x000806b1
   80090:	000806d1 	.word	0x000806d1
   80094:	000806f1 	.word	0x000806f1
   80098:	00080711 	.word	0x00080711
   8009c:	00080731 	.word	0x00080731
   800a0:	00080751 	.word	0x00080751
   800a4:	00080771 	.word	0x00080771
   800a8:	00080791 	.word	0x00080791
   800ac:	000807b1 	.word	0x000807b1
   800b0:	000807d1 	.word	0x000807d1
   800b4:	000807f1 	.word	0x000807f1
   800b8:	00080811 	.word	0x00080811
   800bc:	00080831 	.word	0x00080831
   800c0:	00080851 	.word	0x00080851
   800c4:	00080871 	.word	0x00080871
   800c8:	00080891 	.word	0x00080891
   800cc:	000808b1 	.word	0x000808b1
   800d0:	000808d1 	.word	0x000808d1
   800d4:	000808f1 	.word	0x000808f1
   800d8:	00080911 	.word	0x00080911
   800dc:	00080931 	.word	0x00080931
   800e0:	00080951 	.word	0x00080951
   800e4:	00080971 	.word	0x00080971
   800e8:	00080991 	.word	0x00080991
   800ec:	000809b1 	.word	0x000809b1
   800f0:	000809d1 	.word	0x000809d1

000800f4 <deregister_tm_clones>:
   800f4:	4b04      	ldr	r3, [pc, #16]	; (80108 <deregister_tm_clones+0x14>)
   800f6:	4805      	ldr	r0, [pc, #20]	; (8010c <deregister_tm_clones+0x18>)
   800f8:	1a1b      	subs	r3, r3, r0
   800fa:	2b06      	cmp	r3, #6
   800fc:	d902      	bls.n	80104 <deregister_tm_clones+0x10>
   800fe:	4b04      	ldr	r3, [pc, #16]	; (80110 <deregister_tm_clones+0x1c>)
   80100:	b103      	cbz	r3, 80104 <deregister_tm_clones+0x10>
   80102:	4718      	bx	r3
   80104:	4770      	bx	lr
   80106:	bf00      	nop
   80108:	000a1d03 	.word	0x000a1d03
   8010c:	000a1d00 	.word	0x000a1d00
   80110:	00000000 	.word	0x00000000

00080114 <register_tm_clones>:
   80114:	4905      	ldr	r1, [pc, #20]	; (8012c <register_tm_clones+0x18>)
   80116:	4806      	ldr	r0, [pc, #24]	; (80130 <register_tm_clones+0x1c>)
   80118:	1a09      	subs	r1, r1, r0
   8011a:	1089      	asrs	r1, r1, #2
   8011c:	eb01 71d1 	add.w	r1, r1, r1, lsr #31
   80120:	1049      	asrs	r1, r1, #1
   80122:	d002      	beq.n	8012a <register_tm_clones+0x16>
   80124:	4b03      	ldr	r3, [pc, #12]	; (80134 <register_tm_clones+0x20>)
   80126:	b103      	cbz	r3, 8012a <register_tm_clones+0x16>
   80128:	4718      	bx	r3
   8012a:	4770      	bx	lr
   8012c:	000a1d00 	.word	0x000a1d00
   80130:	000a1d00 	.word	0x000a1d00
   80134:	00000000 	.word	0x00000000

00080138 <__do_global_dtors_aux>:
   80138:	b510      	push	{r4, lr}
   8013a:	4c06      	ldr	r4, [pc, #24]	; (80154 <__do_global_dtors_aux+0x1c>)
   8013c:	7823      	ldrb	r3, [r4, #0]
   8013e:	b943      	cbnz	r3, 80152 <__do_global_dtors_aux+0x1a>
   80140:	f7ff ffd8 	bl	800f4 <deregister_tm_clones>
   80144:	4b04      	ldr	r3, [pc, #16]	; (80158 <__do_global_dtors_aux+0x20>)
   80146:	b113      	cbz	r3, 8014e <__do_global_dtors_aux+0x16>
   80148:	4804      	ldr	r0, [pc, #16]	; (8015c <__do_global_dtors_aux+0x24>)
   8014a:	f3af 8000 	nop.w
   8014e:	2301      	movs	r3, #1
   80150:	7023      	strb	r3, [r4, #0]
   80152:	bd10      	pop	{r4, pc}
   80154:	20070ce8 	.word	0x20070ce8
   80158:	00000000 	.word	0x00000000
   8015c:	00099c54 	.word	0x00099c54

00080160 <frame_dummy>:
   80160:	b508      	push	{r3, lr}
   80162:	4b08      	ldr	r3, [pc, #32]	; (80184 <frame_dummy+0x24>)
   80164:	b11b      	cbz	r3, 8016e <frame_dummy+0xe>
   80166:	4908      	ldr	r1, [pc, #32]	; (80188 <frame_dummy+0x28>)
   80168:	4808      	ldr	r0, [pc, #32]	; (8018c <frame_dummy+0x2c>)
   8016a:	f3af 8000 	nop.w
   8016e:	4808      	ldr	r0, [pc, #32]	; (80190 <frame_dummy+0x30>)
   80170:	6803      	ldr	r3, [r0, #0]
   80172:	b913      	cbnz	r3, 8017a <frame_dummy+0x1a>
   80174:	e8bd 4008 	ldmia.w	sp!, {r3, lr}
   80178:	e7cc      	b.n	80114 <register_tm_clones>
   8017a:	4b06      	ldr	r3, [pc, #24]	; (80194 <frame_dummy+0x34>)
   8017c:	2b00      	cmp	r3, #0
   8017e:	d0f9      	beq.n	80174 <frame_dummy+0x14>
   80180:	4798      	blx	r3
   80182:	e7f7      	b.n	80174 <frame_dummy+0x14>
   80184:	00000000 	.word	0x00000000
   80188:	20070cec 	.word	0x20070cec
   8018c:	00099c54 	.word	0x00099c54
   80190:	000a1d00 	.word	0x000a1d00
   80194:	00000000 	.word	0x00000000

00080198 <cmd_hello_world_cb>:
   80198:	b508      	push	{r3, lr}
   8019a:	4610      	mov	r0, r2
   8019c:	4902      	ldr	r1, [pc, #8]	; (801a8 <cmd_hello_world_cb+0x10>)
   8019e:	f00c fed5 	bl	8cf4c <std_fprintf>
   801a2:	2000      	movs	r0, #0
   801a4:	bd08      	pop	{r3, pc}
   801a6:	bf00      	nop
   801a8:	0008f02c 	.word	0x0008f02c

000801ac <main>:
   801ac:	b570      	push	{r4, r5, r6, lr}
   801ae:	4c13      	ldr	r4, [pc, #76]	; (801fc <main+0x50>)
   801b0:	b084      	sub	sp, #16
   801b2:	f003 fc75 	bl	83aa0 <sys_start>
   801b6:	f003 fda9 	bl	83d0c <sys_get_info>
   801ba:	f00c fe03 	bl	8cdc4 <std_printf>
   801be:	2300      	movs	r3, #0
   801c0:	4a0f      	ldr	r2, [pc, #60]	; (80200 <main+0x54>)
   801c2:	4910      	ldr	r1, [pc, #64]	; (80204 <main+0x58>)
   801c4:	4620      	mov	r0, r4
   801c6:	f007 fc9d 	bl	87b04 <fs_command_init>
   801ca:	4620      	mov	r0, r4
   801cc:	f007 fcce 	bl	87b6c <fs_command_register>
   801d0:	f003 fd88 	bl	83ce4 <sys_get_stdin>
   801d4:	4606      	mov	r6, r0
   801d6:	f003 fd8b 	bl	83cf0 <sys_get_stdout>
   801da:	4d0b      	ldr	r5, [pc, #44]	; (80208 <main+0x5c>)
   801dc:	2400      	movs	r4, #0
   801de:	4602      	mov	r2, r0
   801e0:	4631      	mov	r1, r6
   801e2:	4623      	mov	r3, r4
   801e4:	4628      	mov	r0, r5
   801e6:	9402      	str	r4, [sp, #8]
   801e8:	9401      	str	r4, [sp, #4]
   801ea:	9400      	str	r4, [sp, #0]
   801ec:	f005 f982 	bl	854f4 <shell_init>
   801f0:	4628      	mov	r0, r5
   801f2:	f005 f9e1 	bl	855b8 <shell_main>
   801f6:	4620      	mov	r0, r4
   801f8:	b004      	add	sp, #16
   801fa:	bd70      	pop	{r4, r5, r6, pc}
   801fc:	200711b0 	.word	0x200711b0
   80200:	00080199 	.word	0x00080199
   80204:	0008f03c 	.word	0x0008f03c
   80208:	20070d04 	.word	0x20070d04

0008020c <board_pin_string_to_device_index>:
   8020c:	b500      	push	{lr}
   8020e:	4a8d      	ldr	r2, [pc, #564]	; (80444 <board_pin_string_to_device_index+0x238>)
   80210:	7803      	ldrb	r3, [r0, #0]
   80212:	6812      	ldr	r2, [r2, #0]
   80214:	b083      	sub	sp, #12
   80216:	441a      	add	r2, r3
   80218:	7852      	ldrb	r2, [r2, #1]
   8021a:	f002 0203 	and.w	r2, r2, #3
   8021e:	2a01      	cmp	r2, #1
   80220:	d00d      	beq.n	8023e <board_pin_string_to_device_index+0x32>
   80222:	2b64      	cmp	r3, #100	; 0x64
   80224:	d023      	beq.n	8026e <board_pin_string_to_device_index+0x62>
   80226:	2b61      	cmp	r3, #97	; 0x61
   80228:	d00e      	beq.n	80248 <board_pin_string_to_device_index+0x3c>
   8022a:	4987      	ldr	r1, [pc, #540]	; (80448 <board_pin_string_to_device_index+0x23c>)
   8022c:	f00e f998 	bl	8e560 <strcmp>
   80230:	2800      	cmp	r0, #0
   80232:	f040 8103 	bne.w	8043c <board_pin_string_to_device_index+0x230>
   80236:	2039      	movs	r0, #57	; 0x39
   80238:	b003      	add	sp, #12
   8023a:	f85d fb04 	ldr.w	pc, [sp], #4
   8023e:	2b44      	cmp	r3, #68	; 0x44
   80240:	d015      	beq.n	8026e <board_pin_string_to_device_index+0x62>
   80242:	3320      	adds	r3, #32
   80244:	2b61      	cmp	r3, #97	; 0x61
   80246:	d1f0      	bne.n	8022a <board_pin_string_to_device_index+0x1e>
   80248:	3001      	adds	r0, #1
   8024a:	a901      	add	r1, sp, #4
   8024c:	f00c ffc2 	bl	8d1d4 <std_strtol>
   80250:	2800      	cmp	r0, #0
   80252:	f000 80f3 	beq.w	8043c <board_pin_string_to_device_index+0x230>
   80256:	9801      	ldr	r0, [sp, #4]
   80258:	280b      	cmp	r0, #11
   8025a:	f200 80ef 	bhi.w	8043c <board_pin_string_to_device_index+0x230>
   8025e:	e8df f000 	tbb	[pc, r0]
   80262:	8183      	.short	0x8183
   80264:	8b8d8f91 	.word	0x8b8d8f91
   80268:	85858789 	.word	0x85858789
   8026c:	8585      	.short	0x8585
   8026e:	3001      	adds	r0, #1
   80270:	a901      	add	r1, sp, #4
   80272:	f00c ffaf 	bl	8d1d4 <std_strtol>
   80276:	2800      	cmp	r0, #0
   80278:	f000 80e0 	beq.w	8043c <board_pin_string_to_device_index+0x230>
   8027c:	9801      	ldr	r0, [sp, #4]
   8027e:	2835      	cmp	r0, #53	; 0x35
   80280:	f200 80dc 	bhi.w	8043c <board_pin_string_to_device_index+0x230>
   80284:	a301      	add	r3, pc, #4	; (adr r3, 8028c <board_pin_string_to_device_index+0x80>)
   80286:	f853 f020 	ldr.w	pc, [r3, r0, lsl #2]
   8028a:	bf00      	nop
   8028c:	0008038d 	.word	0x0008038d
   80290:	00080389 	.word	0x00080389
   80294:	000803a9 	.word	0x000803a9
   80298:	000803a5 	.word	0x000803a5
   8029c:	000803b9 	.word	0x000803b9
   802a0:	000803b5 	.word	0x000803b5
   802a4:	000803b1 	.word	0x000803b1
   802a8:	000803ad 	.word	0x000803ad
   802ac:	00080439 	.word	0x00080439
   802b0:	00080435 	.word	0x00080435
   802b4:	00080431 	.word	0x00080431
   802b8:	0008042d 	.word	0x0008042d
   802bc:	00080429 	.word	0x00080429
   802c0:	00080237 	.word	0x00080237
   802c4:	00080425 	.word	0x00080425
   802c8:	00080421 	.word	0x00080421
   802cc:	0008041d 	.word	0x0008041d
   802d0:	00080419 	.word	0x00080419
   802d4:	00080415 	.word	0x00080415
   802d8:	00080411 	.word	0x00080411
   802dc:	0008040d 	.word	0x0008040d
   802e0:	00080409 	.word	0x00080409
   802e4:	00080405 	.word	0x00080405
   802e8:	00080401 	.word	0x00080401
   802ec:	000803fd 	.word	0x000803fd
   802f0:	000803f9 	.word	0x000803f9
   802f4:	000803f5 	.word	0x000803f5
   802f8:	000803f1 	.word	0x000803f1
   802fc:	000803ed 	.word	0x000803ed
   80300:	000803e9 	.word	0x000803e9
   80304:	000803e5 	.word	0x000803e5
   80308:	000803e1 	.word	0x000803e1
   8030c:	000803dd 	.word	0x000803dd
   80310:	000803d9 	.word	0x000803d9
   80314:	000803d9 	.word	0x000803d9
   80318:	000803d9 	.word	0x000803d9
   8031c:	000803d9 	.word	0x000803d9
   80320:	000803d9 	.word	0x000803d9
   80324:	000803d9 	.word	0x000803d9
   80328:	000803d9 	.word	0x000803d9
   8032c:	000803d9 	.word	0x000803d9
   80330:	000803d9 	.word	0x000803d9
   80334:	000803d5 	.word	0x000803d5
   80338:	000803d1 	.word	0x000803d1
   8033c:	000803cd 	.word	0x000803cd
   80340:	000803c9 	.word	0x000803c9
   80344:	000803c5 	.word	0x000803c5
   80348:	000803c1 	.word	0x000803c1
   8034c:	000803bd 	.word	0x000803bd
   80350:	0008039d 	.word	0x0008039d
   80354:	00080399 	.word	0x00080399
   80358:	00080395 	.word	0x00080395
   8035c:	00080391 	.word	0x00080391
   80360:	000803a1 	.word	0x000803a1
   80364:	2018      	movs	r0, #24
   80366:	e767      	b.n	80238 <board_pin_string_to_device_index+0x2c>
   80368:	2010      	movs	r0, #16
   8036a:	e765      	b.n	80238 <board_pin_string_to_device_index+0x2c>
   8036c:	3027      	adds	r0, #39	; 0x27
   8036e:	e763      	b.n	80238 <board_pin_string_to_device_index+0x2c>
   80370:	2002      	movs	r0, #2
   80372:	e761      	b.n	80238 <board_pin_string_to_device_index+0x2c>
   80374:	2003      	movs	r0, #3
   80376:	e75f      	b.n	80238 <board_pin_string_to_device_index+0x2c>
   80378:	2004      	movs	r0, #4
   8037a:	e75d      	b.n	80238 <board_pin_string_to_device_index+0x2c>
   8037c:	2006      	movs	r0, #6
   8037e:	e75b      	b.n	80238 <board_pin_string_to_device_index+0x2c>
   80380:	2016      	movs	r0, #22
   80382:	e759      	b.n	80238 <board_pin_string_to_device_index+0x2c>
   80384:	2017      	movs	r0, #23
   80386:	e757      	b.n	80238 <board_pin_string_to_device_index+0x2c>
   80388:	2009      	movs	r0, #9
   8038a:	e755      	b.n	80238 <board_pin_string_to_device_index+0x2c>
   8038c:	2008      	movs	r0, #8
   8038e:	e753      	b.n	80238 <board_pin_string_to_device_index+0x2c>
   80390:	2033      	movs	r0, #51	; 0x33
   80392:	e751      	b.n	80238 <board_pin_string_to_device_index+0x2c>
   80394:	204a      	movs	r0, #74	; 0x4a
   80396:	e74f      	b.n	80238 <board_pin_string_to_device_index+0x2c>
   80398:	204b      	movs	r0, #75	; 0x4b
   8039a:	e74d      	b.n	80238 <board_pin_string_to_device_index+0x2c>
   8039c:	204c      	movs	r0, #76	; 0x4c
   8039e:	e74b      	b.n	80238 <board_pin_string_to_device_index+0x2c>
   803a0:	202c      	movs	r0, #44	; 0x2c
   803a2:	e749      	b.n	80238 <board_pin_string_to_device_index+0x2c>
   803a4:	205a      	movs	r0, #90	; 0x5a
   803a6:	e747      	b.n	80238 <board_pin_string_to_device_index+0x2c>
   803a8:	2037      	movs	r0, #55	; 0x37
   803aa:	e745      	b.n	80238 <board_pin_string_to_device_index+0x2c>
   803ac:	2055      	movs	r0, #85	; 0x55
   803ae:	e743      	b.n	80238 <board_pin_string_to_device_index+0x2c>
   803b0:	2056      	movs	r0, #86	; 0x56
   803b2:	e741      	b.n	80238 <board_pin_string_to_device_index+0x2c>
   803b4:	2057      	movs	r0, #87	; 0x57
   803b6:	e73f      	b.n	80238 <board_pin_string_to_device_index+0x2c>
   803b8:	2058      	movs	r0, #88	; 0x58
   803ba:	e73d      	b.n	80238 <board_pin_string_to_device_index+0x2c>
   803bc:	204d      	movs	r0, #77	; 0x4d
   803be:	e73b      	b.n	80238 <board_pin_string_to_device_index+0x2c>
   803c0:	204e      	movs	r0, #78	; 0x4e
   803c2:	e739      	b.n	80238 <board_pin_string_to_device_index+0x2c>
   803c4:	204f      	movs	r0, #79	; 0x4f
   803c6:	e737      	b.n	80238 <board_pin_string_to_device_index+0x2c>
   803c8:	2050      	movs	r0, #80	; 0x50
   803ca:	e735      	b.n	80238 <board_pin_string_to_device_index+0x2c>
   803cc:	2051      	movs	r0, #81	; 0x51
   803ce:	e733      	b.n	80238 <board_pin_string_to_device_index+0x2c>
   803d0:	2014      	movs	r0, #20
   803d2:	e731      	b.n	80238 <board_pin_string_to_device_index+0x2c>
   803d4:	2013      	movs	r0, #19
   803d6:	e72f      	b.n	80238 <board_pin_string_to_device_index+0x2c>
   803d8:	301e      	adds	r0, #30
   803da:	e72d      	b.n	80238 <board_pin_string_to_device_index+0x2c>
   803dc:	2067      	movs	r0, #103	; 0x67
   803de:	e72b      	b.n	80238 <board_pin_string_to_device_index+0x2c>
   803e0:	2007      	movs	r0, #7
   803e2:	e729      	b.n	80238 <board_pin_string_to_device_index+0x2c>
   803e4:	2066      	movs	r0, #102	; 0x66
   803e6:	e727      	b.n	80238 <board_pin_string_to_device_index+0x2c>
   803e8:	2063      	movs	r0, #99	; 0x63
   803ea:	e725      	b.n	80238 <board_pin_string_to_device_index+0x2c>
   803ec:	2060      	movs	r0, #96	; 0x60
   803ee:	e723      	b.n	80238 <board_pin_string_to_device_index+0x2c>
   803f0:	205f      	movs	r0, #95	; 0x5f
   803f2:	e721      	b.n	80238 <board_pin_string_to_device_index+0x2c>
   803f4:	205e      	movs	r0, #94	; 0x5e
   803f6:	e71f      	b.n	80238 <board_pin_string_to_device_index+0x2c>
   803f8:	205d      	movs	r0, #93	; 0x5d
   803fa:	e71d      	b.n	80238 <board_pin_string_to_device_index+0x2c>
   803fc:	200f      	movs	r0, #15
   803fe:	e71b      	b.n	80238 <board_pin_string_to_device_index+0x2c>
   80400:	200e      	movs	r0, #14
   80402:	e719      	b.n	80238 <board_pin_string_to_device_index+0x2c>
   80404:	2038      	movs	r0, #56	; 0x38
   80406:	e717      	b.n	80238 <board_pin_string_to_device_index+0x2c>
   80408:	202b      	movs	r0, #43	; 0x2b
   8040a:	e715      	b.n	80238 <board_pin_string_to_device_index+0x2c>
   8040c:	202a      	movs	r0, #42	; 0x2a
   8040e:	e713      	b.n	80238 <board_pin_string_to_device_index+0x2c>
   80410:	200a      	movs	r0, #10
   80412:	e711      	b.n	80238 <board_pin_string_to_device_index+0x2c>
   80414:	200b      	movs	r0, #11
   80416:	e70f      	b.n	80238 <board_pin_string_to_device_index+0x2c>
   80418:	200c      	movs	r0, #12
   8041a:	e70d      	b.n	80238 <board_pin_string_to_device_index+0x2c>
   8041c:	200d      	movs	r0, #13
   8041e:	e70b      	b.n	80238 <board_pin_string_to_device_index+0x2c>
   80420:	2062      	movs	r0, #98	; 0x62
   80422:	e709      	b.n	80238 <board_pin_string_to_device_index+0x2c>
   80424:	2061      	movs	r0, #97	; 0x61
   80426:	e707      	b.n	80238 <board_pin_string_to_device_index+0x2c>
   80428:	2065      	movs	r0, #101	; 0x65
   8042a:	e705      	b.n	80238 <board_pin_string_to_device_index+0x2c>
   8042c:	2064      	movs	r0, #100	; 0x64
   8042e:	e703      	b.n	80238 <board_pin_string_to_device_index+0x2c>
   80430:	201c      	movs	r0, #28
   80432:	e701      	b.n	80238 <board_pin_string_to_device_index+0x2c>
   80434:	2053      	movs	r0, #83	; 0x53
   80436:	e6ff      	b.n	80238 <board_pin_string_to_device_index+0x2c>
   80438:	2054      	movs	r0, #84	; 0x54
   8043a:	e6fd      	b.n	80238 <board_pin_string_to_device_index+0x2c>
   8043c:	f06f 0012 	mvn.w	r0, #18
   80440:	e6fa      	b.n	80238 <board_pin_string_to_device_index+0x2c>
   80442:	bf00      	nop
   80444:	200708b4 	.word	0x200708b4
   80448:	0008f04c 	.word	0x0008f04c

0008044c <isr_bus_fault>:
   8044c:	e7fe      	b.n	8044c <isr_bus_fault>
   8044e:	bf00      	nop

00080450 <isr_supc_wrapper>:
   80450:	b538      	push	{r3, r4, r5, lr}
   80452:	4c05      	ldr	r4, [pc, #20]	; (80468 <isr_supc_wrapper+0x18>)
   80454:	6925      	ldr	r5, [r4, #16]
   80456:	f7ff fff9 	bl	8044c <isr_bus_fault>
   8045a:	4904      	ldr	r1, [pc, #16]	; (8046c <isr_supc_wrapper+0x1c>)
   8045c:	6922      	ldr	r2, [r4, #16]
   8045e:	690b      	ldr	r3, [r1, #16]
   80460:	4413      	add	r3, r2
   80462:	1b5b      	subs	r3, r3, r5
   80464:	610b      	str	r3, [r1, #16]
   80466:	bd38      	pop	{r3, r4, r5, pc}
   80468:	40080000 	.word	0x40080000
   8046c:	20070860 	.word	0x20070860

00080470 <isr_rstc_wrapper>:
   80470:	b538      	push	{r3, r4, r5, lr}
   80472:	4c05      	ldr	r4, [pc, #20]	; (80488 <isr_rstc_wrapper+0x18>)
   80474:	6925      	ldr	r5, [r4, #16]
   80476:	f7ff ffe9 	bl	8044c <isr_bus_fault>
   8047a:	4904      	ldr	r1, [pc, #16]	; (8048c <isr_rstc_wrapper+0x1c>)
   8047c:	6922      	ldr	r2, [r4, #16]
   8047e:	690b      	ldr	r3, [r1, #16]
   80480:	4413      	add	r3, r2
   80482:	1b5b      	subs	r3, r3, r5
   80484:	610b      	str	r3, [r1, #16]
   80486:	bd38      	pop	{r3, r4, r5, pc}
   80488:	40080000 	.word	0x40080000
   8048c:	20070860 	.word	0x20070860

00080490 <isr_rtc_wrapper>:
   80490:	b538      	push	{r3, r4, r5, lr}
   80492:	4c05      	ldr	r4, [pc, #20]	; (804a8 <isr_rtc_wrapper+0x18>)
   80494:	6925      	ldr	r5, [r4, #16]
   80496:	f7ff ffd9 	bl	8044c <isr_bus_fault>
   8049a:	4904      	ldr	r1, [pc, #16]	; (804ac <isr_rtc_wrapper+0x1c>)
   8049c:	6922      	ldr	r2, [r4, #16]
   8049e:	690b      	ldr	r3, [r1, #16]
   804a0:	4413      	add	r3, r2
   804a2:	1b5b      	subs	r3, r3, r5
   804a4:	610b      	str	r3, [r1, #16]
   804a6:	bd38      	pop	{r3, r4, r5, pc}
   804a8:	40080000 	.word	0x40080000
   804ac:	20070860 	.word	0x20070860

000804b0 <isr_rtt_wrapper>:
   804b0:	b538      	push	{r3, r4, r5, lr}
   804b2:	4c05      	ldr	r4, [pc, #20]	; (804c8 <isr_rtt_wrapper+0x18>)
   804b4:	6925      	ldr	r5, [r4, #16]
   804b6:	f7ff ffc9 	bl	8044c <isr_bus_fault>
   804ba:	4904      	ldr	r1, [pc, #16]	; (804cc <isr_rtt_wrapper+0x1c>)
   804bc:	6922      	ldr	r2, [r4, #16]
   804be:	690b      	ldr	r3, [r1, #16]
   804c0:	4413      	add	r3, r2
   804c2:	1b5b      	subs	r3, r3, r5
   804c4:	610b      	str	r3, [r1, #16]
   804c6:	bd38      	pop	{r3, r4, r5, pc}
   804c8:	40080000 	.word	0x40080000
   804cc:	20070860 	.word	0x20070860

000804d0 <isr_wdg_wrapper>:
   804d0:	b538      	push	{r3, r4, r5, lr}
   804d2:	4c05      	ldr	r4, [pc, #20]	; (804e8 <isr_wdg_wrapper+0x18>)
   804d4:	6925      	ldr	r5, [r4, #16]
   804d6:	f7ff ffb9 	bl	8044c <isr_bus_fault>
   804da:	4904      	ldr	r1, [pc, #16]	; (804ec <isr_wdg_wrapper+0x1c>)
   804dc:	6922      	ldr	r2, [r4, #16]
   804de:	690b      	ldr	r3, [r1, #16]
   804e0:	4413      	add	r3, r2
   804e2:	1b5b      	subs	r3, r3, r5
   804e4:	610b      	str	r3, [r1, #16]
   804e6:	bd38      	pop	{r3, r4, r5, pc}
   804e8:	40080000 	.word	0x40080000
   804ec:	20070860 	.word	0x20070860

000804f0 <isr_pmc_wrapper>:
   804f0:	b538      	push	{r3, r4, r5, lr}
   804f2:	4c05      	ldr	r4, [pc, #20]	; (80508 <isr_pmc_wrapper+0x18>)
   804f4:	6925      	ldr	r5, [r4, #16]
   804f6:	f7ff ffa9 	bl	8044c <isr_bus_fault>
   804fa:	4904      	ldr	r1, [pc, #16]	; (8050c <isr_pmc_wrapper+0x1c>)
   804fc:	6922      	ldr	r2, [r4, #16]
   804fe:	690b      	ldr	r3, [r1, #16]
   80500:	4413      	add	r3, r2
   80502:	1b5b      	subs	r3, r3, r5
   80504:	610b      	str	r3, [r1, #16]
   80506:	bd38      	pop	{r3, r4, r5, pc}
   80508:	40080000 	.word	0x40080000
   8050c:	20070860 	.word	0x20070860

00080510 <isr_eefc0_wrapper>:
   80510:	b538      	push	{r3, r4, r5, lr}
   80512:	4c05      	ldr	r4, [pc, #20]	; (80528 <isr_eefc0_wrapper+0x18>)
   80514:	6925      	ldr	r5, [r4, #16]
   80516:	f7ff ff99 	bl	8044c <isr_bus_fault>
   8051a:	4904      	ldr	r1, [pc, #16]	; (8052c <isr_eefc0_wrapper+0x1c>)
   8051c:	6922      	ldr	r2, [r4, #16]
   8051e:	690b      	ldr	r3, [r1, #16]
   80520:	4413      	add	r3, r2
   80522:	1b5b      	subs	r3, r3, r5
   80524:	610b      	str	r3, [r1, #16]
   80526:	bd38      	pop	{r3, r4, r5, pc}
   80528:	40080000 	.word	0x40080000
   8052c:	20070860 	.word	0x20070860

00080530 <isr_eefc1_wrapper>:
   80530:	b538      	push	{r3, r4, r5, lr}
   80532:	4c05      	ldr	r4, [pc, #20]	; (80548 <isr_eefc1_wrapper+0x18>)
   80534:	6925      	ldr	r5, [r4, #16]
   80536:	f7ff ff89 	bl	8044c <isr_bus_fault>
   8053a:	4904      	ldr	r1, [pc, #16]	; (8054c <isr_eefc1_wrapper+0x1c>)
   8053c:	6922      	ldr	r2, [r4, #16]
   8053e:	690b      	ldr	r3, [r1, #16]
   80540:	4413      	add	r3, r2
   80542:	1b5b      	subs	r3, r3, r5
   80544:	610b      	str	r3, [r1, #16]
   80546:	bd38      	pop	{r3, r4, r5, pc}
   80548:	40080000 	.word	0x40080000
   8054c:	20070860 	.word	0x20070860

00080550 <isr_uart_wrapper>:
   80550:	b538      	push	{r3, r4, r5, lr}
   80552:	4c05      	ldr	r4, [pc, #20]	; (80568 <isr_uart_wrapper+0x18>)
   80554:	6925      	ldr	r5, [r4, #16]
   80556:	f001 ffa7 	bl	824a8 <isr_uart>
   8055a:	4904      	ldr	r1, [pc, #16]	; (8056c <isr_uart_wrapper+0x1c>)
   8055c:	6922      	ldr	r2, [r4, #16]
   8055e:	690b      	ldr	r3, [r1, #16]
   80560:	4413      	add	r3, r2
   80562:	1b5b      	subs	r3, r3, r5
   80564:	610b      	str	r3, [r1, #16]
   80566:	bd38      	pop	{r3, r4, r5, pc}
   80568:	40080000 	.word	0x40080000
   8056c:	20070860 	.word	0x20070860

00080570 <isr_smc_wrapper>:
   80570:	b538      	push	{r3, r4, r5, lr}
   80572:	4c05      	ldr	r4, [pc, #20]	; (80588 <isr_smc_wrapper+0x18>)
   80574:	6925      	ldr	r5, [r4, #16]
   80576:	f7ff ff69 	bl	8044c <isr_bus_fault>
   8057a:	4904      	ldr	r1, [pc, #16]	; (8058c <isr_smc_wrapper+0x1c>)
   8057c:	6922      	ldr	r2, [r4, #16]
   8057e:	690b      	ldr	r3, [r1, #16]
   80580:	4413      	add	r3, r2
   80582:	1b5b      	subs	r3, r3, r5
   80584:	610b      	str	r3, [r1, #16]
   80586:	bd38      	pop	{r3, r4, r5, pc}
   80588:	40080000 	.word	0x40080000
   8058c:	20070860 	.word	0x20070860

00080590 <isr_sdramc_wrapper>:
   80590:	b538      	push	{r3, r4, r5, lr}
   80592:	4c05      	ldr	r4, [pc, #20]	; (805a8 <isr_sdramc_wrapper+0x18>)
   80594:	6925      	ldr	r5, [r4, #16]
   80596:	f7ff ff59 	bl	8044c <isr_bus_fault>
   8059a:	4904      	ldr	r1, [pc, #16]	; (805ac <isr_sdramc_wrapper+0x1c>)
   8059c:	6922      	ldr	r2, [r4, #16]
   8059e:	690b      	ldr	r3, [r1, #16]
   805a0:	4413      	add	r3, r2
   805a2:	1b5b      	subs	r3, r3, r5
   805a4:	610b      	str	r3, [r1, #16]
   805a6:	bd38      	pop	{r3, r4, r5, pc}
   805a8:	40080000 	.word	0x40080000
   805ac:	20070860 	.word	0x20070860

000805b0 <isr_pioa_wrapper>:
   805b0:	b538      	push	{r3, r4, r5, lr}
   805b2:	4c05      	ldr	r4, [pc, #20]	; (805c8 <isr_pioa_wrapper+0x18>)
   805b4:	6925      	ldr	r5, [r4, #16]
   805b6:	f000 ff13 	bl	813e0 <isr_pioa>
   805ba:	4904      	ldr	r1, [pc, #16]	; (805cc <isr_pioa_wrapper+0x1c>)
   805bc:	6922      	ldr	r2, [r4, #16]
   805be:	690b      	ldr	r3, [r1, #16]
   805c0:	4413      	add	r3, r2
   805c2:	1b5b      	subs	r3, r3, r5
   805c4:	610b      	str	r3, [r1, #16]
   805c6:	bd38      	pop	{r3, r4, r5, pc}
   805c8:	40080000 	.word	0x40080000
   805cc:	20070860 	.word	0x20070860

000805d0 <isr_piob_wrapper>:
   805d0:	b538      	push	{r3, r4, r5, lr}
   805d2:	4c05      	ldr	r4, [pc, #20]	; (805e8 <isr_piob_wrapper+0x18>)
   805d4:	6925      	ldr	r5, [r4, #16]
   805d6:	f000 ff25 	bl	81424 <isr_piob>
   805da:	4904      	ldr	r1, [pc, #16]	; (805ec <isr_piob_wrapper+0x1c>)
   805dc:	6922      	ldr	r2, [r4, #16]
   805de:	690b      	ldr	r3, [r1, #16]
   805e0:	4413      	add	r3, r2
   805e2:	1b5b      	subs	r3, r3, r5
   805e4:	610b      	str	r3, [r1, #16]
   805e6:	bd38      	pop	{r3, r4, r5, pc}
   805e8:	40080000 	.word	0x40080000
   805ec:	20070860 	.word	0x20070860

000805f0 <isr_pioc_wrapper>:
   805f0:	b538      	push	{r3, r4, r5, lr}
   805f2:	4c05      	ldr	r4, [pc, #20]	; (80608 <isr_pioc_wrapper+0x18>)
   805f4:	6925      	ldr	r5, [r4, #16]
   805f6:	f000 ff37 	bl	81468 <isr_pioc>
   805fa:	4904      	ldr	r1, [pc, #16]	; (8060c <isr_pioc_wrapper+0x1c>)
   805fc:	6922      	ldr	r2, [r4, #16]
   805fe:	690b      	ldr	r3, [r1, #16]
   80600:	4413      	add	r3, r2
   80602:	1b5b      	subs	r3, r3, r5
   80604:	610b      	str	r3, [r1, #16]
   80606:	bd38      	pop	{r3, r4, r5, pc}
   80608:	40080000 	.word	0x40080000
   8060c:	20070860 	.word	0x20070860

00080610 <isr_piod_wrapper>:
   80610:	b538      	push	{r3, r4, r5, lr}
   80612:	4c05      	ldr	r4, [pc, #20]	; (80628 <isr_piod_wrapper+0x18>)
   80614:	6925      	ldr	r5, [r4, #16]
   80616:	f000 ff49 	bl	814ac <isr_piod>
   8061a:	4904      	ldr	r1, [pc, #16]	; (8062c <isr_piod_wrapper+0x1c>)
   8061c:	6922      	ldr	r2, [r4, #16]
   8061e:	690b      	ldr	r3, [r1, #16]
   80620:	4413      	add	r3, r2
   80622:	1b5b      	subs	r3, r3, r5
   80624:	610b      	str	r3, [r1, #16]
   80626:	bd38      	pop	{r3, r4, r5, pc}
   80628:	40080000 	.word	0x40080000
   8062c:	20070860 	.word	0x20070860

00080630 <isr_pioe_wrapper>:
   80630:	b538      	push	{r3, r4, r5, lr}
   80632:	4c05      	ldr	r4, [pc, #20]	; (80648 <isr_pioe_wrapper+0x18>)
   80634:	6925      	ldr	r5, [r4, #16]
   80636:	f7ff ff09 	bl	8044c <isr_bus_fault>
   8063a:	4904      	ldr	r1, [pc, #16]	; (8064c <isr_pioe_wrapper+0x1c>)
   8063c:	6922      	ldr	r2, [r4, #16]
   8063e:	690b      	ldr	r3, [r1, #16]
   80640:	4413      	add	r3, r2
   80642:	1b5b      	subs	r3, r3, r5
   80644:	610b      	str	r3, [r1, #16]
   80646:	bd38      	pop	{r3, r4, r5, pc}
   80648:	40080000 	.word	0x40080000
   8064c:	20070860 	.word	0x20070860

00080650 <isr_piof_wrapper>:
   80650:	b538      	push	{r3, r4, r5, lr}
   80652:	4c05      	ldr	r4, [pc, #20]	; (80668 <isr_piof_wrapper+0x18>)
   80654:	6925      	ldr	r5, [r4, #16]
   80656:	f7ff fef9 	bl	8044c <isr_bus_fault>
   8065a:	4904      	ldr	r1, [pc, #16]	; (8066c <isr_piof_wrapper+0x1c>)
   8065c:	6922      	ldr	r2, [r4, #16]
   8065e:	690b      	ldr	r3, [r1, #16]
   80660:	4413      	add	r3, r2
   80662:	1b5b      	subs	r3, r3, r5
   80664:	610b      	str	r3, [r1, #16]
   80666:	bd38      	pop	{r3, r4, r5, pc}
   80668:	40080000 	.word	0x40080000
   8066c:	20070860 	.word	0x20070860

00080670 <isr_usart0_wrapper>:
   80670:	b538      	push	{r3, r4, r5, lr}
   80672:	4c05      	ldr	r4, [pc, #20]	; (80688 <isr_usart0_wrapper+0x18>)
   80674:	6925      	ldr	r5, [r4, #16]
   80676:	f001 ff1b 	bl	824b0 <isr_usart0>
   8067a:	4904      	ldr	r1, [pc, #16]	; (8068c <isr_usart0_wrapper+0x1c>)
   8067c:	6922      	ldr	r2, [r4, #16]
   8067e:	690b      	ldr	r3, [r1, #16]
   80680:	4413      	add	r3, r2
   80682:	1b5b      	subs	r3, r3, r5
   80684:	610b      	str	r3, [r1, #16]
   80686:	bd38      	pop	{r3, r4, r5, pc}
   80688:	40080000 	.word	0x40080000
   8068c:	20070860 	.word	0x20070860

00080690 <isr_usart1_wrapper>:
   80690:	b538      	push	{r3, r4, r5, lr}
   80692:	4c05      	ldr	r4, [pc, #20]	; (806a8 <isr_usart1_wrapper+0x18>)
   80694:	6925      	ldr	r5, [r4, #16]
   80696:	f001 ff0f 	bl	824b8 <isr_usart1>
   8069a:	4904      	ldr	r1, [pc, #16]	; (806ac <isr_usart1_wrapper+0x1c>)
   8069c:	6922      	ldr	r2, [r4, #16]
   8069e:	690b      	ldr	r3, [r1, #16]
   806a0:	4413      	add	r3, r2
   806a2:	1b5b      	subs	r3, r3, r5
   806a4:	610b      	str	r3, [r1, #16]
   806a6:	bd38      	pop	{r3, r4, r5, pc}
   806a8:	40080000 	.word	0x40080000
   806ac:	20070860 	.word	0x20070860

000806b0 <isr_usart2_wrapper>:
   806b0:	b538      	push	{r3, r4, r5, lr}
   806b2:	4c05      	ldr	r4, [pc, #20]	; (806c8 <isr_usart2_wrapper+0x18>)
   806b4:	6925      	ldr	r5, [r4, #16]
   806b6:	f001 ff03 	bl	824c0 <isr_usart2>
   806ba:	4904      	ldr	r1, [pc, #16]	; (806cc <isr_usart2_wrapper+0x1c>)
   806bc:	6922      	ldr	r2, [r4, #16]
   806be:	690b      	ldr	r3, [r1, #16]
   806c0:	4413      	add	r3, r2
   806c2:	1b5b      	subs	r3, r3, r5
   806c4:	610b      	str	r3, [r1, #16]
   806c6:	bd38      	pop	{r3, r4, r5, pc}
   806c8:	40080000 	.word	0x40080000
   806cc:	20070860 	.word	0x20070860

000806d0 <isr_usart3_wrapper>:
   806d0:	b538      	push	{r3, r4, r5, lr}
   806d2:	4c05      	ldr	r4, [pc, #20]	; (806e8 <isr_usart3_wrapper+0x18>)
   806d4:	6925      	ldr	r5, [r4, #16]
   806d6:	f7ff feb9 	bl	8044c <isr_bus_fault>
   806da:	4904      	ldr	r1, [pc, #16]	; (806ec <isr_usart3_wrapper+0x1c>)
   806dc:	6922      	ldr	r2, [r4, #16]
   806de:	690b      	ldr	r3, [r1, #16]
   806e0:	4413      	add	r3, r2
   806e2:	1b5b      	subs	r3, r3, r5
   806e4:	610b      	str	r3, [r1, #16]
   806e6:	bd38      	pop	{r3, r4, r5, pc}
   806e8:	40080000 	.word	0x40080000
   806ec:	20070860 	.word	0x20070860

000806f0 <isr_hsmci_wrapper>:
   806f0:	b538      	push	{r3, r4, r5, lr}
   806f2:	4c05      	ldr	r4, [pc, #20]	; (80708 <isr_hsmci_wrapper+0x18>)
   806f4:	6925      	ldr	r5, [r4, #16]
   806f6:	f7ff fea9 	bl	8044c <isr_bus_fault>
   806fa:	4904      	ldr	r1, [pc, #16]	; (8070c <isr_hsmci_wrapper+0x1c>)
   806fc:	6922      	ldr	r2, [r4, #16]
   806fe:	690b      	ldr	r3, [r1, #16]
   80700:	4413      	add	r3, r2
   80702:	1b5b      	subs	r3, r3, r5
   80704:	610b      	str	r3, [r1, #16]
   80706:	bd38      	pop	{r3, r4, r5, pc}
   80708:	40080000 	.word	0x40080000
   8070c:	20070860 	.word	0x20070860

00080710 <isr_twi0_wrapper>:
   80710:	b538      	push	{r3, r4, r5, lr}
   80712:	4c05      	ldr	r4, [pc, #20]	; (80728 <isr_twi0_wrapper+0x18>)
   80714:	6925      	ldr	r5, [r4, #16]
   80716:	f7ff fe99 	bl	8044c <isr_bus_fault>
   8071a:	4904      	ldr	r1, [pc, #16]	; (8072c <isr_twi0_wrapper+0x1c>)
   8071c:	6922      	ldr	r2, [r4, #16]
   8071e:	690b      	ldr	r3, [r1, #16]
   80720:	4413      	add	r3, r2
   80722:	1b5b      	subs	r3, r3, r5
   80724:	610b      	str	r3, [r1, #16]
   80726:	bd38      	pop	{r3, r4, r5, pc}
   80728:	40080000 	.word	0x40080000
   8072c:	20070860 	.word	0x20070860

00080730 <isr_twi1_wrapper>:
   80730:	b538      	push	{r3, r4, r5, lr}
   80732:	4c05      	ldr	r4, [pc, #20]	; (80748 <isr_twi1_wrapper+0x18>)
   80734:	6925      	ldr	r5, [r4, #16]
   80736:	f7ff fe89 	bl	8044c <isr_bus_fault>
   8073a:	4904      	ldr	r1, [pc, #16]	; (8074c <isr_twi1_wrapper+0x1c>)
   8073c:	6922      	ldr	r2, [r4, #16]
   8073e:	690b      	ldr	r3, [r1, #16]
   80740:	4413      	add	r3, r2
   80742:	1b5b      	subs	r3, r3, r5
   80744:	610b      	str	r3, [r1, #16]
   80746:	bd38      	pop	{r3, r4, r5, pc}
   80748:	40080000 	.word	0x40080000
   8074c:	20070860 	.word	0x20070860

00080750 <isr_spi0_wrapper>:
   80750:	b538      	push	{r3, r4, r5, lr}
   80752:	4c05      	ldr	r4, [pc, #20]	; (80768 <isr_spi0_wrapper+0x18>)
   80754:	6925      	ldr	r5, [r4, #16]
   80756:	f001 fda3 	bl	822a0 <isr_spi0>
   8075a:	4904      	ldr	r1, [pc, #16]	; (8076c <isr_spi0_wrapper+0x1c>)
   8075c:	6922      	ldr	r2, [r4, #16]
   8075e:	690b      	ldr	r3, [r1, #16]
   80760:	4413      	add	r3, r2
   80762:	1b5b      	subs	r3, r3, r5
   80764:	610b      	str	r3, [r1, #16]
   80766:	bd38      	pop	{r3, r4, r5, pc}
   80768:	40080000 	.word	0x40080000
   8076c:	20070860 	.word	0x20070860

00080770 <isr_spi1_wrapper>:
   80770:	b538      	push	{r3, r4, r5, lr}
   80772:	4c05      	ldr	r4, [pc, #20]	; (80788 <isr_spi1_wrapper+0x18>)
   80774:	6925      	ldr	r5, [r4, #16]
   80776:	f7ff fe69 	bl	8044c <isr_bus_fault>
   8077a:	4904      	ldr	r1, [pc, #16]	; (8078c <isr_spi1_wrapper+0x1c>)
   8077c:	6922      	ldr	r2, [r4, #16]
   8077e:	690b      	ldr	r3, [r1, #16]
   80780:	4413      	add	r3, r2
   80782:	1b5b      	subs	r3, r3, r5
   80784:	610b      	str	r3, [r1, #16]
   80786:	bd38      	pop	{r3, r4, r5, pc}
   80788:	40080000 	.word	0x40080000
   8078c:	20070860 	.word	0x20070860

00080790 <isr_ssc_wrapper>:
   80790:	b538      	push	{r3, r4, r5, lr}
   80792:	4c05      	ldr	r4, [pc, #20]	; (807a8 <isr_ssc_wrapper+0x18>)
   80794:	6925      	ldr	r5, [r4, #16]
   80796:	f7ff fe59 	bl	8044c <isr_bus_fault>
   8079a:	4904      	ldr	r1, [pc, #16]	; (807ac <isr_ssc_wrapper+0x1c>)
   8079c:	6922      	ldr	r2, [r4, #16]
   8079e:	690b      	ldr	r3, [r1, #16]
   807a0:	4413      	add	r3, r2
   807a2:	1b5b      	subs	r3, r3, r5
   807a4:	610b      	str	r3, [r1, #16]
   807a6:	bd38      	pop	{r3, r4, r5, pc}
   807a8:	40080000 	.word	0x40080000
   807ac:	20070860 	.word	0x20070860

000807b0 <isr_tc0_wrapper>:
   807b0:	b538      	push	{r3, r4, r5, lr}
   807b2:	4c05      	ldr	r4, [pc, #20]	; (807c8 <isr_tc0_wrapper+0x18>)
   807b4:	6925      	ldr	r5, [r4, #16]
   807b6:	f7ff fe49 	bl	8044c <isr_bus_fault>
   807ba:	4904      	ldr	r1, [pc, #16]	; (807cc <isr_tc0_wrapper+0x1c>)
   807bc:	6922      	ldr	r2, [r4, #16]
   807be:	690b      	ldr	r3, [r1, #16]
   807c0:	4413      	add	r3, r2
   807c2:	1b5b      	subs	r3, r3, r5
   807c4:	610b      	str	r3, [r1, #16]
   807c6:	bd38      	pop	{r3, r4, r5, pc}
   807c8:	40080000 	.word	0x40080000
   807cc:	20070860 	.word	0x20070860

000807d0 <isr_tc1_wrapper>:
   807d0:	b538      	push	{r3, r4, r5, lr}
   807d2:	4c05      	ldr	r4, [pc, #20]	; (807e8 <isr_tc1_wrapper+0x18>)
   807d4:	6925      	ldr	r5, [r4, #16]
   807d6:	f7ff fe39 	bl	8044c <isr_bus_fault>
   807da:	4904      	ldr	r1, [pc, #16]	; (807ec <isr_tc1_wrapper+0x1c>)
   807dc:	6922      	ldr	r2, [r4, #16]
   807de:	690b      	ldr	r3, [r1, #16]
   807e0:	4413      	add	r3, r2
   807e2:	1b5b      	subs	r3, r3, r5
   807e4:	610b      	str	r3, [r1, #16]
   807e6:	bd38      	pop	{r3, r4, r5, pc}
   807e8:	40080000 	.word	0x40080000
   807ec:	20070860 	.word	0x20070860

000807f0 <isr_tc2_wrapper>:
   807f0:	b538      	push	{r3, r4, r5, lr}
   807f2:	4c05      	ldr	r4, [pc, #20]	; (80808 <isr_tc2_wrapper+0x18>)
   807f4:	6925      	ldr	r5, [r4, #16]
   807f6:	f7ff fe29 	bl	8044c <isr_bus_fault>
   807fa:	4904      	ldr	r1, [pc, #16]	; (8080c <isr_tc2_wrapper+0x1c>)
   807fc:	6922      	ldr	r2, [r4, #16]
   807fe:	690b      	ldr	r3, [r1, #16]
   80800:	4413      	add	r3, r2
   80802:	1b5b      	subs	r3, r3, r5
   80804:	610b      	str	r3, [r1, #16]
   80806:	bd38      	pop	{r3, r4, r5, pc}
   80808:	40080000 	.word	0x40080000
   8080c:	20070860 	.word	0x20070860

00080810 <isr_tc3_wrapper>:
   80810:	b538      	push	{r3, r4, r5, lr}
   80812:	4c05      	ldr	r4, [pc, #20]	; (80828 <isr_tc3_wrapper+0x18>)
   80814:	6925      	ldr	r5, [r4, #16]
   80816:	f7ff fe19 	bl	8044c <isr_bus_fault>
   8081a:	4904      	ldr	r1, [pc, #16]	; (8082c <isr_tc3_wrapper+0x1c>)
   8081c:	6922      	ldr	r2, [r4, #16]
   8081e:	690b      	ldr	r3, [r1, #16]
   80820:	4413      	add	r3, r2
   80822:	1b5b      	subs	r3, r3, r5
   80824:	610b      	str	r3, [r1, #16]
   80826:	bd38      	pop	{r3, r4, r5, pc}
   80828:	40080000 	.word	0x40080000
   8082c:	20070860 	.word	0x20070860

00080830 <isr_tc4_wrapper>:
   80830:	b538      	push	{r3, r4, r5, lr}
   80832:	4c05      	ldr	r4, [pc, #20]	; (80848 <isr_tc4_wrapper+0x18>)
   80834:	6925      	ldr	r5, [r4, #16]
   80836:	f7ff fe09 	bl	8044c <isr_bus_fault>
   8083a:	4904      	ldr	r1, [pc, #16]	; (8084c <isr_tc4_wrapper+0x1c>)
   8083c:	6922      	ldr	r2, [r4, #16]
   8083e:	690b      	ldr	r3, [r1, #16]
   80840:	4413      	add	r3, r2
   80842:	1b5b      	subs	r3, r3, r5
   80844:	610b      	str	r3, [r1, #16]
   80846:	bd38      	pop	{r3, r4, r5, pc}
   80848:	40080000 	.word	0x40080000
   8084c:	20070860 	.word	0x20070860

00080850 <isr_tc5_wrapper>:
   80850:	b538      	push	{r3, r4, r5, lr}
   80852:	4c05      	ldr	r4, [pc, #20]	; (80868 <isr_tc5_wrapper+0x18>)
   80854:	6925      	ldr	r5, [r4, #16]
   80856:	f7ff fdf9 	bl	8044c <isr_bus_fault>
   8085a:	4904      	ldr	r1, [pc, #16]	; (8086c <isr_tc5_wrapper+0x1c>)
   8085c:	6922      	ldr	r2, [r4, #16]
   8085e:	690b      	ldr	r3, [r1, #16]
   80860:	4413      	add	r3, r2
   80862:	1b5b      	subs	r3, r3, r5
   80864:	610b      	str	r3, [r1, #16]
   80866:	bd38      	pop	{r3, r4, r5, pc}
   80868:	40080000 	.word	0x40080000
   8086c:	20070860 	.word	0x20070860

00080870 <isr_tc6_wrapper>:
   80870:	b538      	push	{r3, r4, r5, lr}
   80872:	4c05      	ldr	r4, [pc, #20]	; (80888 <isr_tc6_wrapper+0x18>)
   80874:	6925      	ldr	r5, [r4, #16]
   80876:	f7ff fde9 	bl	8044c <isr_bus_fault>
   8087a:	4904      	ldr	r1, [pc, #16]	; (8088c <isr_tc6_wrapper+0x1c>)
   8087c:	6922      	ldr	r2, [r4, #16]
   8087e:	690b      	ldr	r3, [r1, #16]
   80880:	4413      	add	r3, r2
   80882:	1b5b      	subs	r3, r3, r5
   80884:	610b      	str	r3, [r1, #16]
   80886:	bd38      	pop	{r3, r4, r5, pc}
   80888:	40080000 	.word	0x40080000
   8088c:	20070860 	.word	0x20070860

00080890 <isr_tc7_wrapper>:
   80890:	b538      	push	{r3, r4, r5, lr}
   80892:	4c05      	ldr	r4, [pc, #20]	; (808a8 <isr_tc7_wrapper+0x18>)
   80894:	6925      	ldr	r5, [r4, #16]
   80896:	f7ff fdd9 	bl	8044c <isr_bus_fault>
   8089a:	4904      	ldr	r1, [pc, #16]	; (808ac <isr_tc7_wrapper+0x1c>)
   8089c:	6922      	ldr	r2, [r4, #16]
   8089e:	690b      	ldr	r3, [r1, #16]
   808a0:	4413      	add	r3, r2
   808a2:	1b5b      	subs	r3, r3, r5
   808a4:	610b      	str	r3, [r1, #16]
   808a6:	bd38      	pop	{r3, r4, r5, pc}
   808a8:	40080000 	.word	0x40080000
   808ac:	20070860 	.word	0x20070860

000808b0 <isr_tc8_wrapper>:
   808b0:	b538      	push	{r3, r4, r5, lr}
   808b2:	4c05      	ldr	r4, [pc, #20]	; (808c8 <isr_tc8_wrapper+0x18>)
   808b4:	6925      	ldr	r5, [r4, #16]
   808b6:	f7ff fdc9 	bl	8044c <isr_bus_fault>
   808ba:	4904      	ldr	r1, [pc, #16]	; (808cc <isr_tc8_wrapper+0x1c>)
   808bc:	6922      	ldr	r2, [r4, #16]
   808be:	690b      	ldr	r3, [r1, #16]
   808c0:	4413      	add	r3, r2
   808c2:	1b5b      	subs	r3, r3, r5
   808c4:	610b      	str	r3, [r1, #16]
   808c6:	bd38      	pop	{r3, r4, r5, pc}
   808c8:	40080000 	.word	0x40080000
   808cc:	20070860 	.word	0x20070860

000808d0 <isr_pwm_wrapper>:
   808d0:	b538      	push	{r3, r4, r5, lr}
   808d2:	4c05      	ldr	r4, [pc, #20]	; (808e8 <isr_pwm_wrapper+0x18>)
   808d4:	6925      	ldr	r5, [r4, #16]
   808d6:	f7ff fdb9 	bl	8044c <isr_bus_fault>
   808da:	4904      	ldr	r1, [pc, #16]	; (808ec <isr_pwm_wrapper+0x1c>)
   808dc:	6922      	ldr	r2, [r4, #16]
   808de:	690b      	ldr	r3, [r1, #16]
   808e0:	4413      	add	r3, r2
   808e2:	1b5b      	subs	r3, r3, r5
   808e4:	610b      	str	r3, [r1, #16]
   808e6:	bd38      	pop	{r3, r4, r5, pc}
   808e8:	40080000 	.word	0x40080000
   808ec:	20070860 	.word	0x20070860

000808f0 <isr_adc_wrapper>:
   808f0:	b538      	push	{r3, r4, r5, lr}
   808f2:	4c05      	ldr	r4, [pc, #20]	; (80908 <isr_adc_wrapper+0x18>)
   808f4:	6925      	ldr	r5, [r4, #16]
   808f6:	f000 fbf5 	bl	810e4 <isr_adc>
   808fa:	4904      	ldr	r1, [pc, #16]	; (8090c <isr_adc_wrapper+0x1c>)
   808fc:	6922      	ldr	r2, [r4, #16]
   808fe:	690b      	ldr	r3, [r1, #16]
   80900:	4413      	add	r3, r2
   80902:	1b5b      	subs	r3, r3, r5
   80904:	610b      	str	r3, [r1, #16]
   80906:	bd38      	pop	{r3, r4, r5, pc}
   80908:	40080000 	.word	0x40080000
   8090c:	20070860 	.word	0x20070860

00080910 <isr_dacc_wrapper>:
   80910:	b538      	push	{r3, r4, r5, lr}
   80912:	4c05      	ldr	r4, [pc, #20]	; (80928 <isr_dacc_wrapper+0x18>)
   80914:	6925      	ldr	r5, [r4, #16]
   80916:	f000 fce7 	bl	812e8 <isr_dacc>
   8091a:	4904      	ldr	r1, [pc, #16]	; (8092c <isr_dacc_wrapper+0x1c>)
   8091c:	6922      	ldr	r2, [r4, #16]
   8091e:	690b      	ldr	r3, [r1, #16]
   80920:	4413      	add	r3, r2
   80922:	1b5b      	subs	r3, r3, r5
   80924:	610b      	str	r3, [r1, #16]
   80926:	bd38      	pop	{r3, r4, r5, pc}
   80928:	40080000 	.word	0x40080000
   8092c:	20070860 	.word	0x20070860

00080930 <isr_dmac_wrapper>:
   80930:	b538      	push	{r3, r4, r5, lr}
   80932:	4c05      	ldr	r4, [pc, #20]	; (80948 <isr_dmac_wrapper+0x18>)
   80934:	6925      	ldr	r5, [r4, #16]
   80936:	f7ff fd89 	bl	8044c <isr_bus_fault>
   8093a:	4904      	ldr	r1, [pc, #16]	; (8094c <isr_dmac_wrapper+0x1c>)
   8093c:	6922      	ldr	r2, [r4, #16]
   8093e:	690b      	ldr	r3, [r1, #16]
   80940:	4413      	add	r3, r2
   80942:	1b5b      	subs	r3, r3, r5
   80944:	610b      	str	r3, [r1, #16]
   80946:	bd38      	pop	{r3, r4, r5, pc}
   80948:	40080000 	.word	0x40080000
   8094c:	20070860 	.word	0x20070860

00080950 <isr_uotghs_wrapper>:
   80950:	b538      	push	{r3, r4, r5, lr}
   80952:	4c05      	ldr	r4, [pc, #20]	; (80968 <isr_uotghs_wrapper+0x18>)
   80954:	6925      	ldr	r5, [r4, #16]
   80956:	f002 f8b7 	bl	82ac8 <isr_uotghs>
   8095a:	4904      	ldr	r1, [pc, #16]	; (8096c <isr_uotghs_wrapper+0x1c>)
   8095c:	6922      	ldr	r2, [r4, #16]
   8095e:	690b      	ldr	r3, [r1, #16]
   80960:	4413      	add	r3, r2
   80962:	1b5b      	subs	r3, r3, r5
   80964:	610b      	str	r3, [r1, #16]
   80966:	bd38      	pop	{r3, r4, r5, pc}
   80968:	40080000 	.word	0x40080000
   8096c:	20070860 	.word	0x20070860

00080970 <isr_trng_wrapper>:
   80970:	b538      	push	{r3, r4, r5, lr}
   80972:	4c05      	ldr	r4, [pc, #20]	; (80988 <isr_trng_wrapper+0x18>)
   80974:	6925      	ldr	r5, [r4, #16]
   80976:	f7ff fd69 	bl	8044c <isr_bus_fault>
   8097a:	4904      	ldr	r1, [pc, #16]	; (8098c <isr_trng_wrapper+0x1c>)
   8097c:	6922      	ldr	r2, [r4, #16]
   8097e:	690b      	ldr	r3, [r1, #16]
   80980:	4413      	add	r3, r2
   80982:	1b5b      	subs	r3, r3, r5
   80984:	610b      	str	r3, [r1, #16]
   80986:	bd38      	pop	{r3, r4, r5, pc}
   80988:	40080000 	.word	0x40080000
   8098c:	20070860 	.word	0x20070860

00080990 <isr_emac_wrapper>:
   80990:	b538      	push	{r3, r4, r5, lr}
   80992:	4c05      	ldr	r4, [pc, #20]	; (809a8 <isr_emac_wrapper+0x18>)
   80994:	6925      	ldr	r5, [r4, #16]
   80996:	f7ff fd59 	bl	8044c <isr_bus_fault>
   8099a:	4904      	ldr	r1, [pc, #16]	; (809ac <isr_emac_wrapper+0x1c>)
   8099c:	6922      	ldr	r2, [r4, #16]
   8099e:	690b      	ldr	r3, [r1, #16]
   809a0:	4413      	add	r3, r2
   809a2:	1b5b      	subs	r3, r3, r5
   809a4:	610b      	str	r3, [r1, #16]
   809a6:	bd38      	pop	{r3, r4, r5, pc}
   809a8:	40080000 	.word	0x40080000
   809ac:	20070860 	.word	0x20070860

000809b0 <isr_can0_wrapper>:
   809b0:	b538      	push	{r3, r4, r5, lr}
   809b2:	4c05      	ldr	r4, [pc, #20]	; (809c8 <isr_can0_wrapper+0x18>)
   809b4:	6925      	ldr	r5, [r4, #16]
   809b6:	f001 f819 	bl	819ec <isr_can0>
   809ba:	4904      	ldr	r1, [pc, #16]	; (809cc <isr_can0_wrapper+0x1c>)
   809bc:	6922      	ldr	r2, [r4, #16]
   809be:	690b      	ldr	r3, [r1, #16]
   809c0:	4413      	add	r3, r2
   809c2:	1b5b      	subs	r3, r3, r5
   809c4:	610b      	str	r3, [r1, #16]
   809c6:	bd38      	pop	{r3, r4, r5, pc}
   809c8:	40080000 	.word	0x40080000
   809cc:	20070860 	.word	0x20070860

000809d0 <isr_can1_wrapper>:
   809d0:	b538      	push	{r3, r4, r5, lr}
   809d2:	4c05      	ldr	r4, [pc, #20]	; (809e8 <isr_can1_wrapper+0x18>)
   809d4:	6925      	ldr	r5, [r4, #16]
   809d6:	f001 f80f 	bl	819f8 <isr_can1>
   809da:	4904      	ldr	r1, [pc, #16]	; (809ec <isr_can1_wrapper+0x1c>)
   809dc:	6922      	ldr	r2, [r4, #16]
   809de:	690b      	ldr	r3, [r1, #16]
   809e0:	4413      	add	r3, r2
   809e2:	1b5b      	subs	r3, r3, r5
   809e4:	610b      	str	r3, [r1, #16]
   809e6:	bd38      	pop	{r3, r4, r5, pc}
   809e8:	40080000 	.word	0x40080000
   809ec:	20070860 	.word	0x20070860

000809f0 <isr_reset>:
   809f0:	b5f8      	push	{r3, r4, r5, r6, r7, lr}
   809f2:	4b2f      	ldr	r3, [pc, #188]	; (80ab0 <isr_reset+0xc0>)
   809f4:	f240 4201 	movw	r2, #1025	; 0x401
   809f8:	461f      	mov	r7, r3
   809fa:	4d2e      	ldr	r5, [pc, #184]	; (80ab4 <isr_reset+0xc4>)
   809fc:	4c2e      	ldr	r4, [pc, #184]	; (80ab8 <isr_reset+0xc8>)
   809fe:	482f      	ldr	r0, [pc, #188]	; (80abc <isr_reset+0xcc>)
   80a00:	492f      	ldr	r1, [pc, #188]	; (80ac0 <isr_reset+0xd0>)
   80a02:	f44f 4600 	mov.w	r6, #32768	; 0x8000
   80a06:	606e      	str	r6, [r5, #4]
   80a08:	6022      	str	r2, [r4, #0]
   80a0a:	6002      	str	r2, [r0, #0]
   80a0c:	6219      	str	r1, [r3, #32]
   80a0e:	6eba      	ldr	r2, [r7, #104]	; 0x68
   80a10:	4b27      	ldr	r3, [pc, #156]	; (80ab0 <isr_reset+0xc0>)
   80a12:	07d6      	lsls	r6, r2, #31
   80a14:	d5fb      	bpl.n	80a0e <isr_reset+0x1e>
   80a16:	4619      	mov	r1, r3
   80a18:	4a2a      	ldr	r2, [pc, #168]	; (80ac4 <isr_reset+0xd4>)
   80a1a:	621a      	str	r2, [r3, #32]
   80a1c:	6e8b      	ldr	r3, [r1, #104]	; 0x68
   80a1e:	4a24      	ldr	r2, [pc, #144]	; (80ab0 <isr_reset+0xc0>)
   80a20:	03dd      	lsls	r5, r3, #15
   80a22:	d5fb      	bpl.n	80a1c <isr_reset+0x2c>
   80a24:	4611      	mov	r1, r2
   80a26:	6b13      	ldr	r3, [r2, #48]	; 0x30
   80a28:	f023 0303 	bic.w	r3, r3, #3
   80a2c:	f043 0301 	orr.w	r3, r3, #1
   80a30:	6313      	str	r3, [r2, #48]	; 0x30
   80a32:	6e8a      	ldr	r2, [r1, #104]	; 0x68
   80a34:	4b1e      	ldr	r3, [pc, #120]	; (80ab0 <isr_reset+0xc0>)
   80a36:	0714      	lsls	r4, r2, #28
   80a38:	d5fb      	bpl.n	80a32 <isr_reset+0x42>
   80a3a:	4619      	mov	r1, r3
   80a3c:	4a22      	ldr	r2, [pc, #136]	; (80ac8 <isr_reset+0xd8>)
   80a3e:	629a      	str	r2, [r3, #40]	; 0x28
   80a40:	6e8a      	ldr	r2, [r1, #104]	; 0x68
   80a42:	4b1b      	ldr	r3, [pc, #108]	; (80ab0 <isr_reset+0xc0>)
   80a44:	0790      	lsls	r0, r2, #30
   80a46:	d5fb      	bpl.n	80a40 <isr_reset+0x50>
   80a48:	4619      	mov	r1, r3
   80a4a:	2211      	movs	r2, #17
   80a4c:	631a      	str	r2, [r3, #48]	; 0x30
   80a4e:	6e8a      	ldr	r2, [r1, #104]	; 0x68
   80a50:	4b17      	ldr	r3, [pc, #92]	; (80ab0 <isr_reset+0xc0>)
   80a52:	0712      	lsls	r2, r2, #28
   80a54:	d5fb      	bpl.n	80a4e <isr_reset+0x5e>
   80a56:	4619      	mov	r1, r3
   80a58:	2212      	movs	r2, #18
   80a5a:	631a      	str	r2, [r3, #48]	; 0x30
   80a5c:	6e8b      	ldr	r3, [r1, #104]	; 0x68
   80a5e:	071b      	lsls	r3, r3, #28
   80a60:	d5fc      	bpl.n	80a5c <isr_reset+0x6c>
   80a62:	491a      	ldr	r1, [pc, #104]	; (80acc <isr_reset+0xdc>)
   80a64:	4a1a      	ldr	r2, [pc, #104]	; (80ad0 <isr_reset+0xe0>)
   80a66:	4291      	cmp	r1, r2
   80a68:	d00f      	beq.n	80a8a <isr_reset+0x9a>
   80a6a:	4b1a      	ldr	r3, [pc, #104]	; (80ad4 <isr_reset+0xe4>)
   80a6c:	429a      	cmp	r2, r3
   80a6e:	d20c      	bcs.n	80a8a <isr_reset+0x9a>
   80a70:	43d4      	mvns	r4, r2
   80a72:	4608      	mov	r0, r1
   80a74:	4423      	add	r3, r4
   80a76:	f023 0303 	bic.w	r3, r3, #3
   80a7a:	3304      	adds	r3, #4
   80a7c:	440b      	add	r3, r1
   80a7e:	f850 1b04 	ldr.w	r1, [r0], #4
   80a82:	4298      	cmp	r0, r3
   80a84:	f842 1b04 	str.w	r1, [r2], #4
   80a88:	d1f9      	bne.n	80a7e <isr_reset+0x8e>
   80a8a:	4a13      	ldr	r2, [pc, #76]	; (80ad8 <isr_reset+0xe8>)
   80a8c:	4b13      	ldr	r3, [pc, #76]	; (80adc <isr_reset+0xec>)
   80a8e:	429a      	cmp	r2, r3
   80a90:	d20b      	bcs.n	80aaa <isr_reset+0xba>
   80a92:	43d0      	mvns	r0, r2
   80a94:	4403      	add	r3, r0
   80a96:	f023 0303 	bic.w	r3, r3, #3
   80a9a:	3304      	adds	r3, #4
   80a9c:	4611      	mov	r1, r2
   80a9e:	4413      	add	r3, r2
   80aa0:	2200      	movs	r2, #0
   80aa2:	f841 2b04 	str.w	r2, [r1], #4
   80aa6:	428b      	cmp	r3, r1
   80aa8:	d1fb      	bne.n	80aa2 <isr_reset+0xb2>
   80aaa:	f7ff fb7f 	bl	801ac <main>
   80aae:	e7fe      	b.n	80aae <isr_reset+0xbe>
   80ab0:	400e0600 	.word	0x400e0600
   80ab4:	400e1a50 	.word	0x400e1a50
   80ab8:	400e0a00 	.word	0x400e0a00
   80abc:	400e0c00 	.word	0x400e0c00
   80ac0:	00370809 	.word	0x00370809
   80ac4:	01370809 	.word	0x01370809
   80ac8:	200d3f01 	.word	0x200d3f01
   80acc:	000a1d00 	.word	0x000a1d00
   80ad0:	20070000 	.word	0x20070000
   80ad4:	20070ce8 	.word	0x20070ce8
   80ad8:	20070ce8 	.word	0x20070ce8
   80adc:	20071c28 	.word	0x20071c28

00080ae0 <circular_heap_init>:
   80ae0:	b570      	push	{r4, r5, r6, lr}
   80ae2:	460d      	mov	r5, r1
   80ae4:	4616      	mov	r6, r2
   80ae6:	4604      	mov	r4, r0
   80ae8:	b1b8      	cbz	r0, 80b1a <circular_heap_init+0x3a>
   80aea:	b175      	cbz	r5, 80b0a <circular_heap_init+0x2a>
   80aec:	b936      	cbnz	r6, 80afc <circular_heap_init+0x1c>
   80aee:	4810      	ldr	r0, [pc, #64]	; (80b30 <circular_heap_init+0x50>)
   80af0:	f00c f968 	bl	8cdc4 <std_printf>
   80af4:	4b0f      	ldr	r3, [pc, #60]	; (80b34 <circular_heap_init+0x54>)
   80af6:	2016      	movs	r0, #22
   80af8:	681b      	ldr	r3, [r3, #0]
   80afa:	4798      	blx	r3
   80afc:	442e      	add	r6, r5
   80afe:	6066      	str	r6, [r4, #4]
   80b00:	6025      	str	r5, [r4, #0]
   80b02:	60a5      	str	r5, [r4, #8]
   80b04:	60e5      	str	r5, [r4, #12]
   80b06:	2000      	movs	r0, #0
   80b08:	bd70      	pop	{r4, r5, r6, pc}
   80b0a:	480b      	ldr	r0, [pc, #44]	; (80b38 <circular_heap_init+0x58>)
   80b0c:	f00c f95a 	bl	8cdc4 <std_printf>
   80b10:	4b08      	ldr	r3, [pc, #32]	; (80b34 <circular_heap_init+0x54>)
   80b12:	2016      	movs	r0, #22
   80b14:	681b      	ldr	r3, [r3, #0]
   80b16:	4798      	blx	r3
   80b18:	e7e8      	b.n	80aec <circular_heap_init+0xc>
   80b1a:	4808      	ldr	r0, [pc, #32]	; (80b3c <circular_heap_init+0x5c>)
   80b1c:	f00c f952 	bl	8cdc4 <std_printf>
   80b20:	4b04      	ldr	r3, [pc, #16]	; (80b34 <circular_heap_init+0x54>)
   80b22:	2016      	movs	r0, #22
   80b24:	681b      	ldr	r3, [r3, #0]
   80b26:	4798      	blx	r3
   80b28:	2d00      	cmp	r5, #0
   80b2a:	d1df      	bne.n	80aec <circular_heap_init+0xc>
   80b2c:	e7ed      	b.n	80b0a <circular_heap_init+0x2a>
   80b2e:	bf00      	nop
   80b30:	0008f110 	.word	0x0008f110
   80b34:	20070860 	.word	0x20070860
   80b38:	0008f0b0 	.word	0x0008f0b0
   80b3c:	0008f050 	.word	0x0008f050

00080b40 <circular_heap_alloc>:
   80b40:	b538      	push	{r3, r4, r5, lr}
   80b42:	460c      	mov	r4, r1
   80b44:	4605      	mov	r5, r0
   80b46:	b308      	cbz	r0, 80b8c <circular_heap_alloc+0x4c>
   80b48:	b1c4      	cbz	r4, 80b7c <circular_heap_alloc+0x3c>
   80b4a:	68a8      	ldr	r0, [r5, #8]
   80b4c:	68eb      	ldr	r3, [r5, #12]
   80b4e:	1de1      	adds	r1, r4, #7
   80b50:	f021 4170 	bic.w	r1, r1, #4026531840	; 0xf0000000
   80b54:	4298      	cmp	r0, r3
   80b56:	f021 0103 	bic.w	r1, r1, #3
   80b5a:	d30a      	bcc.n	80b72 <circular_heap_alloc+0x32>
   80b5c:	686a      	ldr	r2, [r5, #4]
   80b5e:	1a12      	subs	r2, r2, r0
   80b60:	4291      	cmp	r1, r2
   80b62:	d205      	bcs.n	80b70 <circular_heap_alloc+0x30>
   80b64:	1843      	adds	r3, r0, r1
   80b66:	60ab      	str	r3, [r5, #8]
   80b68:	b130      	cbz	r0, 80b78 <circular_heap_alloc+0x38>
   80b6a:	f840 1b04 	str.w	r1, [r0], #4
   80b6e:	bd38      	pop	{r3, r4, r5, pc}
   80b70:	6828      	ldr	r0, [r5, #0]
   80b72:	1a1b      	subs	r3, r3, r0
   80b74:	4299      	cmp	r1, r3
   80b76:	d3f5      	bcc.n	80b64 <circular_heap_alloc+0x24>
   80b78:	2000      	movs	r0, #0
   80b7a:	bd38      	pop	{r3, r4, r5, pc}
   80b7c:	4807      	ldr	r0, [pc, #28]	; (80b9c <circular_heap_alloc+0x5c>)
   80b7e:	f00c f921 	bl	8cdc4 <std_printf>
   80b82:	4b07      	ldr	r3, [pc, #28]	; (80ba0 <circular_heap_alloc+0x60>)
   80b84:	2016      	movs	r0, #22
   80b86:	681b      	ldr	r3, [r3, #0]
   80b88:	4798      	blx	r3
   80b8a:	e7de      	b.n	80b4a <circular_heap_alloc+0xa>
   80b8c:	4805      	ldr	r0, [pc, #20]	; (80ba4 <circular_heap_alloc+0x64>)
   80b8e:	f00c f919 	bl	8cdc4 <std_printf>
   80b92:	4b03      	ldr	r3, [pc, #12]	; (80ba0 <circular_heap_alloc+0x60>)
   80b94:	2016      	movs	r0, #22
   80b96:	681b      	ldr	r3, [r3, #0]
   80b98:	4798      	blx	r3
   80b9a:	e7d5      	b.n	80b48 <circular_heap_alloc+0x8>
   80b9c:	0008f1c4 	.word	0x0008f1c4
   80ba0:	20070860 	.word	0x20070860
   80ba4:	0008f164 	.word	0x0008f164

00080ba8 <circular_heap_free>:
   80ba8:	b570      	push	{r4, r5, r6, lr}
   80baa:	460d      	mov	r5, r1
   80bac:	4604      	mov	r4, r0
   80bae:	b378      	cbz	r0, 80c10 <circular_heap_free+0x68>
   80bb0:	2d00      	cmp	r5, #0
   80bb2:	d035      	beq.n	80c20 <circular_heap_free+0x78>
   80bb4:	6823      	ldr	r3, [r4, #0]
   80bb6:	429d      	cmp	r5, r3
   80bb8:	d922      	bls.n	80c00 <circular_heap_free+0x58>
   80bba:	6863      	ldr	r3, [r4, #4]
   80bbc:	429d      	cmp	r5, r3
   80bbe:	d217      	bcs.n	80bf0 <circular_heap_free+0x48>
   80bc0:	68e3      	ldr	r3, [r4, #12]
   80bc2:	1f2e      	subs	r6, r5, #4
   80bc4:	429e      	cmp	r6, r3
   80bc6:	d009      	beq.n	80bdc <circular_heap_free+0x34>
   80bc8:	6823      	ldr	r3, [r4, #0]
   80bca:	429e      	cmp	r6, r3
   80bcc:	d00a      	beq.n	80be4 <circular_heap_free+0x3c>
   80bce:	4818      	ldr	r0, [pc, #96]	; (80c30 <circular_heap_free+0x88>)
   80bd0:	f00c f8f8 	bl	8cdc4 <std_printf>
   80bd4:	4b17      	ldr	r3, [pc, #92]	; (80c34 <circular_heap_free+0x8c>)
   80bd6:	2016      	movs	r0, #22
   80bd8:	681b      	ldr	r3, [r3, #0]
   80bda:	4798      	blx	r3
   80bdc:	6823      	ldr	r3, [r4, #0]
   80bde:	429e      	cmp	r6, r3
   80be0:	bf18      	it	ne
   80be2:	68e6      	ldrne	r6, [r4, #12]
   80be4:	f855 3c04 	ldr.w	r3, [r5, #-4]
   80be8:	2000      	movs	r0, #0
   80bea:	441e      	add	r6, r3
   80bec:	60e6      	str	r6, [r4, #12]
   80bee:	bd70      	pop	{r4, r5, r6, pc}
   80bf0:	4811      	ldr	r0, [pc, #68]	; (80c38 <circular_heap_free+0x90>)
   80bf2:	f00c f8e7 	bl	8cdc4 <std_printf>
   80bf6:	4b0f      	ldr	r3, [pc, #60]	; (80c34 <circular_heap_free+0x8c>)
   80bf8:	2016      	movs	r0, #22
   80bfa:	681b      	ldr	r3, [r3, #0]
   80bfc:	4798      	blx	r3
   80bfe:	e7df      	b.n	80bc0 <circular_heap_free+0x18>
   80c00:	4e0c      	ldr	r6, [pc, #48]	; (80c34 <circular_heap_free+0x8c>)
   80c02:	480e      	ldr	r0, [pc, #56]	; (80c3c <circular_heap_free+0x94>)
   80c04:	f00c f8de 	bl	8cdc4 <std_printf>
   80c08:	6833      	ldr	r3, [r6, #0]
   80c0a:	2016      	movs	r0, #22
   80c0c:	4798      	blx	r3
   80c0e:	e7d4      	b.n	80bba <circular_heap_free+0x12>
   80c10:	4e08      	ldr	r6, [pc, #32]	; (80c34 <circular_heap_free+0x8c>)
   80c12:	480b      	ldr	r0, [pc, #44]	; (80c40 <circular_heap_free+0x98>)
   80c14:	f00c f8d6 	bl	8cdc4 <std_printf>
   80c18:	6833      	ldr	r3, [r6, #0]
   80c1a:	2016      	movs	r0, #22
   80c1c:	4798      	blx	r3
   80c1e:	e7c7      	b.n	80bb0 <circular_heap_free+0x8>
   80c20:	4e04      	ldr	r6, [pc, #16]	; (80c34 <circular_heap_free+0x8c>)
   80c22:	4808      	ldr	r0, [pc, #32]	; (80c44 <circular_heap_free+0x9c>)
   80c24:	f00c f8ce 	bl	8cdc4 <std_printf>
   80c28:	6833      	ldr	r3, [r6, #0]
   80c2a:	2016      	movs	r0, #22
   80c2c:	4798      	blx	r3
   80c2e:	e7e8      	b.n	80c02 <circular_heap_free+0x5a>
   80c30:	0008f3a4 	.word	0x0008f3a4
   80c34:	20070860 	.word	0x20070860
   80c38:	0008f340 	.word	0x0008f340
   80c3c:	0008f2dc 	.word	0x0008f2dc
   80c40:	0008f218 	.word	0x0008f218
   80c44:	0008f27c 	.word	0x0008f27c

00080c48 <circular_buffer_init>:
   80c48:	b570      	push	{r4, r5, r6, lr}
   80c4a:	460e      	mov	r6, r1
   80c4c:	4615      	mov	r5, r2
   80c4e:	4604      	mov	r4, r0
   80c50:	b1e0      	cbz	r0, 80c8c <circular_buffer_init+0x44>
   80c52:	b19e      	cbz	r6, 80c7c <circular_buffer_init+0x34>
   80c54:	b935      	cbnz	r5, 80c64 <circular_buffer_init+0x1c>
   80c56:	4812      	ldr	r0, [pc, #72]	; (80ca0 <circular_buffer_init+0x58>)
   80c58:	f00c f8b4 	bl	8cdc4 <std_printf>
   80c5c:	4b11      	ldr	r3, [pc, #68]	; (80ca4 <circular_buffer_init+0x5c>)
   80c5e:	2016      	movs	r0, #22
   80c60:	681b      	ldr	r3, [r3, #0]
   80c62:	4798      	blx	r3
   80c64:	2000      	movs	r0, #0
   80c66:	6026      	str	r6, [r4, #0]
   80c68:	6065      	str	r5, [r4, #4]
   80c6a:	7220      	strb	r0, [r4, #8]
   80c6c:	7260      	strb	r0, [r4, #9]
   80c6e:	72a0      	strb	r0, [r4, #10]
   80c70:	72e0      	strb	r0, [r4, #11]
   80c72:	7320      	strb	r0, [r4, #12]
   80c74:	7360      	strb	r0, [r4, #13]
   80c76:	73a0      	strb	r0, [r4, #14]
   80c78:	73e0      	strb	r0, [r4, #15]
   80c7a:	bd70      	pop	{r4, r5, r6, pc}
   80c7c:	480a      	ldr	r0, [pc, #40]	; (80ca8 <circular_buffer_init+0x60>)
   80c7e:	f00c f8a1 	bl	8cdc4 <std_printf>
   80c82:	4b08      	ldr	r3, [pc, #32]	; (80ca4 <circular_buffer_init+0x5c>)
   80c84:	2016      	movs	r0, #22
   80c86:	681b      	ldr	r3, [r3, #0]
   80c88:	4798      	blx	r3
   80c8a:	e7e3      	b.n	80c54 <circular_buffer_init+0xc>
   80c8c:	4807      	ldr	r0, [pc, #28]	; (80cac <circular_buffer_init+0x64>)
   80c8e:	f00c f899 	bl	8cdc4 <std_printf>
   80c92:	4b04      	ldr	r3, [pc, #16]	; (80ca4 <circular_buffer_init+0x5c>)
   80c94:	2016      	movs	r0, #22
   80c96:	681b      	ldr	r3, [r3, #0]
   80c98:	4798      	blx	r3
   80c9a:	2e00      	cmp	r6, #0
   80c9c:	d1da      	bne.n	80c54 <circular_buffer_init+0xc>
   80c9e:	e7ed      	b.n	80c7c <circular_buffer_init+0x34>
   80ca0:	0008f500 	.word	0x0008f500
   80ca4:	20070860 	.word	0x20070860
   80ca8:	0008f498 	.word	0x0008f498
   80cac:	0008f430 	.word	0x0008f430

00080cb0 <circular_buffer_unused_size>:
   80cb0:	b510      	push	{r4, lr}
   80cb2:	4604      	mov	r4, r0
   80cb4:	b138      	cbz	r0, 80cc6 <circular_buffer_unused_size+0x16>
   80cb6:	68e2      	ldr	r2, [r4, #12]
   80cb8:	68a0      	ldr	r0, [r4, #8]
   80cba:	1e53      	subs	r3, r2, #1
   80cbc:	1a18      	subs	r0, r3, r0
   80cbe:	bf44      	itt	mi
   80cc0:	6863      	ldrmi	r3, [r4, #4]
   80cc2:	18c0      	addmi	r0, r0, r3
   80cc4:	bd10      	pop	{r4, pc}
   80cc6:	4804      	ldr	r0, [pc, #16]	; (80cd8 <circular_buffer_unused_size+0x28>)
   80cc8:	f00c f87c 	bl	8cdc4 <std_printf>
   80ccc:	4b03      	ldr	r3, [pc, #12]	; (80cdc <circular_buffer_unused_size+0x2c>)
   80cce:	2016      	movs	r0, #22
   80cd0:	681b      	ldr	r3, [r3, #0]
   80cd2:	4798      	blx	r3
   80cd4:	e7ef      	b.n	80cb6 <circular_buffer_unused_size+0x6>
   80cd6:	bf00      	nop
   80cd8:	0008f55c 	.word	0x0008f55c
   80cdc:	20070860 	.word	0x20070860

00080ce0 <circular_buffer_write>:
   80ce0:	e92d 41f0 	stmdb	sp!, {r4, r5, r6, r7, r8, lr}
   80ce4:	460f      	mov	r7, r1
   80ce6:	4615      	mov	r5, r2
   80ce8:	4604      	mov	r4, r0
   80cea:	b340      	cbz	r0, 80d3e <circular_buffer_write+0x5e>
   80cec:	b37f      	cbz	r7, 80d4e <circular_buffer_write+0x6e>
   80cee:	4620      	mov	r0, r4
   80cf0:	f7ff ffde 	bl	80cb0 <circular_buffer_unused_size>
   80cf4:	4285      	cmp	r5, r0
   80cf6:	bf28      	it	cs
   80cf8:	4605      	movcs	r5, r0
   80cfa:	68a3      	ldr	r3, [r4, #8]
   80cfc:	6866      	ldr	r6, [r4, #4]
   80cfe:	6820      	ldr	r0, [r4, #0]
   80d00:	1af6      	subs	r6, r6, r3
   80d02:	42ae      	cmp	r6, r5
   80d04:	d90a      	bls.n	80d1c <circular_buffer_write+0x3c>
   80d06:	4639      	mov	r1, r7
   80d08:	4418      	add	r0, r3
   80d0a:	462a      	mov	r2, r5
   80d0c:	f00d fa98 	bl	8e240 <memcpy>
   80d10:	68a3      	ldr	r3, [r4, #8]
   80d12:	4628      	mov	r0, r5
   80d14:	442b      	add	r3, r5
   80d16:	60a3      	str	r3, [r4, #8]
   80d18:	e8bd 81f0 	ldmia.w	sp!, {r4, r5, r6, r7, r8, pc}
   80d1c:	4632      	mov	r2, r6
   80d1e:	4418      	add	r0, r3
   80d20:	4639      	mov	r1, r7
   80d22:	ebc6 0805 	rsb	r8, r6, r5
   80d26:	f00d fa8b 	bl	8e240 <memcpy>
   80d2a:	19b9      	adds	r1, r7, r6
   80d2c:	4642      	mov	r2, r8
   80d2e:	6820      	ldr	r0, [r4, #0]
   80d30:	f00d fa86 	bl	8e240 <memcpy>
   80d34:	f8c4 8008 	str.w	r8, [r4, #8]
   80d38:	4628      	mov	r0, r5
   80d3a:	e8bd 81f0 	ldmia.w	sp!, {r4, r5, r6, r7, r8, pc}
   80d3e:	4808      	ldr	r0, [pc, #32]	; (80d60 <circular_buffer_write+0x80>)
   80d40:	f00c f840 	bl	8cdc4 <std_printf>
   80d44:	4b07      	ldr	r3, [pc, #28]	; (80d64 <circular_buffer_write+0x84>)
   80d46:	2016      	movs	r0, #22
   80d48:	681b      	ldr	r3, [r3, #0]
   80d4a:	4798      	blx	r3
   80d4c:	e7ce      	b.n	80cec <circular_buffer_write+0xc>
   80d4e:	4806      	ldr	r0, [pc, #24]	; (80d68 <circular_buffer_write+0x88>)
   80d50:	f00c f838 	bl	8cdc4 <std_printf>
   80d54:	4b03      	ldr	r3, [pc, #12]	; (80d64 <circular_buffer_write+0x84>)
   80d56:	2016      	movs	r0, #22
   80d58:	681b      	ldr	r3, [r3, #0]
   80d5a:	4798      	blx	r3
   80d5c:	e7c7      	b.n	80cee <circular_buffer_write+0xe>
   80d5e:	bf00      	nop
   80d60:	0008f5c8 	.word	0x0008f5c8
   80d64:	20070860 	.word	0x20070860
   80d68:	0008f630 	.word	0x0008f630

00080d6c <circular_buffer_used_size>:
   80d6c:	b510      	push	{r4, lr}
   80d6e:	4604      	mov	r4, r0
   80d70:	b130      	cbz	r0, 80d80 <circular_buffer_used_size+0x14>
   80d72:	4620      	mov	r0, r4
   80d74:	6864      	ldr	r4, [r4, #4]
   80d76:	f7ff ff9b 	bl	80cb0 <circular_buffer_unused_size>
   80d7a:	3c01      	subs	r4, #1
   80d7c:	1a20      	subs	r0, r4, r0
   80d7e:	bd10      	pop	{r4, pc}
   80d80:	4803      	ldr	r0, [pc, #12]	; (80d90 <circular_buffer_used_size+0x24>)
   80d82:	f00c f81f 	bl	8cdc4 <std_printf>
   80d86:	4b03      	ldr	r3, [pc, #12]	; (80d94 <circular_buffer_used_size+0x28>)
   80d88:	2016      	movs	r0, #22
   80d8a:	681b      	ldr	r3, [r3, #0]
   80d8c:	4798      	blx	r3
   80d8e:	e7f0      	b.n	80d72 <circular_buffer_used_size+0x6>
   80d90:	0008f698 	.word	0x0008f698
   80d94:	20070860 	.word	0x20070860

00080d98 <circular_buffer_read>:
   80d98:	e92d 41f0 	stmdb	sp!, {r4, r5, r6, r7, r8, lr}
   80d9c:	460f      	mov	r7, r1
   80d9e:	4615      	mov	r5, r2
   80da0:	4604      	mov	r4, r0
   80da2:	b340      	cbz	r0, 80df6 <circular_buffer_read+0x5e>
   80da4:	b37f      	cbz	r7, 80e06 <circular_buffer_read+0x6e>
   80da6:	4620      	mov	r0, r4
   80da8:	f7ff ffe0 	bl	80d6c <circular_buffer_used_size>
   80dac:	4285      	cmp	r5, r0
   80dae:	bf28      	it	cs
   80db0:	4605      	movcs	r5, r0
   80db2:	68e3      	ldr	r3, [r4, #12]
   80db4:	6866      	ldr	r6, [r4, #4]
   80db6:	6821      	ldr	r1, [r4, #0]
   80db8:	1af6      	subs	r6, r6, r3
   80dba:	42ae      	cmp	r6, r5
   80dbc:	d90a      	bls.n	80dd4 <circular_buffer_read+0x3c>
   80dbe:	4419      	add	r1, r3
   80dc0:	4638      	mov	r0, r7
   80dc2:	462a      	mov	r2, r5
   80dc4:	f00d fa3c 	bl	8e240 <memcpy>
   80dc8:	68e3      	ldr	r3, [r4, #12]
   80dca:	4628      	mov	r0, r5
   80dcc:	442b      	add	r3, r5
   80dce:	60e3      	str	r3, [r4, #12]
   80dd0:	e8bd 81f0 	ldmia.w	sp!, {r4, r5, r6, r7, r8, pc}
   80dd4:	4419      	add	r1, r3
   80dd6:	4632      	mov	r2, r6
   80dd8:	ebc6 0805 	rsb	r8, r6, r5
   80ddc:	4638      	mov	r0, r7
   80dde:	f00d fa2f 	bl	8e240 <memcpy>
   80de2:	19b8      	adds	r0, r7, r6
   80de4:	4642      	mov	r2, r8
   80de6:	6821      	ldr	r1, [r4, #0]
   80de8:	f00d fa2a 	bl	8e240 <memcpy>
   80dec:	f8c4 800c 	str.w	r8, [r4, #12]
   80df0:	4628      	mov	r0, r5
   80df2:	e8bd 81f0 	ldmia.w	sp!, {r4, r5, r6, r7, r8, pc}
   80df6:	4808      	ldr	r0, [pc, #32]	; (80e18 <circular_buffer_read+0x80>)
   80df8:	f00b ffe4 	bl	8cdc4 <std_printf>
   80dfc:	4b07      	ldr	r3, [pc, #28]	; (80e1c <circular_buffer_read+0x84>)
   80dfe:	2016      	movs	r0, #22
   80e00:	681b      	ldr	r3, [r3, #0]
   80e02:	4798      	blx	r3
   80e04:	e7ce      	b.n	80da4 <circular_buffer_read+0xc>
   80e06:	4806      	ldr	r0, [pc, #24]	; (80e20 <circular_buffer_read+0x88>)
   80e08:	f00b ffdc 	bl	8cdc4 <std_printf>
   80e0c:	4b03      	ldr	r3, [pc, #12]	; (80e1c <circular_buffer_read+0x84>)
   80e0e:	2016      	movs	r0, #22
   80e10:	681b      	ldr	r3, [r3, #0]
   80e12:	4798      	blx	r3
   80e14:	e7c7      	b.n	80da6 <circular_buffer_read+0xe>
   80e16:	bf00      	nop
   80e18:	0008f704 	.word	0x0008f704
   80e1c:	20070860 	.word	0x20070860
   80e20:	0008f76c 	.word	0x0008f76c

00080e24 <cmd_set_log_mask_cb>:
   80e24:	e92d 41f0 	stmdb	sp!, {r4, r5, r6, r7, r8, lr}
   80e28:	2803      	cmp	r0, #3
   80e2a:	b082      	sub	sp, #8
   80e2c:	4690      	mov	r8, r2
   80e2e:	d121      	bne.n	80e74 <cmd_set_log_mask_cb+0x50>
   80e30:	460c      	mov	r4, r1
   80e32:	a901      	add	r1, sp, #4
   80e34:	68a0      	ldr	r0, [r4, #8]
   80e36:	f00c f9cd 	bl	8d1d4 <std_strtol>
   80e3a:	b350      	cbz	r0, 80e92 <cmd_set_log_mask_cb+0x6e>
   80e3c:	4819      	ldr	r0, [pc, #100]	; (80ea4 <cmd_set_log_mask_cb+0x80>)
   80e3e:	6865      	ldr	r5, [r4, #4]
   80e40:	f00b fb48 	bl	8c4d4 <mutex_lock>
   80e44:	9e01      	ldr	r6, [sp, #4]
   80e46:	4c18      	ldr	r4, [pc, #96]	; (80ea8 <cmd_set_log_mask_cb+0x84>)
   80e48:	f006 061f 	and.w	r6, r6, #31
   80e4c:	2700      	movs	r7, #0
   80e4e:	4629      	mov	r1, r5
   80e50:	6820      	ldr	r0, [r4, #0]
   80e52:	f00d fb85 	bl	8e560 <strcmp>
   80e56:	b908      	cbnz	r0, 80e5c <cmd_set_log_mask_cb+0x38>
   80e58:	7126      	strb	r6, [r4, #4]
   80e5a:	2701      	movs	r7, #1
   80e5c:	f8d4 4005 	ldr.w	r4, [r4, #5]
   80e60:	2c00      	cmp	r4, #0
   80e62:	d1f4      	bne.n	80e4e <cmd_set_log_mask_cb+0x2a>
   80e64:	480f      	ldr	r0, [pc, #60]	; (80ea4 <cmd_set_log_mask_cb+0x80>)
   80e66:	f00b fb57 	bl	8c518 <mutex_unlock>
   80e6a:	4620      	mov	r0, r4
   80e6c:	b14f      	cbz	r7, 80e82 <cmd_set_log_mask_cb+0x5e>
   80e6e:	b002      	add	sp, #8
   80e70:	e8bd 81f0 	ldmia.w	sp!, {r4, r5, r6, r7, r8, pc}
   80e74:	4610      	mov	r0, r2
   80e76:	490d      	ldr	r1, [pc, #52]	; (80eac <cmd_set_log_mask_cb+0x88>)
   80e78:	f00c f868 	bl	8cf4c <std_fprintf>
   80e7c:	f06f 0015 	mvn.w	r0, #21
   80e80:	e7f5      	b.n	80e6e <cmd_set_log_mask_cb+0x4a>
   80e82:	462a      	mov	r2, r5
   80e84:	4640      	mov	r0, r8
   80e86:	490a      	ldr	r1, [pc, #40]	; (80eb0 <cmd_set_log_mask_cb+0x8c>)
   80e88:	f00c f860 	bl	8cf4c <std_fprintf>
   80e8c:	f06f 0015 	mvn.w	r0, #21
   80e90:	e7ed      	b.n	80e6e <cmd_set_log_mask_cb+0x4a>
   80e92:	68a2      	ldr	r2, [r4, #8]
   80e94:	4640      	mov	r0, r8
   80e96:	4907      	ldr	r1, [pc, #28]	; (80eb4 <cmd_set_log_mask_cb+0x90>)
   80e98:	f00c f858 	bl	8cf4c <std_fprintf>
   80e9c:	f06f 0015 	mvn.w	r0, #21
   80ea0:	e7e5      	b.n	80e6e <cmd_set_log_mask_cb+0x4a>
   80ea2:	bf00      	nop
   80ea4:	200711d2 	.word	0x200711d2
   80ea8:	200711c9 	.word	0x200711c9
   80eac:	0008f8cc 	.word	0x0008f8cc
   80eb0:	0008f908 	.word	0x0008f908
   80eb4:	0008f8f4 	.word	0x0008f8f4

00080eb8 <cmd_list_cb>:
   80eb8:	2801      	cmp	r0, #1
   80eba:	b538      	push	{r3, r4, r5, lr}
   80ebc:	4615      	mov	r5, r2
   80ebe:	d116      	bne.n	80eee <cmd_list_cb+0x36>
   80ec0:	480e      	ldr	r0, [pc, #56]	; (80efc <cmd_list_cb+0x44>)
   80ec2:	f00b fb07 	bl	8c4d4 <mutex_lock>
   80ec6:	490e      	ldr	r1, [pc, #56]	; (80f00 <cmd_list_cb+0x48>)
   80ec8:	4628      	mov	r0, r5
   80eca:	f00c f83f 	bl	8cf4c <std_fprintf>
   80ece:	4c0d      	ldr	r4, [pc, #52]	; (80f04 <cmd_list_cb+0x4c>)
   80ed0:	7923      	ldrb	r3, [r4, #4]
   80ed2:	6822      	ldr	r2, [r4, #0]
   80ed4:	490c      	ldr	r1, [pc, #48]	; (80f08 <cmd_list_cb+0x50>)
   80ed6:	4628      	mov	r0, r5
   80ed8:	f00c f838 	bl	8cf4c <std_fprintf>
   80edc:	f8d4 4005 	ldr.w	r4, [r4, #5]
   80ee0:	2c00      	cmp	r4, #0
   80ee2:	d1f5      	bne.n	80ed0 <cmd_list_cb+0x18>
   80ee4:	4805      	ldr	r0, [pc, #20]	; (80efc <cmd_list_cb+0x44>)
   80ee6:	f00b fb17 	bl	8c518 <mutex_unlock>
   80eea:	4620      	mov	r0, r4
   80eec:	bd38      	pop	{r3, r4, r5, pc}
   80eee:	4610      	mov	r0, r2
   80ef0:	4906      	ldr	r1, [pc, #24]	; (80f0c <cmd_list_cb+0x54>)
   80ef2:	f00c f82b 	bl	8cf4c <std_fprintf>
   80ef6:	f06f 0015 	mvn.w	r0, #21
   80efa:	bd38      	pop	{r3, r4, r5, pc}
   80efc:	200711d2 	.word	0x200711d2
   80f00:	0008f938 	.word	0x0008f938
   80f04:	200711c9 	.word	0x200711c9
   80f08:	0008f954 	.word	0x0008f954
   80f0c:	0008f928 	.word	0x0008f928

00080f10 <log_module_init>:
   80f10:	b5f8      	push	{r3, r4, r5, r6, r7, lr}
   80f12:	4c1f      	ldr	r4, [pc, #124]	; (80f90 <log_module_init+0x80>)
   80f14:	f994 3000 	ldrsb.w	r3, [r4]
   80f18:	2b01      	cmp	r3, #1
   80f1a:	d036      	beq.n	80f8a <log_module_init+0x7a>
   80f1c:	4620      	mov	r0, r4
   80f1e:	2301      	movs	r3, #1
   80f20:	f800 3b12 	strb.w	r3, [r0], #18
   80f24:	f00b face 	bl	8c4c4 <mutex_init>
   80f28:	f002 fee2 	bl	83cf0 <sys_get_stdout>
   80f2c:	2500      	movs	r5, #0
   80f2e:	4f19      	ldr	r7, [pc, #100]	; (80f94 <log_module_init+0x84>)
   80f30:	462b      	mov	r3, r5
   80f32:	4a19      	ldr	r2, [pc, #100]	; (80f98 <log_module_init+0x88>)
   80f34:	4919      	ldr	r1, [pc, #100]	; (80f9c <log_module_init+0x8c>)
   80f36:	f8c4 0001 	str.w	r0, [r4, #1]
   80f3a:	260f      	movs	r6, #15
   80f3c:	f104 0017 	add.w	r0, r4, #23
   80f40:	7165      	strb	r5, [r4, #5]
   80f42:	71a5      	strb	r5, [r4, #6]
   80f44:	71e5      	strb	r5, [r4, #7]
   80f46:	7225      	strb	r5, [r4, #8]
   80f48:	81e5      	strh	r5, [r4, #14]
   80f4a:	8225      	strh	r5, [r4, #16]
   80f4c:	f8c4 7009 	str.w	r7, [r4, #9]
   80f50:	7366      	strb	r6, [r4, #13]
   80f52:	f006 fdd7 	bl	87b04 <fs_command_init>
   80f56:	f104 0017 	add.w	r0, r4, #23
   80f5a:	f006 fe07 	bl	87b6c <fs_command_register>
   80f5e:	462b      	mov	r3, r5
   80f60:	4a0f      	ldr	r2, [pc, #60]	; (80fa0 <log_module_init+0x90>)
   80f62:	4910      	ldr	r1, [pc, #64]	; (80fa4 <log_module_init+0x94>)
   80f64:	f104 0027 	add.w	r0, r4, #39	; 0x27
   80f68:	f006 fdcc 	bl	87b04 <fs_command_init>
   80f6c:	f104 0027 	add.w	r0, r4, #39	; 0x27
   80f70:	f006 fdfc 	bl	87b6c <fs_command_register>
   80f74:	462b      	mov	r3, r5
   80f76:	4a0c      	ldr	r2, [pc, #48]	; (80fa8 <log_module_init+0x98>)
   80f78:	490c      	ldr	r1, [pc, #48]	; (80fac <log_module_init+0x9c>)
   80f7a:	f104 0037 	add.w	r0, r4, #55	; 0x37
   80f7e:	f006 fdc1 	bl	87b04 <fs_command_init>
   80f82:	f104 0037 	add.w	r0, r4, #55	; 0x37
   80f86:	f006 fdf1 	bl	87b6c <fs_command_register>
   80f8a:	2000      	movs	r0, #0
   80f8c:	bdf8      	pop	{r3, r4, r5, r6, r7, pc}
   80f8e:	bf00      	nop
   80f90:	200711c0 	.word	0x200711c0
   80f94:	0008f964 	.word	0x0008f964
   80f98:	000810b5 	.word	0x000810b5
   80f9c:	0008f968 	.word	0x0008f968
   80fa0:	00080eb9 	.word	0x00080eb9
   80fa4:	0008f97c 	.word	0x0008f97c
   80fa8:	00080e25 	.word	0x00080e25
   80fac:	0008f98c 	.word	0x0008f98c

00080fb0 <log_set_default_handler_output_channel>:
   80fb0:	4b02      	ldr	r3, [pc, #8]	; (80fbc <log_set_default_handler_output_channel+0xc>)
   80fb2:	f8c3 0001 	str.w	r0, [r3, #1]
   80fb6:	2000      	movs	r0, #0
   80fb8:	4770      	bx	lr
   80fba:	bf00      	nop
   80fbc:	200711c0 	.word	0x200711c0

00080fc0 <log_object_print>:
   80fc0:	b40c      	push	{r2, r3}
   80fc2:	e92d 4ff0 	stmdb	sp!, {r4, r5, r6, r7, r8, r9, sl, fp, lr}
   80fc6:	b08b      	sub	sp, #44	; 0x2c
   80fc8:	9b14      	ldr	r3, [sp, #80]	; 0x50
   80fca:	4604      	mov	r4, r0
   80fcc:	4688      	mov	r8, r1
   80fce:	2b00      	cmp	r3, #0
   80fd0:	d055      	beq.n	8107e <log_object_print+0xbe>
   80fd2:	2c00      	cmp	r4, #0
   80fd4:	d047      	beq.n	81066 <log_object_print+0xa6>
   80fd6:	7923      	ldrb	r3, [r4, #4]
   80fd8:	fa43 f308 	asr.w	r3, r3, r8
   80fdc:	07db      	lsls	r3, r3, #31
   80fde:	d548      	bpl.n	81072 <log_object_print+0xb2>
   80fe0:	6823      	ldr	r3, [r4, #0]
   80fe2:	9305      	str	r3, [sp, #20]
   80fe4:	482b      	ldr	r0, [pc, #172]	; (81094 <log_object_print+0xd4>)
   80fe6:	f00b fa75 	bl	8c4d4 <mutex_lock>
   80fea:	a808      	add	r0, sp, #32
   80fec:	f003 fbec 	bl	847c8 <time_get>
   80ff0:	4d29      	ldr	r5, [pc, #164]	; (81098 <log_object_print+0xd8>)
   80ff2:	f8df a0b8 	ldr.w	sl, [pc, #184]	; 810ac <log_object_print+0xec>
   80ff6:	f8df 90b8 	ldr.w	r9, [pc, #184]	; 810b0 <log_object_print+0xf0>
   80ffa:	2600      	movs	r6, #0
   80ffc:	682c      	ldr	r4, [r5, #0]
   80ffe:	2101      	movs	r1, #1
   81000:	b32c      	cbz	r4, 8104e <log_object_print+0x8e>
   81002:	4620      	mov	r0, r4
   81004:	f00b f9e2 	bl	8c3cc <chan_control>
   81008:	9b09      	ldr	r3, [sp, #36]	; 0x24
   8100a:	f859 1028 	ldr.w	r1, [r9, r8, lsl #2]
   8100e:	fbaa 2303 	umull	r2, r3, sl, r3
   81012:	9f08      	ldr	r7, [sp, #32]
   81014:	9104      	str	r1, [sp, #16]
   81016:	ea4f 4b93 	mov.w	fp, r3, lsr #18
   8101a:	f002 ffc7 	bl	83fac <thrd_get_name>
   8101e:	9904      	ldr	r1, [sp, #16]
   81020:	465b      	mov	r3, fp
   81022:	9100      	str	r1, [sp, #0]
   81024:	9905      	ldr	r1, [sp, #20]
   81026:	9001      	str	r0, [sp, #4]
   81028:	463a      	mov	r2, r7
   8102a:	9102      	str	r1, [sp, #8]
   8102c:	4620      	mov	r0, r4
   8102e:	491b      	ldr	r1, [pc, #108]	; (8109c <log_object_print+0xdc>)
   81030:	f00b ff8c 	bl	8cf4c <std_fprintf>
   81034:	aa0a      	add	r2, sp, #40	; 0x28
   81036:	ab15      	add	r3, sp, #84	; 0x54
   81038:	f842 3d0c 	str.w	r3, [r2, #-12]!
   8103c:	9914      	ldr	r1, [sp, #80]	; 0x50
   8103e:	4620      	mov	r0, r4
   81040:	f00b ffb8 	bl	8cfb4 <std_vfprintf>
   81044:	4620      	mov	r0, r4
   81046:	2102      	movs	r1, #2
   81048:	f00b f9c0 	bl	8c3cc <chan_control>
   8104c:	3601      	adds	r6, #1
   8104e:	686d      	ldr	r5, [r5, #4]
   81050:	2d00      	cmp	r5, #0
   81052:	d1d3      	bne.n	80ffc <log_object_print+0x3c>
   81054:	480f      	ldr	r0, [pc, #60]	; (81094 <log_object_print+0xd4>)
   81056:	f00b fa5f 	bl	8c518 <mutex_unlock>
   8105a:	4630      	mov	r0, r6
   8105c:	b00b      	add	sp, #44	; 0x2c
   8105e:	e8bd 4ff0 	ldmia.w	sp!, {r4, r5, r6, r7, r8, r9, sl, fp, lr}
   81062:	b002      	add	sp, #8
   81064:	4770      	bx	lr
   81066:	f002 ffe3 	bl	84030 <thrd_get_log_mask>
   8106a:	fa40 f008 	asr.w	r0, r0, r8
   8106e:	07c2      	lsls	r2, r0, #31
   81070:	d40d      	bmi.n	8108e <log_object_print+0xce>
   81072:	2000      	movs	r0, #0
   81074:	b00b      	add	sp, #44	; 0x2c
   81076:	e8bd 4ff0 	ldmia.w	sp!, {r4, r5, r6, r7, r8, r9, sl, fp, lr}
   8107a:	b002      	add	sp, #8
   8107c:	4770      	bx	lr
   8107e:	4808      	ldr	r0, [pc, #32]	; (810a0 <log_object_print+0xe0>)
   81080:	f00b fea0 	bl	8cdc4 <std_printf>
   81084:	4b07      	ldr	r3, [pc, #28]	; (810a4 <log_object_print+0xe4>)
   81086:	2016      	movs	r0, #22
   81088:	681b      	ldr	r3, [r3, #0]
   8108a:	4798      	blx	r3
   8108c:	e7a1      	b.n	80fd2 <log_object_print+0x12>
   8108e:	4b06      	ldr	r3, [pc, #24]	; (810a8 <log_object_print+0xe8>)
   81090:	9305      	str	r3, [sp, #20]
   81092:	e7a7      	b.n	80fe4 <log_object_print+0x24>
   81094:	200711d2 	.word	0x200711d2
   81098:	200711c1 	.word	0x200711c1
   8109c:	0008fcd4 	.word	0x0008fcd4
   810a0:	0008fc7c 	.word	0x0008fc7c
   810a4:	20070860 	.word	0x20070860
   810a8:	0008fc74 	.word	0x0008fc74
   810ac:	431bde83 	.word	0x431bde83
   810b0:	0008fd04 	.word	0x0008fd04

000810b4 <cmd_print_cb>:
   810b4:	2802      	cmp	r0, #2
   810b6:	b508      	push	{r3, lr}
   810b8:	d107      	bne.n	810ca <cmd_print_cb+0x16>
   810ba:	684b      	ldr	r3, [r1, #4]
   810bc:	4a06      	ldr	r2, [pc, #24]	; (810d8 <cmd_print_cb+0x24>)
   810be:	2103      	movs	r1, #3
   810c0:	4806      	ldr	r0, [pc, #24]	; (810dc <cmd_print_cb+0x28>)
   810c2:	f7ff ff7d 	bl	80fc0 <log_object_print>
   810c6:	2000      	movs	r0, #0
   810c8:	bd08      	pop	{r3, pc}
   810ca:	4610      	mov	r0, r2
   810cc:	4904      	ldr	r1, [pc, #16]	; (810e0 <cmd_print_cb+0x2c>)
   810ce:	f00b ff3d 	bl	8cf4c <std_fprintf>
   810d2:	f06f 0015 	mvn.w	r0, #21
   810d6:	bd08      	pop	{r3, pc}
   810d8:	00095878 	.word	0x00095878
   810dc:	200711c9 	.word	0x200711c9
   810e0:	0008fcec 	.word	0x0008fcec

000810e4 <isr_adc>:
   810e4:	b4f0      	push	{r4, r5, r6, r7}
   810e6:	4b27      	ldr	r3, [pc, #156]	; (81184 <isr_adc+0xa0>)
   810e8:	2200      	movs	r2, #0
   810ea:	6899      	ldr	r1, [r3, #8]
   810ec:	2401      	movs	r4, #1
   810ee:	69c8      	ldr	r0, [r1, #28]
   810f0:	680e      	ldr	r6, [r1, #0]
   810f2:	720c      	strb	r4, [r1, #8]
   810f4:	724a      	strb	r2, [r1, #9]
   810f6:	728a      	strb	r2, [r1, #10]
   810f8:	72ca      	strb	r2, [r1, #11]
   810fa:	6098      	str	r0, [r3, #8]
   810fc:	68cd      	ldr	r5, [r1, #12]
   810fe:	6833      	ldr	r3, [r6, #0]
   81100:	fa04 f505 	lsl.w	r5, r4, r5
   81104:	615d      	str	r5, [r3, #20]
   81106:	f893 5028 	ldrb.w	r5, [r3, #40]	; 0x28
   8110a:	f883 2028 	strb.w	r2, [r3, #40]	; 0x28
   8110e:	f893 5029 	ldrb.w	r5, [r3, #41]	; 0x29
   81112:	f883 2029 	strb.w	r2, [r3, #41]	; 0x29
   81116:	f893 502a 	ldrb.w	r5, [r3, #42]	; 0x2a
   8111a:	f883 202a 	strb.w	r2, [r3, #42]	; 0x2a
   8111e:	2508      	movs	r5, #8
   81120:	f893 602b 	ldrb.w	r6, [r3, #43]	; 0x2b
   81124:	f883 502b 	strb.w	r5, [r3, #43]	; 0x2b
   81128:	b318      	cbz	r0, 81172 <isr_adc+0x8e>
   8112a:	6803      	ldr	r3, [r0, #0]
   8112c:	6947      	ldr	r7, [r0, #20]
   8112e:	681b      	ldr	r3, [r3, #0]
   81130:	2602      	movs	r6, #2
   81132:	f8c3 7100 	str.w	r7, [r3, #256]	; 0x100
   81136:	6907      	ldr	r7, [r0, #16]
   81138:	f8c3 7104 	str.w	r7, [r3, #260]	; 0x104
   8113c:	68c0      	ldr	r0, [r0, #12]
   8113e:	4084      	lsls	r4, r0
   81140:	611c      	str	r4, [r3, #16]
   81142:	f893 0024 	ldrb.w	r0, [r3, #36]	; 0x24
   81146:	f883 2024 	strb.w	r2, [r3, #36]	; 0x24
   8114a:	f893 0025 	ldrb.w	r0, [r3, #37]	; 0x25
   8114e:	f883 2025 	strb.w	r2, [r3, #37]	; 0x25
   81152:	f893 0026 	ldrb.w	r0, [r3, #38]	; 0x26
   81156:	f883 2026 	strb.w	r2, [r3, #38]	; 0x26
   8115a:	f893 0027 	ldrb.w	r0, [r3, #39]	; 0x27
   8115e:	f883 5027 	strb.w	r5, [r3, #39]	; 0x27
   81162:	7818      	ldrb	r0, [r3, #0]
   81164:	701e      	strb	r6, [r3, #0]
   81166:	7858      	ldrb	r0, [r3, #1]
   81168:	705a      	strb	r2, [r3, #1]
   8116a:	7898      	ldrb	r0, [r3, #2]
   8116c:	709a      	strb	r2, [r3, #2]
   8116e:	78d8      	ldrb	r0, [r3, #3]
   81170:	70da      	strb	r2, [r3, #3]
   81172:	6988      	ldr	r0, [r1, #24]
   81174:	b118      	cbz	r0, 8117e <isr_adc+0x9a>
   81176:	bcf0      	pop	{r4, r5, r6, r7}
   81178:	2100      	movs	r1, #0
   8117a:	f003 b9a9 	b.w	844d0 <thrd_resume_isr>
   8117e:	bcf0      	pop	{r4, r5, r6, r7}
   81180:	4770      	bx	lr
   81182:	bf00      	nop
   81184:	20070488 	.word	0x20070488

00081188 <adc_module_init>:
   81188:	4b51      	ldr	r3, [pc, #324]	; (812d0 <adc_module_init+0x148>)
   8118a:	f993 2000 	ldrsb.w	r2, [r3]
   8118e:	2a01      	cmp	r2, #1
   81190:	f000 8088 	beq.w	812a4 <adc_module_init+0x11c>
   81194:	b5f0      	push	{r4, r5, r6, r7, lr}
   81196:	4d4f      	ldr	r5, [pc, #316]	; (812d4 <adc_module_init+0x14c>)
   81198:	2101      	movs	r1, #1
   8119a:	69aa      	ldr	r2, [r5, #24]
   8119c:	7019      	strb	r1, [r3, #0]
   8119e:	2a1f      	cmp	r2, #31
   811a0:	dd76      	ble.n	81290 <adc_module_init+0x108>
   811a2:	f002 021f 	and.w	r2, r2, #31
   811a6:	4b4c      	ldr	r3, [pc, #304]	; (812d8 <adc_module_init+0x150>)
   811a8:	fa01 f202 	lsl.w	r2, r1, r2
   811ac:	f8c3 2100 	str.w	r2, [r3, #256]	; 0x100
   811b0:	6969      	ldr	r1, [r5, #20]
   811b2:	f8d5 e010 	ldr.w	lr, [r5, #16]
   811b6:	018f      	lsls	r7, r1, #6
   811b8:	eb0e 0307 	add.w	r3, lr, r7
   811bc:	2601      	movs	r6, #1
   811be:	791a      	ldrb	r2, [r3, #4]
   811c0:	711e      	strb	r6, [r3, #4]
   811c2:	f06f 023f 	mvn.w	r2, #63	; 0x3f
   811c6:	7958      	ldrb	r0, [r3, #5]
   811c8:	715a      	strb	r2, [r3, #5]
   811ca:	2009      	movs	r0, #9
   811cc:	799a      	ldrb	r2, [r3, #6]
   811ce:	7198      	strb	r0, [r3, #6]
   811d0:	2200      	movs	r2, #0
   811d2:	79d8      	ldrb	r0, [r3, #7]
   811d4:	71da      	strb	r2, [r3, #7]
   811d6:	200d      	movs	r0, #13
   811d8:	f893 c014 	ldrb.w	ip, [r3, #20]
   811dc:	7518      	strb	r0, [r3, #20]
   811de:	2002      	movs	r0, #2
   811e0:	f893 c015 	ldrb.w	ip, [r3, #21]
   811e4:	7558      	strb	r0, [r3, #21]
   811e6:	7d98      	ldrb	r0, [r3, #22]
   811e8:	759a      	strb	r2, [r3, #22]
   811ea:	7dd8      	ldrb	r0, [r3, #23]
   811ec:	241a      	movs	r4, #26
   811ee:	75da      	strb	r2, [r3, #23]
   811f0:	f893 c01c 	ldrb.w	ip, [r3, #28]
   811f4:	771c      	strb	r4, [r3, #28]
   811f6:	2404      	movs	r4, #4
   811f8:	f893 c01d 	ldrb.w	ip, [r3, #29]
   811fc:	775c      	strb	r4, [r3, #29]
   811fe:	7f9c      	ldrb	r4, [r3, #30]
   81200:	779a      	strb	r2, [r3, #30]
   81202:	7fdc      	ldrb	r4, [r3, #31]
   81204:	77da      	strb	r2, [r3, #31]
   81206:	2405      	movs	r4, #5
   81208:	f81e 0007 	ldrb.w	r0, [lr, r7]
   8120c:	f80e 4007 	strb.w	r4, [lr, r7]
   81210:	7858      	ldrb	r0, [r3, #1]
   81212:	705a      	strb	r2, [r3, #1]
   81214:	7898      	ldrb	r0, [r3, #2]
   81216:	709a      	strb	r2, [r3, #2]
   81218:	78d8      	ldrb	r0, [r3, #3]
   8121a:	70da      	strb	r2, [r3, #3]
   8121c:	686a      	ldr	r2, [r5, #4]
   8121e:	2a1f      	cmp	r2, #31
   81220:	dd42      	ble.n	812a8 <adc_module_init+0x120>
   81222:	f002 031f 	and.w	r3, r2, #31
   81226:	409e      	lsls	r6, r3
   81228:	4630      	mov	r0, r6
   8122a:	4b2b      	ldr	r3, [pc, #172]	; (812d8 <adc_module_init+0x150>)
   8122c:	f8c3 6100 	str.w	r6, [r3, #256]	; 0x100
   81230:	2a00      	cmp	r2, #0
   81232:	bfb8      	it	lt
   81234:	321f      	addlt	r2, #31
   81236:	1152      	asrs	r2, r2, #5
   81238:	0092      	lsls	r2, r2, #2
   8123a:	f102 4260 	add.w	r2, r2, #3758096384	; 0xe0000000
   8123e:	682b      	ldr	r3, [r5, #0]
   81240:	f502 4261 	add.w	r2, r2, #57600	; 0xe100
   81244:	f8c2 0180 	str.w	r0, [r2, #384]	; 0x180
   81248:	2401      	movs	r4, #1
   8124a:	6010      	str	r0, [r2, #0]
   8124c:	3101      	adds	r1, #1
   8124e:	781a      	ldrb	r2, [r3, #0]
   81250:	40a1      	lsls	r1, r4
   81252:	701c      	strb	r4, [r3, #0]
   81254:	2200      	movs	r2, #0
   81256:	4821      	ldr	r0, [pc, #132]	; (812dc <adc_module_init+0x154>)
   81258:	785d      	ldrb	r5, [r3, #1]
   8125a:	f001 010e 	and.w	r1, r1, #14
   8125e:	705a      	strb	r2, [r3, #1]
   81260:	4308      	orrs	r0, r1
   81262:	7899      	ldrb	r1, [r3, #2]
   81264:	709a      	strb	r2, [r3, #2]
   81266:	78d9      	ldrb	r1, [r3, #3]
   81268:	70da      	strb	r2, [r3, #3]
   8126a:	6058      	str	r0, [r3, #4]
   8126c:	f893 1120 	ldrb.w	r1, [r3, #288]	; 0x120
   81270:	f883 4120 	strb.w	r4, [r3, #288]	; 0x120
   81274:	f893 1121 	ldrb.w	r1, [r3, #289]	; 0x121
   81278:	f883 2121 	strb.w	r2, [r3, #289]	; 0x121
   8127c:	f893 1122 	ldrb.w	r1, [r3, #290]	; 0x122
   81280:	f883 2122 	strb.w	r2, [r3, #290]	; 0x122
   81284:	f893 1123 	ldrb.w	r1, [r3, #291]	; 0x123
   81288:	2000      	movs	r0, #0
   8128a:	f883 2123 	strb.w	r2, [r3, #291]	; 0x123
   8128e:	bdf0      	pop	{r4, r5, r6, r7, pc}
   81290:	4b13      	ldr	r3, [pc, #76]	; (812e0 <adc_module_init+0x158>)
   81292:	4013      	ands	r3, r2
   81294:	2b00      	cmp	r3, #0
   81296:	db16      	blt.n	812c6 <adc_module_init+0x13e>
   81298:	2201      	movs	r2, #1
   8129a:	490f      	ldr	r1, [pc, #60]	; (812d8 <adc_module_init+0x150>)
   8129c:	fa02 f303 	lsl.w	r3, r2, r3
   812a0:	610b      	str	r3, [r1, #16]
   812a2:	e785      	b.n	811b0 <adc_module_init+0x28>
   812a4:	2000      	movs	r0, #0
   812a6:	4770      	bx	lr
   812a8:	480d      	ldr	r0, [pc, #52]	; (812e0 <adc_module_init+0x158>)
   812aa:	4010      	ands	r0, r2
   812ac:	2800      	cmp	r0, #0
   812ae:	db05      	blt.n	812bc <adc_module_init+0x134>
   812b0:	2301      	movs	r3, #1
   812b2:	4c09      	ldr	r4, [pc, #36]	; (812d8 <adc_module_init+0x150>)
   812b4:	fa03 f000 	lsl.w	r0, r3, r0
   812b8:	6120      	str	r0, [r4, #16]
   812ba:	e7b9      	b.n	81230 <adc_module_init+0xa8>
   812bc:	3801      	subs	r0, #1
   812be:	f060 001f 	orn	r0, r0, #31
   812c2:	4430      	add	r0, r6
   812c4:	e7f4      	b.n	812b0 <adc_module_init+0x128>
   812c6:	3b01      	subs	r3, #1
   812c8:	f063 031f 	orn	r3, r3, #31
   812cc:	440b      	add	r3, r1
   812ce:	e7e3      	b.n	81298 <adc_module_init+0x110>
   812d0:	20071208 	.word	0x20071208
   812d4:	20070488 	.word	0x20070488
   812d8:	400e0600 	.word	0x400e0600
   812dc:	08080001 	.word	0x08080001
   812e0:	8000001f 	.word	0x8000001f

000812e4 <analog_input_pin_module_init>:
   812e4:	f7ff bf50 	b.w	81188 <adc_module_init>

000812e8 <isr_dacc>:
   812e8:	b570      	push	{r4, r5, r6, lr}
   812ea:	4e36      	ldr	r6, [pc, #216]	; (813c4 <isr_dacc+0xdc>)
   812ec:	68b4      	ldr	r4, [r6, #8]
   812ee:	6922      	ldr	r2, [r4, #16]
   812f0:	b172      	cbz	r2, 81310 <isr_dacc+0x28>
   812f2:	6823      	ldr	r3, [r4, #0]
   812f4:	68e0      	ldr	r0, [r4, #12]
   812f6:	6819      	ldr	r1, [r3, #0]
   812f8:	2300      	movs	r3, #0
   812fa:	f8c1 0118 	str.w	r0, [r1, #280]	; 0x118
   812fe:	f8c1 211c 	str.w	r2, [r1, #284]	; 0x11c
   81302:	69a5      	ldr	r5, [r4, #24]
   81304:	7423      	strb	r3, [r4, #16]
   81306:	7463      	strb	r3, [r4, #17]
   81308:	74a3      	strb	r3, [r4, #18]
   8130a:	74e3      	strb	r3, [r4, #19]
   8130c:	2d00      	cmp	r5, #0
   8130e:	d045      	beq.n	8139c <isr_dacc+0xb4>
   81310:	6833      	ldr	r3, [r6, #0]
   81312:	6b1b      	ldr	r3, [r3, #48]	; 0x30
   81314:	071b      	lsls	r3, r3, #28
   81316:	d540      	bpl.n	8139a <isr_dacc+0xb2>
   81318:	6823      	ldr	r3, [r4, #0]
   8131a:	220c      	movs	r2, #12
   8131c:	681b      	ldr	r3, [r3, #0]
   8131e:	2500      	movs	r5, #0
   81320:	f893 1028 	ldrb.w	r1, [r3, #40]	; 0x28
   81324:	f883 2028 	strb.w	r2, [r3, #40]	; 0x28
   81328:	f893 2029 	ldrb.w	r2, [r3, #41]	; 0x29
   8132c:	f883 5029 	strb.w	r5, [r3, #41]	; 0x29
   81330:	f893 202a 	ldrb.w	r2, [r3, #42]	; 0x2a
   81334:	f883 502a 	strb.w	r5, [r3, #42]	; 0x2a
   81338:	f893 202b 	ldrb.w	r2, [r3, #43]	; 0x2b
   8133c:	f883 502b 	strb.w	r5, [r3, #43]	; 0x2b
   81340:	68a2      	ldr	r2, [r4, #8]
   81342:	615a      	str	r2, [r3, #20]
   81344:	69a3      	ldr	r3, [r4, #24]
   81346:	2b01      	cmp	r3, #1
   81348:	d033      	beq.n	813b2 <isr_dacc+0xca>
   8134a:	2302      	movs	r3, #2
   8134c:	7665      	strb	r5, [r4, #25]
   8134e:	76a5      	strb	r5, [r4, #26]
   81350:	76e5      	strb	r5, [r4, #27]
   81352:	7623      	strb	r3, [r4, #24]
   81354:	69e2      	ldr	r2, [r4, #28]
   81356:	60b2      	str	r2, [r6, #8]
   81358:	b1fa      	cbz	r2, 8139a <isr_dacc+0xb2>
   8135a:	6813      	ldr	r3, [r2, #0]
   8135c:	200c      	movs	r0, #12
   8135e:	681b      	ldr	r3, [r3, #0]
   81360:	2100      	movs	r1, #0
   81362:	f893 4024 	ldrb.w	r4, [r3, #36]	; 0x24
   81366:	f883 0024 	strb.w	r0, [r3, #36]	; 0x24
   8136a:	f893 0025 	ldrb.w	r0, [r3, #37]	; 0x25
   8136e:	f883 1025 	strb.w	r1, [r3, #37]	; 0x25
   81372:	f893 0026 	ldrb.w	r0, [r3, #38]	; 0x26
   81376:	f883 1026 	strb.w	r1, [r3, #38]	; 0x26
   8137a:	f893 0027 	ldrb.w	r0, [r3, #39]	; 0x27
   8137e:	f883 1027 	strb.w	r1, [r3, #39]	; 0x27
   81382:	6890      	ldr	r0, [r2, #8]
   81384:	6118      	str	r0, [r3, #16]
   81386:	68d0      	ldr	r0, [r2, #12]
   81388:	f8c3 0118 	str.w	r0, [r3, #280]	; 0x118
   8138c:	6910      	ldr	r0, [r2, #16]
   8138e:	f8c3 011c 	str.w	r0, [r3, #284]	; 0x11c
   81392:	7411      	strb	r1, [r2, #16]
   81394:	7451      	strb	r1, [r2, #17]
   81396:	7491      	strb	r1, [r2, #18]
   81398:	74d1      	strb	r1, [r2, #19]
   8139a:	bd70      	pop	{r4, r5, r6, pc}
   8139c:	6960      	ldr	r0, [r4, #20]
   8139e:	2800      	cmp	r0, #0
   813a0:	d0b6      	beq.n	81310 <isr_dacc+0x28>
   813a2:	4629      	mov	r1, r5
   813a4:	f003 f894 	bl	844d0 <thrd_resume_isr>
   813a8:	7525      	strb	r5, [r4, #20]
   813aa:	7565      	strb	r5, [r4, #21]
   813ac:	75a5      	strb	r5, [r4, #22]
   813ae:	75e5      	strb	r5, [r4, #23]
   813b0:	e7ae      	b.n	81310 <isr_dacc+0x28>
   813b2:	4629      	mov	r1, r5
   813b4:	6960      	ldr	r0, [r4, #20]
   813b6:	f003 f88b 	bl	844d0 <thrd_resume_isr>
   813ba:	7525      	strb	r5, [r4, #20]
   813bc:	7565      	strb	r5, [r4, #21]
   813be:	75a5      	strb	r5, [r4, #22]
   813c0:	75e5      	strb	r5, [r4, #23]
   813c2:	e7c7      	b.n	81354 <isr_dacc+0x6c>
   813c4:	20070000 	.word	0x20070000

000813c8 <dac_module_init>:
   813c8:	4b04      	ldr	r3, [pc, #16]	; (813dc <dac_module_init+0x14>)
   813ca:	2000      	movs	r0, #0
   813cc:	f993 2000 	ldrsb.w	r2, [r3]
   813d0:	2a01      	cmp	r2, #1
   813d2:	bf1c      	itt	ne
   813d4:	2201      	movne	r2, #1
   813d6:	701a      	strbne	r2, [r3, #0]
   813d8:	4770      	bx	lr
   813da:	bf00      	nop
   813dc:	2007120c 	.word	0x2007120c

000813e0 <isr_pioa>:
   813e0:	e92d 41f0 	stmdb	sp!, {r4, r5, r6, r7, r8, lr}
   813e4:	4b0d      	ldr	r3, [pc, #52]	; (8141c <isr_pioa+0x3c>)
   813e6:	4c0e      	ldr	r4, [pc, #56]	; (81420 <isr_pioa+0x40>)
   813e8:	f8d3 804c 	ldr.w	r8, [r3, #76]	; 0x4c
   813ec:	f104 07f0 	add.w	r7, r4, #240	; 0xf0
   813f0:	2500      	movs	r5, #0
   813f2:	2601      	movs	r6, #1
   813f4:	fa06 f305 	lsl.w	r3, r6, r5
   813f8:	ea13 0f08 	tst.w	r3, r8
   813fc:	f105 0501 	add.w	r5, r5, #1
   81400:	d006      	beq.n	81410 <isr_pioa+0x30>
   81402:	6823      	ldr	r3, [r4, #0]
   81404:	b123      	cbz	r3, 81410 <isr_pioa+0x30>
   81406:	f8d3 2005 	ldr.w	r2, [r3, #5]
   8140a:	f8d3 0009 	ldr.w	r0, [r3, #9]
   8140e:	4790      	blx	r2
   81410:	3408      	adds	r4, #8
   81412:	42bc      	cmp	r4, r7
   81414:	d1ee      	bne.n	813f4 <isr_pioa+0x14>
   81416:	e8bd 81f0 	ldmia.w	sp!, {r4, r5, r6, r7, r8, pc}
   8141a:	bf00      	nop
   8141c:	400e0e00 	.word	0x400e0e00
   81420:	200700ac 	.word	0x200700ac

00081424 <isr_piob>:
   81424:	e92d 41f0 	stmdb	sp!, {r4, r5, r6, r7, r8, lr}
   81428:	4b0d      	ldr	r3, [pc, #52]	; (81460 <isr_piob+0x3c>)
   8142a:	4c0e      	ldr	r4, [pc, #56]	; (81464 <isr_piob+0x40>)
   8142c:	f8d3 804c 	ldr.w	r8, [r3, #76]	; 0x4c
   81430:	f504 7780 	add.w	r7, r4, #256	; 0x100
   81434:	2500      	movs	r5, #0
   81436:	2601      	movs	r6, #1
   81438:	fa06 f305 	lsl.w	r3, r6, r5
   8143c:	ea13 0f08 	tst.w	r3, r8
   81440:	f105 0501 	add.w	r5, r5, #1
   81444:	d006      	beq.n	81454 <isr_piob+0x30>
   81446:	6823      	ldr	r3, [r4, #0]
   81448:	b123      	cbz	r3, 81454 <isr_piob+0x30>
   8144a:	f8d3 2005 	ldr.w	r2, [r3, #5]
   8144e:	f8d3 0009 	ldr.w	r0, [r3, #9]
   81452:	4790      	blx	r2
   81454:	3408      	adds	r4, #8
   81456:	42bc      	cmp	r4, r7
   81458:	d1ee      	bne.n	81438 <isr_piob+0x14>
   8145a:	e8bd 81f0 	ldmia.w	sp!, {r4, r5, r6, r7, r8, pc}
   8145e:	bf00      	nop
   81460:	400e1000 	.word	0x400e1000
   81464:	2007019c 	.word	0x2007019c

00081468 <isr_pioc>:
   81468:	e92d 41f0 	stmdb	sp!, {r4, r5, r6, r7, r8, lr}
   8146c:	4b0d      	ldr	r3, [pc, #52]	; (814a4 <isr_pioc+0x3c>)
   8146e:	4c0e      	ldr	r4, [pc, #56]	; (814a8 <isr_pioc+0x40>)
   81470:	f8d3 804c 	ldr.w	r8, [r3, #76]	; 0x4c
   81474:	f104 07f8 	add.w	r7, r4, #248	; 0xf8
   81478:	2500      	movs	r5, #0
   8147a:	2601      	movs	r6, #1
   8147c:	fa06 f305 	lsl.w	r3, r6, r5
   81480:	ea13 0f08 	tst.w	r3, r8
   81484:	f105 0501 	add.w	r5, r5, #1
   81488:	d006      	beq.n	81498 <isr_pioc+0x30>
   8148a:	6823      	ldr	r3, [r4, #0]
   8148c:	b123      	cbz	r3, 81498 <isr_pioc+0x30>
   8148e:	f8d3 2005 	ldr.w	r2, [r3, #5]
   81492:	f8d3 0009 	ldr.w	r0, [r3, #9]
   81496:	4790      	blx	r2
   81498:	3408      	adds	r4, #8
   8149a:	42bc      	cmp	r4, r7
   8149c:	d1ee      	bne.n	8147c <isr_pioc+0x14>
   8149e:	e8bd 81f0 	ldmia.w	sp!, {r4, r5, r6, r7, r8, pc}
   814a2:	bf00      	nop
   814a4:	400e1200 	.word	0x400e1200
   814a8:	2007029c 	.word	0x2007029c

000814ac <isr_piod>:
   814ac:	b5f8      	push	{r3, r4, r5, r6, r7, lr}
   814ae:	4b0b      	ldr	r3, [pc, #44]	; (814dc <isr_piod+0x30>)
   814b0:	4d0b      	ldr	r5, [pc, #44]	; (814e0 <isr_piod+0x34>)
   814b2:	6cdf      	ldr	r7, [r3, #76]	; 0x4c
   814b4:	2400      	movs	r4, #0
   814b6:	2601      	movs	r6, #1
   814b8:	fa06 f304 	lsl.w	r3, r6, r4
   814bc:	423b      	tst	r3, r7
   814be:	f104 0401 	add.w	r4, r4, #1
   814c2:	d006      	beq.n	814d2 <isr_piod+0x26>
   814c4:	682b      	ldr	r3, [r5, #0]
   814c6:	b123      	cbz	r3, 814d2 <isr_piod+0x26>
   814c8:	f8d3 2005 	ldr.w	r2, [r3, #5]
   814cc:	f8d3 0009 	ldr.w	r0, [r3, #9]
   814d0:	4790      	blx	r2
   814d2:	2c0a      	cmp	r4, #10
   814d4:	f105 0508 	add.w	r5, r5, #8
   814d8:	d1ee      	bne.n	814b8 <isr_piod+0xc>
   814da:	bdf8      	pop	{r3, r4, r5, r6, r7, pc}
   814dc:	400e1400 	.word	0x400e1400
   814e0:	20070394 	.word	0x20070394

000814e4 <exti_module_init>:
   814e4:	b4f0      	push	{r4, r5, r6, r7}
   814e6:	4e12      	ldr	r6, [pc, #72]	; (81530 <exti_module_init+0x4c>)
   814e8:	f996 3000 	ldrsb.w	r3, [r6]
   814ec:	2b01      	cmp	r3, #1
   814ee:	d01b      	beq.n	81528 <exti_module_init+0x44>
   814f0:	4b10      	ldr	r3, [pc, #64]	; (81534 <exti_module_init+0x50>)
   814f2:	4a11      	ldr	r2, [pc, #68]	; (81538 <exti_module_init+0x54>)
   814f4:	f44f 6500 	mov.w	r5, #2048	; 0x800
   814f8:	f44f 5480 	mov.w	r4, #4096	; 0x1000
   814fc:	f44f 5000 	mov.w	r0, #8192	; 0x2000
   81500:	f44f 4180 	mov.w	r1, #16384	; 0x4000
   81504:	2701      	movs	r7, #1
   81506:	7037      	strb	r7, [r6, #0]
   81508:	6115      	str	r5, [r2, #16]
   8150a:	f8c3 5180 	str.w	r5, [r3, #384]	; 0x180
   8150e:	601d      	str	r5, [r3, #0]
   81510:	6114      	str	r4, [r2, #16]
   81512:	f8c3 4180 	str.w	r4, [r3, #384]	; 0x180
   81516:	601c      	str	r4, [r3, #0]
   81518:	6110      	str	r0, [r2, #16]
   8151a:	f8c3 0180 	str.w	r0, [r3, #384]	; 0x180
   8151e:	6018      	str	r0, [r3, #0]
   81520:	6111      	str	r1, [r2, #16]
   81522:	f8c3 1180 	str.w	r1, [r3, #384]	; 0x180
   81526:	6019      	str	r1, [r3, #0]
   81528:	2000      	movs	r0, #0
   8152a:	bcf0      	pop	{r4, r5, r6, r7}
   8152c:	4770      	bx	lr
   8152e:	bf00      	nop
   81530:	20071210 	.word	0x20071210
   81534:	e000e100 	.word	0xe000e100
   81538:	400e0600 	.word	0x400e0600

0008153c <cmd_read_cb>:
   8153c:	2802      	cmp	r0, #2
   8153e:	b570      	push	{r4, r5, r6, lr}
   81540:	4615      	mov	r5, r2
   81542:	d11a      	bne.n	8157a <cmd_read_cb+0x3e>
   81544:	6848      	ldr	r0, [r1, #4]
   81546:	460e      	mov	r6, r1
   81548:	f7fe fe60 	bl	8020c <board_pin_string_to_device_index>
   8154c:	1e04      	subs	r4, r0, #0
   8154e:	db1b      	blt.n	81588 <cmd_read_cb+0x4c>
   81550:	4811      	ldr	r0, [pc, #68]	; (81598 <cmd_read_cb+0x5c>)
   81552:	f850 3034 	ldr.w	r3, [r0, r4, lsl #3]
   81556:	eb00 02c4 	add.w	r2, r0, r4, lsl #3
   8155a:	6bd8      	ldr	r0, [r3, #60]	; 0x3c
   8155c:	6853      	ldr	r3, [r2, #4]
   8155e:	ea13 0400 	ands.w	r4, r3, r0
   81562:	4628      	mov	r0, r5
   81564:	d104      	bne.n	81570 <cmd_read_cb+0x34>
   81566:	490d      	ldr	r1, [pc, #52]	; (8159c <cmd_read_cb+0x60>)
   81568:	f00b fcf0 	bl	8cf4c <std_fprintf>
   8156c:	4620      	mov	r0, r4
   8156e:	bd70      	pop	{r4, r5, r6, pc}
   81570:	490b      	ldr	r1, [pc, #44]	; (815a0 <cmd_read_cb+0x64>)
   81572:	f00b fceb 	bl	8cf4c <std_fprintf>
   81576:	2000      	movs	r0, #0
   81578:	bd70      	pop	{r4, r5, r6, pc}
   8157a:	4610      	mov	r0, r2
   8157c:	4909      	ldr	r1, [pc, #36]	; (815a4 <cmd_read_cb+0x68>)
   8157e:	f00b fce5 	bl	8cf4c <std_fprintf>
   81582:	f06f 0015 	mvn.w	r0, #21
   81586:	bd70      	pop	{r4, r5, r6, pc}
   81588:	6872      	ldr	r2, [r6, #4]
   8158a:	4628      	mov	r0, r5
   8158c:	4906      	ldr	r1, [pc, #24]	; (815a8 <cmd_read_cb+0x6c>)
   8158e:	f00b fcdd 	bl	8cf4c <std_fprintf>
   81592:	4620      	mov	r0, r4
   81594:	bd70      	pop	{r4, r5, r6, pc}
   81596:	bf00      	nop
   81598:	20070528 	.word	0x20070528
   8159c:	0008fd4c 	.word	0x0008fd4c
   815a0:	0008fd44 	.word	0x0008fd44
   815a4:	0008fd20 	.word	0x0008fd20
   815a8:	0008fd34 	.word	0x0008fd34

000815ac <cmd_write_cb>:
   815ac:	2803      	cmp	r0, #3
   815ae:	b570      	push	{r4, r5, r6, lr}
   815b0:	4616      	mov	r6, r2
   815b2:	d120      	bne.n	815f6 <cmd_write_cb+0x4a>
   815b4:	6848      	ldr	r0, [r1, #4]
   815b6:	460c      	mov	r4, r1
   815b8:	f7fe fe28 	bl	8020c <board_pin_string_to_device_index>
   815bc:	1e05      	subs	r5, r0, #0
   815be:	db21      	blt.n	81604 <cmd_write_cb+0x58>
   815c0:	68a4      	ldr	r4, [r4, #8]
   815c2:	4918      	ldr	r1, [pc, #96]	; (81624 <cmd_write_cb+0x78>)
   815c4:	4620      	mov	r0, r4
   815c6:	f00c ffcb 	bl	8e560 <strcmp>
   815ca:	b160      	cbz	r0, 815e6 <cmd_write_cb+0x3a>
   815cc:	4916      	ldr	r1, [pc, #88]	; (81628 <cmd_write_cb+0x7c>)
   815ce:	4620      	mov	r0, r4
   815d0:	f00c ffc6 	bl	8e560 <strcmp>
   815d4:	b9e8      	cbnz	r0, 81612 <cmd_write_cb+0x66>
   815d6:	4b15      	ldr	r3, [pc, #84]	; (8162c <cmd_write_cb+0x80>)
   815d8:	eb03 02c5 	add.w	r2, r3, r5, lsl #3
   815dc:	6852      	ldr	r2, [r2, #4]
   815de:	f853 3035 	ldr.w	r3, [r3, r5, lsl #3]
   815e2:	635a      	str	r2, [r3, #52]	; 0x34
   815e4:	bd70      	pop	{r4, r5, r6, pc}
   815e6:	4b11      	ldr	r3, [pc, #68]	; (8162c <cmd_write_cb+0x80>)
   815e8:	eb03 02c5 	add.w	r2, r3, r5, lsl #3
   815ec:	6852      	ldr	r2, [r2, #4]
   815ee:	f853 3035 	ldr.w	r3, [r3, r5, lsl #3]
   815f2:	631a      	str	r2, [r3, #48]	; 0x30
   815f4:	bd70      	pop	{r4, r5, r6, pc}
   815f6:	4610      	mov	r0, r2
   815f8:	490d      	ldr	r1, [pc, #52]	; (81630 <cmd_write_cb+0x84>)
   815fa:	f00b fca7 	bl	8cf4c <std_fprintf>
   815fe:	f06f 0015 	mvn.w	r0, #21
   81602:	bd70      	pop	{r4, r5, r6, pc}
   81604:	6862      	ldr	r2, [r4, #4]
   81606:	4630      	mov	r0, r6
   81608:	490a      	ldr	r1, [pc, #40]	; (81634 <cmd_write_cb+0x88>)
   8160a:	f00b fc9f 	bl	8cf4c <std_fprintf>
   8160e:	4628      	mov	r0, r5
   81610:	bd70      	pop	{r4, r5, r6, pc}
   81612:	4622      	mov	r2, r4
   81614:	4630      	mov	r0, r6
   81616:	4908      	ldr	r1, [pc, #32]	; (81638 <cmd_write_cb+0x8c>)
   81618:	f00b fc98 	bl	8cf4c <std_fprintf>
   8161c:	f06f 0015 	mvn.w	r0, #21
   81620:	bd70      	pop	{r4, r5, r6, pc}
   81622:	bf00      	nop
   81624:	0008fd74 	.word	0x0008fd74
   81628:	0008fd7c 	.word	0x0008fd7c
   8162c:	20070528 	.word	0x20070528
   81630:	0008fd54 	.word	0x0008fd54
   81634:	0008fd34 	.word	0x0008fd34
   81638:	0008fd80 	.word	0x0008fd80

0008163c <cmd_set_mode_cb>:
   8163c:	2803      	cmp	r0, #3
   8163e:	b570      	push	{r4, r5, r6, lr}
   81640:	4616      	mov	r6, r2
   81642:	d13d      	bne.n	816c0 <cmd_set_mode_cb+0x84>
   81644:	6848      	ldr	r0, [r1, #4]
   81646:	460d      	mov	r5, r1
   81648:	f7fe fde0 	bl	8020c <board_pin_string_to_device_index>
   8164c:	1e04      	subs	r4, r0, #0
   8164e:	db3e      	blt.n	816ce <cmd_set_mode_cb+0x92>
   81650:	68ad      	ldr	r5, [r5, #8]
   81652:	4922      	ldr	r1, [pc, #136]	; (816dc <cmd_set_mode_cb+0xa0>)
   81654:	4628      	mov	r0, r5
   81656:	f00c ff83 	bl	8e560 <strcmp>
   8165a:	b300      	cbz	r0, 8169e <cmd_set_mode_cb+0x62>
   8165c:	4920      	ldr	r1, [pc, #128]	; (816e0 <cmd_set_mode_cb+0xa4>)
   8165e:	4628      	mov	r0, r5
   81660:	f00c ff7e 	bl	8e560 <strcmp>
   81664:	b318      	cbz	r0, 816ae <cmd_set_mode_cb+0x72>
   81666:	491f      	ldr	r1, [pc, #124]	; (816e4 <cmd_set_mode_cb+0xa8>)
   81668:	4628      	mov	r0, r5
   8166a:	f00c ff79 	bl	8e560 <strcmp>
   8166e:	b1f0      	cbz	r0, 816ae <cmd_set_mode_cb+0x72>
   81670:	491d      	ldr	r1, [pc, #116]	; (816e8 <cmd_set_mode_cb+0xac>)
   81672:	4628      	mov	r0, r5
   81674:	f00c ff74 	bl	8e560 <strcmp>
   81678:	b1c8      	cbz	r0, 816ae <cmd_set_mode_cb+0x72>
   8167a:	491c      	ldr	r1, [pc, #112]	; (816ec <cmd_set_mode_cb+0xb0>)
   8167c:	4628      	mov	r0, r5
   8167e:	f00c ff6f 	bl	8e560 <strcmp>
   81682:	b1a0      	cbz	r0, 816ae <cmd_set_mode_cb+0x72>
   81684:	491a      	ldr	r1, [pc, #104]	; (816f0 <cmd_set_mode_cb+0xb4>)
   81686:	4628      	mov	r0, r5
   81688:	f00c ff6a 	bl	8e560 <strcmp>
   8168c:	b178      	cbz	r0, 816ae <cmd_set_mode_cb+0x72>
   8168e:	462a      	mov	r2, r5
   81690:	4630      	mov	r0, r6
   81692:	4918      	ldr	r1, [pc, #96]	; (816f4 <cmd_set_mode_cb+0xb8>)
   81694:	f00b fc5a 	bl	8cf4c <std_fprintf>
   81698:	f06f 0015 	mvn.w	r0, #21
   8169c:	bd70      	pop	{r4, r5, r6, pc}
   8169e:	4b16      	ldr	r3, [pc, #88]	; (816f8 <cmd_set_mode_cb+0xbc>)
   816a0:	eb03 02c4 	add.w	r2, r3, r4, lsl #3
   816a4:	6852      	ldr	r2, [r2, #4]
   816a6:	f853 3034 	ldr.w	r3, [r3, r4, lsl #3]
   816aa:	611a      	str	r2, [r3, #16]
   816ac:	bd70      	pop	{r4, r5, r6, pc}
   816ae:	4b12      	ldr	r3, [pc, #72]	; (816f8 <cmd_set_mode_cb+0xbc>)
   816b0:	2000      	movs	r0, #0
   816b2:	eb03 02c4 	add.w	r2, r3, r4, lsl #3
   816b6:	6852      	ldr	r2, [r2, #4]
   816b8:	f853 3034 	ldr.w	r3, [r3, r4, lsl #3]
   816bc:	615a      	str	r2, [r3, #20]
   816be:	bd70      	pop	{r4, r5, r6, pc}
   816c0:	4610      	mov	r0, r2
   816c2:	490e      	ldr	r1, [pc, #56]	; (816fc <cmd_set_mode_cb+0xc0>)
   816c4:	f00b fc42 	bl	8cf4c <std_fprintf>
   816c8:	f06f 0015 	mvn.w	r0, #21
   816cc:	bd70      	pop	{r4, r5, r6, pc}
   816ce:	686a      	ldr	r2, [r5, #4]
   816d0:	4630      	mov	r0, r6
   816d2:	490b      	ldr	r1, [pc, #44]	; (81700 <cmd_set_mode_cb+0xc4>)
   816d4:	f00b fc3a 	bl	8cf4c <std_fprintf>
   816d8:	4620      	mov	r0, r4
   816da:	bd70      	pop	{r4, r5, r6, pc}
   816dc:	0008fdb0 	.word	0x0008fdb0
   816e0:	0008fdb8 	.word	0x0008fdb8
   816e4:	0008fdcc 	.word	0x0008fdcc
   816e8:	0008fde8 	.word	0x0008fde8
   816ec:	0008fdf0 	.word	0x0008fdf0
   816f0:	0008fe00 	.word	0x0008fe00
   816f4:	0008fe10 	.word	0x0008fe10
   816f8:	20070528 	.word	0x20070528
   816fc:	0008fd90 	.word	0x0008fd90
   81700:	0008fd34 	.word	0x0008fd34

00081704 <pin_module_init>:
   81704:	b570      	push	{r4, r5, r6, lr}
   81706:	4c1e      	ldr	r4, [pc, #120]	; (81780 <pin_module_init+0x7c>)
   81708:	f994 3000 	ldrsb.w	r3, [r4]
   8170c:	2b01      	cmp	r3, #1
   8170e:	d034      	beq.n	8177a <pin_module_init+0x76>
   81710:	4620      	mov	r0, r4
   81712:	2301      	movs	r3, #1
   81714:	4a1b      	ldr	r2, [pc, #108]	; (81784 <pin_module_init+0x80>)
   81716:	491c      	ldr	r1, [pc, #112]	; (81788 <pin_module_init+0x84>)
   81718:	f800 3b01 	strb.w	r3, [r0], #1
   8171c:	2300      	movs	r3, #0
   8171e:	f006 f9f1 	bl	87b04 <fs_command_init>
   81722:	1c60      	adds	r0, r4, #1
   81724:	f006 fa22 	bl	87b6c <fs_command_register>
   81728:	2300      	movs	r3, #0
   8172a:	4a18      	ldr	r2, [pc, #96]	; (8178c <pin_module_init+0x88>)
   8172c:	4918      	ldr	r1, [pc, #96]	; (81790 <pin_module_init+0x8c>)
   8172e:	f104 0011 	add.w	r0, r4, #17
   81732:	f006 f9e7 	bl	87b04 <fs_command_init>
   81736:	f104 0011 	add.w	r0, r4, #17
   8173a:	f006 fa17 	bl	87b6c <fs_command_register>
   8173e:	2300      	movs	r3, #0
   81740:	4a14      	ldr	r2, [pc, #80]	; (81794 <pin_module_init+0x90>)
   81742:	4915      	ldr	r1, [pc, #84]	; (81798 <pin_module_init+0x94>)
   81744:	f104 0021 	add.w	r0, r4, #33	; 0x21
   81748:	f006 f9dc 	bl	87b04 <fs_command_init>
   8174c:	f104 0021 	add.w	r0, r4, #33	; 0x21
   81750:	f006 fa0c 	bl	87b6c <fs_command_register>
   81754:	4b11      	ldr	r3, [pc, #68]	; (8179c <pin_module_init+0x98>)
   81756:	f44f 6600 	mov.w	r6, #2048	; 0x800
   8175a:	f44f 5580 	mov.w	r5, #4096	; 0x1000
   8175e:	f44f 5400 	mov.w	r4, #8192	; 0x2000
   81762:	f44f 4080 	mov.w	r0, #16384	; 0x4000
   81766:	f44f 4100 	mov.w	r1, #32768	; 0x8000
   8176a:	f44f 3280 	mov.w	r2, #65536	; 0x10000
   8176e:	611e      	str	r6, [r3, #16]
   81770:	611d      	str	r5, [r3, #16]
   81772:	611c      	str	r4, [r3, #16]
   81774:	6118      	str	r0, [r3, #16]
   81776:	6119      	str	r1, [r3, #16]
   81778:	611a      	str	r2, [r3, #16]
   8177a:	2000      	movs	r0, #0
   8177c:	bd70      	pop	{r4, r5, r6, pc}
   8177e:	bf00      	nop
   81780:	20071bf4 	.word	0x20071bf4
   81784:	0008163d 	.word	0x0008163d
   81788:	0008fe20 	.word	0x0008fe20
   8178c:	0008153d 	.word	0x0008153d
   81790:	0008fe38 	.word	0x0008fe38
   81794:	000815ad 	.word	0x000815ad
   81798:	0008fe4c 	.word	0x0008fe4c
   8179c:	400e0600 	.word	0x400e0600

000817a0 <pin_read>:
   817a0:	b510      	push	{r4, lr}
   817a2:	4604      	mov	r4, r0
   817a4:	b140      	cbz	r0, 817b8 <pin_read+0x18>
   817a6:	6823      	ldr	r3, [r4, #0]
   817a8:	6819      	ldr	r1, [r3, #0]
   817aa:	685a      	ldr	r2, [r3, #4]
   817ac:	6bcb      	ldr	r3, [r1, #60]	; 0x3c
   817ae:	421a      	tst	r2, r3
   817b0:	bf14      	ite	ne
   817b2:	2001      	movne	r0, #1
   817b4:	2000      	moveq	r0, #0
   817b6:	bd10      	pop	{r4, pc}
   817b8:	4803      	ldr	r0, [pc, #12]	; (817c8 <pin_read+0x28>)
   817ba:	f00b fb03 	bl	8cdc4 <std_printf>
   817be:	4b03      	ldr	r3, [pc, #12]	; (817cc <pin_read+0x2c>)
   817c0:	2016      	movs	r0, #22
   817c2:	681b      	ldr	r3, [r3, #0]
   817c4:	4798      	blx	r3
   817c6:	e7ee      	b.n	817a6 <pin_read+0x6>
   817c8:	0008fe60 	.word	0x0008fe60
   817cc:	20070860 	.word	0x20070860

000817d0 <pin_write>:
   817d0:	b510      	push	{r4, lr}
   817d2:	4604      	mov	r4, r0
   817d4:	b082      	sub	sp, #8
   817d6:	b158      	cbz	r0, 817f0 <pin_write+0x20>
   817d8:	6823      	ldr	r3, [r4, #0]
   817da:	681a      	ldr	r2, [r3, #0]
   817dc:	685b      	ldr	r3, [r3, #4]
   817de:	b119      	cbz	r1, 817e8 <pin_write+0x18>
   817e0:	2000      	movs	r0, #0
   817e2:	6313      	str	r3, [r2, #48]	; 0x30
   817e4:	b002      	add	sp, #8
   817e6:	bd10      	pop	{r4, pc}
   817e8:	2000      	movs	r0, #0
   817ea:	6353      	str	r3, [r2, #52]	; 0x34
   817ec:	b002      	add	sp, #8
   817ee:	bd10      	pop	{r4, pc}
   817f0:	4804      	ldr	r0, [pc, #16]	; (81804 <pin_write+0x34>)
   817f2:	9101      	str	r1, [sp, #4]
   817f4:	f00b fae6 	bl	8cdc4 <std_printf>
   817f8:	4b03      	ldr	r3, [pc, #12]	; (81808 <pin_write+0x38>)
   817fa:	2016      	movs	r0, #22
   817fc:	681b      	ldr	r3, [r3, #0]
   817fe:	4798      	blx	r3
   81800:	9901      	ldr	r1, [sp, #4]
   81802:	e7e9      	b.n	817d8 <pin_write+0x8>
   81804:	0008fec0 	.word	0x0008fec0
   81808:	20070860 	.word	0x20070860

0008180c <pin_set_mode>:
   8180c:	b510      	push	{r4, lr}
   8180e:	4604      	mov	r4, r0
   81810:	b082      	sub	sp, #8
   81812:	b158      	cbz	r0, 8182c <pin_set_mode+0x20>
   81814:	6823      	ldr	r3, [r4, #0]
   81816:	681a      	ldr	r2, [r3, #0]
   81818:	685b      	ldr	r3, [r3, #4]
   8181a:	b119      	cbz	r1, 81824 <pin_set_mode+0x18>
   8181c:	2000      	movs	r0, #0
   8181e:	6153      	str	r3, [r2, #20]
   81820:	b002      	add	sp, #8
   81822:	bd10      	pop	{r4, pc}
   81824:	2000      	movs	r0, #0
   81826:	6113      	str	r3, [r2, #16]
   81828:	b002      	add	sp, #8
   8182a:	bd10      	pop	{r4, pc}
   8182c:	4804      	ldr	r0, [pc, #16]	; (81840 <pin_set_mode+0x34>)
   8182e:	9101      	str	r1, [sp, #4]
   81830:	f00b fac8 	bl	8cdc4 <std_printf>
   81834:	4b03      	ldr	r3, [pc, #12]	; (81844 <pin_set_mode+0x38>)
   81836:	2016      	movs	r0, #22
   81838:	681b      	ldr	r3, [r3, #0]
   8183a:	4798      	blx	r3
   8183c:	9901      	ldr	r1, [sp, #4]
   8183e:	e7e9      	b.n	81814 <pin_set_mode+0x8>
   81840:	0008ff80 	.word	0x0008ff80
   81844:	20070860 	.word	0x20070860

00081848 <random_module_init>:
   81848:	4904      	ldr	r1, [pc, #16]	; (8185c <random_module_init+0x14>)
   8184a:	4b05      	ldr	r3, [pc, #20]	; (81860 <random_module_init+0x18>)
   8184c:	4a05      	ldr	r2, [pc, #20]	; (81864 <random_module_init+0x1c>)
   8184e:	f44f 7000 	mov.w	r0, #512	; 0x200
   81852:	f8c1 0100 	str.w	r0, [r1, #256]	; 0x100
   81856:	2000      	movs	r0, #0
   81858:	601a      	str	r2, [r3, #0]
   8185a:	4770      	bx	lr
   8185c:	400e0600 	.word	0x400e0600
   81860:	400bc000 	.word	0x400bc000
   81864:	524e4701 	.word	0x524e4701

00081868 <write_frame_to_hw>:
   81868:	790b      	ldrb	r3, [r1, #4]
   8186a:	b410      	push	{r4}
   8186c:	07db      	lsls	r3, r3, #31
   8186e:	d518      	bpl.n	818a2 <write_frame_to_hw+0x3a>
   81870:	680b      	ldr	r3, [r1, #0]
   81872:	4a0f      	ldr	r2, [pc, #60]	; (818b0 <write_frame_to_hw+0x48>)
   81874:	049c      	lsls	r4, r3, #18
   81876:	4022      	ands	r2, r4
   81878:	f3c3 23d1 	ubfx	r3, r3, #11, #18
   8187c:	4313      	orrs	r3, r2
   8187e:	f043 5300 	orr.w	r3, r3, #536870912	; 0x20000000
   81882:	6083      	str	r3, [r0, #8]
   81884:	f8d1 3009 	ldr.w	r3, [r1, #9]
   81888:	bc10      	pop	{r4}
   8188a:	6143      	str	r3, [r0, #20]
   8188c:	f8d1 300d 	ldr.w	r3, [r1, #13]
   81890:	6183      	str	r3, [r0, #24]
   81892:	790b      	ldrb	r3, [r1, #4]
   81894:	f3c3 0383 	ubfx	r3, r3, #2, #4
   81898:	041b      	lsls	r3, r3, #16
   8189a:	f443 0300 	orr.w	r3, r3, #8388608	; 0x800000
   8189e:	61c3      	str	r3, [r0, #28]
   818a0:	4770      	bx	lr
   818a2:	680a      	ldr	r2, [r1, #0]
   818a4:	4b02      	ldr	r3, [pc, #8]	; (818b0 <write_frame_to_hw+0x48>)
   818a6:	0492      	lsls	r2, r2, #18
   818a8:	4013      	ands	r3, r2
   818aa:	6083      	str	r3, [r0, #8]
   818ac:	e7ea      	b.n	81884 <write_frame_to_hw+0x1c>
   818ae:	bf00      	nop
   818b0:	1ffc0000 	.word	0x1ffc0000

000818b4 <read_frame_from_hw>:
   818b4:	b5f0      	push	{r4, r5, r6, r7, lr}
   818b6:	4606      	mov	r6, r0
   818b8:	688d      	ldr	r5, [r1, #8]
   818ba:	b087      	sub	sp, #28
   818bc:	f89d 3008 	ldrb.w	r3, [sp, #8]
   818c0:	f3c5 7240 	ubfx	r2, r5, #29, #1
   818c4:	f362 0300 	bfi	r3, r2, #0, #1
   818c8:	690f      	ldr	r7, [r1, #16]
   818ca:	2400      	movs	r4, #0
   818cc:	f88d 3008 	strb.w	r3, [sp, #8]
   818d0:	f8d1 c014 	ldr.w	ip, [r1, #20]
   818d4:	f8d1 e018 	ldr.w	lr, [r1, #24]
   818d8:	7f08      	ldrb	r0, [r1, #28]
   818da:	770c      	strb	r4, [r1, #28]
   818dc:	7f48      	ldrb	r0, [r1, #29]
   818de:	b2da      	uxtb	r2, r3
   818e0:	774c      	strb	r4, [r1, #29]
   818e2:	0c3b      	lsrs	r3, r7, #16
   818e4:	7f88      	ldrb	r0, [r1, #30]
   818e6:	f363 0285 	bfi	r2, r3, #2, #4
   818ea:	f06f 007f 	mvn.w	r0, #127	; 0x7f
   818ee:	4b1f      	ldr	r3, [pc, #124]	; (8196c <read_frame_from_hw+0xb8>)
   818f0:	7788      	strb	r0, [r1, #30]
   818f2:	02e8      	lsls	r0, r5, #11
   818f4:	4003      	ands	r3, r0
   818f6:	f3c5 458a 	ubfx	r5, r5, #18, #11
   818fa:	432b      	orrs	r3, r5
   818fc:	f3c7 5700 	ubfx	r7, r7, #20, #1
   81900:	f106 0538 	add.w	r5, r6, #56	; 0x38
   81904:	7fc8      	ldrb	r0, [r1, #31]
   81906:	f367 0241 	bfi	r2, r7, #1, #1
   8190a:	77cc      	strb	r4, [r1, #31]
   8190c:	4628      	mov	r0, r5
   8190e:	f8cd c00d 	str.w	ip, [sp, #13]
   81912:	f8cd e011 	str.w	lr, [sp, #17]
   81916:	f88d 4009 	strb.w	r4, [sp, #9]
   8191a:	f88d 400a 	strb.w	r4, [sp, #10]
   8191e:	f88d 400b 	strb.w	r4, [sp, #11]
   81922:	f88d 400c 	strb.w	r4, [sp, #12]
   81926:	f88d 2008 	strb.w	r2, [sp, #8]
   8192a:	9301      	str	r3, [sp, #4]
   8192c:	f00a fffc 	bl	8c928 <queue_unused_size_isr>
   81930:	2810      	cmp	r0, #16
   81932:	d90a      	bls.n	8194a <read_frame_from_hw+0x96>
   81934:	4628      	mov	r0, r5
   81936:	2211      	movs	r2, #17
   81938:	a901      	add	r1, sp, #4
   8193a:	f00a fe93 	bl	8c664 <queue_write_isr>
   8193e:	4630      	mov	r0, r6
   81940:	f00a fd66 	bl	8c410 <chan_is_polled_isr>
   81944:	b940      	cbnz	r0, 81958 <read_frame_from_hw+0xa4>
   81946:	b007      	add	sp, #28
   81948:	bdf0      	pop	{r4, r5, r6, r7, pc}
   8194a:	2201      	movs	r2, #1
   8194c:	2300      	movs	r3, #0
   8194e:	4808      	ldr	r0, [pc, #32]	; (81970 <read_frame_from_hw+0xbc>)
   81950:	f006 fab6 	bl	87ec0 <fs_counter_increment>
   81954:	b007      	add	sp, #28
   81956:	bdf0      	pop	{r4, r5, r6, r7, pc}
   81958:	4621      	mov	r1, r4
   8195a:	69f0      	ldr	r0, [r6, #28]
   8195c:	f002 fdb8 	bl	844d0 <thrd_resume_isr>
   81960:	7734      	strb	r4, [r6, #28]
   81962:	7774      	strb	r4, [r6, #29]
   81964:	77b4      	strb	r4, [r6, #30]
   81966:	77f4      	strb	r4, [r6, #31]
   81968:	b007      	add	sp, #28
   8196a:	bdf0      	pop	{r4, r5, r6, r7, pc}
   8196c:	1ffff800 	.word	0x1ffff800
   81970:	20071214 	.word	0x20071214

00081974 <isr>:
   81974:	b570      	push	{r4, r5, r6, lr}
   81976:	6806      	ldr	r6, [r0, #0]
   81978:	b156      	cbz	r6, 81990 <isr+0x1c>
   8197a:	6843      	ldr	r3, [r0, #4]
   8197c:	4605      	mov	r5, r0
   8197e:	691c      	ldr	r4, [r3, #16]
   81980:	68da      	ldr	r2, [r3, #12]
   81982:	4014      	ands	r4, r2
   81984:	07e1      	lsls	r1, r4, #31
   81986:	d404      	bmi.n	81992 <isr+0x1e>
   81988:	07a2      	lsls	r2, r4, #30
   8198a:	d411      	bmi.n	819b0 <isr+0x3c>
   8198c:	0763      	lsls	r3, r4, #29
   8198e:	d417      	bmi.n	819c0 <isr+0x4c>
   81990:	bd70      	pop	{r4, r5, r6, pc}
   81992:	6b71      	ldr	r1, [r6, #52]	; 0x34
   81994:	b1e1      	cbz	r1, 819d0 <isr+0x5c>
   81996:	f503 7000 	add.w	r0, r3, #512	; 0x200
   8199a:	6b31      	ldr	r1, [r6, #48]	; 0x30
   8199c:	f7ff ff64 	bl	81868 <write_frame_to_hw>
   819a0:	6b72      	ldr	r2, [r6, #52]	; 0x34
   819a2:	6b33      	ldr	r3, [r6, #48]	; 0x30
   819a4:	3a11      	subs	r2, #17
   819a6:	3311      	adds	r3, #17
   819a8:	6372      	str	r2, [r6, #52]	; 0x34
   819aa:	07a2      	lsls	r2, r4, #30
   819ac:	6333      	str	r3, [r6, #48]	; 0x30
   819ae:	d5ed      	bpl.n	8198c <isr+0x18>
   819b0:	6869      	ldr	r1, [r5, #4]
   819b2:	4630      	mov	r0, r6
   819b4:	f501 7108 	add.w	r1, r1, #544	; 0x220
   819b8:	f7ff ff7c 	bl	818b4 <read_frame_from_hw>
   819bc:	0763      	lsls	r3, r4, #29
   819be:	d5e7      	bpl.n	81990 <isr+0x1c>
   819c0:	6869      	ldr	r1, [r5, #4]
   819c2:	4630      	mov	r0, r6
   819c4:	e8bd 4070 	ldmia.w	sp!, {r4, r5, r6, lr}
   819c8:	f501 7110 	add.w	r1, r1, #576	; 0x240
   819cc:	f7ff bf72 	b.w	818b4 <read_frame_from_hw>
   819d0:	2201      	movs	r2, #1
   819d2:	7a18      	ldrb	r0, [r3, #8]
   819d4:	721a      	strb	r2, [r3, #8]
   819d6:	7a5a      	ldrb	r2, [r3, #9]
   819d8:	7259      	strb	r1, [r3, #9]
   819da:	7a9a      	ldrb	r2, [r3, #10]
   819dc:	7299      	strb	r1, [r3, #10]
   819de:	7ada      	ldrb	r2, [r3, #11]
   819e0:	72d9      	strb	r1, [r3, #11]
   819e2:	6af0      	ldr	r0, [r6, #44]	; 0x2c
   819e4:	f002 fd74 	bl	844d0 <thrd_resume_isr>
   819e8:	e7ce      	b.n	81988 <isr+0x14>
   819ea:	bf00      	nop

000819ec <isr_can0>:
   819ec:	4801      	ldr	r0, [pc, #4]	; (819f4 <isr_can0+0x8>)
   819ee:	f7ff bfc1 	b.w	81974 <isr>
   819f2:	bf00      	nop
   819f4:	20070054 	.word	0x20070054

000819f8 <isr_can1>:
   819f8:	4801      	ldr	r0, [pc, #4]	; (81a00 <isr_can1+0x8>)
   819fa:	f7ff bfbb 	b.w	81974 <isr>
   819fe:	bf00      	nop
   81a00:	20070070 	.word	0x20070070

00081a04 <can_port_module_init>:
   81a04:	b510      	push	{r4, lr}
   81a06:	4c06      	ldr	r4, [pc, #24]	; (81a20 <can_port_module_init+0x1c>)
   81a08:	2200      	movs	r2, #0
   81a0a:	2300      	movs	r3, #0
   81a0c:	4905      	ldr	r1, [pc, #20]	; (81a24 <can_port_module_init+0x20>)
   81a0e:	4620      	mov	r0, r4
   81a10:	f006 fa24 	bl	87e5c <fs_counter_init>
   81a14:	4620      	mov	r0, r4
   81a16:	f006 fa77 	bl	87f08 <fs_counter_register>
   81a1a:	2000      	movs	r0, #0
   81a1c:	bd10      	pop	{r4, pc}
   81a1e:	bf00      	nop
   81a20:	20071214 	.word	0x20071214
   81a24:	000900a0 	.word	0x000900a0

00081a28 <can_module_init>:
   81a28:	f7ff bfec 	b.w	81a04 <can_port_module_init>

00081a2c <i2c_port_start>:
   81a2c:	b4f0      	push	{r4, r5, r6, r7}
   81a2e:	6801      	ldr	r1, [r0, #0]
   81a30:	4606      	mov	r6, r0
   81a32:	680a      	ldr	r2, [r1, #0]
   81a34:	6188      	str	r0, [r1, #24]
   81a36:	2a1f      	cmp	r2, #31
   81a38:	684b      	ldr	r3, [r1, #4]
   81a3a:	dd2a      	ble.n	81a92 <i2c_port_start+0x66>
   81a3c:	f002 021f 	and.w	r2, r2, #31
   81a40:	2001      	movs	r0, #1
   81a42:	4c1b      	ldr	r4, [pc, #108]	; (81ab0 <i2c_port_start+0x84>)
   81a44:	fa00 f202 	lsl.w	r2, r0, r2
   81a48:	f8c4 2100 	str.w	r2, [r4, #256]	; 0x100
   81a4c:	688a      	ldr	r2, [r1, #8]
   81a4e:	68c8      	ldr	r0, [r1, #12]
   81a50:	2704      	movs	r7, #4
   81a52:	6050      	str	r0, [r2, #4]
   81a54:	6150      	str	r0, [r2, #20]
   81a56:	6450      	str	r0, [r2, #68]	; 0x44
   81a58:	6650      	str	r0, [r2, #100]	; 0x64
   81a5a:	6f14      	ldr	r4, [r2, #112]	; 0x70
   81a5c:	2500      	movs	r5, #0
   81a5e:	ea24 0000 	bic.w	r0, r4, r0
   81a62:	6710      	str	r0, [r2, #112]	; 0x70
   81a64:	694c      	ldr	r4, [r1, #20]
   81a66:	6909      	ldr	r1, [r1, #16]
   81a68:	4628      	mov	r0, r5
   81a6a:	604c      	str	r4, [r1, #4]
   81a6c:	614c      	str	r4, [r1, #20]
   81a6e:	644c      	str	r4, [r1, #68]	; 0x44
   81a70:	6654      	str	r4, [r2, #100]	; 0x64
   81a72:	6f0a      	ldr	r2, [r1, #112]	; 0x70
   81a74:	ea22 0404 	bic.w	r4, r2, r4
   81a78:	670c      	str	r4, [r1, #112]	; 0x70
   81a7a:	68b2      	ldr	r2, [r6, #8]
   81a7c:	611a      	str	r2, [r3, #16]
   81a7e:	781a      	ldrb	r2, [r3, #0]
   81a80:	701f      	strb	r7, [r3, #0]
   81a82:	785a      	ldrb	r2, [r3, #1]
   81a84:	705d      	strb	r5, [r3, #1]
   81a86:	789a      	ldrb	r2, [r3, #2]
   81a88:	709d      	strb	r5, [r3, #2]
   81a8a:	78da      	ldrb	r2, [r3, #3]
   81a8c:	70dd      	strb	r5, [r3, #3]
   81a8e:	bcf0      	pop	{r4, r5, r6, r7}
   81a90:	4770      	bx	lr
   81a92:	4808      	ldr	r0, [pc, #32]	; (81ab4 <i2c_port_start+0x88>)
   81a94:	4010      	ands	r0, r2
   81a96:	2800      	cmp	r0, #0
   81a98:	db05      	blt.n	81aa6 <i2c_port_start+0x7a>
   81a9a:	2201      	movs	r2, #1
   81a9c:	4c04      	ldr	r4, [pc, #16]	; (81ab0 <i2c_port_start+0x84>)
   81a9e:	fa02 f000 	lsl.w	r0, r2, r0
   81aa2:	6120      	str	r0, [r4, #16]
   81aa4:	e7d2      	b.n	81a4c <i2c_port_start+0x20>
   81aa6:	3801      	subs	r0, #1
   81aa8:	f060 001f 	orn	r0, r0, #31
   81aac:	3001      	adds	r0, #1
   81aae:	e7f4      	b.n	81a9a <i2c_port_start+0x6e>
   81ab0:	400e0600 	.word	0x400e0600
   81ab4:	8000001f 	.word	0x8000001f

00081ab8 <i2c_port_read>:
   81ab8:	b470      	push	{r4, r5, r6}
   81aba:	6800      	ldr	r0, [r0, #0]
   81abc:	0409      	lsls	r1, r1, #16
   81abe:	6840      	ldr	r0, [r0, #4]
   81ac0:	f401 01fe 	and.w	r1, r1, #8323072	; 0x7f0000
   81ac4:	f441 5180 	orr.w	r1, r1, #4096	; 0x1000
   81ac8:	6041      	str	r1, [r0, #4]
   81aca:	2401      	movs	r4, #1
   81acc:	7801      	ldrb	r1, [r0, #0]
   81ace:	7004      	strb	r4, [r0, #0]
   81ad0:	2100      	movs	r1, #0
   81ad2:	7844      	ldrb	r4, [r0, #1]
   81ad4:	7041      	strb	r1, [r0, #1]
   81ad6:	7884      	ldrb	r4, [r0, #2]
   81ad8:	1e5e      	subs	r6, r3, #1
   81ada:	7081      	strb	r1, [r0, #2]
   81adc:	78c4      	ldrb	r4, [r0, #3]
   81ade:	70c1      	strb	r1, [r0, #3]
   81ae0:	d00a      	beq.n	81af8 <i2c_port_read+0x40>
   81ae2:	1e9d      	subs	r5, r3, #2
   81ae4:	4415      	add	r5, r2
   81ae6:	1e54      	subs	r4, r2, #1
   81ae8:	6a01      	ldr	r1, [r0, #32]
   81aea:	0789      	lsls	r1, r1, #30
   81aec:	d5fc      	bpl.n	81ae8 <i2c_port_read+0x30>
   81aee:	6b01      	ldr	r1, [r0, #48]	; 0x30
   81af0:	f804 1f01 	strb.w	r1, [r4, #1]!
   81af4:	42ac      	cmp	r4, r5
   81af6:	d1f7      	bne.n	81ae8 <i2c_port_read+0x30>
   81af8:	2402      	movs	r4, #2
   81afa:	7801      	ldrb	r1, [r0, #0]
   81afc:	7004      	strb	r4, [r0, #0]
   81afe:	2100      	movs	r1, #0
   81b00:	7844      	ldrb	r4, [r0, #1]
   81b02:	7041      	strb	r1, [r0, #1]
   81b04:	7884      	ldrb	r4, [r0, #2]
   81b06:	7081      	strb	r1, [r0, #2]
   81b08:	78c4      	ldrb	r4, [r0, #3]
   81b0a:	70c1      	strb	r1, [r0, #3]
   81b0c:	6a01      	ldr	r1, [r0, #32]
   81b0e:	0789      	lsls	r1, r1, #30
   81b10:	d5fc      	bpl.n	81b0c <i2c_port_read+0x54>
   81b12:	6b01      	ldr	r1, [r0, #48]	; 0x30
   81b14:	5591      	strb	r1, [r2, r6]
   81b16:	6a02      	ldr	r2, [r0, #32]
   81b18:	07d2      	lsls	r2, r2, #31
   81b1a:	d5fc      	bpl.n	81b16 <i2c_port_read+0x5e>
   81b1c:	4618      	mov	r0, r3
   81b1e:	bc70      	pop	{r4, r5, r6}
   81b20:	4770      	bx	lr
   81b22:	bf00      	nop

00081b24 <i2c_port_write>:
   81b24:	b430      	push	{r4, r5}
   81b26:	6800      	ldr	r0, [r0, #0]
   81b28:	0409      	lsls	r1, r1, #16
   81b2a:	6844      	ldr	r4, [r0, #4]
   81b2c:	f401 01fe 	and.w	r1, r1, #8323072	; 0x7f0000
   81b30:	6061      	str	r1, [r4, #4]
   81b32:	2001      	movs	r0, #1
   81b34:	7821      	ldrb	r1, [r4, #0]
   81b36:	7020      	strb	r0, [r4, #0]
   81b38:	2100      	movs	r1, #0
   81b3a:	7860      	ldrb	r0, [r4, #1]
   81b3c:	7061      	strb	r1, [r4, #1]
   81b3e:	78a0      	ldrb	r0, [r4, #2]
   81b40:	70a1      	strb	r1, [r4, #2]
   81b42:	78e0      	ldrb	r0, [r4, #3]
   81b44:	70e1      	strb	r1, [r4, #3]
   81b46:	b153      	cbz	r3, 81b5e <i2c_port_write+0x3a>
   81b48:	18d5      	adds	r5, r2, r3
   81b4a:	f812 1b01 	ldrb.w	r1, [r2], #1
   81b4e:	6361      	str	r1, [r4, #52]	; 0x34
   81b50:	6a21      	ldr	r1, [r4, #32]
   81b52:	0748      	lsls	r0, r1, #29
   81b54:	d5fc      	bpl.n	81b50 <i2c_port_write+0x2c>
   81b56:	05c9      	lsls	r1, r1, #23
   81b58:	d411      	bmi.n	81b7e <i2c_port_write+0x5a>
   81b5a:	42aa      	cmp	r2, r5
   81b5c:	d1f5      	bne.n	81b4a <i2c_port_write+0x26>
   81b5e:	2102      	movs	r1, #2
   81b60:	7822      	ldrb	r2, [r4, #0]
   81b62:	7021      	strb	r1, [r4, #0]
   81b64:	2200      	movs	r2, #0
   81b66:	7861      	ldrb	r1, [r4, #1]
   81b68:	7062      	strb	r2, [r4, #1]
   81b6a:	78a1      	ldrb	r1, [r4, #2]
   81b6c:	70a2      	strb	r2, [r4, #2]
   81b6e:	78e1      	ldrb	r1, [r4, #3]
   81b70:	70e2      	strb	r2, [r4, #3]
   81b72:	6a22      	ldr	r2, [r4, #32]
   81b74:	07d2      	lsls	r2, r2, #31
   81b76:	d5fc      	bpl.n	81b72 <i2c_port_write+0x4e>
   81b78:	4618      	mov	r0, r3
   81b7a:	bc30      	pop	{r4, r5}
   81b7c:	4770      	bx	lr
   81b7e:	f04f 33ff 	mov.w	r3, #4294967295	; 0xffffffff
   81b82:	e7ec      	b.n	81b5e <i2c_port_write+0x3a>

00081b84 <i2c_module_init>:
   81b84:	b510      	push	{r4, lr}
   81b86:	4c14      	ldr	r4, [pc, #80]	; (81bd8 <i2c_module_init+0x54>)
   81b88:	f994 3000 	ldrsb.w	r3, [r4]
   81b8c:	2b01      	cmp	r3, #1
   81b8e:	d021      	beq.n	81bd4 <i2c_module_init+0x50>
   81b90:	4620      	mov	r0, r4
   81b92:	2301      	movs	r3, #1
   81b94:	4a11      	ldr	r2, [pc, #68]	; (81bdc <i2c_module_init+0x58>)
   81b96:	4912      	ldr	r1, [pc, #72]	; (81be0 <i2c_module_init+0x5c>)
   81b98:	f800 3b01 	strb.w	r3, [r0], #1
   81b9c:	2300      	movs	r3, #0
   81b9e:	f005 ffb1 	bl	87b04 <fs_command_init>
   81ba2:	1c60      	adds	r0, r4, #1
   81ba4:	f005 ffe2 	bl	87b6c <fs_command_register>
   81ba8:	2300      	movs	r3, #0
   81baa:	4a0e      	ldr	r2, [pc, #56]	; (81be4 <i2c_module_init+0x60>)
   81bac:	490e      	ldr	r1, [pc, #56]	; (81be8 <i2c_module_init+0x64>)
   81bae:	f104 0011 	add.w	r0, r4, #17
   81bb2:	f005 ffa7 	bl	87b04 <fs_command_init>
   81bb6:	f104 0011 	add.w	r0, r4, #17
   81bba:	f005 ffd7 	bl	87b6c <fs_command_register>
   81bbe:	2300      	movs	r3, #0
   81bc0:	4a0a      	ldr	r2, [pc, #40]	; (81bec <i2c_module_init+0x68>)
   81bc2:	490b      	ldr	r1, [pc, #44]	; (81bf0 <i2c_module_init+0x6c>)
   81bc4:	f104 0021 	add.w	r0, r4, #33	; 0x21
   81bc8:	f005 ff9c 	bl	87b04 <fs_command_init>
   81bcc:	f104 0021 	add.w	r0, r4, #33	; 0x21
   81bd0:	f005 ffcc 	bl	87b6c <fs_command_register>
   81bd4:	2000      	movs	r0, #0
   81bd6:	bd10      	pop	{r4, pc}
   81bd8:	20071230 	.word	0x20071230
   81bdc:	00081c71 	.word	0x00081c71
   81be0:	00090534 	.word	0x00090534
   81be4:	00081d89 	.word	0x00081d89
   81be8:	00090548 	.word	0x00090548
   81bec:	00081ec5 	.word	0x00081ec5
   81bf0:	0009055c 	.word	0x0009055c

00081bf4 <i2c_read>:
   81bf4:	e92d 41f0 	stmdb	sp!, {r4, r5, r6, r7, r8, lr}
   81bf8:	460d      	mov	r5, r1
   81bfa:	4616      	mov	r6, r2
   81bfc:	461f      	mov	r7, r3
   81bfe:	4604      	mov	r4, r0
   81c00:	b318      	cbz	r0, 81c4a <i2c_read+0x56>
   81c02:	2d7f      	cmp	r5, #127	; 0x7f
   81c04:	dc10      	bgt.n	81c28 <i2c_read+0x34>
   81c06:	b1c6      	cbz	r6, 81c3a <i2c_read+0x46>
   81c08:	b937      	cbnz	r7, 81c18 <i2c_read+0x24>
   81c0a:	4814      	ldr	r0, [pc, #80]	; (81c5c <i2c_read+0x68>)
   81c0c:	f00b f8da 	bl	8cdc4 <std_printf>
   81c10:	4b13      	ldr	r3, [pc, #76]	; (81c60 <i2c_read+0x6c>)
   81c12:	2016      	movs	r0, #22
   81c14:	681b      	ldr	r3, [r3, #0]
   81c16:	4798      	blx	r3
   81c18:	463b      	mov	r3, r7
   81c1a:	4632      	mov	r2, r6
   81c1c:	4629      	mov	r1, r5
   81c1e:	4620      	mov	r0, r4
   81c20:	e8bd 41f0 	ldmia.w	sp!, {r4, r5, r6, r7, r8, lr}
   81c24:	f7ff bf48 	b.w	81ab8 <i2c_port_read>
   81c28:	480e      	ldr	r0, [pc, #56]	; (81c64 <i2c_read+0x70>)
   81c2a:	f00b f8cb 	bl	8cdc4 <std_printf>
   81c2e:	4b0c      	ldr	r3, [pc, #48]	; (81c60 <i2c_read+0x6c>)
   81c30:	2016      	movs	r0, #22
   81c32:	681b      	ldr	r3, [r3, #0]
   81c34:	4798      	blx	r3
   81c36:	2e00      	cmp	r6, #0
   81c38:	d1e6      	bne.n	81c08 <i2c_read+0x14>
   81c3a:	480b      	ldr	r0, [pc, #44]	; (81c68 <i2c_read+0x74>)
   81c3c:	f00b f8c2 	bl	8cdc4 <std_printf>
   81c40:	4b07      	ldr	r3, [pc, #28]	; (81c60 <i2c_read+0x6c>)
   81c42:	2016      	movs	r0, #22
   81c44:	681b      	ldr	r3, [r3, #0]
   81c46:	4798      	blx	r3
   81c48:	e7de      	b.n	81c08 <i2c_read+0x14>
   81c4a:	4808      	ldr	r0, [pc, #32]	; (81c6c <i2c_read+0x78>)
   81c4c:	f00b f8ba 	bl	8cdc4 <std_printf>
   81c50:	4b03      	ldr	r3, [pc, #12]	; (81c60 <i2c_read+0x6c>)
   81c52:	2016      	movs	r0, #22
   81c54:	681b      	ldr	r3, [r3, #0]
   81c56:	4798      	blx	r3
   81c58:	e7d3      	b.n	81c02 <i2c_read+0xe>
   81c5a:	bf00      	nop
   81c5c:	0009081c 	.word	0x0009081c
   81c60:	20070860 	.word	0x20070860
   81c64:	00090760 	.word	0x00090760
   81c68:	000907bc 	.word	0x000907bc
   81c6c:	000906fc 	.word	0x000906fc

00081c70 <cmd_read_cb>:
   81c70:	b510      	push	{r4, lr}
   81c72:	2802      	cmp	r0, #2
   81c74:	b086      	sub	sp, #24
   81c76:	d130      	bne.n	81cda <cmd_read_cb+0x6a>
   81c78:	6848      	ldr	r0, [r1, #4]
   81c7a:	a902      	add	r1, sp, #8
   81c7c:	f00b faaa 	bl	8d1d4 <std_strtol>
   81c80:	2800      	cmp	r0, #0
   81c82:	d030      	beq.n	81ce6 <cmd_read_cb+0x76>
   81c84:	9c02      	ldr	r4, [sp, #8]
   81c86:	491b      	ldr	r1, [pc, #108]	; (81cf4 <cmd_read_cb+0x84>)
   81c88:	4a1b      	ldr	r2, [pc, #108]	; (81cf8 <cmd_read_cb+0x88>)
   81c8a:	f04f 33ff 	mov.w	r3, #4294967295	; 0xffffffff
   81c8e:	a803      	add	r0, sp, #12
   81c90:	9103      	str	r1, [sp, #12]
   81c92:	9205      	str	r2, [sp, #20]
   81c94:	9304      	str	r3, [sp, #16]
   81c96:	f7ff fec9 	bl	81a2c <i2c_port_start>
   81c9a:	4621      	mov	r1, r4
   81c9c:	2301      	movs	r3, #1
   81c9e:	f10d 0207 	add.w	r2, sp, #7
   81ca2:	a803      	add	r0, sp, #12
   81ca4:	f7ff ffa6 	bl	81bf4 <i2c_read>
   81ca8:	2801      	cmp	r0, #1
   81caa:	bf15      	itete	ne
   81cac:	4621      	movne	r1, r4
   81cae:	f89d 1007 	ldrbeq.w	r1, [sp, #7]
   81cb2:	4812      	ldrne	r0, [pc, #72]	; (81cfc <cmd_read_cb+0x8c>)
   81cb4:	4812      	ldreq	r0, [pc, #72]	; (81d00 <cmd_read_cb+0x90>)
   81cb6:	f00b f885 	bl	8cdc4 <std_printf>
   81cba:	2200      	movs	r2, #0
   81cbc:	4610      	mov	r0, r2
   81cbe:	9b03      	ldr	r3, [sp, #12]
   81cc0:	f06f 017f 	mvn.w	r1, #127	; 0x7f
   81cc4:	685b      	ldr	r3, [r3, #4]
   81cc6:	781c      	ldrb	r4, [r3, #0]
   81cc8:	7019      	strb	r1, [r3, #0]
   81cca:	7859      	ldrb	r1, [r3, #1]
   81ccc:	705a      	strb	r2, [r3, #1]
   81cce:	7899      	ldrb	r1, [r3, #2]
   81cd0:	709a      	strb	r2, [r3, #2]
   81cd2:	78d9      	ldrb	r1, [r3, #3]
   81cd4:	70da      	strb	r2, [r3, #3]
   81cd6:	b006      	add	sp, #24
   81cd8:	bd10      	pop	{r4, pc}
   81cda:	480a      	ldr	r0, [pc, #40]	; (81d04 <cmd_read_cb+0x94>)
   81cdc:	f00b f872 	bl	8cdc4 <std_printf>
   81ce0:	f06f 0015 	mvn.w	r0, #21
   81ce4:	e7f7      	b.n	81cd6 <cmd_read_cb+0x66>
   81ce6:	4808      	ldr	r0, [pc, #32]	; (81d08 <cmd_read_cb+0x98>)
   81ce8:	f00b f86c 	bl	8cdc4 <std_printf>
   81cec:	f06f 0015 	mvn.w	r0, #21
   81cf0:	e7f1      	b.n	81cd6 <cmd_read_cb+0x66>
   81cf2:	bf00      	nop
   81cf4:	2007001c 	.word	0x2007001c
   81cf8:	0001cece 	.word	0x0001cece
   81cfc:	000908a8 	.word	0x000908a8
   81d00:	00093f74 	.word	0x00093f74
   81d04:	00090870 	.word	0x00090870
   81d08:	00090890 	.word	0x00090890

00081d0c <i2c_write>:
   81d0c:	e92d 41f0 	stmdb	sp!, {r4, r5, r6, r7, r8, lr}
   81d10:	460d      	mov	r5, r1
   81d12:	4616      	mov	r6, r2
   81d14:	461f      	mov	r7, r3
   81d16:	4604      	mov	r4, r0
   81d18:	b318      	cbz	r0, 81d62 <i2c_write+0x56>
   81d1a:	2d7f      	cmp	r5, #127	; 0x7f
   81d1c:	dc10      	bgt.n	81d40 <i2c_write+0x34>
   81d1e:	b1c6      	cbz	r6, 81d52 <i2c_write+0x46>
   81d20:	b937      	cbnz	r7, 81d30 <i2c_write+0x24>
   81d22:	4814      	ldr	r0, [pc, #80]	; (81d74 <i2c_write+0x68>)
   81d24:	f00b f84e 	bl	8cdc4 <std_printf>
   81d28:	4b13      	ldr	r3, [pc, #76]	; (81d78 <i2c_write+0x6c>)
   81d2a:	2016      	movs	r0, #22
   81d2c:	681b      	ldr	r3, [r3, #0]
   81d2e:	4798      	blx	r3
   81d30:	463b      	mov	r3, r7
   81d32:	4632      	mov	r2, r6
   81d34:	4629      	mov	r1, r5
   81d36:	4620      	mov	r0, r4
   81d38:	e8bd 41f0 	ldmia.w	sp!, {r4, r5, r6, r7, r8, lr}
   81d3c:	f7ff bef2 	b.w	81b24 <i2c_port_write>
   81d40:	480e      	ldr	r0, [pc, #56]	; (81d7c <i2c_write+0x70>)
   81d42:	f00b f83f 	bl	8cdc4 <std_printf>
   81d46:	4b0c      	ldr	r3, [pc, #48]	; (81d78 <i2c_write+0x6c>)
   81d48:	2016      	movs	r0, #22
   81d4a:	681b      	ldr	r3, [r3, #0]
   81d4c:	4798      	blx	r3
   81d4e:	2e00      	cmp	r6, #0
   81d50:	d1e6      	bne.n	81d20 <i2c_write+0x14>
   81d52:	480b      	ldr	r0, [pc, #44]	; (81d80 <i2c_write+0x74>)
   81d54:	f00b f836 	bl	8cdc4 <std_printf>
   81d58:	4b07      	ldr	r3, [pc, #28]	; (81d78 <i2c_write+0x6c>)
   81d5a:	2016      	movs	r0, #22
   81d5c:	681b      	ldr	r3, [r3, #0]
   81d5e:	4798      	blx	r3
   81d60:	e7de      	b.n	81d20 <i2c_write+0x14>
   81d62:	4808      	ldr	r0, [pc, #32]	; (81d84 <i2c_write+0x78>)
   81d64:	f00b f82e 	bl	8cdc4 <std_printf>
   81d68:	4b03      	ldr	r3, [pc, #12]	; (81d78 <i2c_write+0x6c>)
   81d6a:	2016      	movs	r0, #22
   81d6c:	681b      	ldr	r3, [r3, #0]
   81d6e:	4798      	blx	r3
   81d70:	e7d3      	b.n	81d1a <i2c_write+0xe>
   81d72:	bf00      	nop
   81d74:	000909f4 	.word	0x000909f4
   81d78:	20070860 	.word	0x20070860
   81d7c:	00090938 	.word	0x00090938
   81d80:	00090994 	.word	0x00090994
   81d84:	000908d4 	.word	0x000908d4

00081d88 <cmd_write_cb>:
   81d88:	b530      	push	{r4, r5, lr}
   81d8a:	2803      	cmp	r0, #3
   81d8c:	b087      	sub	sp, #28
   81d8e:	d13b      	bne.n	81e08 <cmd_write_cb+0x80>
   81d90:	460c      	mov	r4, r1
   81d92:	a902      	add	r1, sp, #8
   81d94:	6860      	ldr	r0, [r4, #4]
   81d96:	f00b fa1d 	bl	8d1d4 <std_strtol>
   81d9a:	2800      	cmp	r0, #0
   81d9c:	d040      	beq.n	81e20 <cmd_write_cb+0x98>
   81d9e:	68a0      	ldr	r0, [r4, #8]
   81da0:	a902      	add	r1, sp, #8
   81da2:	9c02      	ldr	r4, [sp, #8]
   81da4:	f00b fa16 	bl	8d1d4 <std_strtol>
   81da8:	2800      	cmp	r0, #0
   81daa:	d03f      	beq.n	81e2c <cmd_write_cb+0xa4>
   81dac:	9b02      	ldr	r3, [sp, #8]
   81dae:	2bff      	cmp	r3, #255	; 0xff
   81db0:	d830      	bhi.n	81e14 <cmd_write_cb+0x8c>
   81db2:	4921      	ldr	r1, [pc, #132]	; (81e38 <cmd_write_cb+0xb0>)
   81db4:	4d21      	ldr	r5, [pc, #132]	; (81e3c <cmd_write_cb+0xb4>)
   81db6:	f04f 32ff 	mov.w	r2, #4294967295	; 0xffffffff
   81dba:	a803      	add	r0, sp, #12
   81dbc:	f88d 3007 	strb.w	r3, [sp, #7]
   81dc0:	9105      	str	r1, [sp, #20]
   81dc2:	9204      	str	r2, [sp, #16]
   81dc4:	9503      	str	r5, [sp, #12]
   81dc6:	f7ff fe31 	bl	81a2c <i2c_port_start>
   81dca:	a803      	add	r0, sp, #12
   81dcc:	2301      	movs	r3, #1
   81dce:	f10d 0207 	add.w	r2, sp, #7
   81dd2:	4621      	mov	r1, r4
   81dd4:	f7ff ff9a 	bl	81d0c <i2c_write>
   81dd8:	2801      	cmp	r0, #1
   81dda:	d005      	beq.n	81de8 <cmd_write_cb+0x60>
   81ddc:	4622      	mov	r2, r4
   81dde:	f89d 1007 	ldrb.w	r1, [sp, #7]
   81de2:	4817      	ldr	r0, [pc, #92]	; (81e40 <cmd_write_cb+0xb8>)
   81de4:	f00a ffee 	bl	8cdc4 <std_printf>
   81de8:	2200      	movs	r2, #0
   81dea:	4610      	mov	r0, r2
   81dec:	9b03      	ldr	r3, [sp, #12]
   81dee:	f06f 017f 	mvn.w	r1, #127	; 0x7f
   81df2:	685b      	ldr	r3, [r3, #4]
   81df4:	781c      	ldrb	r4, [r3, #0]
   81df6:	7019      	strb	r1, [r3, #0]
   81df8:	7859      	ldrb	r1, [r3, #1]
   81dfa:	705a      	strb	r2, [r3, #1]
   81dfc:	7899      	ldrb	r1, [r3, #2]
   81dfe:	709a      	strb	r2, [r3, #2]
   81e00:	78d9      	ldrb	r1, [r3, #3]
   81e02:	70da      	strb	r2, [r3, #3]
   81e04:	b007      	add	sp, #28
   81e06:	bd30      	pop	{r4, r5, pc}
   81e08:	480e      	ldr	r0, [pc, #56]	; (81e44 <cmd_write_cb+0xbc>)
   81e0a:	f00a ffdb 	bl	8cdc4 <std_printf>
   81e0e:	f06f 0015 	mvn.w	r0, #21
   81e12:	e7f7      	b.n	81e04 <cmd_write_cb+0x7c>
   81e14:	480c      	ldr	r0, [pc, #48]	; (81e48 <cmd_write_cb+0xc0>)
   81e16:	f00a ffd5 	bl	8cdc4 <std_printf>
   81e1a:	f06f 0015 	mvn.w	r0, #21
   81e1e:	e7f1      	b.n	81e04 <cmd_write_cb+0x7c>
   81e20:	480a      	ldr	r0, [pc, #40]	; (81e4c <cmd_write_cb+0xc4>)
   81e22:	f00a ffcf 	bl	8cdc4 <std_printf>
   81e26:	f06f 0015 	mvn.w	r0, #21
   81e2a:	e7eb      	b.n	81e04 <cmd_write_cb+0x7c>
   81e2c:	4808      	ldr	r0, [pc, #32]	; (81e50 <cmd_write_cb+0xc8>)
   81e2e:	f00a ffc9 	bl	8cdc4 <std_printf>
   81e32:	f06f 0015 	mvn.w	r0, #21
   81e36:	e7e5      	b.n	81e04 <cmd_write_cb+0x7c>
   81e38:	0001cece 	.word	0x0001cece
   81e3c:	2007001c 	.word	0x2007001c
   81e40:	00090aa8 	.word	0x00090aa8
   81e44:	00090a48 	.word	0x00090a48
   81e48:	00090a88 	.word	0x00090a88
   81e4c:	00090890 	.word	0x00090890
   81e50:	00090a74 	.word	0x00090a74

00081e54 <i2c_scan>:
   81e54:	b538      	push	{r3, r4, r5, lr}
   81e56:	460c      	mov	r4, r1
   81e58:	4605      	mov	r5, r0
   81e5a:	b320      	cbz	r0, 81ea6 <i2c_scan+0x52>
   81e5c:	2c7f      	cmp	r4, #127	; 0x7f
   81e5e:	dc1a      	bgt.n	81e96 <i2c_scan+0x42>
   81e60:	682b      	ldr	r3, [r5, #0]
   81e62:	0424      	lsls	r4, r4, #16
   81e64:	685b      	ldr	r3, [r3, #4]
   81e66:	f404 04fe 	and.w	r4, r4, #8323072	; 0x7f0000
   81e6a:	f444 5480 	orr.w	r4, r4, #4096	; 0x1000
   81e6e:	605c      	str	r4, [r3, #4]
   81e70:	2103      	movs	r1, #3
   81e72:	781a      	ldrb	r2, [r3, #0]
   81e74:	7019      	strb	r1, [r3, #0]
   81e76:	2200      	movs	r2, #0
   81e78:	7859      	ldrb	r1, [r3, #1]
   81e7a:	705a      	strb	r2, [r3, #1]
   81e7c:	7899      	ldrb	r1, [r3, #2]
   81e7e:	709a      	strb	r2, [r3, #2]
   81e80:	78d9      	ldrb	r1, [r3, #3]
   81e82:	70da      	strb	r2, [r3, #3]
   81e84:	6a18      	ldr	r0, [r3, #32]
   81e86:	07c2      	lsls	r2, r0, #31
   81e88:	d5fc      	bpl.n	81e84 <i2c_scan+0x30>
   81e8a:	f480 7080 	eor.w	r0, r0, #256	; 0x100
   81e8e:	f3c0 2000 	ubfx	r0, r0, #8, #1
   81e92:	6b1b      	ldr	r3, [r3, #48]	; 0x30
   81e94:	bd38      	pop	{r3, r4, r5, pc}
   81e96:	4808      	ldr	r0, [pc, #32]	; (81eb8 <i2c_scan+0x64>)
   81e98:	f00a ff94 	bl	8cdc4 <std_printf>
   81e9c:	4b07      	ldr	r3, [pc, #28]	; (81ebc <i2c_scan+0x68>)
   81e9e:	2016      	movs	r0, #22
   81ea0:	681b      	ldr	r3, [r3, #0]
   81ea2:	4798      	blx	r3
   81ea4:	e7dc      	b.n	81e60 <i2c_scan+0xc>
   81ea6:	4806      	ldr	r0, [pc, #24]	; (81ec0 <i2c_scan+0x6c>)
   81ea8:	f00a ff8c 	bl	8cdc4 <std_printf>
   81eac:	4b03      	ldr	r3, [pc, #12]	; (81ebc <i2c_scan+0x68>)
   81eae:	2016      	movs	r0, #22
   81eb0:	681b      	ldr	r3, [r3, #0]
   81eb2:	4798      	blx	r3
   81eb4:	e7d2      	b.n	81e5c <i2c_scan+0x8>
   81eb6:	bf00      	nop
   81eb8:	00090b44 	.word	0x00090b44
   81ebc:	20070860 	.word	0x20070860
   81ec0:	00090ae0 	.word	0x00090ae0

00081ec4 <cmd_scan_cb>:
   81ec4:	b530      	push	{r4, r5, lr}
   81ec6:	4917      	ldr	r1, [pc, #92]	; (81f24 <cmd_scan_cb+0x60>)
   81ec8:	b085      	sub	sp, #20
   81eca:	4c17      	ldr	r4, [pc, #92]	; (81f28 <cmd_scan_cb+0x64>)
   81ecc:	f04f 33ff 	mov.w	r3, #4294967295	; 0xffffffff
   81ed0:	a801      	add	r0, sp, #4
   81ed2:	9401      	str	r4, [sp, #4]
   81ed4:	4615      	mov	r5, r2
   81ed6:	9103      	str	r1, [sp, #12]
   81ed8:	9302      	str	r3, [sp, #8]
   81eda:	2400      	movs	r4, #0
   81edc:	f7ff fda6 	bl	81a2c <i2c_port_start>
   81ee0:	e002      	b.n	81ee8 <cmd_scan_cb+0x24>
   81ee2:	3401      	adds	r4, #1
   81ee4:	2c80      	cmp	r4, #128	; 0x80
   81ee6:	d00d      	beq.n	81f04 <cmd_scan_cb+0x40>
   81ee8:	4621      	mov	r1, r4
   81eea:	a801      	add	r0, sp, #4
   81eec:	f7ff ffb2 	bl	81e54 <i2c_scan>
   81ef0:	2801      	cmp	r0, #1
   81ef2:	d1f6      	bne.n	81ee2 <cmd_scan_cb+0x1e>
   81ef4:	4622      	mov	r2, r4
   81ef6:	490d      	ldr	r1, [pc, #52]	; (81f2c <cmd_scan_cb+0x68>)
   81ef8:	4628      	mov	r0, r5
   81efa:	3401      	adds	r4, #1
   81efc:	f00b f826 	bl	8cf4c <std_fprintf>
   81f00:	2c80      	cmp	r4, #128	; 0x80
   81f02:	d1f1      	bne.n	81ee8 <cmd_scan_cb+0x24>
   81f04:	9b01      	ldr	r3, [sp, #4]
   81f06:	2200      	movs	r2, #0
   81f08:	685b      	ldr	r3, [r3, #4]
   81f0a:	f06f 017f 	mvn.w	r1, #127	; 0x7f
   81f0e:	7818      	ldrb	r0, [r3, #0]
   81f10:	4610      	mov	r0, r2
   81f12:	7019      	strb	r1, [r3, #0]
   81f14:	7859      	ldrb	r1, [r3, #1]
   81f16:	705a      	strb	r2, [r3, #1]
   81f18:	7899      	ldrb	r1, [r3, #2]
   81f1a:	709a      	strb	r2, [r3, #2]
   81f1c:	78d9      	ldrb	r1, [r3, #3]
   81f1e:	70da      	strb	r2, [r3, #3]
   81f20:	b005      	add	sp, #20
   81f22:	bd30      	pop	{r4, r5, pc}
   81f24:	0001cece 	.word	0x0001cece
   81f28:	2007001c 	.word	0x2007001c
   81f2c:	00090ba0 	.word	0x00090ba0

00081f30 <i2c_soft_module_init>:
   81f30:	2000      	movs	r0, #0
   81f32:	4770      	bx	lr

00081f34 <owi_reset>:
   81f34:	b570      	push	{r4, r5, r6, lr}
   81f36:	4604      	mov	r4, r0
   81f38:	2800      	cmp	r0, #0
   81f3a:	d04f      	beq.n	81fdc <owi_reset+0xa8>
   81f3c:	2100      	movs	r1, #0
   81f3e:	4620      	mov	r0, r4
   81f40:	f7ff fc46 	bl	817d0 <pin_write>
   81f44:	f44f 70f0 	mov.w	r0, #480	; 0x1e0
   81f48:	f002 fc5e 	bl	84808 <time_busy_wait_us>
   81f4c:	f001 fed6 	bl	83cfc <sys_lock>
   81f50:	2101      	movs	r1, #1
   81f52:	4620      	mov	r0, r4
   81f54:	f7ff fc3c 	bl	817d0 <pin_write>
   81f58:	2103      	movs	r1, #3
   81f5a:	4620      	mov	r0, r4
   81f5c:	f7ff fc56 	bl	8180c <pin_set_mode>
   81f60:	2046      	movs	r0, #70	; 0x46
   81f62:	f002 fc51 	bl	84808 <time_busy_wait_us>
   81f66:	4620      	mov	r0, r4
   81f68:	f7ff fc1a 	bl	817a0 <pin_read>
   81f6c:	4605      	mov	r5, r0
   81f6e:	f001 fec7 	bl	83d00 <sys_unlock>
   81f72:	f44f 70cd 	mov.w	r0, #410	; 0x19a
   81f76:	f002 fc47 	bl	84808 <time_busy_wait_us>
   81f7a:	2100      	movs	r1, #0
   81f7c:	4620      	mov	r0, r4
   81f7e:	f7ff fc45 	bl	8180c <pin_set_mode>
   81f82:	2604      	movs	r6, #4
   81f84:	2100      	movs	r1, #0
   81f86:	b33d      	cbz	r5, 81fd8 <owi_reset+0xa4>
   81f88:	4620      	mov	r0, r4
   81f8a:	f7ff fc21 	bl	817d0 <pin_write>
   81f8e:	f44f 70f0 	mov.w	r0, #480	; 0x1e0
   81f92:	f002 fc39 	bl	84808 <time_busy_wait_us>
   81f96:	f001 feb1 	bl	83cfc <sys_lock>
   81f9a:	2101      	movs	r1, #1
   81f9c:	4620      	mov	r0, r4
   81f9e:	f7ff fc17 	bl	817d0 <pin_write>
   81fa2:	2103      	movs	r1, #3
   81fa4:	4620      	mov	r0, r4
   81fa6:	f7ff fc31 	bl	8180c <pin_set_mode>
   81faa:	2046      	movs	r0, #70	; 0x46
   81fac:	f002 fc2c 	bl	84808 <time_busy_wait_us>
   81fb0:	4620      	mov	r0, r4
   81fb2:	f7ff fbf5 	bl	817a0 <pin_read>
   81fb6:	4605      	mov	r5, r0
   81fb8:	f001 fea2 	bl	83d00 <sys_unlock>
   81fbc:	f44f 70cd 	mov.w	r0, #410	; 0x19a
   81fc0:	f002 fc22 	bl	84808 <time_busy_wait_us>
   81fc4:	2100      	movs	r1, #0
   81fc6:	4620      	mov	r0, r4
   81fc8:	f7ff fc20 	bl	8180c <pin_set_mode>
   81fcc:	3e01      	subs	r6, #1
   81fce:	d1d9      	bne.n	81f84 <owi_reset+0x50>
   81fd0:	fab5 f085 	clz	r0, r5
   81fd4:	0940      	lsrs	r0, r0, #5
   81fd6:	bd70      	pop	{r4, r5, r6, pc}
   81fd8:	2001      	movs	r0, #1
   81fda:	bd70      	pop	{r4, r5, r6, pc}
   81fdc:	4803      	ldr	r0, [pc, #12]	; (81fec <owi_reset+0xb8>)
   81fde:	f00a fef1 	bl	8cdc4 <std_printf>
   81fe2:	4b03      	ldr	r3, [pc, #12]	; (81ff0 <owi_reset+0xbc>)
   81fe4:	2016      	movs	r0, #22
   81fe6:	681b      	ldr	r3, [r3, #0]
   81fe8:	4798      	blx	r3
   81fea:	e7a7      	b.n	81f3c <owi_reset+0x8>
   81fec:	00091038 	.word	0x00091038
   81ff0:	20070860 	.word	0x20070860

00081ff4 <owi_read>:
   81ff4:	b5f8      	push	{r3, r4, r5, r6, r7, lr}
   81ff6:	460d      	mov	r5, r1
   81ff8:	4617      	mov	r7, r2
   81ffa:	4604      	mov	r4, r0
   81ffc:	2800      	cmp	r0, #0
   81ffe:	d050      	beq.n	820a2 <owi_read+0xae>
   82000:	2d00      	cmp	r5, #0
   82002:	d046      	beq.n	82092 <owi_read+0x9e>
   82004:	2f00      	cmp	r7, #0
   82006:	d03b      	beq.n	82080 <owi_read+0x8c>
   82008:	2600      	movs	r6, #0
   8200a:	f001 fe77 	bl	83cfc <sys_lock>
   8200e:	2100      	movs	r1, #0
   82010:	4620      	mov	r0, r4
   82012:	f7ff fbdd 	bl	817d0 <pin_write>
   82016:	2005      	movs	r0, #5
   82018:	f002 fbf6 	bl	84808 <time_busy_wait_us>
   8201c:	2103      	movs	r1, #3
   8201e:	4620      	mov	r0, r4
   82020:	f7ff fbf4 	bl	8180c <pin_set_mode>
   82024:	2009      	movs	r0, #9
   82026:	f002 fbef 	bl	84808 <time_busy_wait_us>
   8202a:	782b      	ldrb	r3, [r5, #0]
   8202c:	4620      	mov	r0, r4
   8202e:	085b      	lsrs	r3, r3, #1
   82030:	702b      	strb	r3, [r5, #0]
   82032:	f7ff fbb5 	bl	817a0 <pin_read>
   82036:	782b      	ldrb	r3, [r5, #0]
   82038:	ea43 10c0 	orr.w	r0, r3, r0, lsl #7
   8203c:	7028      	strb	r0, [r5, #0]
   8203e:	f001 fe5f 	bl	83d00 <sys_unlock>
   82042:	2037      	movs	r0, #55	; 0x37
   82044:	f002 fbe0 	bl	84808 <time_busy_wait_us>
   82048:	2100      	movs	r1, #0
   8204a:	4620      	mov	r0, r4
   8204c:	f7ff fbde 	bl	8180c <pin_set_mode>
   82050:	2101      	movs	r1, #1
   82052:	4620      	mov	r0, r4
   82054:	f7ff fbbc 	bl	817d0 <pin_write>
   82058:	f006 0307 	and.w	r3, r6, #7
   8205c:	2b07      	cmp	r3, #7
   8205e:	f106 0601 	add.w	r6, r6, #1
   82062:	bf08      	it	eq
   82064:	3501      	addeq	r5, #1
   82066:	42be      	cmp	r6, r7
   82068:	d1cf      	bne.n	8200a <owi_read+0x16>
   8206a:	f017 0307 	ands.w	r3, r7, #7
   8206e:	d005      	beq.n	8207c <owi_read+0x88>
   82070:	782a      	ldrb	r2, [r5, #0]
   82072:	f1c3 0308 	rsb	r3, r3, #8
   82076:	fa42 f303 	asr.w	r3, r2, r3
   8207a:	702b      	strb	r3, [r5, #0]
   8207c:	4638      	mov	r0, r7
   8207e:	bdf8      	pop	{r3, r4, r5, r6, r7, pc}
   82080:	480d      	ldr	r0, [pc, #52]	; (820b8 <owi_read+0xc4>)
   82082:	f00a fe9f 	bl	8cdc4 <std_printf>
   82086:	4b0d      	ldr	r3, [pc, #52]	; (820bc <owi_read+0xc8>)
   82088:	2016      	movs	r0, #22
   8208a:	681b      	ldr	r3, [r3, #0]
   8208c:	4798      	blx	r3
   8208e:	4638      	mov	r0, r7
   82090:	bdf8      	pop	{r3, r4, r5, r6, r7, pc}
   82092:	480b      	ldr	r0, [pc, #44]	; (820c0 <owi_read+0xcc>)
   82094:	f00a fe96 	bl	8cdc4 <std_printf>
   82098:	4b08      	ldr	r3, [pc, #32]	; (820bc <owi_read+0xc8>)
   8209a:	2016      	movs	r0, #22
   8209c:	681b      	ldr	r3, [r3, #0]
   8209e:	4798      	blx	r3
   820a0:	e7b0      	b.n	82004 <owi_read+0x10>
   820a2:	4808      	ldr	r0, [pc, #32]	; (820c4 <owi_read+0xd0>)
   820a4:	f00a fe8e 	bl	8cdc4 <std_printf>
   820a8:	4b04      	ldr	r3, [pc, #16]	; (820bc <owi_read+0xc8>)
   820aa:	2016      	movs	r0, #22
   820ac:	681b      	ldr	r3, [r3, #0]
   820ae:	4798      	blx	r3
   820b0:	2d00      	cmp	r5, #0
   820b2:	d1a7      	bne.n	82004 <owi_read+0x10>
   820b4:	e7ed      	b.n	82092 <owi_read+0x9e>
   820b6:	bf00      	nop
   820b8:	0009115c 	.word	0x0009115c
   820bc:	20070860 	.word	0x20070860
   820c0:	000910fc 	.word	0x000910fc
   820c4:	00091098 	.word	0x00091098

000820c8 <owi_write>:
   820c8:	e92d 41f0 	stmdb	sp!, {r4, r5, r6, r7, r8, lr}
   820cc:	460f      	mov	r7, r1
   820ce:	4690      	mov	r8, r2
   820d0:	4606      	mov	r6, r0
   820d2:	2800      	cmp	r0, #0
   820d4:	d04b      	beq.n	8216e <owi_write+0xa6>
   820d6:	2f00      	cmp	r7, #0
   820d8:	d041      	beq.n	8215e <owi_write+0x96>
   820da:	f1b8 0f00 	cmp.w	r8, #0
   820de:	d034      	beq.n	8214a <owi_write+0x82>
   820e0:	2500      	movs	r5, #0
   820e2:	462c      	mov	r4, r5
   820e4:	e00f      	b.n	82106 <owi_write+0x3e>
   820e6:	f002 fb8f 	bl	84808 <time_busy_wait_us>
   820ea:	2101      	movs	r1, #1
   820ec:	4630      	mov	r0, r6
   820ee:	f7ff fb6f 	bl	817d0 <pin_write>
   820f2:	3401      	adds	r4, #1
   820f4:	2040      	movs	r0, #64	; 0x40
   820f6:	f002 fb87 	bl	84808 <time_busy_wait_us>
   820fa:	f001 fe01 	bl	83d00 <sys_unlock>
   820fe:	45a0      	cmp	r8, r4
   82100:	ea4f 0555 	mov.w	r5, r5, lsr #1
   82104:	d01e      	beq.n	82144 <owi_write+0x7c>
   82106:	0762      	lsls	r2, r4, #29
   82108:	bf04      	itt	eq
   8210a:	783d      	ldrbeq	r5, [r7, #0]
   8210c:	3701      	addeq	r7, #1
   8210e:	f001 fdf5 	bl	83cfc <sys_lock>
   82112:	2100      	movs	r1, #0
   82114:	4630      	mov	r0, r6
   82116:	f7ff fb5b 	bl	817d0 <pin_write>
   8211a:	07eb      	lsls	r3, r5, #31
   8211c:	f04f 0005 	mov.w	r0, #5
   82120:	d4e1      	bmi.n	820e6 <owi_write+0x1e>
   82122:	203b      	movs	r0, #59	; 0x3b
   82124:	f002 fb70 	bl	84808 <time_busy_wait_us>
   82128:	2101      	movs	r1, #1
   8212a:	4630      	mov	r0, r6
   8212c:	f7ff fb50 	bl	817d0 <pin_write>
   82130:	3401      	adds	r4, #1
   82132:	200a      	movs	r0, #10
   82134:	f002 fb68 	bl	84808 <time_busy_wait_us>
   82138:	f001 fde2 	bl	83d00 <sys_unlock>
   8213c:	45a0      	cmp	r8, r4
   8213e:	ea4f 0555 	mov.w	r5, r5, lsr #1
   82142:	d1e0      	bne.n	82106 <owi_write+0x3e>
   82144:	4640      	mov	r0, r8
   82146:	e8bd 81f0 	ldmia.w	sp!, {r4, r5, r6, r7, r8, pc}
   8214a:	480e      	ldr	r0, [pc, #56]	; (82184 <owi_write+0xbc>)
   8214c:	f00a fe3a 	bl	8cdc4 <std_printf>
   82150:	4b0d      	ldr	r3, [pc, #52]	; (82188 <owi_write+0xc0>)
   82152:	2016      	movs	r0, #22
   82154:	681b      	ldr	r3, [r3, #0]
   82156:	4798      	blx	r3
   82158:	4640      	mov	r0, r8
   8215a:	e8bd 81f0 	ldmia.w	sp!, {r4, r5, r6, r7, r8, pc}
   8215e:	480b      	ldr	r0, [pc, #44]	; (8218c <owi_write+0xc4>)
   82160:	f00a fe30 	bl	8cdc4 <std_printf>
   82164:	4b08      	ldr	r3, [pc, #32]	; (82188 <owi_write+0xc0>)
   82166:	2016      	movs	r0, #22
   82168:	681b      	ldr	r3, [r3, #0]
   8216a:	4798      	blx	r3
   8216c:	e7b5      	b.n	820da <owi_write+0x12>
   8216e:	4808      	ldr	r0, [pc, #32]	; (82190 <owi_write+0xc8>)
   82170:	f00a fe28 	bl	8cdc4 <std_printf>
   82174:	4b04      	ldr	r3, [pc, #16]	; (82188 <owi_write+0xc0>)
   82176:	2016      	movs	r0, #22
   82178:	681b      	ldr	r3, [r3, #0]
   8217a:	4798      	blx	r3
   8217c:	2f00      	cmp	r7, #0
   8217e:	d1ac      	bne.n	820da <owi_write+0x12>
   82180:	e7ed      	b.n	8215e <owi_write+0x96>
   82182:	bf00      	nop
   82184:	00091274 	.word	0x00091274
   82188:	20070860 	.word	0x20070860
   8218c:	00091214 	.word	0x00091214
   82190:	000911b0 	.word	0x000911b0

00082194 <owi_search>:
   82194:	e92d 4ff0 	stmdb	sp!, {r4, r5, r6, r7, r8, r9, sl, fp, lr}
   82198:	4605      	mov	r5, r0
   8219a:	b085      	sub	sp, #20
   8219c:	2800      	cmp	r0, #0
   8219e:	d072      	beq.n	82286 <owi_search+0xf2>
   821a0:	2300      	movs	r3, #0
   821a2:	4618      	mov	r0, r3
   821a4:	732b      	strb	r3, [r5, #12]
   821a6:	736b      	strb	r3, [r5, #13]
   821a8:	73ab      	strb	r3, [r5, #14]
   821aa:	73eb      	strb	r3, [r5, #15]
   821ac:	4699      	mov	r9, r3
   821ae:	f04f 33ff 	mov.w	r3, #4294967295	; 0xffffffff
   821b2:	f8d5 b004 	ldr.w	fp, [r5, #4]
   821b6:	9300      	str	r3, [sp, #0]
   821b8:	68ab      	ldr	r3, [r5, #8]
   821ba:	4298      	cmp	r0, r3
   821bc:	d249      	bcs.n	82252 <owi_search+0xbe>
   821be:	4628      	mov	r0, r5
   821c0:	f7ff feb8 	bl	81f34 <owi_reset>
   821c4:	af04      	add	r7, sp, #16
   821c6:	23f0      	movs	r3, #240	; 0xf0
   821c8:	f807 3d01 	strb.w	r3, [r7, #-1]!
   821cc:	4639      	mov	r1, r7
   821ce:	2208      	movs	r2, #8
   821d0:	4628      	mov	r0, r5
   821d2:	f7ff ff79 	bl	820c8 <owi_write>
   821d6:	f04f 33ff 	mov.w	r3, #4294967295	; 0xffffffff
   821da:	465c      	mov	r4, fp
   821dc:	f04f 0800 	mov.w	r8, #0
   821e0:	f10b 0b08 	add.w	fp, fp, #8
   821e4:	9301      	str	r3, [sp, #4]
   821e6:	2600      	movs	r6, #0
   821e8:	f04f 0a01 	mov.w	sl, #1
   821ec:	7823      	ldrb	r3, [r4, #0]
   821ee:	2202      	movs	r2, #2
   821f0:	085b      	lsrs	r3, r3, #1
   821f2:	7023      	strb	r3, [r4, #0]
   821f4:	4639      	mov	r1, r7
   821f6:	4628      	mov	r0, r5
   821f8:	f88d 900f 	strb.w	r9, [sp, #15]
   821fc:	f7ff fefa 	bl	81ff4 <owi_read>
   82200:	f89d 300f 	ldrb.w	r3, [sp, #15]
   82204:	2b03      	cmp	r3, #3
   82206:	d805      	bhi.n	82214 <owi_search+0x80>
   82208:	e8df f003 	tbb	[pc, r3]
   8220c:	22300226 	.word	0x22300226
   82210:	f88d a00f 	strb.w	sl, [sp, #15]
   82214:	2201      	movs	r2, #1
   82216:	4639      	mov	r1, r7
   82218:	4628      	mov	r0, r5
   8221a:	f7ff ff55 	bl	820c8 <owi_write>
   8221e:	f89d 200f 	ldrb.w	r2, [sp, #15]
   82222:	7823      	ldrb	r3, [r4, #0]
   82224:	2001      	movs	r0, #1
   82226:	ea43 13c2 	orr.w	r3, r3, r2, lsl #7
   8222a:	3601      	adds	r6, #1
   8222c:	7023      	strb	r3, [r4, #0]
   8222e:	4480      	add	r8, r0
   82230:	f002 faea 	bl	84808 <time_busy_wait_us>
   82234:	2e08      	cmp	r6, #8
   82236:	d1d9      	bne.n	821ec <owi_search+0x58>
   82238:	3401      	adds	r4, #1
   8223a:	455c      	cmp	r4, fp
   8223c:	d1d3      	bne.n	821e6 <owi_search+0x52>
   8223e:	68e8      	ldr	r0, [r5, #12]
   82240:	9a01      	ldr	r2, [sp, #4]
   82242:	3001      	adds	r0, #1
   82244:	4613      	mov	r3, r2
   82246:	3201      	adds	r2, #1
   82248:	60e8      	str	r0, [r5, #12]
   8224a:	d002      	beq.n	82252 <owi_search+0xbe>
   8224c:	9300      	str	r3, [sp, #0]
   8224e:	e7b3      	b.n	821b8 <owi_search+0x24>
   82250:	68e8      	ldr	r0, [r5, #12]
   82252:	b005      	add	sp, #20
   82254:	e8bd 8ff0 	ldmia.w	sp!, {r4, r5, r6, r7, r8, r9, sl, fp, pc}
   82258:	9b00      	ldr	r3, [sp, #0]
   8225a:	4543      	cmp	r3, r8
   8225c:	dc09      	bgt.n	82272 <owi_search+0xde>
   8225e:	dad7      	bge.n	82210 <owi_search+0x7c>
   82260:	f88d 900f 	strb.w	r9, [sp, #15]
   82264:	fa4f f388 	sxtb.w	r3, r8
   82268:	9301      	str	r3, [sp, #4]
   8226a:	e7d3      	b.n	82214 <owi_search+0x80>
   8226c:	f88d 900f 	strb.w	r9, [sp, #15]
   82270:	e7d0      	b.n	82214 <owi_search+0x80>
   82272:	f814 3c08 	ldrb.w	r3, [r4, #-8]
   82276:	4133      	asrs	r3, r6
   82278:	f003 0301 	and.w	r3, r3, #1
   8227c:	f88d 300f 	strb.w	r3, [sp, #15]
   82280:	2b00      	cmp	r3, #0
   82282:	d1c7      	bne.n	82214 <owi_search+0x80>
   82284:	e7ee      	b.n	82264 <owi_search+0xd0>
   82286:	4804      	ldr	r0, [pc, #16]	; (82298 <owi_search+0x104>)
   82288:	f00a fd9c 	bl	8cdc4 <std_printf>
   8228c:	4b03      	ldr	r3, [pc, #12]	; (8229c <owi_search+0x108>)
   8228e:	2016      	movs	r0, #22
   82290:	681b      	ldr	r3, [r3, #0]
   82292:	4798      	blx	r3
   82294:	e784      	b.n	821a0 <owi_search+0xc>
   82296:	bf00      	nop
   82298:	000912c8 	.word	0x000912c8
   8229c:	20070860 	.word	0x20070860

000822a0 <isr_spi0>:
   822a0:	4a1c      	ldr	r2, [pc, #112]	; (82314 <isr_spi0+0x74>)
   822a2:	6813      	ldr	r3, [r2, #0]
   822a4:	b1d3      	cbz	r3, 822dc <isr_spi0+0x3c>
   822a6:	6851      	ldr	r1, [r2, #4]
   822a8:	6908      	ldr	r0, [r1, #16]
   822aa:	69c9      	ldr	r1, [r1, #28]
   822ac:	4208      	tst	r0, r1
   822ae:	d015      	beq.n	822dc <isr_spi0+0x3c>
   822b0:	b430      	push	{r4, r5}
   822b2:	6999      	ldr	r1, [r3, #24]
   822b4:	b129      	cbz	r1, 822c2 <isr_spi0+0x22>
   822b6:	6818      	ldr	r0, [r3, #0]
   822b8:	1c4c      	adds	r4, r1, #1
   822ba:	619c      	str	r4, [r3, #24]
   822bc:	6840      	ldr	r0, [r0, #4]
   822be:	6880      	ldr	r0, [r0, #8]
   822c0:	7008      	strb	r0, [r1, #0]
   822c2:	6a19      	ldr	r1, [r3, #32]
   822c4:	b159      	cbz	r1, 822de <isr_spi0+0x3e>
   822c6:	69da      	ldr	r2, [r3, #28]
   822c8:	6818      	ldr	r0, [r3, #0]
   822ca:	b1b2      	cbz	r2, 822fa <isr_spi0+0x5a>
   822cc:	1c54      	adds	r4, r2, #1
   822ce:	6840      	ldr	r0, [r0, #4]
   822d0:	61dc      	str	r4, [r3, #28]
   822d2:	7812      	ldrb	r2, [r2, #0]
   822d4:	60c2      	str	r2, [r0, #12]
   822d6:	3901      	subs	r1, #1
   822d8:	6219      	str	r1, [r3, #32]
   822da:	bc30      	pop	{r4, r5}
   822dc:	4770      	bx	lr
   822de:	6852      	ldr	r2, [r2, #4]
   822e0:	2002      	movs	r0, #2
   822e2:	7e14      	ldrb	r4, [r2, #24]
   822e4:	7611      	strb	r1, [r2, #24]
   822e6:	7e54      	ldrb	r4, [r2, #25]
   822e8:	7650      	strb	r0, [r2, #25]
   822ea:	7e90      	ldrb	r0, [r2, #26]
   822ec:	7691      	strb	r1, [r2, #26]
   822ee:	7ed0      	ldrb	r0, [r2, #27]
   822f0:	76d1      	strb	r1, [r2, #27]
   822f2:	6a58      	ldr	r0, [r3, #36]	; 0x24
   822f4:	bc30      	pop	{r4, r5}
   822f6:	f002 b8eb 	b.w	844d0 <thrd_resume_isr>
   822fa:	6840      	ldr	r0, [r0, #4]
   822fc:	f04f 34ff 	mov.w	r4, #4294967295	; 0xffffffff
   82300:	7b05      	ldrb	r5, [r0, #12]
   82302:	7304      	strb	r4, [r0, #12]
   82304:	7b44      	ldrb	r4, [r0, #13]
   82306:	7342      	strb	r2, [r0, #13]
   82308:	7b84      	ldrb	r4, [r0, #14]
   8230a:	7382      	strb	r2, [r0, #14]
   8230c:	7bc4      	ldrb	r4, [r0, #15]
   8230e:	73c2      	strb	r2, [r0, #15]
   82310:	e7e1      	b.n	822d6 <isr_spi0+0x36>
   82312:	bf00      	nop
   82314:	2007008c 	.word	0x2007008c

00082318 <spi_module_init>:
   82318:	4b04      	ldr	r3, [pc, #16]	; (8232c <spi_module_init+0x14>)
   8231a:	2000      	movs	r0, #0
   8231c:	f993 2000 	ldrsb.w	r2, [r3]
   82320:	2a01      	cmp	r2, #1
   82322:	bf1c      	itt	ne
   82324:	2201      	movne	r2, #1
   82326:	701a      	strbne	r2, [r3, #0]
   82328:	4770      	bx	lr
   8232a:	bf00      	nop
   8232c:	20071264 	.word	0x20071264

00082330 <isr>:
   82330:	e92d 41f0 	stmdb	sp!, {r4, r5, r6, r7, r8, lr}
   82334:	00c7      	lsls	r7, r0, #3
   82336:	1a3b      	subs	r3, r7, r0
   82338:	4e2d      	ldr	r6, [pc, #180]	; (823f0 <isr+0xc0>)
   8233a:	eb00 0383 	add.w	r3, r0, r3, lsl #2
   8233e:	4433      	add	r3, r6
   82340:	f8d3 8000 	ldr.w	r8, [r3]
   82344:	f1b8 0f00 	cmp.w	r8, #0
   82348:	d02e      	beq.n	823a8 <isr+0x78>
   8234a:	685b      	ldr	r3, [r3, #4]
   8234c:	4605      	mov	r5, r0
   8234e:	695c      	ldr	r4, [r3, #20]
   82350:	691a      	ldr	r2, [r3, #16]
   82352:	4014      	ands	r4, r2
   82354:	06e2      	lsls	r2, r4, #27
   82356:	d43b      	bmi.n	823d0 <isr+0xa0>
   82358:	0723      	lsls	r3, r4, #28
   8235a:	d525      	bpl.n	823a8 <isr+0x78>
   8235c:	f014 0fe0 	tst.w	r4, #224	; 0xe0
   82360:	d024      	beq.n	823ac <isr+0x7c>
   82362:	2201      	movs	r2, #1
   82364:	2300      	movs	r3, #0
   82366:	4823      	ldr	r0, [pc, #140]	; (823f4 <isr+0xc4>)
   82368:	f005 fdaa 	bl	87ec0 <fs_counter_increment>
   8236c:	1b7c      	subs	r4, r7, r5
   8236e:	eb05 0484 	add.w	r4, r5, r4, lsl #2
   82372:	4434      	add	r4, r6
   82374:	341c      	adds	r4, #28
   82376:	1b78      	subs	r0, r7, r5
   82378:	eb05 0080 	add.w	r0, r5, r0, lsl #2
   8237c:	4430      	add	r0, r6
   8237e:	6843      	ldr	r3, [r0, #4]
   82380:	2101      	movs	r1, #1
   82382:	f8c3 4100 	str.w	r4, [r3, #256]	; 0x100
   82386:	f893 2104 	ldrb.w	r2, [r3, #260]	; 0x104
   8238a:	f883 1104 	strb.w	r1, [r3, #260]	; 0x104
   8238e:	2200      	movs	r2, #0
   82390:	f893 1105 	ldrb.w	r1, [r3, #261]	; 0x105
   82394:	f883 2105 	strb.w	r2, [r3, #261]	; 0x105
   82398:	f893 1106 	ldrb.w	r1, [r3, #262]	; 0x106
   8239c:	f883 2106 	strb.w	r2, [r3, #262]	; 0x106
   823a0:	f893 1107 	ldrb.w	r1, [r3, #263]	; 0x107
   823a4:	f883 2107 	strb.w	r2, [r3, #263]	; 0x107
   823a8:	e8bd 81f0 	ldmia.w	sp!, {r4, r5, r6, r7, r8, pc}
   823ac:	1b7c      	subs	r4, r7, r5
   823ae:	eb05 0484 	add.w	r4, r5, r4, lsl #2
   823b2:	4434      	add	r4, r6
   823b4:	341c      	adds	r4, #28
   823b6:	4640      	mov	r0, r8
   823b8:	4621      	mov	r1, r4
   823ba:	2201      	movs	r2, #1
   823bc:	f00a f952 	bl	8c664 <queue_write_isr>
   823c0:	2801      	cmp	r0, #1
   823c2:	d0d8      	beq.n	82376 <isr+0x46>
   823c4:	2201      	movs	r2, #1
   823c6:	2300      	movs	r3, #0
   823c8:	480b      	ldr	r0, [pc, #44]	; (823f8 <isr+0xc8>)
   823ca:	f005 fd79 	bl	87ec0 <fs_counter_increment>
   823ce:	e7d2      	b.n	82376 <isr+0x46>
   823d0:	2210      	movs	r2, #16
   823d2:	7b19      	ldrb	r1, [r3, #12]
   823d4:	731a      	strb	r2, [r3, #12]
   823d6:	2100      	movs	r1, #0
   823d8:	7b5a      	ldrb	r2, [r3, #13]
   823da:	7359      	strb	r1, [r3, #13]
   823dc:	7b9a      	ldrb	r2, [r3, #14]
   823de:	7399      	strb	r1, [r3, #14]
   823e0:	7bda      	ldrb	r2, [r3, #15]
   823e2:	73d9      	strb	r1, [r3, #15]
   823e4:	f8d8 0062 	ldr.w	r0, [r8, #98]	; 0x62
   823e8:	f002 f872 	bl	844d0 <thrd_resume_isr>
   823ec:	e7b4      	b.n	82358 <isr+0x28>
   823ee:	bf00      	nop
   823f0:	20070414 	.word	0x20070414
   823f4:	20071288 	.word	0x20071288
   823f8:	20071268 	.word	0x20071268

000823fc <uart_port_write_cb>:
   823fc:	e92d 43f8 	stmdb	sp!, {r3, r4, r5, r6, r7, r8, r9, lr}
   82400:	4616      	mov	r6, r2
   82402:	4689      	mov	r9, r1
   82404:	f8d0 8051 	ldr.w	r8, [r0, #81]	; 0x51
   82408:	f100 0755 	add.w	r7, r0, #85	; 0x55
   8240c:	4605      	mov	r5, r0
   8240e:	4638      	mov	r0, r7
   82410:	f00a f860 	bl	8c4d4 <mutex_lock>
   82414:	f001 fc72 	bl	83cfc <sys_lock>
   82418:	f8d8 3004 	ldr.w	r3, [r8, #4]
   8241c:	2400      	movs	r4, #0
   8241e:	f8c3 9108 	str.w	r9, [r3, #264]	; 0x108
   82422:	f8c3 610c 	str.w	r6, [r3, #268]	; 0x10c
   82426:	f893 2120 	ldrb.w	r2, [r3, #288]	; 0x120
   8242a:	f883 4120 	strb.w	r4, [r3, #288]	; 0x120
   8242e:	2201      	movs	r2, #1
   82430:	f893 1121 	ldrb.w	r1, [r3, #289]	; 0x121
   82434:	f883 2121 	strb.w	r2, [r3, #289]	; 0x121
   82438:	f893 2122 	ldrb.w	r2, [r3, #290]	; 0x122
   8243c:	f883 4122 	strb.w	r4, [r3, #290]	; 0x122
   82440:	f893 2123 	ldrb.w	r2, [r3, #291]	; 0x123
   82444:	f883 4123 	strb.w	r4, [r3, #291]	; 0x123
   82448:	2210      	movs	r2, #16
   8244a:	7a19      	ldrb	r1, [r3, #8]
   8244c:	721a      	strb	r2, [r3, #8]
   8244e:	7a5a      	ldrb	r2, [r3, #9]
   82450:	725c      	strb	r4, [r3, #9]
   82452:	7a9a      	ldrb	r2, [r3, #10]
   82454:	729c      	strb	r4, [r3, #10]
   82456:	7ada      	ldrb	r2, [r3, #11]
   82458:	72dc      	strb	r4, [r3, #11]
   8245a:	f001 fd97 	bl	83f8c <thrd_self>
   8245e:	f8c5 0062 	str.w	r0, [r5, #98]	; 0x62
   82462:	4620      	mov	r0, r4
   82464:	f002 f860 	bl	84528 <thrd_suspend_isr>
   82468:	f8d8 3004 	ldr.w	r3, [r8, #4]
   8246c:	2202      	movs	r2, #2
   8246e:	f893 1120 	ldrb.w	r1, [r3, #288]	; 0x120
   82472:	f883 4120 	strb.w	r4, [r3, #288]	; 0x120
   82476:	f893 1121 	ldrb.w	r1, [r3, #289]	; 0x121
   8247a:	f883 2121 	strb.w	r2, [r3, #289]	; 0x121
   8247e:	f893 2122 	ldrb.w	r2, [r3, #290]	; 0x122
   82482:	f883 4122 	strb.w	r4, [r3, #290]	; 0x122
   82486:	f893 2123 	ldrb.w	r2, [r3, #291]	; 0x123
   8248a:	f883 4123 	strb.w	r4, [r3, #291]	; 0x123
   8248e:	f001 fc37 	bl	83d00 <sys_unlock>
   82492:	4638      	mov	r0, r7
   82494:	f00a f840 	bl	8c518 <mutex_unlock>
   82498:	4630      	mov	r0, r6
   8249a:	e8bd 83f8 	ldmia.w	sp!, {r3, r4, r5, r6, r7, r8, r9, pc}
   8249e:	bf00      	nop

000824a0 <uart_port_write_cb_isr>:
   824a0:	f04f 30ff 	mov.w	r0, #4294967295	; 0xffffffff
   824a4:	4770      	bx	lr
   824a6:	bf00      	nop

000824a8 <isr_uart>:
   824a8:	2000      	movs	r0, #0
   824aa:	f7ff bf41 	b.w	82330 <isr>
   824ae:	bf00      	nop

000824b0 <isr_usart0>:
   824b0:	2001      	movs	r0, #1
   824b2:	f7ff bf3d 	b.w	82330 <isr>
   824b6:	bf00      	nop

000824b8 <isr_usart1>:
   824b8:	2002      	movs	r0, #2
   824ba:	f7ff bf39 	b.w	82330 <isr>
   824be:	bf00      	nop

000824c0 <isr_usart2>:
   824c0:	2003      	movs	r0, #3
   824c2:	f7ff bf35 	b.w	82330 <isr>
   824c6:	bf00      	nop

000824c8 <uart_module_init>:
   824c8:	b538      	push	{r3, r4, r5, lr}
   824ca:	4c0d      	ldr	r4, [pc, #52]	; (82500 <uart_module_init+0x38>)
   824cc:	f994 3000 	ldrsb.w	r3, [r4]
   824d0:	2b01      	cmp	r3, #1
   824d2:	d013      	beq.n	824fc <uart_module_init+0x34>
   824d4:	2200      	movs	r2, #0
   824d6:	2300      	movs	r3, #0
   824d8:	490a      	ldr	r1, [pc, #40]	; (82504 <uart_module_init+0x3c>)
   824da:	2501      	movs	r5, #1
   824dc:	480a      	ldr	r0, [pc, #40]	; (82508 <uart_module_init+0x40>)
   824de:	7025      	strb	r5, [r4, #0]
   824e0:	f005 fcbc 	bl	87e5c <fs_counter_init>
   824e4:	4808      	ldr	r0, [pc, #32]	; (82508 <uart_module_init+0x40>)
   824e6:	f005 fd0f 	bl	87f08 <fs_counter_register>
   824ea:	2200      	movs	r2, #0
   824ec:	2300      	movs	r3, #0
   824ee:	4907      	ldr	r1, [pc, #28]	; (8250c <uart_module_init+0x44>)
   824f0:	4807      	ldr	r0, [pc, #28]	; (82510 <uart_module_init+0x48>)
   824f2:	f005 fcb3 	bl	87e5c <fs_counter_init>
   824f6:	4806      	ldr	r0, [pc, #24]	; (82510 <uart_module_init+0x48>)
   824f8:	f005 fd06 	bl	87f08 <fs_counter_register>
   824fc:	2000      	movs	r0, #0
   824fe:	bd38      	pop	{r3, r4, r5, pc}
   82500:	20071284 	.word	0x20071284
   82504:	00091328 	.word	0x00091328
   82508:	20071268 	.word	0x20071268
   8250c:	0009134c 	.word	0x0009134c
   82510:	20071288 	.word	0x20071288

00082514 <uart_init>:
   82514:	b5b0      	push	{r4, r5, r7, lr}
   82516:	461f      	mov	r7, r3
   82518:	b082      	sub	sp, #8
   8251a:	4604      	mov	r4, r0
   8251c:	b308      	cbz	r0, 82562 <uart_init+0x4e>
   8251e:	b369      	cbz	r1, 8257c <uart_init+0x68>
   82520:	2500      	movs	r5, #0
   82522:	f8c4 1051 	str.w	r1, [r4, #81]	; 0x51
   82526:	f8c4 2066 	str.w	r2, [r4, #102]	; 0x66
   8252a:	f884 506a 	strb.w	r5, [r4, #106]	; 0x6a
   8252e:	f884 506b 	strb.w	r5, [r4, #107]	; 0x6b
   82532:	f884 506c 	strb.w	r5, [r4, #108]	; 0x6c
   82536:	f884 506d 	strb.w	r5, [r4, #109]	; 0x6d
   8253a:	f104 0055 	add.w	r0, r4, #85	; 0x55
   8253e:	f009 ffc1 	bl	8c4c4 <mutex_init>
   82542:	9a06      	ldr	r2, [sp, #24]
   82544:	4639      	mov	r1, r7
   82546:	4620      	mov	r0, r4
   82548:	f00a f942 	bl	8c7d0 <queue_init>
   8254c:	4911      	ldr	r1, [pc, #68]	; (82594 <uart_init+0x80>)
   8254e:	4620      	mov	r0, r4
   82550:	f009 fe96 	bl	8c280 <chan_set_write_cb>
   82554:	4620      	mov	r0, r4
   82556:	4910      	ldr	r1, [pc, #64]	; (82598 <uart_init+0x84>)
   82558:	f009 fe96 	bl	8c288 <chan_set_write_isr_cb>
   8255c:	4628      	mov	r0, r5
   8255e:	b002      	add	sp, #8
   82560:	bdb0      	pop	{r4, r5, r7, pc}
   82562:	480e      	ldr	r0, [pc, #56]	; (8259c <uart_init+0x88>)
   82564:	e88d 0006 	stmia.w	sp, {r1, r2}
   82568:	f00a fc2c 	bl	8cdc4 <std_printf>
   8256c:	4b0c      	ldr	r3, [pc, #48]	; (825a0 <uart_init+0x8c>)
   8256e:	2016      	movs	r0, #22
   82570:	681b      	ldr	r3, [r3, #0]
   82572:	4798      	blx	r3
   82574:	e89d 0006 	ldmia.w	sp, {r1, r2}
   82578:	2900      	cmp	r1, #0
   8257a:	d1d1      	bne.n	82520 <uart_init+0xc>
   8257c:	4809      	ldr	r0, [pc, #36]	; (825a4 <uart_init+0x90>)
   8257e:	e88d 0006 	stmia.w	sp, {r1, r2}
   82582:	f00a fc1f 	bl	8cdc4 <std_printf>
   82586:	4b06      	ldr	r3, [pc, #24]	; (825a0 <uart_init+0x8c>)
   82588:	2016      	movs	r0, #22
   8258a:	681b      	ldr	r3, [r3, #0]
   8258c:	4798      	blx	r3
   8258e:	e89d 0006 	ldmia.w	sp, {r1, r2}
   82592:	e7c5      	b.n	82520 <uart_init+0xc>
   82594:	000823fd 	.word	0x000823fd
   82598:	000824a1 	.word	0x000824a1
   8259c:	00091364 	.word	0x00091364
   825a0:	20070860 	.word	0x20070860
   825a4:	000913c8 	.word	0x000913c8

000825a8 <uart_start>:
   825a8:	b5f8      	push	{r3, r4, r5, r6, r7, lr}
   825aa:	4605      	mov	r5, r0
   825ac:	2800      	cmp	r0, #0
   825ae:	f000 80a7 	beq.w	82700 <uart_start+0x158>
   825b2:	f8d5 0066 	ldr.w	r0, [r5, #102]	; 0x66
   825b6:	f8d5 4051 	ldr.w	r4, [r5, #81]	; 0x51
   825ba:	eb00 72d0 	add.w	r2, r0, r0, lsr #31
   825be:	4b57      	ldr	r3, [pc, #348]	; (8271c <uart_start+0x174>)
   825c0:	69a1      	ldr	r1, [r4, #24]
   825c2:	1052      	asrs	r2, r2, #1
   825c4:	4413      	add	r3, r2
   825c6:	291f      	cmp	r1, #31
   825c8:	fbb3 f0f0 	udiv	r0, r3, r0
   825cc:	f340 808f 	ble.w	826ee <uart_start+0x146>
   825d0:	f001 021f 	and.w	r2, r1, #31
   825d4:	2301      	movs	r3, #1
   825d6:	4093      	lsls	r3, r2
   825d8:	461e      	mov	r6, r3
   825da:	4a51      	ldr	r2, [pc, #324]	; (82720 <uart_start+0x178>)
   825dc:	f8c2 3100 	str.w	r3, [r2, #256]	; 0x100
   825e0:	68a3      	ldr	r3, [r4, #8]
   825e2:	68e2      	ldr	r2, [r4, #12]
   825e4:	b280      	uxth	r0, r0
   825e6:	605a      	str	r2, [r3, #4]
   825e8:	615a      	str	r2, [r3, #20]
   825ea:	645a      	str	r2, [r3, #68]	; 0x44
   825ec:	665a      	str	r2, [r3, #100]	; 0x64
   825ee:	6f1f      	ldr	r7, [r3, #112]	; 0x70
   825f0:	f06f 0e3f 	mvn.w	lr, #63	; 0x3f
   825f4:	ea27 0202 	bic.w	r2, r7, r2
   825f8:	671a      	str	r2, [r3, #112]	; 0x70
   825fa:	6923      	ldr	r3, [r4, #16]
   825fc:	6962      	ldr	r2, [r4, #20]
   825fe:	2900      	cmp	r1, #0
   82600:	605a      	str	r2, [r3, #4]
   82602:	615a      	str	r2, [r3, #20]
   82604:	645a      	str	r2, [r3, #68]	; 0x44
   82606:	6f1f      	ldr	r7, [r3, #112]	; 0x70
   82608:	bfb8      	it	lt
   8260a:	311f      	addlt	r1, #31
   8260c:	ea27 0202 	bic.w	r2, r7, r2
   82610:	671a      	str	r2, [r3, #112]	; 0x70
   82612:	6863      	ldr	r3, [r4, #4]
   82614:	2708      	movs	r7, #8
   82616:	6218      	str	r0, [r3, #32]
   82618:	791a      	ldrb	r2, [r3, #4]
   8261a:	f883 e004 	strb.w	lr, [r3, #4]
   8261e:	795a      	ldrb	r2, [r3, #5]
   82620:	2200      	movs	r2, #0
   82622:	715f      	strb	r7, [r3, #5]
   82624:	7998      	ldrb	r0, [r3, #6]
   82626:	719a      	strb	r2, [r3, #6]
   82628:	79d8      	ldrb	r0, [r3, #7]
   8262a:	71da      	strb	r2, [r3, #7]
   8262c:	f04f 30ff 	mov.w	r0, #4294967295	; 0xffffffff
   82630:	7b1f      	ldrb	r7, [r3, #12]
   82632:	7318      	strb	r0, [r3, #12]
   82634:	7b5f      	ldrb	r7, [r3, #13]
   82636:	7358      	strb	r0, [r3, #13]
   82638:	7b9f      	ldrb	r7, [r3, #14]
   8263a:	7398      	strb	r0, [r3, #14]
   8263c:	f104 071c 	add.w	r7, r4, #28
   82640:	f893 e00f 	ldrb.w	lr, [r3, #15]
   82644:	73d8      	strb	r0, [r3, #15]
   82646:	f04f 0e01 	mov.w	lr, #1
   8264a:	f8c3 7100 	str.w	r7, [r3, #256]	; 0x100
   8264e:	f893 0104 	ldrb.w	r0, [r3, #260]	; 0x104
   82652:	f883 e104 	strb.w	lr, [r3, #260]	; 0x104
   82656:	f893 0105 	ldrb.w	r0, [r3, #261]	; 0x105
   8265a:	f883 2105 	strb.w	r2, [r3, #261]	; 0x105
   8265e:	f893 0106 	ldrb.w	r0, [r3, #262]	; 0x106
   82662:	f883 2106 	strb.w	r2, [r3, #262]	; 0x106
   82666:	f893 0107 	ldrb.w	r0, [r3, #263]	; 0x107
   8266a:	f883 2107 	strb.w	r2, [r3, #263]	; 0x107
   8266e:	f06f 0016 	mvn.w	r0, #22
   82672:	7a1f      	ldrb	r7, [r3, #8]
   82674:	7218      	strb	r0, [r3, #8]
   82676:	7a58      	ldrb	r0, [r3, #9]
   82678:	725a      	strb	r2, [r3, #9]
   8267a:	7a98      	ldrb	r0, [r3, #10]
   8267c:	729a      	strb	r2, [r3, #10]
   8267e:	7ad8      	ldrb	r0, [r3, #11]
   82680:	72da      	strb	r2, [r3, #11]
   82682:	f893 0120 	ldrb.w	r0, [r3, #288]	; 0x120
   82686:	f883 e120 	strb.w	lr, [r3, #288]	; 0x120
   8268a:	f893 0121 	ldrb.w	r0, [r3, #289]	; 0x121
   8268e:	f883 2121 	strb.w	r2, [r3, #289]	; 0x121
   82692:	f893 0122 	ldrb.w	r0, [r3, #290]	; 0x122
   82696:	f883 2122 	strb.w	r2, [r3, #290]	; 0x122
   8269a:	f893 0123 	ldrb.w	r0, [r3, #291]	; 0x123
   8269e:	f883 2123 	strb.w	r2, [r3, #291]	; 0x123
   826a2:	f893 0120 	ldrb.w	r0, [r3, #288]	; 0x120
   826a6:	f883 2120 	strb.w	r2, [r3, #288]	; 0x120
   826aa:	2002      	movs	r0, #2
   826ac:	f893 7121 	ldrb.w	r7, [r3, #289]	; 0x121
   826b0:	f883 0121 	strb.w	r0, [r3, #289]	; 0x121
   826b4:	f893 0122 	ldrb.w	r0, [r3, #290]	; 0x122
   826b8:	f883 2122 	strb.w	r2, [r3, #290]	; 0x122
   826bc:	2050      	movs	r0, #80	; 0x50
   826be:	f893 7123 	ldrb.w	r7, [r3, #291]	; 0x123
   826c2:	f883 2123 	strb.w	r2, [r3, #291]	; 0x123
   826c6:	781f      	ldrb	r7, [r3, #0]
   826c8:	7018      	strb	r0, [r3, #0]
   826ca:	7858      	ldrb	r0, [r3, #1]
   826cc:	705a      	strb	r2, [r3, #1]
   826ce:	7898      	ldrb	r0, [r3, #2]
   826d0:	1149      	asrs	r1, r1, #5
   826d2:	709a      	strb	r2, [r3, #2]
   826d4:	78d8      	ldrb	r0, [r3, #3]
   826d6:	70da      	strb	r2, [r3, #3]
   826d8:	008b      	lsls	r3, r1, #2
   826da:	f103 4360 	add.w	r3, r3, #3758096384	; 0xe0000000
   826de:	f503 4361 	add.w	r3, r3, #57600	; 0xe100
   826e2:	f8c3 6180 	str.w	r6, [r3, #384]	; 0x180
   826e6:	2000      	movs	r0, #0
   826e8:	601e      	str	r6, [r3, #0]
   826ea:	6025      	str	r5, [r4, #0]
   826ec:	bdf8      	pop	{r3, r4, r5, r6, r7, pc}
   826ee:	4b0d      	ldr	r3, [pc, #52]	; (82724 <uart_start+0x17c>)
   826f0:	400b      	ands	r3, r1
   826f2:	2b00      	cmp	r3, #0
   826f4:	db0c      	blt.n	82710 <uart_start+0x168>
   826f6:	2601      	movs	r6, #1
   826f8:	4a09      	ldr	r2, [pc, #36]	; (82720 <uart_start+0x178>)
   826fa:	409e      	lsls	r6, r3
   826fc:	6116      	str	r6, [r2, #16]
   826fe:	e76f      	b.n	825e0 <uart_start+0x38>
   82700:	4809      	ldr	r0, [pc, #36]	; (82728 <uart_start+0x180>)
   82702:	f00a fb5f 	bl	8cdc4 <std_printf>
   82706:	4b09      	ldr	r3, [pc, #36]	; (8272c <uart_start+0x184>)
   82708:	2016      	movs	r0, #22
   8270a:	681b      	ldr	r3, [r3, #0]
   8270c:	4798      	blx	r3
   8270e:	e750      	b.n	825b2 <uart_start+0xa>
   82710:	3b01      	subs	r3, #1
   82712:	f063 031f 	orn	r3, r3, #31
   82716:	3301      	adds	r3, #1
   82718:	e7ed      	b.n	826f6 <uart_start+0x14e>
   8271a:	bf00      	nop
   8271c:	00501bd0 	.word	0x00501bd0
   82720:	400e0600 	.word	0x400e0600
   82724:	8000001f 	.word	0x8000001f
   82728:	00091428 	.word	0x00091428
   8272c:	20070860 	.word	0x20070860

00082730 <usb_format_descriptors>:
   82730:	e92d 4ff0 	stmdb	sp!, {r4, r5, r6, r7, r8, r9, sl, fp, lr}
   82734:	460c      	mov	r4, r1
   82736:	b08f      	sub	sp, #60	; 0x3c
   82738:	4616      	mov	r6, r2
   8273a:	2800      	cmp	r0, #0
   8273c:	f000 8120 	beq.w	82980 <usb_format_descriptors+0x250>
   82740:	2c00      	cmp	r4, #0
   82742:	f000 8115 	beq.w	82970 <usb_format_descriptors+0x240>
   82746:	2e00      	cmp	r6, #0
   82748:	f000 8107 	beq.w	8295a <usb_format_descriptors+0x22a>
   8274c:	2500      	movs	r5, #0
   8274e:	7863      	ldrb	r3, [r4, #1]
   82750:	3b01      	subs	r3, #1
   82752:	2b04      	cmp	r3, #4
   82754:	d87c      	bhi.n	82850 <usb_format_descriptors+0x120>
   82756:	e8df f003 	tbb	[pc, r3]
   8275a:	6885      	.short	0x6885
   8275c:	3f7b      	.short	0x3f7b
   8275e:	03          	.byte	0x03
   8275f:	00          	.byte	0x00
   82760:	7821      	ldrb	r1, [r4, #0]
   82762:	2205      	movs	r2, #5
   82764:	4891      	ldr	r0, [pc, #580]	; (829ac <usb_format_descriptors+0x27c>)
   82766:	f00a fb2d 	bl	8cdc4 <std_printf>
   8276a:	78e7      	ldrb	r7, [r4, #3]
   8276c:	78a1      	ldrb	r1, [r4, #2]
   8276e:	f017 0703 	ands.w	r7, r7, #3
   82772:	f000 80bc 	beq.w	828ee <usb_format_descriptors+0x1be>
   82776:	09cb      	lsrs	r3, r1, #7
   82778:	f000 8111 	beq.w	8299e <usb_format_descriptors+0x26e>
   8277c:	4a8c      	ldr	r2, [pc, #560]	; (829b0 <usb_format_descriptors+0x280>)
   8277e:	4b8d      	ldr	r3, [pc, #564]	; (829b4 <usb_format_descriptors+0x284>)
   82780:	e003      	b.n	8278a <usb_format_descriptors+0x5a>
   82782:	6818      	ldr	r0, [r3, #0]
   82784:	2801      	cmp	r0, #1
   82786:	d003      	beq.n	82790 <usb_format_descriptors+0x60>
   82788:	68da      	ldr	r2, [r3, #12]
   8278a:	3308      	adds	r3, #8
   8278c:	2a00      	cmp	r2, #0
   8278e:	d1f8      	bne.n	82782 <usb_format_descriptors+0x52>
   82790:	f001 030f 	and.w	r3, r1, #15
   82794:	4888      	ldr	r0, [pc, #544]	; (829b8 <usb_format_descriptors+0x288>)
   82796:	f00a fb15 	bl	8cdc4 <std_printf>
   8279a:	2f01      	cmp	r7, #1
   8279c:	f000 80af 	beq.w	828fe <usb_format_descriptors+0x1ce>
   827a0:	78e1      	ldrb	r1, [r4, #3]
   827a2:	4a86      	ldr	r2, [pc, #536]	; (829bc <usb_format_descriptors+0x28c>)
   827a4:	4b86      	ldr	r3, [pc, #536]	; (829c0 <usb_format_descriptors+0x290>)
   827a6:	e003      	b.n	827b0 <usb_format_descriptors+0x80>
   827a8:	6818      	ldr	r0, [r3, #0]
   827aa:	4287      	cmp	r7, r0
   827ac:	d003      	beq.n	827b6 <usb_format_descriptors+0x86>
   827ae:	68da      	ldr	r2, [r3, #12]
   827b0:	3308      	adds	r3, #8
   827b2:	2a00      	cmp	r2, #0
   827b4:	d1f8      	bne.n	827a8 <usb_format_descriptors+0x78>
   827b6:	4883      	ldr	r0, [pc, #524]	; (829c4 <usb_format_descriptors+0x294>)
   827b8:	f00a fb04 	bl	8cdc4 <std_printf>
   827bc:	79a2      	ldrb	r2, [r4, #6]
   827be:	88a1      	ldrh	r1, [r4, #4]
   827c0:	4881      	ldr	r0, [pc, #516]	; (829c8 <usb_format_descriptors+0x298>)
   827c2:	f00a faff 	bl	8cdc4 <std_printf>
   827c6:	7823      	ldrb	r3, [r4, #0]
   827c8:	441d      	add	r5, r3
   827ca:	42ae      	cmp	r6, r5
   827cc:	441c      	add	r4, r3
   827ce:	d8be      	bhi.n	8274e <usb_format_descriptors+0x1e>
   827d0:	2000      	movs	r0, #0
   827d2:	b00f      	add	sp, #60	; 0x3c
   827d4:	e8bd 8ff0 	ldmia.w	sp!, {r4, r5, r6, r7, r8, r9, sl, fp, pc}
   827d8:	7963      	ldrb	r3, [r4, #5]
   827da:	7821      	ldrb	r1, [r4, #0]
   827dc:	f894 e002 	ldrb.w	lr, [r4, #2]
   827e0:	f894 c003 	ldrb.w	ip, [r4, #3]
   827e4:	f894 8004 	ldrb.w	r8, [r4, #4]
   827e8:	2b00      	cmp	r3, #0
   827ea:	f000 80d6 	beq.w	8299a <usb_format_descriptors+0x26a>
   827ee:	4877      	ldr	r0, [pc, #476]	; (829cc <usb_format_descriptors+0x29c>)
   827f0:	4a77      	ldr	r2, [pc, #476]	; (829d0 <usb_format_descriptors+0x2a0>)
   827f2:	e003      	b.n	827fc <usb_format_descriptors+0xcc>
   827f4:	6817      	ldr	r7, [r2, #0]
   827f6:	429f      	cmp	r7, r3
   827f8:	d003      	beq.n	82802 <usb_format_descriptors+0xd2>
   827fa:	68d0      	ldr	r0, [r2, #12]
   827fc:	3208      	adds	r2, #8
   827fe:	2800      	cmp	r0, #0
   82800:	d1f8      	bne.n	827f4 <usb_format_descriptors+0xc4>
   82802:	79a2      	ldrb	r2, [r4, #6]
   82804:	f894 9008 	ldrb.w	r9, [r4, #8]
   82808:	79e7      	ldrb	r7, [r4, #7]
   8280a:	9003      	str	r0, [sp, #12]
   8280c:	9302      	str	r3, [sp, #8]
   8280e:	9204      	str	r2, [sp, #16]
   82810:	f8cd 8004 	str.w	r8, [sp, #4]
   82814:	f8cd c000 	str.w	ip, [sp]
   82818:	4673      	mov	r3, lr
   8281a:	f8cd 9018 	str.w	r9, [sp, #24]
   8281e:	9705      	str	r7, [sp, #20]
   82820:	2204      	movs	r2, #4
   82822:	486c      	ldr	r0, [pc, #432]	; (829d4 <usb_format_descriptors+0x2a4>)
   82824:	f00a face 	bl	8cdc4 <std_printf>
   82828:	e012      	b.n	82850 <usb_format_descriptors+0x120>
   8282a:	7a22      	ldrb	r2, [r4, #8]
   8282c:	7920      	ldrb	r0, [r4, #4]
   8282e:	f894 c007 	ldrb.w	ip, [r4, #7]
   82832:	f894 e006 	ldrb.w	lr, [r4, #6]
   82836:	7967      	ldrb	r7, [r4, #5]
   82838:	0052      	lsls	r2, r2, #1
   8283a:	8863      	ldrh	r3, [r4, #2]
   8283c:	7821      	ldrb	r1, [r4, #0]
   8283e:	9204      	str	r2, [sp, #16]
   82840:	e88d 4081 	stmia.w	sp, {r0, r7, lr}
   82844:	f8cd c00c 	str.w	ip, [sp, #12]
   82848:	2202      	movs	r2, #2
   8284a:	4863      	ldr	r0, [pc, #396]	; (829d8 <usb_format_descriptors+0x2a8>)
   8284c:	f00a faba 	bl	8cdc4 <std_printf>
   82850:	7823      	ldrb	r3, [r4, #0]
   82852:	441d      	add	r5, r3
   82854:	42ae      	cmp	r6, r5
   82856:	441c      	add	r4, r3
   82858:	f63f af79 	bhi.w	8274e <usb_format_descriptors+0x1e>
   8285c:	2000      	movs	r0, #0
   8285e:	b00f      	add	sp, #60	; 0x3c
   82860:	e8bd 8ff0 	ldmia.w	sp!, {r4, r5, r6, r7, r8, r9, sl, fp, pc}
   82864:	8862      	ldrh	r2, [r4, #2]
   82866:	7923      	ldrb	r3, [r4, #4]
   82868:	ea4f 2c12 	mov.w	ip, r2, lsr #8
   8286c:	fa5f fe82 	uxtb.w	lr, r2
   82870:	7821      	ldrb	r1, [r4, #0]
   82872:	2b00      	cmp	r3, #0
   82874:	f000 808f 	beq.w	82996 <usb_format_descriptors+0x266>
   82878:	4854      	ldr	r0, [pc, #336]	; (829cc <usb_format_descriptors+0x29c>)
   8287a:	4a55      	ldr	r2, [pc, #340]	; (829d0 <usb_format_descriptors+0x2a0>)
   8287c:	e003      	b.n	82886 <usb_format_descriptors+0x156>
   8287e:	6817      	ldr	r7, [r2, #0]
   82880:	42bb      	cmp	r3, r7
   82882:	d003      	beq.n	8288c <usb_format_descriptors+0x15c>
   82884:	68d0      	ldr	r0, [r2, #12]
   82886:	3208      	adds	r2, #8
   82888:	2800      	cmp	r0, #0
   8288a:	d1f8      	bne.n	8287e <usb_format_descriptors+0x14e>
   8288c:	89a2      	ldrh	r2, [r4, #12]
   8288e:	f8b4 900a 	ldrh.w	r9, [r4, #10]
   82892:	f8b4 8008 	ldrh.w	r8, [r4, #8]
   82896:	79e7      	ldrb	r7, [r4, #7]
   82898:	9002      	str	r0, [sp, #8]
   8289a:	79a0      	ldrb	r0, [r4, #6]
   8289c:	9301      	str	r3, [sp, #4]
   8289e:	f894 a005 	ldrb.w	sl, [r4, #5]
   828a2:	f8cd e000 	str.w	lr, [sp]
   828a6:	f8cd 901c 	str.w	r9, [sp, #28]
   828aa:	f894 9011 	ldrb.w	r9, [r4, #17]
   828ae:	f8cd 8018 	str.w	r8, [sp, #24]
   828b2:	f894 8010 	ldrb.w	r8, [r4, #16]
   828b6:	9705      	str	r7, [sp, #20]
   828b8:	7be7      	ldrb	r7, [r4, #15]
   828ba:	9004      	str	r0, [sp, #16]
   828bc:	f894 b00e 	ldrb.w	fp, [r4, #14]
   828c0:	ea4f 2e12 	mov.w	lr, r2, lsr #8
   828c4:	4663      	mov	r3, ip
   828c6:	f8cd a00c 	str.w	sl, [sp, #12]
   828ca:	fa5f fc82 	uxtb.w	ip, r2
   828ce:	4843      	ldr	r0, [pc, #268]	; (829dc <usb_format_descriptors+0x2ac>)
   828d0:	2201      	movs	r2, #1
   828d2:	f8cd c024 	str.w	ip, [sp, #36]	; 0x24
   828d6:	f8cd e020 	str.w	lr, [sp, #32]
   828da:	f8cd 9034 	str.w	r9, [sp, #52]	; 0x34
   828de:	f8cd 8030 	str.w	r8, [sp, #48]	; 0x30
   828e2:	970b      	str	r7, [sp, #44]	; 0x2c
   828e4:	f8cd b028 	str.w	fp, [sp, #40]	; 0x28
   828e8:	f00a fa6c 	bl	8cdc4 <std_printf>
   828ec:	e7b0      	b.n	82850 <usb_format_descriptors+0x120>
   828ee:	f001 020f 	and.w	r2, r1, #15
   828f2:	483b      	ldr	r0, [pc, #236]	; (829e0 <usb_format_descriptors+0x2b0>)
   828f4:	f00a fa66 	bl	8cdc4 <std_printf>
   828f8:	78e1      	ldrb	r1, [r4, #3]
   828fa:	4a3a      	ldr	r2, [pc, #232]	; (829e4 <usb_format_descriptors+0x2b4>)
   828fc:	e75b      	b.n	827b6 <usb_format_descriptors+0x86>
   828fe:	78e1      	ldrb	r1, [r4, #3]
   82900:	f3c1 1701 	ubfx	r7, r1, #4, #2
   82904:	2f00      	cmp	r7, #0
   82906:	d04c      	beq.n	829a2 <usb_format_descriptors+0x272>
   82908:	4a37      	ldr	r2, [pc, #220]	; (829e8 <usb_format_descriptors+0x2b8>)
   8290a:	4b38      	ldr	r3, [pc, #224]	; (829ec <usb_format_descriptors+0x2bc>)
   8290c:	e003      	b.n	82916 <usb_format_descriptors+0x1e6>
   8290e:	6818      	ldr	r0, [r3, #0]
   82910:	4287      	cmp	r7, r0
   82912:	d003      	beq.n	8291c <usb_format_descriptors+0x1ec>
   82914:	68da      	ldr	r2, [r3, #12]
   82916:	3308      	adds	r3, #8
   82918:	2a00      	cmp	r2, #0
   8291a:	d1f8      	bne.n	8290e <usb_format_descriptors+0x1de>
   8291c:	4696      	mov	lr, r2
   8291e:	f3c1 0781 	ubfx	r7, r1, #2, #2
   82922:	2f00      	cmp	r7, #0
   82924:	d040      	beq.n	829a8 <usb_format_descriptors+0x278>
   82926:	4b32      	ldr	r3, [pc, #200]	; (829f0 <usb_format_descriptors+0x2c0>)
   82928:	4832      	ldr	r0, [pc, #200]	; (829f4 <usb_format_descriptors+0x2c4>)
   8292a:	e003      	b.n	82934 <usb_format_descriptors+0x204>
   8292c:	6802      	ldr	r2, [r0, #0]
   8292e:	42ba      	cmp	r2, r7
   82930:	d003      	beq.n	8293a <usb_format_descriptors+0x20a>
   82932:	68c3      	ldr	r3, [r0, #12]
   82934:	3008      	adds	r0, #8
   82936:	2b00      	cmp	r3, #0
   82938:	d1f8      	bne.n	8292c <usb_format_descriptors+0x1fc>
   8293a:	4f20      	ldr	r7, [pc, #128]	; (829bc <usb_format_descriptors+0x28c>)
   8293c:	4820      	ldr	r0, [pc, #128]	; (829c0 <usb_format_descriptors+0x290>)
   8293e:	e003      	b.n	82948 <usb_format_descriptors+0x218>
   82940:	6802      	ldr	r2, [r0, #0]
   82942:	2a01      	cmp	r2, #1
   82944:	d003      	beq.n	8294e <usb_format_descriptors+0x21e>
   82946:	68c7      	ldr	r7, [r0, #12]
   82948:	3008      	adds	r0, #8
   8294a:	2f00      	cmp	r7, #0
   8294c:	d1f8      	bne.n	82940 <usb_format_descriptors+0x210>
   8294e:	9700      	str	r7, [sp, #0]
   82950:	4672      	mov	r2, lr
   82952:	4829      	ldr	r0, [pc, #164]	; (829f8 <usb_format_descriptors+0x2c8>)
   82954:	f00a fa36 	bl	8cdc4 <std_printf>
   82958:	e730      	b.n	827bc <usb_format_descriptors+0x8c>
   8295a:	4828      	ldr	r0, [pc, #160]	; (829fc <usb_format_descriptors+0x2cc>)
   8295c:	f00a fa32 	bl	8cdc4 <std_printf>
   82960:	4b27      	ldr	r3, [pc, #156]	; (82a00 <usb_format_descriptors+0x2d0>)
   82962:	2016      	movs	r0, #22
   82964:	681b      	ldr	r3, [r3, #0]
   82966:	4798      	blx	r3
   82968:	2000      	movs	r0, #0
   8296a:	b00f      	add	sp, #60	; 0x3c
   8296c:	e8bd 8ff0 	ldmia.w	sp!, {r4, r5, r6, r7, r8, r9, sl, fp, pc}
   82970:	4824      	ldr	r0, [pc, #144]	; (82a04 <usb_format_descriptors+0x2d4>)
   82972:	f00a fa27 	bl	8cdc4 <std_printf>
   82976:	4b22      	ldr	r3, [pc, #136]	; (82a00 <usb_format_descriptors+0x2d0>)
   82978:	2016      	movs	r0, #22
   8297a:	681b      	ldr	r3, [r3, #0]
   8297c:	4798      	blx	r3
   8297e:	e6e2      	b.n	82746 <usb_format_descriptors+0x16>
   82980:	4821      	ldr	r0, [pc, #132]	; (82a08 <usb_format_descriptors+0x2d8>)
   82982:	f00a fa1f 	bl	8cdc4 <std_printf>
   82986:	4b1e      	ldr	r3, [pc, #120]	; (82a00 <usb_format_descriptors+0x2d0>)
   82988:	2016      	movs	r0, #22
   8298a:	681b      	ldr	r3, [r3, #0]
   8298c:	4798      	blx	r3
   8298e:	2c00      	cmp	r4, #0
   82990:	f47f aed9 	bne.w	82746 <usb_format_descriptors+0x16>
   82994:	e7ec      	b.n	82970 <usb_format_descriptors+0x240>
   82996:	481d      	ldr	r0, [pc, #116]	; (82a0c <usb_format_descriptors+0x2dc>)
   82998:	e778      	b.n	8288c <usb_format_descriptors+0x15c>
   8299a:	481c      	ldr	r0, [pc, #112]	; (82a0c <usb_format_descriptors+0x2dc>)
   8299c:	e731      	b.n	82802 <usb_format_descriptors+0xd2>
   8299e:	4a1c      	ldr	r2, [pc, #112]	; (82a10 <usb_format_descriptors+0x2e0>)
   829a0:	e6f6      	b.n	82790 <usb_format_descriptors+0x60>
   829a2:	f8df e074 	ldr.w	lr, [pc, #116]	; 82a18 <usb_format_descriptors+0x2e8>
   829a6:	e7ba      	b.n	8291e <usb_format_descriptors+0x1ee>
   829a8:	4b1a      	ldr	r3, [pc, #104]	; (82a14 <usb_format_descriptors+0x2e4>)
   829aa:	e7c6      	b.n	8293a <usb_format_descriptors+0x20a>
   829ac:	00091a64 	.word	0x00091a64
   829b0:	000915b4 	.word	0x000915b4
   829b4:	00091fbc 	.word	0x00091fbc
   829b8:	00091ae0 	.word	0x00091ae0
   829bc:	000915bc 	.word	0x000915bc
   829c0:	00092084 	.word	0x00092084
   829c4:	00091b3c 	.word	0x00091b3c
   829c8:	00091b60 	.word	0x00091b60
   829cc:	0009159c 	.word	0x0009159c
   829d0:	00091fd4 	.word	0x00091fd4
   829d4:	0009194c 	.word	0x0009194c
   829d8:	00091860 	.word	0x00091860
   829dc:	0009170c 	.word	0x0009170c
   829e0:	00091ab4 	.word	0x00091ab4
   829e4:	00091eac 	.word	0x00091eac
   829e8:	000915c8 	.word	0x000915c8
   829ec:	00091554 	.word	0x00091554
   829f0:	000915d4 	.word	0x000915d4
   829f4:	00091574 	.word	0x00091574
   829f8:	00091b10 	.word	0x00091b10
   829fc:	000916b8 	.word	0x000916b8
   82a00:	20070860 	.word	0x20070860
   82a04:	00091658 	.word	0x00091658
   82a08:	000915f8 	.word	0x000915f8
   82a0c:	000915a4 	.word	0x000915a4
   82a10:	000915b8 	.word	0x000915b8
   82a14:	000915e4 	.word	0x000915e4
   82a18:	00091eec 	.word	0x00091eec

00082a1c <cmd_list_cb>:
   82a1c:	e92d 41f0 	stmdb	sp!, {r4, r5, r6, r7, r8, lr}
   82a20:	2802      	cmp	r0, #2
   82a22:	b084      	sub	sp, #16
   82a24:	4617      	mov	r7, r2
   82a26:	d03d      	beq.n	82aa4 <cmd_list_cb+0x88>
   82a28:	f04f 0800 	mov.w	r8, #0
   82a2c:	4922      	ldr	r1, [pc, #136]	; (82ab8 <cmd_list_cb+0x9c>)
   82a2e:	4638      	mov	r0, r7
   82a30:	f00a fa8c 	bl	8cf4c <std_fprintf>
   82a34:	4b21      	ldr	r3, [pc, #132]	; (82abc <cmd_list_cb+0xa0>)
   82a36:	f8d3 6001 	ldr.w	r6, [r3, #1]
   82a3a:	b33e      	cbz	r6, 82a8c <cmd_list_cb+0x70>
   82a3c:	68b2      	ldr	r2, [r6, #8]
   82a3e:	68f4      	ldr	r4, [r6, #12]
   82a40:	2500      	movs	r5, #0
   82a42:	b92a      	cbnz	r2, 82a50 <cmd_list_cb+0x34>
   82a44:	e01e      	b.n	82a84 <cmd_list_cb+0x68>
   82a46:	3501      	adds	r5, #1
   82a48:	42aa      	cmp	r2, r5
   82a4a:	f204 142d 	addw	r4, r4, #301	; 0x12d
   82a4e:	d919      	bls.n	82a84 <cmd_list_cb+0x68>
   82a50:	6863      	ldr	r3, [r4, #4]
   82a52:	2b01      	cmp	r3, #1
   82a54:	d1f7      	bne.n	82a46 <cmd_list_cb+0x2a>
   82a56:	f8d4 3025 	ldr.w	r3, [r4, #37]	; 0x25
   82a5a:	6961      	ldr	r1, [r4, #20]
   82a5c:	681a      	ldr	r2, [r3, #0]
   82a5e:	68a3      	ldr	r3, [r4, #8]
   82a60:	9102      	str	r1, [sp, #8]
   82a62:	6921      	ldr	r1, [r4, #16]
   82a64:	4638      	mov	r0, r7
   82a66:	9101      	str	r1, [sp, #4]
   82a68:	68e1      	ldr	r1, [r4, #12]
   82a6a:	9100      	str	r1, [sp, #0]
   82a6c:	4914      	ldr	r1, [pc, #80]	; (82ac0 <cmd_list_cb+0xa4>)
   82a6e:	f00a fa6d 	bl	8cf4c <std_fprintf>
   82a72:	f1b8 0f00 	cmp.w	r8, #0
   82a76:	d10d      	bne.n	82a94 <cmd_list_cb+0x78>
   82a78:	68b2      	ldr	r2, [r6, #8]
   82a7a:	3501      	adds	r5, #1
   82a7c:	42aa      	cmp	r2, r5
   82a7e:	f204 142d 	addw	r4, r4, #301	; 0x12d
   82a82:	d8e5      	bhi.n	82a50 <cmd_list_cb+0x34>
   82a84:	f8d6 608d 	ldr.w	r6, [r6, #141]	; 0x8d
   82a88:	2e00      	cmp	r6, #0
   82a8a:	d1d7      	bne.n	82a3c <cmd_list_cb+0x20>
   82a8c:	2000      	movs	r0, #0
   82a8e:	b004      	add	sp, #16
   82a90:	e8bd 81f0 	ldmia.w	sp!, {r4, r5, r6, r7, r8, pc}
   82a94:	f8d4 20a9 	ldr.w	r2, [r4, #169]	; 0xa9
   82a98:	f104 01ad 	add.w	r1, r4, #173	; 0xad
   82a9c:	4638      	mov	r0, r7
   82a9e:	f7ff fe47 	bl	82730 <usb_format_descriptors>
   82aa2:	e7e9      	b.n	82a78 <cmd_list_cb+0x5c>
   82aa4:	6849      	ldr	r1, [r1, #4]
   82aa6:	4807      	ldr	r0, [pc, #28]	; (82ac4 <cmd_list_cb+0xa8>)
   82aa8:	f00b fd5a 	bl	8e560 <strcmp>
   82aac:	fab0 f880 	clz	r8, r0
   82ab0:	ea4f 1858 	mov.w	r8, r8, lsr #5
   82ab4:	e7ba      	b.n	82a2c <cmd_list_cb+0x10>
   82ab6:	bf00      	nop
   82ab8:	000920b0 	.word	0x000920b0
   82abc:	200712a4 	.word	0x200712a4
   82ac0:	000920d8 	.word	0x000920d8
   82ac4:	000920ac 	.word	0x000920ac

00082ac8 <isr_uotghs>:
   82ac8:	b5f0      	push	{r4, r5, r6, r7, lr}
   82aca:	4d1e      	ldr	r5, [pc, #120]	; (82b44 <isr_uotghs+0x7c>)
   82acc:	b083      	sub	sp, #12
   82ace:	6828      	ldr	r0, [r5, #0]
   82ad0:	b1d8      	cbz	r0, 82b0a <isr_uotghs+0x42>
   82ad2:	686b      	ldr	r3, [r5, #4]
   82ad4:	f8d3 6404 	ldr.w	r6, [r3, #1028]	; 0x404
   82ad8:	07f2      	lsls	r2, r6, #31
   82ada:	d418      	bmi.n	82b0e <isr_uotghs+0x46>
   82adc:	2400      	movs	r4, #0
   82ade:	f44f 7780 	mov.w	r7, #256	; 0x100
   82ae2:	fa07 f204 	lsl.w	r2, r7, r4
   82ae6:	eb04 0344 	add.w	r3, r4, r4, lsl #1
   82aea:	4216      	tst	r6, r2
   82aec:	eb05 0383 	add.w	r3, r5, r3, lsl #2
   82af0:	f104 0401 	add.w	r4, r4, #1
   82af4:	d007      	beq.n	82b06 <isr_uotghs+0x3e>
   82af6:	6868      	ldr	r0, [r5, #4]
   82af8:	2100      	movs	r1, #0
   82afa:	f8c0 2414 	str.w	r2, [r0, #1044]	; 0x414
   82afe:	6958      	ldr	r0, [r3, #20]
   82b00:	b108      	cbz	r0, 82b06 <isr_uotghs+0x3e>
   82b02:	f001 fce5 	bl	844d0 <thrd_resume_isr>
   82b06:	2c0a      	cmp	r4, #10
   82b08:	d1eb      	bne.n	82ae2 <isr_uotghs+0x1a>
   82b0a:	b003      	add	sp, #12
   82b0c:	bdf0      	pop	{r4, r5, r6, r7, pc}
   82b0e:	2201      	movs	r2, #1
   82b10:	f893 4408 	ldrb.w	r4, [r3, #1032]	; 0x408
   82b14:	f883 2408 	strb.w	r2, [r3, #1032]	; 0x408
   82b18:	2400      	movs	r4, #0
   82b1a:	f893 7409 	ldrb.w	r7, [r3, #1033]	; 0x409
   82b1e:	a902      	add	r1, sp, #8
   82b20:	f883 4409 	strb.w	r4, [r3, #1033]	; 0x409
   82b24:	f841 2d04 	str.w	r2, [r1, #-4]!
   82b28:	f893 240a 	ldrb.w	r2, [r3, #1034]	; 0x40a
   82b2c:	f883 440a 	strb.w	r4, [r3, #1034]	; 0x40a
   82b30:	f893 240b 	ldrb.w	r2, [r3, #1035]	; 0x40b
   82b34:	3061      	adds	r0, #97	; 0x61
   82b36:	2204      	movs	r2, #4
   82b38:	f883 440b 	strb.w	r4, [r3, #1035]	; 0x40b
   82b3c:	f009 fc88 	bl	8c450 <event_write_isr>
   82b40:	e7cc      	b.n	82adc <isr_uotghs+0x14>
   82b42:	bf00      	nop
   82b44:	200704a4 	.word	0x200704a4

00082b48 <usb_host_module_init>:
   82b48:	b510      	push	{r4, lr}
   82b4a:	4c0a      	ldr	r4, [pc, #40]	; (82b74 <usb_host_module_init+0x2c>)
   82b4c:	f994 3000 	ldrsb.w	r3, [r4]
   82b50:	2b01      	cmp	r3, #1
   82b52:	d00c      	beq.n	82b6e <usb_host_module_init+0x26>
   82b54:	4620      	mov	r0, r4
   82b56:	2301      	movs	r3, #1
   82b58:	f800 3b09 	strb.w	r3, [r0], #9
   82b5c:	4a06      	ldr	r2, [pc, #24]	; (82b78 <usb_host_module_init+0x30>)
   82b5e:	2300      	movs	r3, #0
   82b60:	4906      	ldr	r1, [pc, #24]	; (82b7c <usb_host_module_init+0x34>)
   82b62:	f004 ffcf 	bl	87b04 <fs_command_init>
   82b66:	f104 0009 	add.w	r0, r4, #9
   82b6a:	f004 ffff 	bl	87b6c <fs_command_register>
   82b6e:	2000      	movs	r0, #0
   82b70:	bd10      	pop	{r4, pc}
   82b72:	bf00      	nop
   82b74:	200712a4 	.word	0x200712a4
   82b78:	00082a1d 	.word	0x00082a1d
   82b7c:	00092138 	.word	0x00092138

00082b80 <ds18b20_module_init>:
   82b80:	b510      	push	{r4, lr}
   82b82:	4c09      	ldr	r4, [pc, #36]	; (82ba8 <ds18b20_module_init+0x28>)
   82b84:	f994 3000 	ldrsb.w	r3, [r4]
   82b88:	2b01      	cmp	r3, #1
   82b8a:	d00b      	beq.n	82ba4 <ds18b20_module_init+0x24>
   82b8c:	4620      	mov	r0, r4
   82b8e:	2301      	movs	r3, #1
   82b90:	f800 3b05 	strb.w	r3, [r0], #5
   82b94:	4a05      	ldr	r2, [pc, #20]	; (82bac <ds18b20_module_init+0x2c>)
   82b96:	2300      	movs	r3, #0
   82b98:	4905      	ldr	r1, [pc, #20]	; (82bb0 <ds18b20_module_init+0x30>)
   82b9a:	f004 ffb3 	bl	87b04 <fs_command_init>
   82b9e:	1d60      	adds	r0, r4, #5
   82ba0:	f004 ffe4 	bl	87b6c <fs_command_register>
   82ba4:	2000      	movs	r0, #0
   82ba6:	bd10      	pop	{r4, pc}
   82ba8:	200712c0 	.word	0x200712c0
   82bac:	00082d4d 	.word	0x00082d4d
   82bb0:	00092c20 	.word	0x00092c20

00082bb4 <ds18b20_convert>:
   82bb4:	b530      	push	{r4, r5, lr}
   82bb6:	4604      	mov	r4, r0
   82bb8:	b083      	sub	sp, #12
   82bba:	b1d0      	cbz	r0, 82bf2 <ds18b20_convert+0x3e>
   82bbc:	6820      	ldr	r0, [r4, #0]
   82bbe:	f7ff f9b9 	bl	81f34 <owi_reset>
   82bc2:	ad02      	add	r5, sp, #8
   82bc4:	23cc      	movs	r3, #204	; 0xcc
   82bc6:	f805 3d01 	strb.w	r3, [r5, #-1]!
   82bca:	4629      	mov	r1, r5
   82bcc:	2208      	movs	r2, #8
   82bce:	6820      	ldr	r0, [r4, #0]
   82bd0:	f7ff fa7a 	bl	820c8 <owi_write>
   82bd4:	2344      	movs	r3, #68	; 0x44
   82bd6:	4629      	mov	r1, r5
   82bd8:	2208      	movs	r2, #8
   82bda:	6820      	ldr	r0, [r4, #0]
   82bdc:	f88d 3007 	strb.w	r3, [sp, #7]
   82be0:	f7ff fa72 	bl	820c8 <owi_write>
   82be4:	f240 20ee 	movw	r0, #750	; 0x2ee
   82be8:	f001 fd62 	bl	846b0 <thrd_sleep_ms>
   82bec:	2000      	movs	r0, #0
   82bee:	b003      	add	sp, #12
   82bf0:	bd30      	pop	{r4, r5, pc}
   82bf2:	4804      	ldr	r0, [pc, #16]	; (82c04 <ds18b20_convert+0x50>)
   82bf4:	f00a f8e6 	bl	8cdc4 <std_printf>
   82bf8:	4b03      	ldr	r3, [pc, #12]	; (82c08 <ds18b20_convert+0x54>)
   82bfa:	2016      	movs	r0, #22
   82bfc:	681b      	ldr	r3, [r3, #0]
   82bfe:	4798      	blx	r3
   82c00:	e7dc      	b.n	82bbc <ds18b20_convert+0x8>
   82c02:	bf00      	nop
   82c04:	00092d04 	.word	0x00092d04
   82c08:	20070860 	.word	0x20070860

00082c0c <ds18b20_read_fixed_point>:
   82c0c:	b5f0      	push	{r4, r5, r6, r7, lr}
   82c0e:	460e      	mov	r6, r1
   82c10:	b085      	sub	sp, #20
   82c12:	4617      	mov	r7, r2
   82c14:	4604      	mov	r4, r0
   82c16:	b3a0      	cbz	r0, 82c82 <ds18b20_read_fixed_point+0x76>
   82c18:	b35e      	cbz	r6, 82c72 <ds18b20_read_fixed_point+0x66>
   82c1a:	2f00      	cmp	r7, #0
   82c1c:	d03b      	beq.n	82c96 <ds18b20_read_fixed_point+0x8a>
   82c1e:	6820      	ldr	r0, [r4, #0]
   82c20:	f7ff f988 	bl	81f34 <owi_reset>
   82c24:	ad04      	add	r5, sp, #16
   82c26:	2355      	movs	r3, #85	; 0x55
   82c28:	f805 3d0d 	strb.w	r3, [r5, #-13]!
   82c2c:	4629      	mov	r1, r5
   82c2e:	2208      	movs	r2, #8
   82c30:	6820      	ldr	r0, [r4, #0]
   82c32:	f7ff fa49 	bl	820c8 <owi_write>
   82c36:	4631      	mov	r1, r6
   82c38:	2240      	movs	r2, #64	; 0x40
   82c3a:	6820      	ldr	r0, [r4, #0]
   82c3c:	f7ff fa44 	bl	820c8 <owi_write>
   82c40:	23be      	movs	r3, #190	; 0xbe
   82c42:	4629      	mov	r1, r5
   82c44:	2208      	movs	r2, #8
   82c46:	6820      	ldr	r0, [r4, #0]
   82c48:	f88d 3003 	strb.w	r3, [sp, #3]
   82c4c:	f7ff fa3c 	bl	820c8 <owi_write>
   82c50:	a901      	add	r1, sp, #4
   82c52:	2248      	movs	r2, #72	; 0x48
   82c54:	6820      	ldr	r0, [r4, #0]
   82c56:	f7ff f9cd 	bl	81ff4 <owi_read>
   82c5a:	aa01      	add	r2, sp, #4
   82c5c:	2309      	movs	r3, #9
   82c5e:	218c      	movs	r1, #140	; 0x8c
   82c60:	2000      	movs	r0, #0
   82c62:	f000 fe2b 	bl	838bc <crc_8>
   82c66:	b9f0      	cbnz	r0, 82ca6 <ds18b20_read_fixed_point+0x9a>
   82c68:	f9bd 3004 	ldrsh.w	r3, [sp, #4]
   82c6c:	603b      	str	r3, [r7, #0]
   82c6e:	b005      	add	sp, #20
   82c70:	bdf0      	pop	{r4, r5, r6, r7, pc}
   82c72:	480e      	ldr	r0, [pc, #56]	; (82cac <ds18b20_read_fixed_point+0xa0>)
   82c74:	f00a f8a6 	bl	8cdc4 <std_printf>
   82c78:	4b0d      	ldr	r3, [pc, #52]	; (82cb0 <ds18b20_read_fixed_point+0xa4>)
   82c7a:	2016      	movs	r0, #22
   82c7c:	681b      	ldr	r3, [r3, #0]
   82c7e:	4798      	blx	r3
   82c80:	e7cb      	b.n	82c1a <ds18b20_read_fixed_point+0xe>
   82c82:	480c      	ldr	r0, [pc, #48]	; (82cb4 <ds18b20_read_fixed_point+0xa8>)
   82c84:	f00a f89e 	bl	8cdc4 <std_printf>
   82c88:	4b09      	ldr	r3, [pc, #36]	; (82cb0 <ds18b20_read_fixed_point+0xa4>)
   82c8a:	2016      	movs	r0, #22
   82c8c:	681b      	ldr	r3, [r3, #0]
   82c8e:	4798      	blx	r3
   82c90:	2e00      	cmp	r6, #0
   82c92:	d1c2      	bne.n	82c1a <ds18b20_read_fixed_point+0xe>
   82c94:	e7ed      	b.n	82c72 <ds18b20_read_fixed_point+0x66>
   82c96:	4808      	ldr	r0, [pc, #32]	; (82cb8 <ds18b20_read_fixed_point+0xac>)
   82c98:	f00a f894 	bl	8cdc4 <std_printf>
   82c9c:	4b04      	ldr	r3, [pc, #16]	; (82cb0 <ds18b20_read_fixed_point+0xa4>)
   82c9e:	2016      	movs	r0, #22
   82ca0:	681b      	ldr	r3, [r3, #0]
   82ca2:	4798      	blx	r3
   82ca4:	e7bb      	b.n	82c1e <ds18b20_read_fixed_point+0x12>
   82ca6:	f06f 0046 	mvn.w	r0, #70	; 0x46
   82caa:	e7e0      	b.n	82c6e <ds18b20_read_fixed_point+0x62>
   82cac:	00092dd4 	.word	0x00092dd4
   82cb0:	20070860 	.word	0x20070860
   82cb4:	00092d6c 	.word	0x00092d6c
   82cb8:	00092e38 	.word	0x00092e38

00082cbc <ds18b20_read_string>:
   82cbc:	b530      	push	{r4, r5, lr}
   82cbe:	4614      	mov	r4, r2
   82cc0:	b085      	sub	sp, #20
   82cc2:	4605      	mov	r5, r0
   82cc4:	b310      	cbz	r0, 82d0c <ds18b20_read_string+0x50>
   82cc6:	b1b9      	cbz	r1, 82cf8 <ds18b20_read_string+0x3c>
   82cc8:	b364      	cbz	r4, 82d24 <ds18b20_read_string+0x68>
   82cca:	4628      	mov	r0, r5
   82ccc:	aa03      	add	r2, sp, #12
   82cce:	f7ff ff9d 	bl	82c0c <ds18b20_read_fixed_point>
   82cd2:	b970      	cbnz	r0, 82cf2 <ds18b20_read_string+0x36>
   82cd4:	f240 2071 	movw	r0, #625	; 0x271
   82cd8:	9a03      	ldr	r2, [sp, #12]
   82cda:	4917      	ldr	r1, [pc, #92]	; (82d38 <ds18b20_read_string+0x7c>)
   82cdc:	f002 030f 	and.w	r3, r2, #15
   82ce0:	fb00 f303 	mul.w	r3, r0, r3
   82ce4:	1112      	asrs	r2, r2, #4
   82ce6:	4620      	mov	r0, r4
   82ce8:	f00a f8c8 	bl	8ce7c <std_sprintf>
   82cec:	4620      	mov	r0, r4
   82cee:	b005      	add	sp, #20
   82cf0:	bd30      	pop	{r4, r5, pc}
   82cf2:	2000      	movs	r0, #0
   82cf4:	b005      	add	sp, #20
   82cf6:	bd30      	pop	{r4, r5, pc}
   82cf8:	4810      	ldr	r0, [pc, #64]	; (82d3c <ds18b20_read_string+0x80>)
   82cfa:	9101      	str	r1, [sp, #4]
   82cfc:	f00a f862 	bl	8cdc4 <std_printf>
   82d00:	4b0f      	ldr	r3, [pc, #60]	; (82d40 <ds18b20_read_string+0x84>)
   82d02:	2016      	movs	r0, #22
   82d04:	681b      	ldr	r3, [r3, #0]
   82d06:	4798      	blx	r3
   82d08:	9901      	ldr	r1, [sp, #4]
   82d0a:	e7dd      	b.n	82cc8 <ds18b20_read_string+0xc>
   82d0c:	480d      	ldr	r0, [pc, #52]	; (82d44 <ds18b20_read_string+0x88>)
   82d0e:	9101      	str	r1, [sp, #4]
   82d10:	f00a f858 	bl	8cdc4 <std_printf>
   82d14:	4b0a      	ldr	r3, [pc, #40]	; (82d40 <ds18b20_read_string+0x84>)
   82d16:	2016      	movs	r0, #22
   82d18:	681b      	ldr	r3, [r3, #0]
   82d1a:	4798      	blx	r3
   82d1c:	9901      	ldr	r1, [sp, #4]
   82d1e:	2900      	cmp	r1, #0
   82d20:	d1d2      	bne.n	82cc8 <ds18b20_read_string+0xc>
   82d22:	e7e9      	b.n	82cf8 <ds18b20_read_string+0x3c>
   82d24:	4808      	ldr	r0, [pc, #32]	; (82d48 <ds18b20_read_string+0x8c>)
   82d26:	9101      	str	r1, [sp, #4]
   82d28:	f00a f84c 	bl	8cdc4 <std_printf>
   82d2c:	4b04      	ldr	r3, [pc, #16]	; (82d40 <ds18b20_read_string+0x84>)
   82d2e:	2016      	movs	r0, #22
   82d30:	681b      	ldr	r3, [r3, #0]
   82d32:	4798      	blx	r3
   82d34:	9901      	ldr	r1, [sp, #4]
   82d36:	e7c8      	b.n	82cca <ds18b20_read_string+0xe>
   82d38:	00093114 	.word	0x00093114
   82d3c:	00093044 	.word	0x00093044
   82d40:	20070860 	.word	0x20070860
   82d44:	00092fdc 	.word	0x00092fdc
   82d48:	000930a8 	.word	0x000930a8

00082d4c <cmd_list_cb>:
   82d4c:	e92d 47f0 	stmdb	sp!, {r4, r5, r6, r7, r8, r9, sl, lr}
   82d50:	492c      	ldr	r1, [pc, #176]	; (82e04 <cmd_list_cb+0xb8>)
   82d52:	b08c      	sub	sp, #48	; 0x30
   82d54:	4610      	mov	r0, r2
   82d56:	4691      	mov	r9, r2
   82d58:	f00a f8f8 	bl	8cf4c <std_fprintf>
   82d5c:	4b2a      	ldr	r3, [pc, #168]	; (82e08 <cmd_list_cb+0xbc>)
   82d5e:	f8d3 7001 	ldr.w	r7, [r3, #1]
   82d62:	2f00      	cmp	r7, #0
   82d64:	d045      	beq.n	82df2 <cmd_list_cb+0xa6>
   82d66:	f10d 0824 	add.w	r8, sp, #36	; 0x24
   82d6a:	6838      	ldr	r0, [r7, #0]
   82d6c:	f7ff fa12 	bl	82194 <owi_search>
   82d70:	4638      	mov	r0, r7
   82d72:	f7ff ff1f 	bl	82bb4 <ds18b20_convert>
   82d76:	683a      	ldr	r2, [r7, #0]
   82d78:	68d3      	ldr	r3, [r2, #12]
   82d7a:	6856      	ldr	r6, [r2, #4]
   82d7c:	b3b3      	cbz	r3, 82dec <cmd_list_cb+0xa0>
   82d7e:	4635      	mov	r5, r6
   82d80:	2400      	movs	r4, #0
   82d82:	f04f 0a2d 	mov.w	sl, #45	; 0x2d
   82d86:	e005      	b.n	82d94 <cmd_list_cb+0x48>
   82d88:	68d3      	ldr	r3, [r2, #12]
   82d8a:	3401      	adds	r4, #1
   82d8c:	42a3      	cmp	r3, r4
   82d8e:	f105 0508 	add.w	r5, r5, #8
   82d92:	d92b      	bls.n	82dec <cmd_list_cb+0xa0>
   82d94:	f816 3034 	ldrb.w	r3, [r6, r4, lsl #3]
   82d98:	2b28      	cmp	r3, #40	; 0x28
   82d9a:	d1f5      	bne.n	82d88 <cmd_list_cb+0x3c>
   82d9c:	4642      	mov	r2, r8
   82d9e:	4629      	mov	r1, r5
   82da0:	4638      	mov	r0, r7
   82da2:	f7ff ff8b 	bl	82cbc <ds18b20_read_string>
   82da6:	b340      	cbz	r0, 82dfa <cmd_list_cb+0xae>
   82da8:	786b      	ldrb	r3, [r5, #1]
   82daa:	f816 2034 	ldrb.w	r2, [r6, r4, lsl #3]
   82dae:	f8cd 8018 	str.w	r8, [sp, #24]
   82db2:	79e9      	ldrb	r1, [r5, #7]
   82db4:	3401      	adds	r4, #1
   82db6:	9105      	str	r1, [sp, #20]
   82db8:	79a9      	ldrb	r1, [r5, #6]
   82dba:	3508      	adds	r5, #8
   82dbc:	9104      	str	r1, [sp, #16]
   82dbe:	f815 0c03 	ldrb.w	r0, [r5, #-3]
   82dc2:	4912      	ldr	r1, [pc, #72]	; (82e0c <cmd_list_cb+0xc0>)
   82dc4:	9003      	str	r0, [sp, #12]
   82dc6:	f815 ec04 	ldrb.w	lr, [r5, #-4]
   82dca:	4648      	mov	r0, r9
   82dcc:	f8cd e008 	str.w	lr, [sp, #8]
   82dd0:	f815 ec05 	ldrb.w	lr, [r5, #-5]
   82dd4:	f8cd e004 	str.w	lr, [sp, #4]
   82dd8:	f815 ec06 	ldrb.w	lr, [r5, #-6]
   82ddc:	f8cd e000 	str.w	lr, [sp]
   82de0:	f00a f8b4 	bl	8cf4c <std_fprintf>
   82de4:	683a      	ldr	r2, [r7, #0]
   82de6:	68d3      	ldr	r3, [r2, #12]
   82de8:	42a3      	cmp	r3, r4
   82dea:	d8d3      	bhi.n	82d94 <cmd_list_cb+0x48>
   82dec:	687f      	ldr	r7, [r7, #4]
   82dee:	2f00      	cmp	r7, #0
   82df0:	d1bb      	bne.n	82d6a <cmd_list_cb+0x1e>
   82df2:	2000      	movs	r0, #0
   82df4:	b00c      	add	sp, #48	; 0x30
   82df6:	e8bd 87f0 	ldmia.w	sp!, {r4, r5, r6, r7, r8, r9, sl, pc}
   82dfa:	f88d a024 	strb.w	sl, [sp, #36]	; 0x24
   82dfe:	f88d 0025 	strb.w	r0, [sp, #37]	; 0x25
   82e02:	e7d1      	b.n	82da8 <cmd_list_cb+0x5c>
   82e04:	0009311c 	.word	0x0009311c
   82e08:	200712c0 	.word	0x200712c0
   82e0c:	0009313c 	.word	0x0009313c

00082e10 <calculate_chunk_crc>:
   82e10:	e92d 41f0 	stmdb	sp!, {r4, r5, r6, r7, r8, lr}
   82e14:	68c3      	ldr	r3, [r0, #12]
   82e16:	b082      	sub	sp, #8
   82e18:	2b08      	cmp	r3, #8
   82e1a:	4688      	mov	r8, r1
   82e1c:	d91e      	bls.n	82e5c <calculate_chunk_crc+0x4c>
   82e1e:	4605      	mov	r5, r0
   82e20:	4617      	mov	r7, r2
   82e22:	2600      	movs	r6, #0
   82e24:	2408      	movs	r4, #8
   82e26:	e00a      	b.n	82e3e <calculate_chunk_crc+0x2e>
   82e28:	4602      	mov	r2, r0
   82e2a:	4669      	mov	r1, sp
   82e2c:	4630      	mov	r0, r6
   82e2e:	f000 fd1b 	bl	83868 <crc_32>
   82e32:	4606      	mov	r6, r0
   82e34:	f001 fc42 	bl	846bc <thrd_yield>
   82e38:	68eb      	ldr	r3, [r5, #12]
   82e3a:	42a3      	cmp	r3, r4
   82e3c:	d90f      	bls.n	82e5e <calculate_chunk_crc+0x4e>
   82e3e:	193a      	adds	r2, r7, r4
   82e40:	2308      	movs	r3, #8
   82e42:	4669      	mov	r1, sp
   82e44:	6828      	ldr	r0, [r5, #0]
   82e46:	f000 fc49 	bl	836dc <flash_read>
   82e4a:	2808      	cmp	r0, #8
   82e4c:	f104 0408 	add.w	r4, r4, #8
   82e50:	d0ea      	beq.n	82e28 <calculate_chunk_crc+0x18>
   82e52:	f04f 30ff 	mov.w	r0, #4294967295	; 0xffffffff
   82e56:	b002      	add	sp, #8
   82e58:	e8bd 81f0 	ldmia.w	sp!, {r4, r5, r6, r7, r8, pc}
   82e5c:	2600      	movs	r6, #0
   82e5e:	2000      	movs	r0, #0
   82e60:	f8c8 6000 	str.w	r6, [r8]
   82e64:	b002      	add	sp, #8
   82e66:	e8bd 81f0 	ldmia.w	sp!, {r4, r5, r6, r7, r8, pc}
   82e6a:	bf00      	nop

00082e6c <write_header>:
   82e6c:	b5f0      	push	{r4, r5, r6, r7, lr}
   82e6e:	460c      	mov	r4, r1
   82e70:	b083      	sub	sp, #12
   82e72:	4615      	mov	r5, r2
   82e74:	4669      	mov	r1, sp
   82e76:	4622      	mov	r2, r4
   82e78:	4606      	mov	r6, r0
   82e7a:	f7ff ffc9 	bl	82e10 <calculate_chunk_crc>
   82e7e:	b988      	cbnz	r0, 82ea4 <write_header+0x38>
   82e80:	f24a 57c3 	movw	r7, #42435	; 0xa5c3
   82e84:	466a      	mov	r2, sp
   82e86:	4621      	mov	r1, r4
   82e88:	6830      	ldr	r0, [r6, #0]
   82e8a:	2308      	movs	r3, #8
   82e8c:	f8ad 5004 	strh.w	r5, [sp, #4]
   82e90:	f8ad 7006 	strh.w	r7, [sp, #6]
   82e94:	f000 fc5a 	bl	8374c <flash_write>
   82e98:	3808      	subs	r0, #8
   82e9a:	bf18      	it	ne
   82e9c:	f04f 30ff 	movne.w	r0, #4294967295	; 0xffffffff
   82ea0:	b003      	add	sp, #12
   82ea2:	bdf0      	pop	{r4, r5, r6, r7, pc}
   82ea4:	f04f 30ff 	mov.w	r0, #4294967295	; 0xffffffff
   82ea8:	e7fa      	b.n	82ea0 <write_header+0x34>
   82eaa:	bf00      	nop

00082eac <eeprom_soft_module_init>:
   82eac:	f000 bbe2 	b.w	83674 <flash_module_init>

00082eb0 <eeprom_soft_init>:
   82eb0:	e92d 43f8 	stmdb	sp!, {r3, r4, r5, r6, r7, r8, r9, lr}
   82eb4:	9e08      	ldr	r6, [sp, #32]
   82eb6:	4689      	mov	r9, r1
   82eb8:	4690      	mov	r8, r2
   82eba:	461f      	mov	r7, r3
   82ebc:	4604      	mov	r4, r0
   82ebe:	b350      	cbz	r0, 82f16 <eeprom_soft_init+0x66>
   82ec0:	f1b9 0f00 	cmp.w	r9, #0
   82ec4:	d01f      	beq.n	82f06 <eeprom_soft_init+0x56>
   82ec6:	f1b8 0f00 	cmp.w	r8, #0
   82eca:	d037      	beq.n	82f3c <eeprom_soft_init+0x8c>
   82ecc:	2f01      	cmp	r7, #1
   82ece:	dd2d      	ble.n	82f2c <eeprom_soft_init+0x7c>
   82ed0:	2500      	movs	r5, #0
   82ed2:	f04f 30ff 	mov.w	r0, #4294967295	; 0xffffffff
   82ed6:	f1a6 0308 	sub.w	r3, r6, #8
   82eda:	7620      	strb	r0, [r4, #24]
   82edc:	7660      	strb	r0, [r4, #25]
   82ede:	76a0      	strb	r0, [r4, #26]
   82ee0:	76e0      	strb	r0, [r4, #27]
   82ee2:	f8c4 9000 	str.w	r9, [r4]
   82ee6:	f8c4 8004 	str.w	r8, [r4, #4]
   82eea:	60a7      	str	r7, [r4, #8]
   82eec:	60e6      	str	r6, [r4, #12]
   82eee:	6123      	str	r3, [r4, #16]
   82ef0:	7525      	strb	r5, [r4, #20]
   82ef2:	7565      	strb	r5, [r4, #21]
   82ef4:	75a5      	strb	r5, [r4, #22]
   82ef6:	75e5      	strb	r5, [r4, #23]
   82ef8:	f104 001e 	add.w	r0, r4, #30
   82efc:	f009 fae2 	bl	8c4c4 <mutex_init>
   82f00:	4628      	mov	r0, r5
   82f02:	e8bd 83f8 	ldmia.w	sp!, {r3, r4, r5, r6, r7, r8, r9, pc}
   82f06:	4811      	ldr	r0, [pc, #68]	; (82f4c <eeprom_soft_init+0x9c>)
   82f08:	f009 ff5c 	bl	8cdc4 <std_printf>
   82f0c:	4b10      	ldr	r3, [pc, #64]	; (82f50 <eeprom_soft_init+0xa0>)
   82f0e:	2016      	movs	r0, #22
   82f10:	681b      	ldr	r3, [r3, #0]
   82f12:	4798      	blx	r3
   82f14:	e7d7      	b.n	82ec6 <eeprom_soft_init+0x16>
   82f16:	480f      	ldr	r0, [pc, #60]	; (82f54 <eeprom_soft_init+0xa4>)
   82f18:	f009 ff54 	bl	8cdc4 <std_printf>
   82f1c:	4b0c      	ldr	r3, [pc, #48]	; (82f50 <eeprom_soft_init+0xa0>)
   82f1e:	2016      	movs	r0, #22
   82f20:	681b      	ldr	r3, [r3, #0]
   82f22:	4798      	blx	r3
   82f24:	f1b9 0f00 	cmp.w	r9, #0
   82f28:	d1cd      	bne.n	82ec6 <eeprom_soft_init+0x16>
   82f2a:	e7ec      	b.n	82f06 <eeprom_soft_init+0x56>
   82f2c:	480a      	ldr	r0, [pc, #40]	; (82f58 <eeprom_soft_init+0xa8>)
   82f2e:	f009 ff49 	bl	8cdc4 <std_printf>
   82f32:	4b07      	ldr	r3, [pc, #28]	; (82f50 <eeprom_soft_init+0xa0>)
   82f34:	2016      	movs	r0, #22
   82f36:	681b      	ldr	r3, [r3, #0]
   82f38:	4798      	blx	r3
   82f3a:	e7c9      	b.n	82ed0 <eeprom_soft_init+0x20>
   82f3c:	4807      	ldr	r0, [pc, #28]	; (82f5c <eeprom_soft_init+0xac>)
   82f3e:	f009 ff41 	bl	8cdc4 <std_printf>
   82f42:	4b03      	ldr	r3, [pc, #12]	; (82f50 <eeprom_soft_init+0xa0>)
   82f44:	2016      	movs	r0, #22
   82f46:	681b      	ldr	r3, [r3, #0]
   82f48:	4798      	blx	r3
   82f4a:	e7bf      	b.n	82ecc <eeprom_soft_init+0x1c>
   82f4c:	000931d0 	.word	0x000931d0
   82f50:	20070860 	.word	0x20070860
   82f54:	00093164 	.word	0x00093164
   82f58:	000932a8 	.word	0x000932a8
   82f5c:	0009323c 	.word	0x0009323c

00082f60 <eeprom_soft_format>:
   82f60:	b538      	push	{r3, r4, r5, lr}
   82f62:	4605      	mov	r5, r0
   82f64:	b1f0      	cbz	r0, 82fa4 <eeprom_soft_format+0x44>
   82f66:	68ab      	ldr	r3, [r5, #8]
   82f68:	2b00      	cmp	r3, #0
   82f6a:	bfc8      	it	gt
   82f6c:	2400      	movgt	r4, #0
   82f6e:	dc03      	bgt.n	82f78 <eeprom_soft_format+0x18>
   82f70:	e010      	b.n	82f94 <eeprom_soft_format+0x34>
   82f72:	68ab      	ldr	r3, [r5, #8]
   82f74:	42a3      	cmp	r3, r4
   82f76:	dd0d      	ble.n	82f94 <eeprom_soft_format+0x34>
   82f78:	686b      	ldr	r3, [r5, #4]
   82f7a:	6828      	ldr	r0, [r5, #0]
   82f7c:	eb03 03c4 	add.w	r3, r3, r4, lsl #3
   82f80:	685a      	ldr	r2, [r3, #4]
   82f82:	6819      	ldr	r1, [r3, #0]
   82f84:	f000 fc1c 	bl	837c0 <flash_erase>
   82f88:	3401      	adds	r4, #1
   82f8a:	2800      	cmp	r0, #0
   82f8c:	d0f1      	beq.n	82f72 <eeprom_soft_format+0x12>
   82f8e:	f04f 30ff 	mov.w	r0, #4294967295	; 0xffffffff
   82f92:	bd38      	pop	{r3, r4, r5, pc}
   82f94:	686b      	ldr	r3, [r5, #4]
   82f96:	4628      	mov	r0, r5
   82f98:	6819      	ldr	r1, [r3, #0]
   82f9a:	2200      	movs	r2, #0
   82f9c:	e8bd 4038 	ldmia.w	sp!, {r3, r4, r5, lr}
   82fa0:	f7ff bf64 	b.w	82e6c <write_header>
   82fa4:	4803      	ldr	r0, [pc, #12]	; (82fb4 <eeprom_soft_format+0x54>)
   82fa6:	f009 ff0d 	bl	8cdc4 <std_printf>
   82faa:	4b03      	ldr	r3, [pc, #12]	; (82fb8 <eeprom_soft_format+0x58>)
   82fac:	2016      	movs	r0, #22
   82fae:	681b      	ldr	r3, [r3, #0]
   82fb0:	4798      	blx	r3
   82fb2:	e7d8      	b.n	82f66 <eeprom_soft_format+0x6>
   82fb4:	00093314 	.word	0x00093314
   82fb8:	20070860 	.word	0x20070860

00082fbc <eeprom_soft_mount>:
   82fbc:	e92d 4ff0 	stmdb	sp!, {r4, r5, r6, r7, r8, r9, sl, fp, lr}
   82fc0:	4606      	mov	r6, r0
   82fc2:	b089      	sub	sp, #36	; 0x24
   82fc4:	2800      	cmp	r0, #0
   82fc6:	d078      	beq.n	830ba <eeprom_soft_mount+0xfe>
   82fc8:	68b3      	ldr	r3, [r6, #8]
   82fca:	2b00      	cmp	r3, #0
   82fcc:	dd49      	ble.n	83062 <eeprom_soft_mount+0xa6>
   82fce:	2200      	movs	r2, #0
   82fd0:	4691      	mov	r9, r2
   82fd2:	f24a 5ac3 	movw	sl, #42435	; 0xa5c3
   82fd6:	9200      	str	r2, [sp, #0]
   82fd8:	6877      	ldr	r7, [r6, #4]
   82fda:	68f2      	ldr	r2, [r6, #12]
   82fdc:	eb07 07c9 	add.w	r7, r7, r9, lsl #3
   82fe0:	f8d7 8004 	ldr.w	r8, [r7, #4]
   82fe4:	fbb8 f8f2 	udiv	r8, r8, r2
   82fe8:	f1b8 0f00 	cmp.w	r8, #0
   82fec:	dd2b      	ble.n	83046 <eeprom_soft_mount+0x8a>
   82fee:	2500      	movs	r5, #0
   82ff0:	e003      	b.n	82ffa <eeprom_soft_mount+0x3e>
   82ff2:	3501      	adds	r5, #1
   82ff4:	45a8      	cmp	r8, r5
   82ff6:	d025      	beq.n	83044 <eeprom_soft_mount+0x88>
   82ff8:	68f2      	ldr	r2, [r6, #12]
   82ffa:	683c      	ldr	r4, [r7, #0]
   82ffc:	2308      	movs	r3, #8
   82ffe:	fb02 4405 	mla	r4, r2, r5, r4
   83002:	a904      	add	r1, sp, #16
   83004:	4622      	mov	r2, r4
   83006:	6830      	ldr	r0, [r6, #0]
   83008:	f000 fb68 	bl	836dc <flash_read>
   8300c:	2808      	cmp	r0, #8
   8300e:	d1f0      	bne.n	82ff2 <eeprom_soft_mount+0x36>
   83010:	f8bd 3016 	ldrh.w	r3, [sp, #22]
   83014:	4553      	cmp	r3, sl
   83016:	d1ec      	bne.n	82ff2 <eeprom_soft_mount+0x36>
   83018:	9b00      	ldr	r3, [sp, #0]
   8301a:	2b00      	cmp	r3, #0
   8301c:	d030      	beq.n	83080 <eeprom_soft_mount+0xc4>
   8301e:	f8bd 2014 	ldrh.w	r2, [sp, #20]
   83022:	455a      	cmp	r2, fp
   83024:	d922      	bls.n	8306c <eeprom_soft_mount+0xb0>
   83026:	ebcb 0302 	rsb	r3, fp, r2
   8302a:	f5b3 4f00 	cmp.w	r3, #32768	; 0x8000
   8302e:	bfac      	ite	ge
   83030:	2300      	movge	r3, #0
   83032:	2301      	movlt	r3, #1
   83034:	2b00      	cmp	r3, #0
   83036:	d0dc      	beq.n	82ff2 <eeprom_soft_mount+0x36>
   83038:	4693      	mov	fp, r2
   8303a:	3501      	adds	r5, #1
   8303c:	45a8      	cmp	r8, r5
   8303e:	9401      	str	r4, [sp, #4]
   83040:	9700      	str	r7, [sp, #0]
   83042:	d1d9      	bne.n	82ff8 <eeprom_soft_mount+0x3c>
   83044:	68b3      	ldr	r3, [r6, #8]
   83046:	f109 0901 	add.w	r9, r9, #1
   8304a:	454b      	cmp	r3, r9
   8304c:	dcc4      	bgt.n	82fd8 <eeprom_soft_mount+0x1c>
   8304e:	9b00      	ldr	r3, [sp, #0]
   83050:	b13b      	cbz	r3, 83062 <eeprom_soft_mount+0xa6>
   83052:	2308      	movs	r3, #8
   83054:	9a01      	ldr	r2, [sp, #4]
   83056:	a906      	add	r1, sp, #24
   83058:	6830      	ldr	r0, [r6, #0]
   8305a:	f000 fb3f 	bl	836dc <flash_read>
   8305e:	2808      	cmp	r0, #8
   83060:	d011      	beq.n	83086 <eeprom_soft_mount+0xca>
   83062:	f04f 30ff 	mov.w	r0, #4294967295	; 0xffffffff
   83066:	b009      	add	sp, #36	; 0x24
   83068:	e8bd 8ff0 	ldmia.w	sp!, {r4, r5, r6, r7, r8, r9, sl, fp, pc}
   8306c:	ebc2 030b 	rsb	r3, r2, fp
   83070:	f5b3 4f00 	cmp.w	r3, #32768	; 0x8000
   83074:	bfb4      	ite	lt
   83076:	2300      	movlt	r3, #0
   83078:	2301      	movge	r3, #1
   8307a:	2b00      	cmp	r3, #0
   8307c:	d0b9      	beq.n	82ff2 <eeprom_soft_mount+0x36>
   8307e:	e7db      	b.n	83038 <eeprom_soft_mount+0x7c>
   83080:	f8bd b014 	ldrh.w	fp, [sp, #20]
   83084:	e7d9      	b.n	8303a <eeprom_soft_mount+0x7e>
   83086:	f24a 53c3 	movw	r3, #42435	; 0xa5c3
   8308a:	f8bd 201e 	ldrh.w	r2, [sp, #30]
   8308e:	429a      	cmp	r2, r3
   83090:	d1e7      	bne.n	83062 <eeprom_soft_mount+0xa6>
   83092:	9a01      	ldr	r2, [sp, #4]
   83094:	a903      	add	r1, sp, #12
   83096:	4630      	mov	r0, r6
   83098:	f7ff feba 	bl	82e10 <calculate_chunk_crc>
   8309c:	2800      	cmp	r0, #0
   8309e:	d1e0      	bne.n	83062 <eeprom_soft_mount+0xa6>
   830a0:	9a06      	ldr	r2, [sp, #24]
   830a2:	9b03      	ldr	r3, [sp, #12]
   830a4:	429a      	cmp	r2, r3
   830a6:	d1dc      	bne.n	83062 <eeprom_soft_mount+0xa6>
   830a8:	9b00      	ldr	r3, [sp, #0]
   830aa:	f8a6 b01c 	strh.w	fp, [r6, #28]
   830ae:	6173      	str	r3, [r6, #20]
   830b0:	9b01      	ldr	r3, [sp, #4]
   830b2:	61b3      	str	r3, [r6, #24]
   830b4:	b009      	add	sp, #36	; 0x24
   830b6:	e8bd 8ff0 	ldmia.w	sp!, {r4, r5, r6, r7, r8, r9, sl, fp, pc}
   830ba:	4804      	ldr	r0, [pc, #16]	; (830cc <eeprom_soft_mount+0x110>)
   830bc:	f009 fe82 	bl	8cdc4 <std_printf>
   830c0:	4b03      	ldr	r3, [pc, #12]	; (830d0 <eeprom_soft_mount+0x114>)
   830c2:	2016      	movs	r0, #22
   830c4:	681b      	ldr	r3, [r3, #0]
   830c6:	4798      	blx	r3
   830c8:	e77e      	b.n	82fc8 <eeprom_soft_mount+0xc>
   830ca:	bf00      	nop
   830cc:	00093380 	.word	0x00093380
   830d0:	20070860 	.word	0x20070860

000830d4 <eeprom_soft_read>:
   830d4:	e92d 41f0 	stmdb	sp!, {r4, r5, r6, r7, r8, lr}
   830d8:	460e      	mov	r6, r1
   830da:	4615      	mov	r5, r2
   830dc:	461f      	mov	r7, r3
   830de:	4604      	mov	r4, r0
   830e0:	b1e0      	cbz	r0, 8311c <eeprom_soft_read+0x48>
   830e2:	b33e      	cbz	r6, 83134 <eeprom_soft_read+0x60>
   830e4:	6963      	ldr	r3, [r4, #20]
   830e6:	b36b      	cbz	r3, 83144 <eeprom_soft_read+0x70>
   830e8:	6922      	ldr	r2, [r4, #16]
   830ea:	42aa      	cmp	r2, r5
   830ec:	d91e      	bls.n	8312c <eeprom_soft_read+0x58>
   830ee:	19eb      	adds	r3, r5, r7
   830f0:	429a      	cmp	r2, r3
   830f2:	d31b      	bcc.n	8312c <eeprom_soft_read+0x58>
   830f4:	f104 081e 	add.w	r8, r4, #30
   830f8:	4640      	mov	r0, r8
   830fa:	f009 f9eb 	bl	8c4d4 <mutex_lock>
   830fe:	69a2      	ldr	r2, [r4, #24]
   83100:	463b      	mov	r3, r7
   83102:	3208      	adds	r2, #8
   83104:	4631      	mov	r1, r6
   83106:	442a      	add	r2, r5
   83108:	6820      	ldr	r0, [r4, #0]
   8310a:	f000 fae7 	bl	836dc <flash_read>
   8310e:	4604      	mov	r4, r0
   83110:	4640      	mov	r0, r8
   83112:	f009 fa01 	bl	8c518 <mutex_unlock>
   83116:	4620      	mov	r0, r4
   83118:	e8bd 81f0 	ldmia.w	sp!, {r4, r5, r6, r7, r8, pc}
   8311c:	480b      	ldr	r0, [pc, #44]	; (8314c <eeprom_soft_read+0x78>)
   8311e:	f009 fe51 	bl	8cdc4 <std_printf>
   83122:	4b0b      	ldr	r3, [pc, #44]	; (83150 <eeprom_soft_read+0x7c>)
   83124:	2016      	movs	r0, #22
   83126:	681b      	ldr	r3, [r3, #0]
   83128:	4798      	blx	r3
   8312a:	e7da      	b.n	830e2 <eeprom_soft_read+0xe>
   8312c:	f06f 0015 	mvn.w	r0, #21
   83130:	e8bd 81f0 	ldmia.w	sp!, {r4, r5, r6, r7, r8, pc}
   83134:	4807      	ldr	r0, [pc, #28]	; (83154 <eeprom_soft_read+0x80>)
   83136:	f009 fe45 	bl	8cdc4 <std_printf>
   8313a:	4b05      	ldr	r3, [pc, #20]	; (83150 <eeprom_soft_read+0x7c>)
   8313c:	2016      	movs	r0, #22
   8313e:	681b      	ldr	r3, [r3, #0]
   83140:	4798      	blx	r3
   83142:	e7cf      	b.n	830e4 <eeprom_soft_read+0x10>
   83144:	4804      	ldr	r0, [pc, #16]	; (83158 <eeprom_soft_read+0x84>)
   83146:	e8bd 81f0 	ldmia.w	sp!, {r4, r5, r6, r7, r8, pc}
   8314a:	bf00      	nop
   8314c:	000933ec 	.word	0x000933ec
   83150:	20070860 	.word	0x20070860
   83154:	00093458 	.word	0x00093458
   83158:	fffffc14 	.word	0xfffffc14

0008315c <eeprom_soft_vwrite>:
   8315c:	e92d 4ff0 	stmdb	sp!, {r4, r5, r6, r7, r8, r9, sl, fp, lr}
   83160:	b08b      	sub	sp, #44	; 0x2c
   83162:	9102      	str	r1, [sp, #8]
   83164:	9204      	str	r2, [sp, #16]
   83166:	9303      	str	r3, [sp, #12]
   83168:	9001      	str	r0, [sp, #4]
   8316a:	2800      	cmp	r0, #0
   8316c:	f000 815f 	beq.w	8342e <eeprom_soft_vwrite+0x2d2>
   83170:	9b02      	ldr	r3, [sp, #8]
   83172:	2b00      	cmp	r3, #0
   83174:	f000 8163 	beq.w	8343e <eeprom_soft_vwrite+0x2e2>
   83178:	9b04      	ldr	r3, [sp, #16]
   8317a:	2b00      	cmp	r3, #0
   8317c:	f000 814f 	beq.w	8341e <eeprom_soft_vwrite+0x2c2>
   83180:	9c01      	ldr	r4, [sp, #4]
   83182:	4623      	mov	r3, r4
   83184:	331e      	adds	r3, #30
   83186:	4618      	mov	r0, r3
   83188:	9305      	str	r3, [sp, #20]
   8318a:	f009 f9a3 	bl	8c4d4 <mutex_lock>
   8318e:	6963      	ldr	r3, [r4, #20]
   83190:	2b00      	cmp	r3, #0
   83192:	f000 8181 	beq.w	83498 <eeprom_soft_vwrite+0x33c>
   83196:	9b03      	ldr	r3, [sp, #12]
   83198:	2b00      	cmp	r3, #0
   8319a:	f000 8176 	beq.w	8348a <eeprom_soft_vwrite+0x32e>
   8319e:	9a02      	ldr	r2, [sp, #8]
   831a0:	9901      	ldr	r1, [sp, #4]
   831a2:	6813      	ldr	r3, [r2, #0]
   831a4:	690c      	ldr	r4, [r1, #16]
   831a6:	6852      	ldr	r2, [r2, #4]
   831a8:	429c      	cmp	r4, r3
   831aa:	d95e      	bls.n	8326a <eeprom_soft_vwrite+0x10e>
   831ac:	4413      	add	r3, r2
   831ae:	429c      	cmp	r4, r3
   831b0:	d35b      	bcc.n	8326a <eeprom_soft_vwrite+0x10e>
   831b2:	9b02      	ldr	r3, [sp, #8]
   831b4:	2000      	movs	r0, #0
   831b6:	f103 0108 	add.w	r1, r3, #8
   831ba:	9d03      	ldr	r5, [sp, #12]
   831bc:	e008      	b.n	831d0 <eeprom_soft_vwrite+0x74>
   831be:	680a      	ldr	r2, [r1, #0]
   831c0:	684b      	ldr	r3, [r1, #4]
   831c2:	42a2      	cmp	r2, r4
   831c4:	4413      	add	r3, r2
   831c6:	f101 0108 	add.w	r1, r1, #8
   831ca:	d24e      	bcs.n	8326a <eeprom_soft_vwrite+0x10e>
   831cc:	42a3      	cmp	r3, r4
   831ce:	d84c      	bhi.n	8326a <eeprom_soft_vwrite+0x10e>
   831d0:	3001      	adds	r0, #1
   831d2:	4285      	cmp	r5, r0
   831d4:	d1f3      	bne.n	831be <eeprom_soft_vwrite+0x62>
   831d6:	f04f 0a01 	mov.w	sl, #1
   831da:	2c00      	cmp	r4, #0
   831dc:	d05d      	beq.n	8329a <eeprom_soft_vwrite+0x13e>
   831de:	9b02      	ldr	r3, [sp, #8]
   831e0:	9a03      	ldr	r2, [sp, #12]
   831e2:	f04f 0808 	mov.w	r8, #8
   831e6:	eb03 0bc2 	add.w	fp, r3, r2, lsl #3
   831ea:	ab08      	add	r3, sp, #32
   831ec:	f04f 0a01 	mov.w	sl, #1
   831f0:	9300      	str	r3, [sp, #0]
   831f2:	9801      	ldr	r0, [sp, #4]
   831f4:	2308      	movs	r3, #8
   831f6:	6982      	ldr	r2, [r0, #24]
   831f8:	9900      	ldr	r1, [sp, #0]
   831fa:	4442      	add	r2, r8
   831fc:	6800      	ldr	r0, [r0, #0]
   831fe:	f000 fa6d 	bl	836dc <flash_read>
   83202:	2808      	cmp	r0, #8
   83204:	f1a8 0708 	sub.w	r7, r8, #8
   83208:	d142      	bne.n	83290 <eeprom_soft_vwrite+0x134>
   8320a:	9b03      	ldr	r3, [sp, #12]
   8320c:	b3b3      	cbz	r3, 8327c <eeprom_soft_vwrite+0x120>
   8320e:	9e02      	ldr	r6, [sp, #8]
   83210:	f8dd 9010 	ldr.w	r9, [sp, #16]
   83214:	e01b      	b.n	8324e <eeprom_soft_vwrite+0xf2>
   83216:	4618      	mov	r0, r3
   83218:	1be4      	subs	r4, r4, r7
   8321a:	2c08      	cmp	r4, #8
   8321c:	bf94      	ite	ls
   8321e:	ebc3 0404 	rsbls	r4, r3, r4
   83222:	f1c3 0408 	rsbhi	r4, r3, #8
   83226:	f8d9 5000 	ldr.w	r5, [r9]
   8322a:	9b00      	ldr	r3, [sp, #0]
   8322c:	4622      	mov	r2, r4
   8322e:	4418      	add	r0, r3
   83230:	4629      	mov	r1, r5
   83232:	f00a ffd3 	bl	8e1dc <memcmp>
   83236:	192b      	adds	r3, r5, r4
   83238:	2800      	cmp	r0, #0
   8323a:	bf18      	it	ne
   8323c:	f04f 0a00 	movne.w	sl, #0
   83240:	f8c9 3000 	str.w	r3, [r9]
   83244:	3608      	adds	r6, #8
   83246:	45b3      	cmp	fp, r6
   83248:	f109 0908 	add.w	r9, r9, #8
   8324c:	d016      	beq.n	8327c <eeprom_soft_vwrite+0x120>
   8324e:	6832      	ldr	r2, [r6, #0]
   83250:	4542      	cmp	r2, r8
   83252:	d2f7      	bcs.n	83244 <eeprom_soft_vwrite+0xe8>
   83254:	6874      	ldr	r4, [r6, #4]
   83256:	4414      	add	r4, r2
   83258:	42a7      	cmp	r7, r4
   8325a:	d2f3      	bcs.n	83244 <eeprom_soft_vwrite+0xe8>
   8325c:	4297      	cmp	r7, r2
   8325e:	f04f 0300 	mov.w	r3, #0
   83262:	d2d8      	bcs.n	83216 <eeprom_soft_vwrite+0xba>
   83264:	1bd3      	subs	r3, r2, r7
   83266:	4618      	mov	r0, r3
   83268:	e7d6      	b.n	83218 <eeprom_soft_vwrite+0xbc>
   8326a:	f06f 0415 	mvn.w	r4, #21
   8326e:	9805      	ldr	r0, [sp, #20]
   83270:	f009 f952 	bl	8c518 <mutex_unlock>
   83274:	4620      	mov	r0, r4
   83276:	b00b      	add	sp, #44	; 0x2c
   83278:	e8bd 8ff0 	ldmia.w	sp!, {r4, r5, r6, r7, r8, r9, sl, fp, pc}
   8327c:	f001 fa1e 	bl	846bc <thrd_yield>
   83280:	9b01      	ldr	r3, [sp, #4]
   83282:	f108 0208 	add.w	r2, r8, #8
   83286:	691b      	ldr	r3, [r3, #16]
   83288:	4543      	cmp	r3, r8
   8328a:	d904      	bls.n	83296 <eeprom_soft_vwrite+0x13a>
   8328c:	4690      	mov	r8, r2
   8328e:	e7b0      	b.n	831f2 <eeprom_soft_vwrite+0x96>
   83290:	f04f 34ff 	mov.w	r4, #4294967295	; 0xffffffff
   83294:	e7eb      	b.n	8326e <eeprom_soft_vwrite+0x112>
   83296:	9b03      	ldr	r3, [sp, #12]
   83298:	b16b      	cbz	r3, 832b6 <eeprom_soft_vwrite+0x15a>
   8329a:	9c04      	ldr	r4, [sp, #16]
   8329c:	9802      	ldr	r0, [sp, #8]
   8329e:	9d03      	ldr	r5, [sp, #12]
   832a0:	2100      	movs	r1, #0
   832a2:	6842      	ldr	r2, [r0, #4]
   832a4:	6823      	ldr	r3, [r4, #0]
   832a6:	3101      	adds	r1, #1
   832a8:	1a9b      	subs	r3, r3, r2
   832aa:	428d      	cmp	r5, r1
   832ac:	f844 3b08 	str.w	r3, [r4], #8
   832b0:	f100 0008 	add.w	r0, r0, #8
   832b4:	d8f5      	bhi.n	832a2 <eeprom_soft_vwrite+0x146>
   832b6:	f1ba 0f01 	cmp.w	sl, #1
   832ba:	d10e      	bne.n	832da <eeprom_soft_vwrite+0x17e>
   832bc:	9a03      	ldr	r2, [sp, #12]
   832be:	2a00      	cmp	r2, #0
   832c0:	f000 80e8 	beq.w	83494 <eeprom_soft_vwrite+0x338>
   832c4:	9b02      	ldr	r3, [sp, #8]
   832c6:	2000      	movs	r0, #0
   832c8:	eb03 09c2 	add.w	r9, r3, r2, lsl #3
   832cc:	685a      	ldr	r2, [r3, #4]
   832ce:	3308      	adds	r3, #8
   832d0:	454b      	cmp	r3, r9
   832d2:	4410      	add	r0, r2
   832d4:	d1fa      	bne.n	832cc <eeprom_soft_vwrite+0x170>
   832d6:	4604      	mov	r4, r0
   832d8:	e7c9      	b.n	8326e <eeprom_soft_vwrite+0x112>
   832da:	9c01      	ldr	r4, [sp, #4]
   832dc:	6963      	ldr	r3, [r4, #20]
   832de:	9307      	str	r3, [sp, #28]
   832e0:	68e2      	ldr	r2, [r4, #12]
   832e2:	6818      	ldr	r0, [r3, #0]
   832e4:	69a1      	ldr	r1, [r4, #24]
   832e6:	685b      	ldr	r3, [r3, #4]
   832e8:	4411      	add	r1, r2
   832ea:	4403      	add	r3, r0
   832ec:	4299      	cmp	r1, r3
   832ee:	9106      	str	r1, [sp, #24]
   832f0:	f0c0 80ad 	bcc.w	8344e <eeprom_soft_vwrite+0x2f2>
   832f4:	9901      	ldr	r1, [sp, #4]
   832f6:	9807      	ldr	r0, [sp, #28]
   832f8:	684a      	ldr	r2, [r1, #4]
   832fa:	688b      	ldr	r3, [r1, #8]
   832fc:	3008      	adds	r0, #8
   832fe:	eb02 03c3 	add.w	r3, r2, r3, lsl #3
   83302:	4298      	cmp	r0, r3
   83304:	bf08      	it	eq
   83306:	4610      	moveq	r0, r2
   83308:	4602      	mov	r2, r0
   8330a:	9007      	str	r0, [sp, #28]
   8330c:	6808      	ldr	r0, [r1, #0]
   8330e:	4611      	mov	r1, r2
   83310:	6852      	ldr	r2, [r2, #4]
   83312:	6809      	ldr	r1, [r1, #0]
   83314:	f000 fa54 	bl	837c0 <flash_erase>
   83318:	2800      	cmp	r0, #0
   8331a:	d1b9      	bne.n	83290 <eeprom_soft_vwrite+0x134>
   8331c:	9b07      	ldr	r3, [sp, #28]
   8331e:	681b      	ldr	r3, [r3, #0]
   83320:	9306      	str	r3, [sp, #24]
   83322:	9b01      	ldr	r3, [sp, #4]
   83324:	691b      	ldr	r3, [r3, #16]
   83326:	2b00      	cmp	r3, #0
   83328:	d059      	beq.n	833de <eeprom_soft_vwrite+0x282>
   8332a:	ab08      	add	r3, sp, #32
   8332c:	f8dd 900c 	ldr.w	r9, [sp, #12]
   83330:	f04f 0a00 	mov.w	sl, #0
   83334:	9300      	str	r3, [sp, #0]
   83336:	9801      	ldr	r0, [sp, #4]
   83338:	2308      	movs	r3, #8
   8333a:	6982      	ldr	r2, [r0, #24]
   8333c:	9900      	ldr	r1, [sp, #0]
   8333e:	441a      	add	r2, r3
   83340:	4452      	add	r2, sl
   83342:	6800      	ldr	r0, [r0, #0]
   83344:	f000 f9ca 	bl	836dc <flash_read>
   83348:	2808      	cmp	r0, #8
   8334a:	d1a1      	bne.n	83290 <eeprom_soft_vwrite+0x134>
   8334c:	f1b9 0f00 	cmp.w	r9, #0
   83350:	d030      	beq.n	833b4 <eeprom_soft_vwrite+0x258>
   83352:	9e02      	ldr	r6, [sp, #8]
   83354:	f8dd 8010 	ldr.w	r8, [sp, #16]
   83358:	f10a 0b08 	add.w	fp, sl, #8
   8335c:	2700      	movs	r7, #0
   8335e:	e01a      	b.n	83396 <eeprom_soft_vwrite+0x23a>
   83360:	4618      	mov	r0, r3
   83362:	ebca 0404 	rsb	r4, sl, r4
   83366:	2c08      	cmp	r4, #8
   83368:	bf94      	ite	ls
   8336a:	ebc3 0404 	rsbls	r4, r3, r4
   8336e:	f1c3 0408 	rsbhi	r4, r3, #8
   83372:	f8d8 5000 	ldr.w	r5, [r8]
   83376:	9b00      	ldr	r3, [sp, #0]
   83378:	4622      	mov	r2, r4
   8337a:	4418      	add	r0, r3
   8337c:	4629      	mov	r1, r5
   8337e:	f00a ff5f 	bl	8e240 <memcpy>
   83382:	192b      	adds	r3, r5, r4
   83384:	f8c8 3000 	str.w	r3, [r8]
   83388:	3701      	adds	r7, #1
   8338a:	45b9      	cmp	r9, r7
   8338c:	f106 0608 	add.w	r6, r6, #8
   83390:	f108 0808 	add.w	r8, r8, #8
   83394:	d00e      	beq.n	833b4 <eeprom_soft_vwrite+0x258>
   83396:	6832      	ldr	r2, [r6, #0]
   83398:	455a      	cmp	r2, fp
   8339a:	d2f5      	bcs.n	83388 <eeprom_soft_vwrite+0x22c>
   8339c:	6874      	ldr	r4, [r6, #4]
   8339e:	4414      	add	r4, r2
   833a0:	4554      	cmp	r4, sl
   833a2:	d9f1      	bls.n	83388 <eeprom_soft_vwrite+0x22c>
   833a4:	4552      	cmp	r2, sl
   833a6:	f04f 0300 	mov.w	r3, #0
   833aa:	d9d9      	bls.n	83360 <eeprom_soft_vwrite+0x204>
   833ac:	ebca 0302 	rsb	r3, sl, r2
   833b0:	4618      	mov	r0, r3
   833b2:	e7d6      	b.n	83362 <eeprom_soft_vwrite+0x206>
   833b4:	9b06      	ldr	r3, [sp, #24]
   833b6:	9801      	ldr	r0, [sp, #4]
   833b8:	f103 0108 	add.w	r1, r3, #8
   833bc:	4451      	add	r1, sl
   833be:	2308      	movs	r3, #8
   833c0:	9a00      	ldr	r2, [sp, #0]
   833c2:	6800      	ldr	r0, [r0, #0]
   833c4:	f000 f9c2 	bl	8374c <flash_write>
   833c8:	2808      	cmp	r0, #8
   833ca:	f47f af61 	bne.w	83290 <eeprom_soft_vwrite+0x134>
   833ce:	f001 f975 	bl	846bc <thrd_yield>
   833d2:	9b01      	ldr	r3, [sp, #4]
   833d4:	f10a 0a08 	add.w	sl, sl, #8
   833d8:	691b      	ldr	r3, [r3, #16]
   833da:	459a      	cmp	sl, r3
   833dc:	d3ab      	bcc.n	83336 <eeprom_soft_vwrite+0x1da>
   833de:	9801      	ldr	r0, [sp, #4]
   833e0:	9906      	ldr	r1, [sp, #24]
   833e2:	8b85      	ldrh	r5, [r0, #28]
   833e4:	3501      	adds	r5, #1
   833e6:	b2ad      	uxth	r5, r5
   833e8:	462a      	mov	r2, r5
   833ea:	f7ff fd3f 	bl	82e6c <write_header>
   833ee:	4604      	mov	r4, r0
   833f0:	2800      	cmp	r0, #0
   833f2:	f47f af4d 	bne.w	83290 <eeprom_soft_vwrite+0x134>
   833f6:	9a01      	ldr	r2, [sp, #4]
   833f8:	9907      	ldr	r1, [sp, #28]
   833fa:	8395      	strh	r5, [r2, #28]
   833fc:	6151      	str	r1, [r2, #20]
   833fe:	9906      	ldr	r1, [sp, #24]
   83400:	6191      	str	r1, [r2, #24]
   83402:	9a03      	ldr	r2, [sp, #12]
   83404:	2a00      	cmp	r2, #0
   83406:	f43f af32 	beq.w	8326e <eeprom_soft_vwrite+0x112>
   8340a:	9b02      	ldr	r3, [sp, #8]
   8340c:	eb03 09c2 	add.w	r9, r3, r2, lsl #3
   83410:	685a      	ldr	r2, [r3, #4]
   83412:	3308      	adds	r3, #8
   83414:	454b      	cmp	r3, r9
   83416:	4410      	add	r0, r2
   83418:	d1fa      	bne.n	83410 <eeprom_soft_vwrite+0x2b4>
   8341a:	4604      	mov	r4, r0
   8341c:	e727      	b.n	8326e <eeprom_soft_vwrite+0x112>
   8341e:	481f      	ldr	r0, [pc, #124]	; (8349c <eeprom_soft_vwrite+0x340>)
   83420:	f009 fcd0 	bl	8cdc4 <std_printf>
   83424:	4b1e      	ldr	r3, [pc, #120]	; (834a0 <eeprom_soft_vwrite+0x344>)
   83426:	2016      	movs	r0, #22
   83428:	681b      	ldr	r3, [r3, #0]
   8342a:	4798      	blx	r3
   8342c:	e6a8      	b.n	83180 <eeprom_soft_vwrite+0x24>
   8342e:	481d      	ldr	r0, [pc, #116]	; (834a4 <eeprom_soft_vwrite+0x348>)
   83430:	f009 fcc8 	bl	8cdc4 <std_printf>
   83434:	4b1a      	ldr	r3, [pc, #104]	; (834a0 <eeprom_soft_vwrite+0x344>)
   83436:	2016      	movs	r0, #22
   83438:	681b      	ldr	r3, [r3, #0]
   8343a:	4798      	blx	r3
   8343c:	e698      	b.n	83170 <eeprom_soft_vwrite+0x14>
   8343e:	481a      	ldr	r0, [pc, #104]	; (834a8 <eeprom_soft_vwrite+0x34c>)
   83440:	f009 fcc0 	bl	8cdc4 <std_printf>
   83444:	4b16      	ldr	r3, [pc, #88]	; (834a0 <eeprom_soft_vwrite+0x344>)
   83446:	2016      	movs	r0, #22
   83448:	681b      	ldr	r3, [r3, #0]
   8344a:	4798      	blx	r3
   8344c:	e694      	b.n	83178 <eeprom_soft_vwrite+0x1c>
   8344e:	2a00      	cmp	r2, #0
   83450:	f43f af67 	beq.w	83322 <eeprom_soft_vwrite+0x1c6>
   83454:	2400      	movs	r4, #0
   83456:	af08      	add	r7, sp, #32
   83458:	460e      	mov	r6, r1
   8345a:	9d01      	ldr	r5, [sp, #4]
   8345c:	e00a      	b.n	83474 <eeprom_soft_vwrite+0x318>
   8345e:	f89d 3020 	ldrb.w	r3, [sp, #32]
   83462:	2bff      	cmp	r3, #255	; 0xff
   83464:	f47f af46 	bne.w	832f4 <eeprom_soft_vwrite+0x198>
   83468:	f001 f928 	bl	846bc <thrd_yield>
   8346c:	68eb      	ldr	r3, [r5, #12]
   8346e:	429c      	cmp	r4, r3
   83470:	f4bf af57 	bcs.w	83322 <eeprom_soft_vwrite+0x1c6>
   83474:	19a2      	adds	r2, r4, r6
   83476:	2301      	movs	r3, #1
   83478:	4639      	mov	r1, r7
   8347a:	6828      	ldr	r0, [r5, #0]
   8347c:	f000 f92e 	bl	836dc <flash_read>
   83480:	2801      	cmp	r0, #1
   83482:	f104 0401 	add.w	r4, r4, #1
   83486:	d0ea      	beq.n	8345e <eeprom_soft_vwrite+0x302>
   83488:	e734      	b.n	832f4 <eeprom_soft_vwrite+0x198>
   8348a:	9b01      	ldr	r3, [sp, #4]
   8348c:	691b      	ldr	r3, [r3, #16]
   8348e:	2b00      	cmp	r3, #0
   83490:	f47f aea5 	bne.w	831de <eeprom_soft_vwrite+0x82>
   83494:	9c03      	ldr	r4, [sp, #12]
   83496:	e6ea      	b.n	8326e <eeprom_soft_vwrite+0x112>
   83498:	4c04      	ldr	r4, [pc, #16]	; (834ac <eeprom_soft_vwrite+0x350>)
   8349a:	e6e8      	b.n	8326e <eeprom_soft_vwrite+0x112>
   8349c:	00093594 	.word	0x00093594
   834a0:	20070860 	.word	0x20070860
   834a4:	000934c0 	.word	0x000934c0
   834a8:	0009352c 	.word	0x0009352c
   834ac:	fffffc14 	.word	0xfffffc14

000834b0 <eeprom_soft_write>:
   834b0:	b570      	push	{r4, r5, r6, lr}
   834b2:	460e      	mov	r6, r1
   834b4:	b086      	sub	sp, #24
   834b6:	461d      	mov	r5, r3
   834b8:	4604      	mov	r4, r0
   834ba:	b168      	cbz	r0, 834d8 <eeprom_soft_write+0x28>
   834bc:	b1ba      	cbz	r2, 834ee <eeprom_soft_write+0x3e>
   834be:	ab06      	add	r3, sp, #24
   834c0:	f843 2d08 	str.w	r2, [r3, #-8]!
   834c4:	461a      	mov	r2, r3
   834c6:	4620      	mov	r0, r4
   834c8:	2301      	movs	r3, #1
   834ca:	a902      	add	r1, sp, #8
   834cc:	9602      	str	r6, [sp, #8]
   834ce:	9503      	str	r5, [sp, #12]
   834d0:	f7ff fe44 	bl	8315c <eeprom_soft_vwrite>
   834d4:	b006      	add	sp, #24
   834d6:	bd70      	pop	{r4, r5, r6, pc}
   834d8:	480a      	ldr	r0, [pc, #40]	; (83504 <eeprom_soft_write+0x54>)
   834da:	9201      	str	r2, [sp, #4]
   834dc:	f009 fc72 	bl	8cdc4 <std_printf>
   834e0:	4b09      	ldr	r3, [pc, #36]	; (83508 <eeprom_soft_write+0x58>)
   834e2:	2016      	movs	r0, #22
   834e4:	681b      	ldr	r3, [r3, #0]
   834e6:	4798      	blx	r3
   834e8:	9a01      	ldr	r2, [sp, #4]
   834ea:	2a00      	cmp	r2, #0
   834ec:	d1e7      	bne.n	834be <eeprom_soft_write+0xe>
   834ee:	4807      	ldr	r0, [pc, #28]	; (8350c <eeprom_soft_write+0x5c>)
   834f0:	9201      	str	r2, [sp, #4]
   834f2:	f009 fc67 	bl	8cdc4 <std_printf>
   834f6:	4b04      	ldr	r3, [pc, #16]	; (83508 <eeprom_soft_write+0x58>)
   834f8:	2016      	movs	r0, #22
   834fa:	681b      	ldr	r3, [r3, #0]
   834fc:	4798      	blx	r3
   834fe:	9a01      	ldr	r2, [sp, #4]
   83500:	e7dd      	b.n	834be <eeprom_soft_write+0xe>
   83502:	bf00      	nop
   83504:	000935fc 	.word	0x000935fc
   83508:	20070860 	.word	0x20070860
   8350c:	00093668 	.word	0x00093668

00083510 <bank_execute_command>:
   83510:	b5f8      	push	{r3, r4, r5, r6, r7, lr}
   83512:	460c      	mov	r4, r1
   83514:	4617      	mov	r7, r2
   83516:	4606      	mov	r6, r0
   83518:	4b09      	ldr	r3, [pc, #36]	; (83540 <bank_execute_command+0x30>)
   8351a:	681d      	ldr	r5, [r3, #0]
   8351c:	f000 fbee 	bl	83cfc <sys_lock>
   83520:	f044 41b4 	orr.w	r1, r4, #1509949440	; 0x5a000000
   83524:	ea41 2107 	orr.w	r1, r1, r7, lsl #8
   83528:	6830      	ldr	r0, [r6, #0]
   8352a:	47a8      	blx	r5
   8352c:	4604      	mov	r4, r0
   8352e:	f000 fbe7 	bl	83d00 <sys_unlock>
   83532:	f014 0f06 	tst.w	r4, #6
   83536:	bf14      	ite	ne
   83538:	f04f 30ff 	movne.w	r0, #4294967295	; 0xffffffff
   8353c:	2000      	moveq	r0, #0
   8353e:	bdf8      	pop	{r3, r4, r5, r6, r7, pc}
   83540:	00100008 	.word	0x00100008

00083544 <flash_port_write>:
   83544:	e92d 4ff0 	stmdb	sp!, {r4, r5, r6, r7, r8, r9, sl, fp, lr}
   83548:	b087      	sub	sp, #28
   8354a:	9302      	str	r3, [sp, #8]
   8354c:	9201      	str	r2, [sp, #4]
   8354e:	f8d0 b000 	ldr.w	fp, [r0]
   83552:	9303      	str	r3, [sp, #12]
   83554:	4689      	mov	r9, r1
   83556:	b193      	cbz	r3, 8357e <flash_port_write+0x3a>
   83558:	f8db 5008 	ldr.w	r5, [fp, #8]
   8355c:	45a9      	cmp	r9, r5
   8355e:	d303      	bcc.n	83568 <flash_port_write+0x24>
   83560:	f8db 300c 	ldr.w	r3, [fp, #12]
   83564:	4599      	cmp	r9, r3
   83566:	d30e      	bcc.n	83586 <flash_port_write+0x42>
   83568:	f8db 501c 	ldr.w	r5, [fp, #28]
   8356c:	45a9      	cmp	r9, r5
   8356e:	d303      	bcc.n	83578 <flash_port_write+0x34>
   83570:	f8db 3020 	ldr.w	r3, [fp, #32]
   83574:	4599      	cmp	r9, r3
   83576:	d374      	bcc.n	83662 <flash_port_write+0x11e>
   83578:	f04f 33ff 	mov.w	r3, #4294967295	; 0xffffffff
   8357c:	9303      	str	r3, [sp, #12]
   8357e:	9803      	ldr	r0, [sp, #12]
   83580:	b007      	add	sp, #28
   83582:	e8bd 8ff0 	ldmia.w	sp!, {r4, r5, r6, r7, r8, r9, sl, fp, pc}
   83586:	465e      	mov	r6, fp
   83588:	2300      	movs	r3, #0
   8358a:	009a      	lsls	r2, r3, #2
   8358c:	4413      	add	r3, r2
   8358e:	eb0b 0383 	add.w	r3, fp, r3, lsl #2
   83592:	f8d3 8010 	ldr.w	r8, [r3, #16]
   83596:	ebc5 0709 	rsb	r7, r5, r9
   8359a:	fbb7 faf8 	udiv	sl, r7, r8
   8359e:	fa1f f38a 	uxth.w	r3, sl
   835a2:	9304      	str	r3, [sp, #16]
   835a4:	461a      	mov	r2, r3
   835a6:	6933      	ldr	r3, [r6, #16]
   835a8:	2109      	movs	r1, #9
   835aa:	4630      	mov	r0, r6
   835ac:	9305      	str	r3, [sp, #20]
   835ae:	f7ff ffaf 	bl	83510 <bank_execute_command>
   835b2:	4604      	mov	r4, r0
   835b4:	2800      	cmp	r0, #0
   835b6:	d1df      	bne.n	83578 <flash_port_write+0x34>
   835b8:	fb08 781a 	mls	r8, r8, sl, r7
   835bc:	9a05      	ldr	r2, [sp, #20]
   835be:	9b02      	ldr	r3, [sp, #8]
   835c0:	ebc8 0702 	rsb	r7, r8, r2
   835c4:	429f      	cmp	r7, r3
   835c6:	bf28      	it	cs
   835c8:	461f      	movcs	r7, r3
   835ca:	fb0a 5502 	mla	r5, sl, r2, r5
   835ce:	4827      	ldr	r0, [pc, #156]	; (8366c <flash_port_write+0x128>)
   835d0:	4629      	mov	r1, r5
   835d2:	6932      	ldr	r2, [r6, #16]
   835d4:	f00a fe34 	bl	8e240 <memcpy>
   835d8:	4b24      	ldr	r3, [pc, #144]	; (8366c <flash_port_write+0x128>)
   835da:	463a      	mov	r2, r7
   835dc:	eb03 0008 	add.w	r0, r3, r8
   835e0:	9901      	ldr	r1, [sp, #4]
   835e2:	f00a fe2d 	bl	8e240 <memcpy>
   835e6:	6933      	ldr	r3, [r6, #16]
   835e8:	089b      	lsrs	r3, r3, #2
   835ea:	d00a      	beq.n	83602 <flash_port_write+0xbe>
   835ec:	4b20      	ldr	r3, [pc, #128]	; (83670 <flash_port_write+0x12c>)
   835ee:	3d04      	subs	r5, #4
   835f0:	f853 2f04 	ldr.w	r2, [r3, #4]!
   835f4:	3401      	adds	r4, #1
   835f6:	f845 2f04 	str.w	r2, [r5, #4]!
   835fa:	6932      	ldr	r2, [r6, #16]
   835fc:	ebb4 0f92 	cmp.w	r4, r2, lsr #2
   83600:	d3f6      	bcc.n	835f0 <flash_port_write+0xac>
   83602:	6873      	ldr	r3, [r6, #4]
   83604:	2400      	movs	r4, #0
   83606:	781a      	ldrb	r2, [r3, #0]
   83608:	701c      	strb	r4, [r3, #0]
   8360a:	2206      	movs	r2, #6
   8360c:	7859      	ldrb	r1, [r3, #1]
   8360e:	705a      	strb	r2, [r3, #1]
   83610:	789a      	ldrb	r2, [r3, #2]
   83612:	709c      	strb	r4, [r3, #2]
   83614:	78da      	ldrb	r2, [r3, #3]
   83616:	2103      	movs	r1, #3
   83618:	9a04      	ldr	r2, [sp, #16]
   8361a:	70dc      	strb	r4, [r3, #3]
   8361c:	4630      	mov	r0, r6
   8361e:	f7ff ff77 	bl	83510 <bank_execute_command>
   83622:	6873      	ldr	r3, [r6, #4]
   83624:	2204      	movs	r2, #4
   83626:	7819      	ldrb	r1, [r3, #0]
   83628:	701c      	strb	r4, [r3, #0]
   8362a:	7859      	ldrb	r1, [r3, #1]
   8362c:	705a      	strb	r2, [r3, #1]
   8362e:	789a      	ldrb	r2, [r3, #2]
   83630:	709c      	strb	r4, [r3, #2]
   83632:	78da      	ldrb	r2, [r3, #3]
   83634:	70dc      	strb	r4, [r3, #3]
   83636:	2800      	cmp	r0, #0
   83638:	d19e      	bne.n	83578 <flash_port_write+0x34>
   8363a:	9a04      	ldr	r2, [sp, #16]
   8363c:	4630      	mov	r0, r6
   8363e:	2108      	movs	r1, #8
   83640:	f7ff ff66 	bl	83510 <bank_execute_command>
   83644:	2800      	cmp	r0, #0
   83646:	d197      	bne.n	83578 <flash_port_write+0x34>
   83648:	9b01      	ldr	r3, [sp, #4]
   8364a:	44b9      	add	r9, r7
   8364c:	443b      	add	r3, r7
   8364e:	9301      	str	r3, [sp, #4]
   83650:	9b02      	ldr	r3, [sp, #8]
   83652:	1bdb      	subs	r3, r3, r7
   83654:	9302      	str	r3, [sp, #8]
   83656:	f47f af7f 	bne.w	83558 <flash_port_write+0x14>
   8365a:	9803      	ldr	r0, [sp, #12]
   8365c:	b007      	add	sp, #28
   8365e:	e8bd 8ff0 	ldmia.w	sp!, {r4, r5, r6, r7, r8, r9, sl, fp, pc}
   83662:	f10b 0614 	add.w	r6, fp, #20
   83666:	2301      	movs	r3, #1
   83668:	e78f      	b.n	8358a <flash_port_write+0x46>
   8366a:	bf00      	nop
   8366c:	200712d8 	.word	0x200712d8
   83670:	200712d4 	.word	0x200712d4

00083674 <flash_module_init>:
   83674:	4b04      	ldr	r3, [pc, #16]	; (83688 <flash_module_init+0x14>)
   83676:	2000      	movs	r0, #0
   83678:	f993 2000 	ldrsb.w	r2, [r3]
   8367c:	2a01      	cmp	r2, #1
   8367e:	bf1c      	itt	ne
   83680:	2201      	movne	r2, #1
   83682:	701a      	strbne	r2, [r3, #0]
   83684:	4770      	bx	lr
   83686:	bf00      	nop
   83688:	200714d8 	.word	0x200714d8

0008368c <flash_init>:
   8368c:	b510      	push	{r4, lr}
   8368e:	4604      	mov	r4, r0
   83690:	b082      	sub	sp, #8
   83692:	b120      	cbz	r0, 8369e <flash_init+0x12>
   83694:	b171      	cbz	r1, 836b4 <flash_init+0x28>
   83696:	2000      	movs	r0, #0
   83698:	6021      	str	r1, [r4, #0]
   8369a:	b002      	add	sp, #8
   8369c:	bd10      	pop	{r4, pc}
   8369e:	480c      	ldr	r0, [pc, #48]	; (836d0 <flash_init+0x44>)
   836a0:	9101      	str	r1, [sp, #4]
   836a2:	f009 fb8f 	bl	8cdc4 <std_printf>
   836a6:	4b0b      	ldr	r3, [pc, #44]	; (836d4 <flash_init+0x48>)
   836a8:	2016      	movs	r0, #22
   836aa:	681b      	ldr	r3, [r3, #0]
   836ac:	4798      	blx	r3
   836ae:	9901      	ldr	r1, [sp, #4]
   836b0:	2900      	cmp	r1, #0
   836b2:	d1f0      	bne.n	83696 <flash_init+0xa>
   836b4:	4808      	ldr	r0, [pc, #32]	; (836d8 <flash_init+0x4c>)
   836b6:	9101      	str	r1, [sp, #4]
   836b8:	f009 fb84 	bl	8cdc4 <std_printf>
   836bc:	4b05      	ldr	r3, [pc, #20]	; (836d4 <flash_init+0x48>)
   836be:	2016      	movs	r0, #22
   836c0:	681b      	ldr	r3, [r3, #0]
   836c2:	4798      	blx	r3
   836c4:	9901      	ldr	r1, [sp, #4]
   836c6:	2000      	movs	r0, #0
   836c8:	6021      	str	r1, [r4, #0]
   836ca:	b002      	add	sp, #8
   836cc:	bd10      	pop	{r4, pc}
   836ce:	bf00      	nop
   836d0:	000936d0 	.word	0x000936d0
   836d4:	20070860 	.word	0x20070860
   836d8:	00093734 	.word	0x00093734

000836dc <flash_read>:
   836dc:	b5f8      	push	{r3, r4, r5, r6, r7, lr}
   836de:	460e      	mov	r6, r1
   836e0:	4617      	mov	r7, r2
   836e2:	461c      	mov	r4, r3
   836e4:	4605      	mov	r5, r0
   836e6:	b1f8      	cbz	r0, 83728 <flash_read+0x4c>
   836e8:	b1b6      	cbz	r6, 83718 <flash_read+0x3c>
   836ea:	b934      	cbnz	r4, 836fa <flash_read+0x1e>
   836ec:	4813      	ldr	r0, [pc, #76]	; (8373c <flash_read+0x60>)
   836ee:	f009 fb69 	bl	8cdc4 <std_printf>
   836f2:	4b13      	ldr	r3, [pc, #76]	; (83740 <flash_read+0x64>)
   836f4:	2016      	movs	r0, #22
   836f6:	681b      	ldr	r3, [r3, #0]
   836f8:	4798      	blx	r3
   836fa:	6828      	ldr	r0, [r5, #0]
   836fc:	3028      	adds	r0, #40	; 0x28
   836fe:	f008 fee9 	bl	8c4d4 <mutex_lock>
   83702:	4622      	mov	r2, r4
   83704:	4639      	mov	r1, r7
   83706:	4630      	mov	r0, r6
   83708:	f00a fd9a 	bl	8e240 <memcpy>
   8370c:	6828      	ldr	r0, [r5, #0]
   8370e:	3028      	adds	r0, #40	; 0x28
   83710:	f008 ff02 	bl	8c518 <mutex_unlock>
   83714:	4620      	mov	r0, r4
   83716:	bdf8      	pop	{r3, r4, r5, r6, r7, pc}
   83718:	480a      	ldr	r0, [pc, #40]	; (83744 <flash_read+0x68>)
   8371a:	f009 fb53 	bl	8cdc4 <std_printf>
   8371e:	4b08      	ldr	r3, [pc, #32]	; (83740 <flash_read+0x64>)
   83720:	2016      	movs	r0, #22
   83722:	681b      	ldr	r3, [r3, #0]
   83724:	4798      	blx	r3
   83726:	e7e0      	b.n	836ea <flash_read+0xe>
   83728:	4807      	ldr	r0, [pc, #28]	; (83748 <flash_read+0x6c>)
   8372a:	f009 fb4b 	bl	8cdc4 <std_printf>
   8372e:	4b04      	ldr	r3, [pc, #16]	; (83740 <flash_read+0x64>)
   83730:	2016      	movs	r0, #22
   83732:	681b      	ldr	r3, [r3, #0]
   83734:	4798      	blx	r3
   83736:	2e00      	cmp	r6, #0
   83738:	d1d7      	bne.n	836ea <flash_read+0xe>
   8373a:	e7ed      	b.n	83718 <flash_read+0x3c>
   8373c:	00093860 	.word	0x00093860
   83740:	20070860 	.word	0x20070860
   83744:	000937fc 	.word	0x000937fc
   83748:	00093798 	.word	0x00093798

0008374c <flash_write>:
   8374c:	b5f8      	push	{r3, r4, r5, r6, r7, lr}
   8374e:	460f      	mov	r7, r1
   83750:	4615      	mov	r5, r2
   83752:	461e      	mov	r6, r3
   83754:	4604      	mov	r4, r0
   83756:	b308      	cbz	r0, 8379c <flash_write+0x50>
   83758:	b1c5      	cbz	r5, 8378c <flash_write+0x40>
   8375a:	b936      	cbnz	r6, 8376a <flash_write+0x1e>
   8375c:	4814      	ldr	r0, [pc, #80]	; (837b0 <flash_write+0x64>)
   8375e:	f009 fb31 	bl	8cdc4 <std_printf>
   83762:	4b14      	ldr	r3, [pc, #80]	; (837b4 <flash_write+0x68>)
   83764:	2016      	movs	r0, #22
   83766:	681b      	ldr	r3, [r3, #0]
   83768:	4798      	blx	r3
   8376a:	6820      	ldr	r0, [r4, #0]
   8376c:	3028      	adds	r0, #40	; 0x28
   8376e:	f008 feb1 	bl	8c4d4 <mutex_lock>
   83772:	462a      	mov	r2, r5
   83774:	4633      	mov	r3, r6
   83776:	4639      	mov	r1, r7
   83778:	4620      	mov	r0, r4
   8377a:	f7ff fee3 	bl	83544 <flash_port_write>
   8377e:	4605      	mov	r5, r0
   83780:	6820      	ldr	r0, [r4, #0]
   83782:	3028      	adds	r0, #40	; 0x28
   83784:	f008 fec8 	bl	8c518 <mutex_unlock>
   83788:	4628      	mov	r0, r5
   8378a:	bdf8      	pop	{r3, r4, r5, r6, r7, pc}
   8378c:	480a      	ldr	r0, [pc, #40]	; (837b8 <flash_write+0x6c>)
   8378e:	f009 fb19 	bl	8cdc4 <std_printf>
   83792:	4b08      	ldr	r3, [pc, #32]	; (837b4 <flash_write+0x68>)
   83794:	2016      	movs	r0, #22
   83796:	681b      	ldr	r3, [r3, #0]
   83798:	4798      	blx	r3
   8379a:	e7de      	b.n	8375a <flash_write+0xe>
   8379c:	4807      	ldr	r0, [pc, #28]	; (837bc <flash_write+0x70>)
   8379e:	f009 fb11 	bl	8cdc4 <std_printf>
   837a2:	4b04      	ldr	r3, [pc, #16]	; (837b4 <flash_write+0x68>)
   837a4:	2016      	movs	r0, #22
   837a6:	681b      	ldr	r3, [r3, #0]
   837a8:	4798      	blx	r3
   837aa:	2d00      	cmp	r5, #0
   837ac:	d1d5      	bne.n	8375a <flash_write+0xe>
   837ae:	e7ed      	b.n	8378c <flash_write+0x40>
   837b0:	00093980 	.word	0x00093980
   837b4:	20070860 	.word	0x20070860
   837b8:	0009391c 	.word	0x0009391c
   837bc:	000938b8 	.word	0x000938b8

000837c0 <flash_erase>:
   837c0:	b5f8      	push	{r3, r4, r5, r6, r7, lr}
   837c2:	460d      	mov	r5, r1
   837c4:	4614      	mov	r4, r2
   837c6:	4607      	mov	r7, r0
   837c8:	2800      	cmp	r0, #0
   837ca:	d03d      	beq.n	83848 <flash_erase+0x88>
   837cc:	b324      	cbz	r4, 83818 <flash_erase+0x58>
   837ce:	6838      	ldr	r0, [r7, #0]
   837d0:	3028      	adds	r0, #40	; 0x28
   837d2:	f008 fe7f 	bl	8c4d4 <mutex_lock>
   837d6:	f44f 7280 	mov.w	r2, #256	; 0x100
   837da:	f04f 31ff 	mov.w	r1, #4294967295	; 0xffffffff
   837de:	481e      	ldr	r0, [pc, #120]	; (83858 <flash_erase+0x98>)
   837e0:	f00a fe08 	bl	8e3f4 <memset>
   837e4:	e001      	b.n	837ea <flash_erase+0x2a>
   837e6:	1a24      	subs	r4, r4, r0
   837e8:	d010      	beq.n	8380c <flash_erase+0x4c>
   837ea:	4626      	mov	r6, r4
   837ec:	f5b4 7f80 	cmp.w	r4, #256	; 0x100
   837f0:	bf28      	it	cs
   837f2:	f44f 7680 	movcs.w	r6, #256	; 0x100
   837f6:	4629      	mov	r1, r5
   837f8:	4a17      	ldr	r2, [pc, #92]	; (83858 <flash_erase+0x98>)
   837fa:	4633      	mov	r3, r6
   837fc:	4638      	mov	r0, r7
   837fe:	f7ff fea1 	bl	83544 <flash_port_write>
   83802:	42b0      	cmp	r0, r6
   83804:	4405      	add	r5, r0
   83806:	d0ee      	beq.n	837e6 <flash_erase+0x26>
   83808:	f04f 34ff 	mov.w	r4, #4294967295	; 0xffffffff
   8380c:	6838      	ldr	r0, [r7, #0]
   8380e:	3028      	adds	r0, #40	; 0x28
   83810:	f008 fe82 	bl	8c518 <mutex_unlock>
   83814:	4620      	mov	r0, r4
   83816:	bdf8      	pop	{r3, r4, r5, r6, r7, pc}
   83818:	4810      	ldr	r0, [pc, #64]	; (8385c <flash_erase+0x9c>)
   8381a:	f009 fad3 	bl	8cdc4 <std_printf>
   8381e:	4b10      	ldr	r3, [pc, #64]	; (83860 <flash_erase+0xa0>)
   83820:	2016      	movs	r0, #22
   83822:	681b      	ldr	r3, [r3, #0]
   83824:	4798      	blx	r3
   83826:	6838      	ldr	r0, [r7, #0]
   83828:	3028      	adds	r0, #40	; 0x28
   8382a:	f008 fe53 	bl	8c4d4 <mutex_lock>
   8382e:	f44f 7280 	mov.w	r2, #256	; 0x100
   83832:	f04f 31ff 	mov.w	r1, #4294967295	; 0xffffffff
   83836:	4808      	ldr	r0, [pc, #32]	; (83858 <flash_erase+0x98>)
   83838:	f00a fddc 	bl	8e3f4 <memset>
   8383c:	6838      	ldr	r0, [r7, #0]
   8383e:	3028      	adds	r0, #40	; 0x28
   83840:	f008 fe6a 	bl	8c518 <mutex_unlock>
   83844:	4620      	mov	r0, r4
   83846:	bdf8      	pop	{r3, r4, r5, r6, r7, pc}
   83848:	4806      	ldr	r0, [pc, #24]	; (83864 <flash_erase+0xa4>)
   8384a:	f009 fabb 	bl	8cdc4 <std_printf>
   8384e:	4b04      	ldr	r3, [pc, #16]	; (83860 <flash_erase+0xa0>)
   83850:	2016      	movs	r0, #22
   83852:	681b      	ldr	r3, [r3, #0]
   83854:	4798      	blx	r3
   83856:	e7b9      	b.n	837cc <flash_erase+0xc>
   83858:	200713d8 	.word	0x200713d8
   8385c:	00093a3c 	.word	0x00093a3c
   83860:	20070860 	.word	0x20070860
   83864:	000939d8 	.word	0x000939d8

00083868 <crc_32>:
   83868:	b530      	push	{r4, r5, lr}
   8386a:	4604      	mov	r4, r0
   8386c:	b083      	sub	sp, #12
   8386e:	b199      	cbz	r1, 83898 <crc_32+0x30>
   83870:	43e0      	mvns	r0, r4
   83872:	b172      	cbz	r2, 83892 <crc_32+0x2a>
   83874:	188d      	adds	r5, r1, r2
   83876:	f811 3b01 	ldrb.w	r3, [r1], #1
   8387a:	2208      	movs	r2, #8
   8387c:	4058      	eors	r0, r3
   8387e:	4b0c      	ldr	r3, [pc, #48]	; (838b0 <crc_32+0x48>)
   83880:	f340 0400 	sbfx	r4, r0, #0, #1
   83884:	4023      	ands	r3, r4
   83886:	3a01      	subs	r2, #1
   83888:	ea83 0050 	eor.w	r0, r3, r0, lsr #1
   8388c:	d1f7      	bne.n	8387e <crc_32+0x16>
   8388e:	42a9      	cmp	r1, r5
   83890:	d1f1      	bne.n	83876 <crc_32+0xe>
   83892:	43c0      	mvns	r0, r0
   83894:	b003      	add	sp, #12
   83896:	bd30      	pop	{r4, r5, pc}
   83898:	4806      	ldr	r0, [pc, #24]	; (838b4 <crc_32+0x4c>)
   8389a:	e88d 0006 	stmia.w	sp, {r1, r2}
   8389e:	f009 fa91 	bl	8cdc4 <std_printf>
   838a2:	4b05      	ldr	r3, [pc, #20]	; (838b8 <crc_32+0x50>)
   838a4:	2016      	movs	r0, #22
   838a6:	681b      	ldr	r3, [r3, #0]
   838a8:	4798      	blx	r3
   838aa:	e89d 0006 	ldmia.w	sp, {r1, r2}
   838ae:	e7df      	b.n	83870 <crc_32+0x8>
   838b0:	edb88320 	.word	0xedb88320
   838b4:	00093a94 	.word	0x00093a94
   838b8:	20070860 	.word	0x20070860

000838bc <crc_8>:
   838bc:	4413      	add	r3, r2
   838be:	429a      	cmp	r2, r3
   838c0:	b430      	push	{r4, r5}
   838c2:	d00c      	beq.n	838de <crc_8+0x22>
   838c4:	f812 5b01 	ldrb.w	r5, [r2], #1
   838c8:	2408      	movs	r4, #8
   838ca:	4068      	eors	r0, r5
   838cc:	07c5      	lsls	r5, r0, #31
   838ce:	bf4c      	ite	mi
   838d0:	ea81 0050 	eormi.w	r0, r1, r0, lsr #1
   838d4:	0840      	lsrpl	r0, r0, #1
   838d6:	3c01      	subs	r4, #1
   838d8:	d1f8      	bne.n	838cc <crc_8+0x10>
   838da:	429a      	cmp	r2, r3
   838dc:	d1f2      	bne.n	838c4 <crc_8+0x8>
   838de:	bc30      	pop	{r4, r5}
   838e0:	4770      	bx	lr
   838e2:	bf00      	nop

000838e4 <cmd_reboot_cb>:
   838e4:	4b01      	ldr	r3, [pc, #4]	; (838ec <cmd_reboot_cb+0x8>)
   838e6:	4a02      	ldr	r2, [pc, #8]	; (838f0 <cmd_reboot_cb+0xc>)
   838e8:	601a      	str	r2, [r3, #0]
   838ea:	e7fe      	b.n	838ea <cmd_reboot_cb+0x6>
   838ec:	400e1a00 	.word	0x400e1a00
   838f0:	a5000005 	.word	0xa5000005

000838f4 <panic_write>:
   838f4:	4610      	mov	r0, r2
   838f6:	4770      	bx	lr

000838f8 <cmd_config_cb>:
   838f8:	b508      	push	{r3, lr}
   838fa:	4610      	mov	r0, r2
   838fc:	4902      	ldr	r1, [pc, #8]	; (83908 <cmd_config_cb+0x10>)
   838fe:	f009 fb25 	bl	8cf4c <std_fprintf>
   83902:	2000      	movs	r0, #0
   83904:	bd08      	pop	{r3, pc}
   83906:	bf00      	nop
   83908:	00093b60 	.word	0x00093b60

0008390c <cmd_info_cb>:
   8390c:	b508      	push	{r3, lr}
   8390e:	4610      	mov	r0, r2
   83910:	4902      	ldr	r1, [pc, #8]	; (8391c <cmd_info_cb+0x10>)
   83912:	f009 fb1b 	bl	8cf4c <std_fprintf>
   83916:	2000      	movs	r0, #0
   83918:	bd08      	pop	{r3, pc}
   8391a:	bf00      	nop
   8391c:	00099a98 	.word	0x00099a98

00083920 <cmd_backtrace_cb>:
   83920:	b510      	push	{r4, lr}
   83922:	4614      	mov	r4, r2
   83924:	4610      	mov	r0, r2
   83926:	4904      	ldr	r1, [pc, #16]	; (83938 <cmd_backtrace_cb+0x18>)
   83928:	f009 fb10 	bl	8cf4c <std_fprintf>
   8392c:	4620      	mov	r0, r4
   8392e:	4903      	ldr	r1, [pc, #12]	; (8393c <cmd_backtrace_cb+0x1c>)
   83930:	f009 fb0c 	bl	8cf4c <std_fprintf>
   83934:	2000      	movs	r0, #0
   83936:	bd10      	pop	{r4, pc}
   83938:	00093c30 	.word	0x00093c30
   8393c:	00097ff0 	.word	0x00097ff0

00083940 <cmd_reset_cause_cb>:
   83940:	b508      	push	{r3, lr}
   83942:	4905      	ldr	r1, [pc, #20]	; (83958 <cmd_reset_cause_cb+0x18>)
   83944:	4b05      	ldr	r3, [pc, #20]	; (8395c <cmd_reset_cause_cb+0x1c>)
   83946:	7a49      	ldrb	r1, [r1, #9]
   83948:	4610      	mov	r0, r2
   8394a:	f853 2021 	ldr.w	r2, [r3, r1, lsl #2]
   8394e:	4904      	ldr	r1, [pc, #16]	; (83960 <cmd_reset_cause_cb+0x20>)
   83950:	f009 fafc 	bl	8cf4c <std_fprintf>
   83954:	2000      	movs	r0, #0
   83956:	bd08      	pop	{r3, pc}
   83958:	200714dc 	.word	0x200714dc
   8395c:	00093e1c 	.word	0x00093e1c
   83960:	00093c3c 	.word	0x00093c3c

00083964 <sys_stop>:
   83964:	b508      	push	{r3, lr}
   83966:	f00a fc15 	bl	8e194 <exit>
   8396a:	bf00      	nop

0008396c <sys_module_init.part.2>:
   8396c:	b538      	push	{r3, r4, r5, lr}
